--- !tapi-tbd-v3
archs:                 [ armv7, armv7s, arm64, arm64e ]
platform:              ios
flags:                 [ flat_namespace ]
install-name:          /System/Library/PrivateFrameworks/iWorkImport.framework/Frameworks/TSStyles.framework/TSStyles
current-version:       1
compatibility-version: 1
objc-constraint:       retain_release
exports:
  - archs:                [ armv7, armv7s, arm64, arm64e ]
    symbols:              [ _TSSBundle, _TSSCaptionTextStylePresetKind,
                            _TSSCharacterStylePresetKind,
                            _TSSChartStylePresetKind, _TSSColorFillPresetKind,
                            _TSSColorPresetKind, _TSSDebugStyleIdentifier,
                            _TSSDebugStyleIdentifierAndName,
                            _TSSDebugStyleIdentifierOrName, _TSSDebugStyleName,
                            _TSSDebugStyleReference,
                            _TSSDebugStyleRelationshipDescription,
                            _TSSDebugStyleStylesheetDescription,
                            _TSSDebugStylesheetDescription,
                            _TSSDescriptionForPresetKind,
                            _TSSDrawingLineStylePresetKind,
                            _TSSDropCapStylePresetKind,
                            _TSSEnableStyleValidation, _TSSExtensionOfStyles,
                            _TSSFullPropertyMapForStyle,
                            _TSSGradientFillPresetKind, _TSSImageFillPresetKind,
                            _TSSImageStylePresetKind,
                            _TSSImportedTextStylePresetKind,
                            _TSSLineStylePresetKind, _TSSListStylePresetKind,
                            _TSSMoveStyleToParentStylesheet,
                            _TSSMovieStylePresetKind,
                            _TSSParagraphStylePresetKind,
                            _TSSPasteboardCat_init_token,
                            _TSSPasteboardCat_log_t, _TSSPresetKindUnknown,
                            _TSSPropertyEntryDescription, _TSSPropertyEntryEqual,
                            _TSSPropertyEntryGetBoxedObjectValue,
                            _TSSPropertyEntryGetDoubleValue,
                            _TSSPropertyEntryGetFloatValue,
                            _TSSPropertyEntryGetIntValue,
                            _TSSPropertyEntryGetObjectValue,
                            _TSSPropertyEntryInit, _TSSPropertyFromString,
                            _TSSPropertyGetType, _TSSPropertyIsValid,
                            _TSSPropertyStoreAddPropertiesFromStore,
                            _TSSPropertyStoreBoxedObjectValueForProperty,
                            _TSSPropertyStoreCGFloatValueForProperty,
                            _TSSPropertyStoreContainsProperty,
                            _TSSPropertyStoreCreate, _TSSPropertyStoreCreateCopy,
                            _TSSPropertyStoreCreateWithPropertiesAndValues,
                            _TSSPropertyStoreDescription,
                            _TSSPropertyStoreDestroy,
                            _TSSPropertyStoreDiffDescription,
                            _TSSPropertyStoreDiffPropertyNames,
                            _TSSPropertyStoreDoubleValueForProperty,
                            _TSSPropertyStoreDump,
                            _TSSPropertyStoreEnumerateEntries,
                            _TSSPropertyStoreEqual,
                            _TSSPropertyStoreFloatValueForProperty,
                            _TSSPropertyStoreGetCount,
                            _TSSPropertyStoreGetProperties,
                            _TSSPropertyStoreHash,
                            _TSSPropertyStoreIntValueForProperty,
                            _TSSPropertyStoreObjectValueForProperty,
                            _TSSPropertyStoreRemoveAllPropertyValues,
                            _TSSPropertyStoreRemovePropertiesFromStore,
                            _TSSPropertyStoreRemoveValueForProperty,
                            _TSSPropertyStoreRemoveValuesForProperties,
                            _TSSPropertyStoreSetBoxedObjectForProperty,
                            _TSSPropertyStoreSetCGFloatValueForProperty,
                            _TSSPropertyStoreSetDoubleValueForProperty,
                            _TSSPropertyStoreSetFloatValueForProperty,
                            _TSSPropertyStoreSetIntValueForProperty,
                            _TSSPropertyStoreSetObjectForProperty,
                            _TSSRegisterPersistentClasses,
                            _TSSRegisterPropertyCommandObjects,
                            _TSSShadowPresetKind, _TSSShapeStylePresetKind,
                            _TSSShouldValidateStyles, _TSSStringFromProperty,
                            _TSSStringFromValueType,
                            _TSSStyleAppendContentTagToIdentifier,
                            _TSSStyleComponentsFromIdentifierString,
                            _TSSStyleContentTagFromIdentifierString,
                            _TSSStyleContentTagFromString,
                            _TSSStyleContentTaggedIdentifierString,
                            _TSSStyleCullingCat, _TSSStyleCullingCat_init_token,
                            _TSSStyleCullingCat_log_t,
                            _TSSStyleDescriptorFromIdentifierString,
                            _TSSStyleIdentifierFollowsPackageConvention,
                            _TSSStyleIdentifierString,
                            _TSSStyleIndexFromIdentifierString,
                            _TSSStyleIsEqualStylesBeingCompared,
                            _TSSStylePackageFromIdentifierString,
                            _TSSStyleRelationshipValid,
                            _TSSStyleSetByIncludingAncestors,
                            _TSSStyleValidationQueue,
                            _TSSStyleValidationSuppressionCount,
                            _TSSStyleValidationSuppressionWarningInterval,
                            _TSSStyleValidationSupressTime,
                            _TSSStylesLogCategory,
                            _TSSStylesLogCategory_init_token,
                            _TSSStylesLogCategory_log_t,
                            _TSSStylesheetDelayedArchivingPriority,
                            _TSSSuppressStyleValidation,
                            _TSSTOCEntryStylePresetKind,
                            _TSSTOCSettingsPresetKind, _TSSTableStrokePresetKind,
                            _TSSTableStylePresetKind, _TSSTextStylePresetKind,
                            _TSSTextboxStylePresetKind,
                            _TSSValidPropertyFromString,
                            _TSSValidStringFromProperty,
                            _TSWPEquationStylePresetKind,
                            _TSWPFieldEditorPresetKind,
                            __Z13saveToArchiveP7NSArrayRN6google8protobuf13RepeatedFieldIbEEP11TSPArchiver,
                            __Z13saveToArchiveP7NSArrayRN6google8protobuf13RepeatedFieldIfEEP11TSPArchiver,
                            __Z13saveToArchiveP7NSArrayRN6google8protobuf13RepeatedFieldIiEEP11TSPArchiver,
                            __Z13saveToArchiveP7NSArrayRN6google8protobuf16RepeatedPtrFieldINSt3__112basic_stringIcNS4_11char_traitsIcEENS4_9allocatorIcEEEEEEP11TSPArchiver,
                            __Z15loadFromArchiveRKN6google8protobuf13RepeatedFieldIbEEP13TSPUnarchiver,
                            __Z15loadFromArchiveRKN6google8protobuf13RepeatedFieldIfEEP13TSPUnarchiver,
                            __Z15loadFromArchiveRKN6google8protobuf13RepeatedFieldIiEEP13TSPUnarchiver,
                            __Z15loadFromArchiveRKN6google8protobuf16RepeatedPtrFieldINSt3__112basic_stringIcNS2_11char_traitsIcEENS2_9allocatorIcEEEEEEP13TSPUnarchiver,
                            __ZN31TableStruct_TSSArchives_2eproto7offsetsE,
                            __ZN37TableStruct_TSSArchives_2esos_2eproto7offsetsE,
                            __ZN3TSS12StyleArchive12InternalSwapEPS0_,
                            __ZN3TSS12StyleArchive12clear_parentEv,
                            __ZN3TSS12StyleArchive14_InternalParseEPKcPN6google8protobuf8internal12ParseContextE,
                            __ZN3TSS12StyleArchive16clear_stylesheetEv,
                            __ZN3TSS12StyleArchive16default_instanceEv,
                            __ZN3TSS12StyleArchive5ClearEv,
                            __ZN3TSS12StyleArchive8CopyFromERKN6google8protobuf7MessageE,
                            __ZN3TSS12StyleArchive8CopyFromERKS0_,
                            __ZN3TSS12StyleArchive9ArenaDtorEPv,
                            __ZN3TSS12StyleArchive9MergeFromERKN6google8protobuf7MessageE,
                            __ZN3TSS12StyleArchive9MergeFromERKS0_,
                            __ZN3TSS12StyleArchive9_Internal10stylesheetEPKS0_,
                            __ZN3TSS12StyleArchive9_Internal6parentEPKS0_,
                            __ZN3TSS12StyleArchiveC1EPN6google8protobuf5ArenaE,
                            __ZN3TSS12StyleArchiveC1ERKS0_,
                            __ZN3TSS12StyleArchiveC2EPN6google8protobuf5ArenaE,
                            __ZN3TSS12StyleArchiveC2ERKS0_,
                            __ZN3TSS12StyleArchiveD0Ev,
                            __ZN3TSS12StyleArchiveD1Ev,
                            __ZN3TSS12StyleArchiveD2Ev,
                            __ZN3TSS12ThemeArchive12InternalSwapEPS0_,
                            __ZN3TSS12ThemeArchive14_InternalParseEPKcPN6google8protobuf8internal12ParseContextE,
                            __ZN3TSS12ThemeArchive16default_instanceEv,
                            __ZN3TSS12ThemeArchive19clear_color_presetsEv,
                            __ZN3TSS12ThemeArchive23clear_legacy_stylesheetEv,
                            __ZN3TSS12ThemeArchive25clear_document_stylesheetEv,
                            __ZN3TSS12ThemeArchive39clear_new_uuids_for_preset_replacementsEv,
                            __ZN3TSS12ThemeArchive39clear_old_uuids_for_preset_replacementsEv,
                            __ZN3TSS12ThemeArchive5ClearEv,
                            __ZN3TSS12ThemeArchive8CopyFromERKN6google8protobuf7MessageE,
                            __ZN3TSS12ThemeArchive8CopyFromERKS0_,
                            __ZN3TSS12ThemeArchive9ArenaDtorEPv,
                            __ZN3TSS12ThemeArchive9MergeFromERKN6google8protobuf7MessageE,
                            __ZN3TSS12ThemeArchive9MergeFromERKS0_,
                            __ZN3TSS12ThemeArchive9_Internal17legacy_stylesheetEPKS0_,
                            __ZN3TSS12ThemeArchive9_Internal19document_stylesheetEPKS0_,
                            __ZN3TSS12ThemeArchiveC1EPN6google8protobuf5ArenaE,
                            __ZN3TSS12ThemeArchiveC1ERKS0_,
                            __ZN3TSS12ThemeArchiveC2EPN6google8protobuf5ArenaE,
                            __ZN3TSS12ThemeArchiveC2ERKS0_,
                            __ZN3TSS12ThemeArchiveD0Ev,
                            __ZN3TSS12ThemeArchiveD1Ev,
                            __ZN3TSS12ThemeArchiveD2Ev,
                            __ZN3TSS17StylesheetArchive12InternalSwapEPS0_,
                            __ZN3TSS17StylesheetArchive12clear_parentEv,
                            __ZN3TSS17StylesheetArchive12clear_stylesEv,
                            __ZN3TSS17StylesheetArchive14_InternalParseEPKcPN6google8protobuf8internal12ParseContextE,
                            __ZN3TSS17StylesheetArchive16default_instanceEv,
                            __ZN3TSS17StylesheetArchive5ClearEv,
                            __ZN3TSS17StylesheetArchive8CopyFromERKN6google8protobuf7MessageE,
                            __ZN3TSS17StylesheetArchive8CopyFromERKS0_,
                            __ZN3TSS17StylesheetArchive9ArenaDtorEPv,
                            __ZN3TSS17StylesheetArchive9MergeFromERKN6google8protobuf7MessageE,
                            __ZN3TSS17StylesheetArchive9MergeFromERKS0_,
                            __ZN3TSS17StylesheetArchive9_Internal15styles_for_10_0EPKS0_,
                            __ZN3TSS17StylesheetArchive9_Internal15styles_for_10_1EPKS0_,
                            __ZN3TSS17StylesheetArchive9_Internal15styles_for_10_2EPKS0_,
                            __ZN3TSS17StylesheetArchive9_Internal15styles_for_11_0EPKS0_,
                            __ZN3TSS17StylesheetArchive9_Internal15styles_for_11_1EPKS0_,
                            __ZN3TSS17StylesheetArchive9_Internal15styles_for_11_2EPKS0_,
                            __ZN3TSS17StylesheetArchive9_Internal15styles_for_12_0EPKS0_,
                            __ZN3TSS17StylesheetArchive9_Internal6parentEPKS0_,
                            __ZN3TSS17StylesheetArchiveC1EPN6google8protobuf5ArenaE,
                            __ZN3TSS17StylesheetArchiveC1ERKS0_,
                            __ZN3TSS17StylesheetArchiveC2EPN6google8protobuf5ArenaE,
                            __ZN3TSS17StylesheetArchiveC2ERKS0_,
                            __ZN3TSS17StylesheetArchiveD0Ev,
                            __ZN3TSS17StylesheetArchiveD1Ev,
                            __ZN3TSS17StylesheetArchiveD2Ev,
                            __ZN3TSS17ValueType_IsValidEi,
                            __ZN3TSS20PropertyType_IsValidEi,
                            __ZN3TSS20ValueType_descriptorEv,
                            __ZN3TSS23PropertyType_descriptorEv,
                            __ZN3TSS24ApplyThemeCommandArchive11clear_superEv,
                            __ZN3TSS24ApplyThemeCommandArchive12InternalSwapEPS0_,
                            __ZN3TSS24ApplyThemeCommandArchive14_InternalParseEPKcPN6google8protobuf8internal12ParseContextE,
                            __ZN3TSS24ApplyThemeCommandArchive14clear_commandsEv,
                            __ZN3TSS24ApplyThemeCommandArchive15clear_new_themeEv,
                            __ZN3TSS24ApplyThemeCommandArchive15clear_old_themeEv,
                            __ZN3TSS24ApplyThemeCommandArchive16default_instanceEv,
                            __ZN3TSS24ApplyThemeCommandArchive5ClearEv,
                            __ZN3TSS24ApplyThemeCommandArchive8CopyFromERKN6google8protobuf7MessageE,
                            __ZN3TSS24ApplyThemeCommandArchive8CopyFromERKS0_,
                            __ZN3TSS24ApplyThemeCommandArchive9ArenaDtorEPv,
                            __ZN3TSS24ApplyThemeCommandArchive9MergeFromERKN6google8protobuf7MessageE,
                            __ZN3TSS24ApplyThemeCommandArchive9MergeFromERKS0_,
                            __ZN3TSS24ApplyThemeCommandArchive9_Internal5superEPKS0_,
                            __ZN3TSS24ApplyThemeCommandArchive9_Internal9new_themeEPKS0_,
                            __ZN3TSS24ApplyThemeCommandArchive9_Internal9old_themeEPKS0_,
                            __ZN3TSS24ApplyThemeCommandArchiveC1EPN6google8protobuf5ArenaE,
                            __ZN3TSS24ApplyThemeCommandArchiveC1ERKS0_,
                            __ZN3TSS24ApplyThemeCommandArchiveC2EPN6google8protobuf5ArenaE,
                            __ZN3TSS24ApplyThemeCommandArchiveC2ERKS0_,
                            __ZN3TSS24ApplyThemeCommandArchiveD0Ev,
                            __ZN3TSS24ApplyThemeCommandArchiveD1Ev,
                            __ZN3TSS24ApplyThemeCommandArchiveD2Ev,
                            __ZN3TSS25CommandPropertyMapArchive12InternalSwapEPS0_,
                            __ZN3TSS25CommandPropertyMapArchive14_InternalParseEPKcPN6google8protobuf8internal12ParseContextE,
                            __ZN3TSS25CommandPropertyMapArchive16default_instanceEv,
                            __ZN3TSS25CommandPropertyMapArchive5ClearEv,
                            __ZN3TSS25CommandPropertyMapArchive8CopyFromERKN6google8protobuf7MessageE,
                            __ZN3TSS25CommandPropertyMapArchive8CopyFromERKS0_,
                            __ZN3TSS25CommandPropertyMapArchive9ArenaDtorEPv,
                            __ZN3TSS25CommandPropertyMapArchive9MergeFromERKN6google8protobuf7MessageE,
                            __ZN3TSS25CommandPropertyMapArchive9MergeFromERKS0_,
                            __ZN3TSS25CommandPropertyMapArchiveC1EPN6google8protobuf5ArenaE,
                            __ZN3TSS25CommandPropertyMapArchiveC1ERKS0_,
                            __ZN3TSS25CommandPropertyMapArchiveC2EPN6google8protobuf5ArenaE,
                            __ZN3TSS25CommandPropertyMapArchiveC2ERKS0_,
                            __ZN3TSS25CommandPropertyMapArchiveD0Ev,
                            __ZN3TSS25CommandPropertyMapArchiveD1Ev,
                            __ZN3TSS25CommandPropertyMapArchiveD2Ev,
                            __ZN3TSS27CommandPropertyEntryArchive12InternalSwapEPS0_,
                            __ZN3TSS27CommandPropertyEntryArchive14_InternalParseEPKcPN6google8protobuf8internal12ParseContextE,
                            __ZN3TSS27CommandPropertyEntryArchive16default_instanceEv,
                            __ZN3TSS27CommandPropertyEntryArchive19clear_tsp_referenceEv,
                            __ZN3TSS27CommandPropertyEntryArchive5ClearEv,
                            __ZN3TSS27CommandPropertyEntryArchive8CopyFromERKN6google8protobuf7MessageE,
                            __ZN3TSS27CommandPropertyEntryArchive8CopyFromERKS0_,
                            __ZN3TSS27CommandPropertyEntryArchive9ArenaDtorEPv,
                            __ZN3TSS27CommandPropertyEntryArchive9MergeFromERKN6google8protobuf7MessageE,
                            __ZN3TSS27CommandPropertyEntryArchive9MergeFromERKS0_,
                            __ZN3TSS27CommandPropertyEntryArchive9_Internal13tsp_referenceEPKS0_,
                            __ZN3TSS27CommandPropertyEntryArchiveC1EPN6google8protobuf5ArenaE,
                            __ZN3TSS27CommandPropertyEntryArchiveC1ERKS0_,
                            __ZN3TSS27CommandPropertyEntryArchiveC2EPN6google8protobuf5ArenaE,
                            __ZN3TSS27CommandPropertyEntryArchiveC2ERKS0_,
                            __ZN3TSS27CommandPropertyEntryArchiveD0Ev,
                            __ZN3TSS27CommandPropertyEntryArchiveD1Ev,
                            __ZN3TSS27CommandPropertyEntryArchiveD2Ev,
                            __ZN3TSS29ApplyThemeChildCommandArchive11clear_superEv,
                            __ZN3TSS29ApplyThemeChildCommandArchive12InternalSwapEPS0_,
                            __ZN3TSS29ApplyThemeChildCommandArchive12clear_parentEv,
                            __ZN3TSS29ApplyThemeChildCommandArchive14_InternalParseEPKcPN6google8protobuf8internal12ParseContextE,
                            __ZN3TSS29ApplyThemeChildCommandArchive16default_instanceEv,
                            __ZN3TSS29ApplyThemeChildCommandArchive5ClearEv,
                            __ZN3TSS29ApplyThemeChildCommandArchive8CopyFromERKN6google8protobuf7MessageE,
                            __ZN3TSS29ApplyThemeChildCommandArchive8CopyFromERKS0_,
                            __ZN3TSS29ApplyThemeChildCommandArchive9ArenaDtorEPv,
                            __ZN3TSS29ApplyThemeChildCommandArchive9MergeFromERKN6google8protobuf7MessageE,
                            __ZN3TSS29ApplyThemeChildCommandArchive9MergeFromERKS0_,
                            __ZN3TSS29ApplyThemeChildCommandArchive9_Internal5superEPKS0_,
                            __ZN3TSS29ApplyThemeChildCommandArchive9_Internal6parentEPKS0_,
                            __ZN3TSS29ApplyThemeChildCommandArchiveC1EPN6google8protobuf5ArenaE,
                            __ZN3TSS29ApplyThemeChildCommandArchiveC1ERKS0_,
                            __ZN3TSS29ApplyThemeChildCommandArchiveC2EPN6google8protobuf5ArenaE,
                            __ZN3TSS29ApplyThemeChildCommandArchiveC2ERKS0_,
                            __ZN3TSS29ApplyThemeChildCommandArchiveD0Ev,
                            __ZN3TSS29ApplyThemeChildCommandArchiveD1Ev,
                            __ZN3TSS29ApplyThemeChildCommandArchiveD2Ev,
                            __ZN3TSS29ThemeMovePresetCommandArchive11clear_superEv,
                            __ZN3TSS29ThemeMovePresetCommandArchive11clear_themeEv,
                            __ZN3TSS29ThemeMovePresetCommandArchive12InternalSwapEPS0_,
                            __ZN3TSS29ThemeMovePresetCommandArchive14_InternalParseEPKcPN6google8protobuf8internal12ParseContextE,
                            __ZN3TSS29ThemeMovePresetCommandArchive15clear_preset_idEv,
                            __ZN3TSS29ThemeMovePresetCommandArchive16default_instanceEv,
                            __ZN3TSS29ThemeMovePresetCommandArchive5ClearEv,
                            __ZN3TSS29ThemeMovePresetCommandArchive8CopyFromERKN6google8protobuf7MessageE,
                            __ZN3TSS29ThemeMovePresetCommandArchive8CopyFromERKS0_,
                            __ZN3TSS29ThemeMovePresetCommandArchive9ArenaDtorEPv,
                            __ZN3TSS29ThemeMovePresetCommandArchive9MergeFromERKN6google8protobuf7MessageE,
                            __ZN3TSS29ThemeMovePresetCommandArchive9MergeFromERKS0_,
                            __ZN3TSS29ThemeMovePresetCommandArchive9_Internal5superEPKS0_,
                            __ZN3TSS29ThemeMovePresetCommandArchive9_Internal5themeEPKS0_,
                            __ZN3TSS29ThemeMovePresetCommandArchive9_Internal9preset_idEPKS0_,
                            __ZN3TSS29ThemeMovePresetCommandArchiveC1EPN6google8protobuf5ArenaE,
                            __ZN3TSS29ThemeMovePresetCommandArchiveC1ERKS0_,
                            __ZN3TSS29ThemeMovePresetCommandArchiveC2EPN6google8protobuf5ArenaE,
                            __ZN3TSS29ThemeMovePresetCommandArchiveC2ERKS0_,
                            __ZN3TSS29ThemeMovePresetCommandArchiveD0Ev,
                            __ZN3TSS29ThemeMovePresetCommandArchiveD1Ev,
                            __ZN3TSS29ThemeMovePresetCommandArchiveD2Ev,
                            __ZN3TSS31_StyleArchive_default_instance_E,
                            __ZN3TSS31_ThemeArchive_default_instance_E,
                            __ZN3TSS32ThemeReplacePresetCommandArchive11clear_superEv,
                            __ZN3TSS32ThemeReplacePresetCommandArchive12InternalSwapEPS0_,
                            __ZN3TSS32ThemeReplacePresetCommandArchive12clear_presetEv,
                            __ZN3TSS32ThemeReplacePresetCommandArchive14_InternalParseEPKcPN6google8protobuf8internal12ParseContextE,
                            __ZN3TSS32ThemeReplacePresetCommandArchive15clear_oldpresetEv,
                            __ZN3TSS32ThemeReplacePresetCommandArchive16default_instanceEv,
                            __ZN3TSS32ThemeReplacePresetCommandArchive5ClearEv,
                            __ZN3TSS32ThemeReplacePresetCommandArchive8CopyFromERKN6google8protobuf7MessageE,
                            __ZN3TSS32ThemeReplacePresetCommandArchive8CopyFromERKS0_,
                            __ZN3TSS32ThemeReplacePresetCommandArchive9ArenaDtorEPv,
                            __ZN3TSS32ThemeReplacePresetCommandArchive9MergeFromERKN6google8protobuf7MessageE,
                            __ZN3TSS32ThemeReplacePresetCommandArchive9MergeFromERKS0_,
                            __ZN3TSS32ThemeReplacePresetCommandArchive9_Internal5superEPKS0_,
                            __ZN3TSS32ThemeReplacePresetCommandArchive9_Internal6presetEPKS0_,
                            __ZN3TSS32ThemeReplacePresetCommandArchive9_Internal9oldpresetEPKS0_,
                            __ZN3TSS32ThemeReplacePresetCommandArchiveC1EPN6google8protobuf5ArenaE,
                            __ZN3TSS32ThemeReplacePresetCommandArchiveC1ERKS0_,
                            __ZN3TSS32ThemeReplacePresetCommandArchiveC2EPN6google8protobuf5ArenaE,
                            __ZN3TSS32ThemeReplacePresetCommandArchiveC2ERKS0_,
                            __ZN3TSS32ThemeReplacePresetCommandArchiveD0Ev,
                            __ZN3TSS32ThemeReplacePresetCommandArchiveD1Ev,
                            __ZN3TSS32ThemeReplacePresetCommandArchiveD2Ev,
                            __ZN3TSS33StylesheetArchive_VersionedStyles12InternalSwapEPS0_,
                            __ZN3TSS33StylesheetArchive_VersionedStyles12clear_stylesEv,
                            __ZN3TSS33StylesheetArchive_VersionedStyles14_InternalParseEPKcPN6google8protobuf8internal12ParseContextE,
                            __ZN3TSS33StylesheetArchive_VersionedStyles16default_instanceEv,
                            __ZN3TSS33StylesheetArchive_VersionedStyles5ClearEv,
                            __ZN3TSS33StylesheetArchive_VersionedStyles8CopyFromERKN6google8protobuf7MessageE,
                            __ZN3TSS33StylesheetArchive_VersionedStyles8CopyFromERKS0_,
                            __ZN3TSS33StylesheetArchive_VersionedStyles9ArenaDtorEPv,
                            __ZN3TSS33StylesheetArchive_VersionedStyles9MergeFromERKN6google8protobuf7MessageE,
                            __ZN3TSS33StylesheetArchive_VersionedStyles9MergeFromERKS0_,
                            __ZN3TSS33StylesheetArchive_VersionedStylesC1EPN6google8protobuf5ArenaE,
                            __ZN3TSS33StylesheetArchive_VersionedStylesC1ERKS0_,
                            __ZN3TSS33StylesheetArchive_VersionedStylesC2EPN6google8protobuf5ArenaE,
                            __ZN3TSS33StylesheetArchive_VersionedStylesC2ERKS0_,
                            __ZN3TSS33StylesheetArchive_VersionedStylesD0Ev,
                            __ZN3TSS33StylesheetArchive_VersionedStylesD1Ev,
                            __ZN3TSS33StylesheetArchive_VersionedStylesD2Ev,
                            __ZN3TSS33ThemeAddStylePresetCommandArchive11clear_superEv,
                            __ZN3TSS33ThemeAddStylePresetCommandArchive11clear_themeEv,
                            __ZN3TSS33ThemeAddStylePresetCommandArchive12InternalSwapEPS0_,
                            __ZN3TSS33ThemeAddStylePresetCommandArchive12clear_presetEv,
                            __ZN3TSS33ThemeAddStylePresetCommandArchive14_InternalParseEPKcPN6google8protobuf8internal12ParseContextE,
                            __ZN3TSS33ThemeAddStylePresetCommandArchive16default_instanceEv,
                            __ZN3TSS33ThemeAddStylePresetCommandArchive5ClearEv,
                            __ZN3TSS33ThemeAddStylePresetCommandArchive8CopyFromERKN6google8protobuf7MessageE,
                            __ZN3TSS33ThemeAddStylePresetCommandArchive8CopyFromERKS0_,
                            __ZN3TSS33ThemeAddStylePresetCommandArchive9ArenaDtorEPv,
                            __ZN3TSS33ThemeAddStylePresetCommandArchive9MergeFromERKN6google8protobuf7MessageE,
                            __ZN3TSS33ThemeAddStylePresetCommandArchive9MergeFromERKS0_,
                            __ZN3TSS33ThemeAddStylePresetCommandArchive9_Internal5superEPKS0_,
                            __ZN3TSS33ThemeAddStylePresetCommandArchive9_Internal5themeEPKS0_,
                            __ZN3TSS33ThemeAddStylePresetCommandArchive9_Internal6presetEPKS0_,
                            __ZN3TSS33ThemeAddStylePresetCommandArchiveC1EPN6google8protobuf5ArenaE,
                            __ZN3TSS33ThemeAddStylePresetCommandArchiveC1ERKS0_,
                            __ZN3TSS33ThemeAddStylePresetCommandArchiveC2EPN6google8protobuf5ArenaE,
                            __ZN3TSS33ThemeAddStylePresetCommandArchiveC2ERKS0_,
                            __ZN3TSS33ThemeAddStylePresetCommandArchiveD0Ev,
                            __ZN3TSS33ThemeAddStylePresetCommandArchiveD1Ev,
                            __ZN3TSS33ThemeAddStylePresetCommandArchiveD2Ev,
                            __ZN3TSS36StyleUpdatePropertyMapCommandArchive11clear_superEv,
                            __ZN3TSS36StyleUpdatePropertyMapCommandArchive12InternalSwapEPS0_,
                            __ZN3TSS36StyleUpdatePropertyMapCommandArchive14_InternalParseEPKcPN6google8protobuf8internal12ParseContextE,
                            __ZN3TSS36StyleUpdatePropertyMapCommandArchive16clear_style_diffEv,
                            __ZN3TSS36StyleUpdatePropertyMapCommandArchive16default_instanceEv,
                            __ZN3TSS36StyleUpdatePropertyMapCommandArchive19clear_current_styleEv,
                            __ZN3TSS36StyleUpdatePropertyMapCommandArchive33clear_style_with_new_property_mapEv,
                            __ZN3TSS36StyleUpdatePropertyMapCommandArchive33clear_style_with_old_property_mapEv,
                            __ZN3TSS36StyleUpdatePropertyMapCommandArchive5ClearEv,
                            __ZN3TSS36StyleUpdatePropertyMapCommandArchive8CopyFromERKN6google8protobuf7MessageE,
                            __ZN3TSS36StyleUpdatePropertyMapCommandArchive8CopyFromERKS0_,
                            __ZN3TSS36StyleUpdatePropertyMapCommandArchive9ArenaDtorEPv,
                            __ZN3TSS36StyleUpdatePropertyMapCommandArchive9MergeFromERKN6google8protobuf7MessageE,
                            __ZN3TSS36StyleUpdatePropertyMapCommandArchive9MergeFromERKS0_,
                            __ZN3TSS36StyleUpdatePropertyMapCommandArchive9_Internal10style_diffEPKS0_,
                            __ZN3TSS36StyleUpdatePropertyMapCommandArchive9_Internal13current_styleEPKS0_,
                            __ZN3TSS36StyleUpdatePropertyMapCommandArchive9_Internal27style_with_new_property_mapEPKS0_,
                            __ZN3TSS36StyleUpdatePropertyMapCommandArchive9_Internal27style_with_old_property_mapEPKS0_,
                            __ZN3TSS36StyleUpdatePropertyMapCommandArchive9_Internal5superEPKS0_,
                            __ZN3TSS36StyleUpdatePropertyMapCommandArchiveC1EPN6google8protobuf5ArenaE,
                            __ZN3TSS36StyleUpdatePropertyMapCommandArchiveC1ERKS0_,
                            __ZN3TSS36StyleUpdatePropertyMapCommandArchiveC2EPN6google8protobuf5ArenaE,
                            __ZN3TSS36StyleUpdatePropertyMapCommandArchiveC2ERKS0_,
                            __ZN3TSS36StyleUpdatePropertyMapCommandArchiveD0Ev,
                            __ZN3TSS36StyleUpdatePropertyMapCommandArchiveD1Ev,
                            __ZN3TSS36StyleUpdatePropertyMapCommandArchiveD2Ev,
                            __ZN3TSS36StylesheetArchive_StyleChildrenEntry12InternalSwapEPS0_,
                            __ZN3TSS36StylesheetArchive_StyleChildrenEntry12clear_parentEv,
                            __ZN3TSS36StylesheetArchive_StyleChildrenEntry14_InternalParseEPKcPN6google8protobuf8internal12ParseContextE,
                            __ZN3TSS36StylesheetArchive_StyleChildrenEntry14clear_childrenEv,
                            __ZN3TSS36StylesheetArchive_StyleChildrenEntry16default_instanceEv,
                            __ZN3TSS36StylesheetArchive_StyleChildrenEntry5ClearEv,
                            __ZN3TSS36StylesheetArchive_StyleChildrenEntry8CopyFromERKN6google8protobuf7MessageE,
                            __ZN3TSS36StylesheetArchive_StyleChildrenEntry8CopyFromERKS0_,
                            __ZN3TSS36StylesheetArchive_StyleChildrenEntry9ArenaDtorEPv,
                            __ZN3TSS36StylesheetArchive_StyleChildrenEntry9MergeFromERKN6google8protobuf7MessageE,
                            __ZN3TSS36StylesheetArchive_StyleChildrenEntry9MergeFromERKS0_,
                            __ZN3TSS36StylesheetArchive_StyleChildrenEntry9_Internal6parentEPKS0_,
                            __ZN3TSS36StylesheetArchive_StyleChildrenEntryC1EPN6google8protobuf5ArenaE,
                            __ZN3TSS36StylesheetArchive_StyleChildrenEntryC1ERKS0_,
                            __ZN3TSS36StylesheetArchive_StyleChildrenEntryC2EPN6google8protobuf5ArenaE,
                            __ZN3TSS36StylesheetArchive_StyleChildrenEntryC2ERKS0_,
                            __ZN3TSS36StylesheetArchive_StyleChildrenEntryD0Ev,
                            __ZN3TSS36StylesheetArchive_StyleChildrenEntryD1Ev,
                            __ZN3TSS36StylesheetArchive_StyleChildrenEntryD2Ev,
                            __ZN3TSS36ThemeRemoveStylePresetCommandArchive11clear_superEv,
                            __ZN3TSS36ThemeRemoveStylePresetCommandArchive11clear_themeEv,
                            __ZN3TSS36ThemeRemoveStylePresetCommandArchive12InternalSwapEPS0_,
                            __ZN3TSS36ThemeRemoveStylePresetCommandArchive12clear_presetEv,
                            __ZN3TSS36ThemeRemoveStylePresetCommandArchive14_InternalParseEPKcPN6google8protobuf8internal12ParseContextE,
                            __ZN3TSS36ThemeRemoveStylePresetCommandArchive16default_instanceEv,
                            __ZN3TSS36ThemeRemoveStylePresetCommandArchive24clear_replacement_presetEv,
                            __ZN3TSS36ThemeRemoveStylePresetCommandArchive5ClearEv,
                            __ZN3TSS36ThemeRemoveStylePresetCommandArchive8CopyFromERKN6google8protobuf7MessageE,
                            __ZN3TSS36ThemeRemoveStylePresetCommandArchive8CopyFromERKS0_,
                            __ZN3TSS36ThemeRemoveStylePresetCommandArchive9ArenaDtorEPv,
                            __ZN3TSS36ThemeRemoveStylePresetCommandArchive9MergeFromERKN6google8protobuf7MessageE,
                            __ZN3TSS36ThemeRemoveStylePresetCommandArchive9MergeFromERKS0_,
                            __ZN3TSS36ThemeRemoveStylePresetCommandArchive9_Internal18replacement_presetEPKS0_,
                            __ZN3TSS36ThemeRemoveStylePresetCommandArchive9_Internal5superEPKS0_,
                            __ZN3TSS36ThemeRemoveStylePresetCommandArchive9_Internal5themeEPKS0_,
                            __ZN3TSS36ThemeRemoveStylePresetCommandArchive9_Internal6presetEPKS0_,
                            __ZN3TSS36ThemeRemoveStylePresetCommandArchiveC1EPN6google8protobuf5ArenaE,
                            __ZN3TSS36ThemeRemoveStylePresetCommandArchiveC1ERKS0_,
                            __ZN3TSS36ThemeRemoveStylePresetCommandArchiveC2EPN6google8protobuf5ArenaE,
                            __ZN3TSS36ThemeRemoveStylePresetCommandArchiveC2ERKS0_,
                            __ZN3TSS36ThemeRemoveStylePresetCommandArchiveD0Ev,
                            __ZN3TSS36ThemeRemoveStylePresetCommandArchiveD1Ev,
                            __ZN3TSS36ThemeRemoveStylePresetCommandArchiveD2Ev,
                            __ZN3TSS36_StylesheetArchive_default_instance_E,
                            __ZN3TSS37ThemeReplaceColorPresetCommandArchive11clear_colorEv,
                            __ZN3TSS37ThemeReplaceColorPresetCommandArchive11clear_superEv,
                            __ZN3TSS37ThemeReplaceColorPresetCommandArchive11clear_themeEv,
                            __ZN3TSS37ThemeReplaceColorPresetCommandArchive12InternalSwapEPS0_,
                            __ZN3TSS37ThemeReplaceColorPresetCommandArchive14_InternalParseEPKcPN6google8protobuf8internal12ParseContextE,
                            __ZN3TSS37ThemeReplaceColorPresetCommandArchive15clear_old_colorEv,
                            __ZN3TSS37ThemeReplaceColorPresetCommandArchive16default_instanceEv,
                            __ZN3TSS37ThemeReplaceColorPresetCommandArchive5ClearEv,
                            __ZN3TSS37ThemeReplaceColorPresetCommandArchive8CopyFromERKN6google8protobuf7MessageE,
                            __ZN3TSS37ThemeReplaceColorPresetCommandArchive8CopyFromERKS0_,
                            __ZN3TSS37ThemeReplaceColorPresetCommandArchive9ArenaDtorEPv,
                            __ZN3TSS37ThemeReplaceColorPresetCommandArchive9MergeFromERKN6google8protobuf7MessageE,
                            __ZN3TSS37ThemeReplaceColorPresetCommandArchive9MergeFromERKS0_,
                            __ZN3TSS37ThemeReplaceColorPresetCommandArchive9_Internal5colorEPKS0_,
                            __ZN3TSS37ThemeReplaceColorPresetCommandArchive9_Internal5superEPKS0_,
                            __ZN3TSS37ThemeReplaceColorPresetCommandArchive9_Internal5themeEPKS0_,
                            __ZN3TSS37ThemeReplaceColorPresetCommandArchive9_Internal9old_colorEPKS0_,
                            __ZN3TSS37ThemeReplaceColorPresetCommandArchiveC1EPN6google8protobuf5ArenaE,
                            __ZN3TSS37ThemeReplaceColorPresetCommandArchiveC1ERKS0_,
                            __ZN3TSS37ThemeReplaceColorPresetCommandArchiveC2EPN6google8protobuf5ArenaE,
                            __ZN3TSS37ThemeReplaceColorPresetCommandArchiveC2ERKS0_,
                            __ZN3TSS37ThemeReplaceColorPresetCommandArchiveD0Ev,
                            __ZN3TSS37ThemeReplaceColorPresetCommandArchiveD1Ev,
                            __ZN3TSS37ThemeReplaceColorPresetCommandArchiveD2Ev,
                            __ZN3TSS38StylesheetArchive_IdentifiedStyleEntry11clear_styleEv,
                            __ZN3TSS38StylesheetArchive_IdentifiedStyleEntry12InternalSwapEPS0_,
                            __ZN3TSS38StylesheetArchive_IdentifiedStyleEntry14_InternalParseEPKcPN6google8protobuf8internal12ParseContextE,
                            __ZN3TSS38StylesheetArchive_IdentifiedStyleEntry16default_instanceEv,
                            __ZN3TSS38StylesheetArchive_IdentifiedStyleEntry5ClearEv,
                            __ZN3TSS38StylesheetArchive_IdentifiedStyleEntry8CopyFromERKN6google8protobuf7MessageE,
                            __ZN3TSS38StylesheetArchive_IdentifiedStyleEntry8CopyFromERKS0_,
                            __ZN3TSS38StylesheetArchive_IdentifiedStyleEntry9ArenaDtorEPv,
                            __ZN3TSS38StylesheetArchive_IdentifiedStyleEntry9MergeFromERKN6google8protobuf7MessageE,
                            __ZN3TSS38StylesheetArchive_IdentifiedStyleEntry9MergeFromERKS0_,
                            __ZN3TSS38StylesheetArchive_IdentifiedStyleEntry9_Internal5styleEPKS0_,
                            __ZN3TSS38StylesheetArchive_IdentifiedStyleEntryC1EPN6google8protobuf5ArenaE,
                            __ZN3TSS38StylesheetArchive_IdentifiedStyleEntryC1ERKS0_,
                            __ZN3TSS38StylesheetArchive_IdentifiedStyleEntryC2EPN6google8protobuf5ArenaE,
                            __ZN3TSS38StylesheetArchive_IdentifiedStyleEntryC2ERKS0_,
                            __ZN3TSS38StylesheetArchive_IdentifiedStyleEntryD0Ev,
                            __ZN3TSS38StylesheetArchive_IdentifiedStyleEntryD1Ev,
                            __ZN3TSS38StylesheetArchive_IdentifiedStyleEntryD2Ev,
                            __ZN3TSS43_ApplyThemeCommandArchive_default_instance_E,
                            __ZN3TSS44_CommandPropertyMapArchive_default_instance_E,
                            __ZN3TSS46_CommandPropertyEntryArchive_default_instance_E,
                            __ZN3TSS48_ApplyThemeChildCommandArchive_default_instance_E,
                            __ZN3TSS48_ThemeMovePresetCommandArchive_default_instance_E,
                            __ZN3TSS51_ThemeReplacePresetCommandArchive_default_instance_E,
                            __ZN3TSS52_StylesheetArchive_VersionedStyles_default_instance_E,
                            __ZN3TSS52_ThemeAddStylePresetCommandArchive_default_instance_E,
                            __ZN3TSS55_StyleUpdatePropertyMapCommandArchive_default_instance_E,
                            __ZN3TSS55_StylesheetArchive_StyleChildrenEntry_default_instance_E,
                            __ZN3TSS55_ThemeRemoveStylePresetCommandArchive_default_instance_E,
                            __ZN3TSS56ThemeReplaceStylePresetAndDisconnectStylesCommandArchive11clear_superEv,
                            __ZN3TSS56ThemeReplaceStylePresetAndDisconnectStylesCommandArchive12InternalSwapEPS0_,
                            __ZN3TSS56ThemeReplaceStylePresetAndDisconnectStylesCommandArchive12clear_presetEv,
                            __ZN3TSS56ThemeReplaceStylePresetAndDisconnectStylesCommandArchive14_InternalParseEPKcPN6google8protobuf8internal12ParseContextE,
                            __ZN3TSS56ThemeReplaceStylePresetAndDisconnectStylesCommandArchive16default_instanceEv,
                            __ZN3TSS56ThemeReplaceStylePresetAndDisconnectStylesCommandArchive24clear_replacement_presetEv,
                            __ZN3TSS56ThemeReplaceStylePresetAndDisconnectStylesCommandArchive5ClearEv,
                            __ZN3TSS56ThemeReplaceStylePresetAndDisconnectStylesCommandArchive8CopyFromERKN6google8protobuf7MessageE,
                            __ZN3TSS56ThemeReplaceStylePresetAndDisconnectStylesCommandArchive8CopyFromERKS0_,
                            __ZN3TSS56ThemeReplaceStylePresetAndDisconnectStylesCommandArchive9ArenaDtorEPv,
                            __ZN3TSS56ThemeReplaceStylePresetAndDisconnectStylesCommandArchive9MergeFromERKN6google8protobuf7MessageE,
                            __ZN3TSS56ThemeReplaceStylePresetAndDisconnectStylesCommandArchive9MergeFromERKS0_,
                            __ZN3TSS56ThemeReplaceStylePresetAndDisconnectStylesCommandArchive9_Internal18replacement_presetEPKS0_,
                            __ZN3TSS56ThemeReplaceStylePresetAndDisconnectStylesCommandArchive9_Internal5superEPKS0_,
                            __ZN3TSS56ThemeReplaceStylePresetAndDisconnectStylesCommandArchive9_Internal6presetEPKS0_,
                            __ZN3TSS56ThemeReplaceStylePresetAndDisconnectStylesCommandArchiveC1EPN6google8protobuf5ArenaE,
                            __ZN3TSS56ThemeReplaceStylePresetAndDisconnectStylesCommandArchiveC1ERKS0_,
                            __ZN3TSS56ThemeReplaceStylePresetAndDisconnectStylesCommandArchiveC2EPN6google8protobuf5ArenaE,
                            __ZN3TSS56ThemeReplaceStylePresetAndDisconnectStylesCommandArchiveC2ERKS0_,
                            __ZN3TSS56ThemeReplaceStylePresetAndDisconnectStylesCommandArchiveD0Ev,
                            __ZN3TSS56ThemeReplaceStylePresetAndDisconnectStylesCommandArchiveD1Ev,
                            __ZN3TSS56ThemeReplaceStylePresetAndDisconnectStylesCommandArchiveD2Ev,
                            __ZN3TSS56_ThemeReplaceColorPresetCommandArchive_default_instance_E,
                            __ZN3TSS57_StylesheetArchive_IdentifiedStyleEntry_default_instance_E,
                            __ZN3TSS5colorE,
                            __ZN3TSS75_ThemeReplaceStylePresetAndDisconnectStylesCommandArchive_default_instance_E,
                            __ZN6TSSSOS15SpecBoolArchive12InternalSwapEPS0_,
                            __ZN6TSSSOS15SpecBoolArchive14_InternalParseEPKcPN6google8protobuf8internal12ParseContextE,
                            __ZN6TSSSOS15SpecBoolArchive16default_instanceEv,
                            __ZN6TSSSOS15SpecBoolArchive5ClearEv,
                            __ZN6TSSSOS15SpecBoolArchive8CopyFromERKN6google8protobuf7MessageE,
                            __ZN6TSSSOS15SpecBoolArchive8CopyFromERKS0_,
                            __ZN6TSSSOS15SpecBoolArchive9ArenaDtorEPv,
                            __ZN6TSSSOS15SpecBoolArchive9MergeFromERKN6google8protobuf7MessageE,
                            __ZN6TSSSOS15SpecBoolArchive9MergeFromERKS0_,
                            __ZN6TSSSOS15SpecBoolArchive9_Internal13spec_set_boolEPKS0_,
                            __ZN6TSSSOS15SpecBoolArchiveC1EPN6google8protobuf5ArenaE,
                            __ZN6TSSSOS15SpecBoolArchiveC1ERKS0_,
                            __ZN6TSSSOS15SpecBoolArchiveC2EPN6google8protobuf5ArenaE,
                            __ZN6TSSSOS15SpecBoolArchiveC2ERKS0_,
                            __ZN6TSSSOS15SpecBoolArchiveD0Ev,
                            __ZN6TSSSOS15SpecBoolArchiveD1Ev,
                            __ZN6TSSSOS15SpecBoolArchiveD2Ev,
                            __ZN6TSSSOS16SpecColorArchive12InternalSwapEPS0_,
                            __ZN6TSSSOS16SpecColorArchive14_InternalParseEPKcPN6google8protobuf8internal12ParseContextE,
                            __ZN6TSSSOS16SpecColorArchive16default_instanceEv,
                            __ZN6TSSSOS16SpecColorArchive5ClearEv,
                            __ZN6TSSSOS16SpecColorArchive8CopyFromERKN6google8protobuf7MessageE,
                            __ZN6TSSSOS16SpecColorArchive8CopyFromERKS0_,
                            __ZN6TSSSOS16SpecColorArchive9ArenaDtorEPv,
                            __ZN6TSSSOS16SpecColorArchive9MergeFromERKN6google8protobuf7MessageE,
                            __ZN6TSSSOS16SpecColorArchive9MergeFromERKS0_,
                            __ZN6TSSSOS16SpecColorArchive9_Internal14spec_set_colorEPKS0_,
                            __ZN6TSSSOS16SpecColorArchiveC1EPN6google8protobuf5ArenaE,
                            __ZN6TSSSOS16SpecColorArchiveC1ERKS0_,
                            __ZN6TSSSOS16SpecColorArchiveC2EPN6google8protobuf5ArenaE,
                            __ZN6TSSSOS16SpecColorArchiveC2ERKS0_,
                            __ZN6TSSSOS16SpecColorArchiveD0Ev,
                            __ZN6TSSSOS16SpecColorArchiveD1Ev,
                            __ZN6TSSSOS16SpecColorArchiveD2Ev,
                            __ZN6TSSSOS17SpecDoubleArchive12InternalSwapEPS0_,
                            __ZN6TSSSOS17SpecDoubleArchive14_InternalParseEPKcPN6google8protobuf8internal12ParseContextE,
                            __ZN6TSSSOS17SpecDoubleArchive16default_instanceEv,
                            __ZN6TSSSOS17SpecDoubleArchive5ClearEv,
                            __ZN6TSSSOS17SpecDoubleArchive8CopyFromERKN6google8protobuf7MessageE,
                            __ZN6TSSSOS17SpecDoubleArchive8CopyFromERKS0_,
                            __ZN6TSSSOS17SpecDoubleArchive9ArenaDtorEPv,
                            __ZN6TSSSOS17SpecDoubleArchive9MergeFromERKN6google8protobuf7MessageE,
                            __ZN6TSSSOS17SpecDoubleArchive9MergeFromERKS0_,
                            __ZN6TSSSOS17SpecDoubleArchive9_Internal15spec_set_doubleEPKS0_,
                            __ZN6TSSSOS17SpecDoubleArchiveC1EPN6google8protobuf5ArenaE,
                            __ZN6TSSSOS17SpecDoubleArchiveC1ERKS0_,
                            __ZN6TSSSOS17SpecDoubleArchiveC2EPN6google8protobuf5ArenaE,
                            __ZN6TSSSOS17SpecDoubleArchiveC2ERKS0_,
                            __ZN6TSSSOS17SpecDoubleArchiveD0Ev,
                            __ZN6TSSSOS17SpecDoubleArchiveD1Ev,
                            __ZN6TSSSOS17SpecDoubleArchiveD2Ev,
                            __ZN6TSSSOS17SpecStringArchive12InternalSwapEPS0_,
                            __ZN6TSSSOS17SpecStringArchive14_InternalParseEPKcPN6google8protobuf8internal12ParseContextE,
                            __ZN6TSSSOS17SpecStringArchive16default_instanceEv,
                            __ZN6TSSSOS17SpecStringArchive5ClearEv,
                            __ZN6TSSSOS17SpecStringArchive8CopyFromERKN6google8protobuf7MessageE,
                            __ZN6TSSSOS17SpecStringArchive8CopyFromERKS0_,
                            __ZN6TSSSOS17SpecStringArchive9ArenaDtorEPv,
                            __ZN6TSSSOS17SpecStringArchive9MergeFromERKN6google8protobuf7MessageE,
                            __ZN6TSSSOS17SpecStringArchive9MergeFromERKS0_,
                            __ZN6TSSSOS17SpecStringArchive9_Internal15spec_set_stringEPKS0_,
                            __ZN6TSSSOS17SpecStringArchiveC1EPN6google8protobuf5ArenaE,
                            __ZN6TSSSOS17SpecStringArchiveC1ERKS0_,
                            __ZN6TSSSOS17SpecStringArchiveC2EPN6google8protobuf5ArenaE,
                            __ZN6TSSSOS17SpecStringArchiveC2ERKS0_,
                            __ZN6TSSSOS17SpecStringArchiveD0Ev,
                            __ZN6TSSSOS17SpecStringArchiveD1Ev,
                            __ZN6TSSSOS17SpecStringArchiveD2Ev,
                            __ZN6TSSSOS18SpecIntegerArchive12InternalSwapEPS0_,
                            __ZN6TSSSOS18SpecIntegerArchive14_InternalParseEPKcPN6google8protobuf8internal12ParseContextE,
                            __ZN6TSSSOS18SpecIntegerArchive16default_instanceEv,
                            __ZN6TSSSOS18SpecIntegerArchive5ClearEv,
                            __ZN6TSSSOS18SpecIntegerArchive8CopyFromERKN6google8protobuf7MessageE,
                            __ZN6TSSSOS18SpecIntegerArchive8CopyFromERKS0_,
                            __ZN6TSSSOS18SpecIntegerArchive9ArenaDtorEPv,
                            __ZN6TSSSOS18SpecIntegerArchive9MergeFromERKN6google8protobuf7MessageE,
                            __ZN6TSSSOS18SpecIntegerArchive9MergeFromERKS0_,
                            __ZN6TSSSOS18SpecIntegerArchive9_Internal16spec_set_integerEPKS0_,
                            __ZN6TSSSOS18SpecIntegerArchiveC1EPN6google8protobuf5ArenaE,
                            __ZN6TSSSOS18SpecIntegerArchiveC1ERKS0_,
                            __ZN6TSSSOS18SpecIntegerArchiveC2EPN6google8protobuf5ArenaE,
                            __ZN6TSSSOS18SpecIntegerArchiveC2ERKS0_,
                            __ZN6TSSSOS18SpecIntegerArchiveD0Ev,
                            __ZN6TSSSOS18SpecIntegerArchiveD1Ev,
                            __ZN6TSSSOS18SpecIntegerArchiveD2Ev,
                            __ZN6TSSSOS18SpecSetBoolArchive12InternalSwapEPS0_,
                            __ZN6TSSSOS18SpecSetBoolArchive14_InternalParseEPKcPN6google8protobuf8internal12ParseContextE,
                            __ZN6TSSSOS18SpecSetBoolArchive16default_instanceEv,
                            __ZN6TSSSOS18SpecSetBoolArchive5ClearEv,
                            __ZN6TSSSOS18SpecSetBoolArchive8CopyFromERKN6google8protobuf7MessageE,
                            __ZN6TSSSOS18SpecSetBoolArchive8CopyFromERKS0_,
                            __ZN6TSSSOS18SpecSetBoolArchive9ArenaDtorEPv,
                            __ZN6TSSSOS18SpecSetBoolArchive9MergeFromERKN6google8protobuf7MessageE,
                            __ZN6TSSSOS18SpecSetBoolArchive9MergeFromERKS0_,
                            __ZN6TSSSOS18SpecSetBoolArchiveC1EPN6google8protobuf5ArenaE,
                            __ZN6TSSSOS18SpecSetBoolArchiveC1ERKS0_,
                            __ZN6TSSSOS18SpecSetBoolArchiveC2EPN6google8protobuf5ArenaE,
                            __ZN6TSSSOS18SpecSetBoolArchiveC2ERKS0_,
                            __ZN6TSSSOS18SpecSetBoolArchiveD0Ev,
                            __ZN6TSSSOS18SpecSetBoolArchiveD1Ev,
                            __ZN6TSSSOS18SpecSetBoolArchiveD2Ev,
                            __ZN6TSSSOS19SpecSetColorArchive11clear_colorEv,
                            __ZN6TSSSOS19SpecSetColorArchive12InternalSwapEPS0_,
                            __ZN6TSSSOS19SpecSetColorArchive14_InternalParseEPKcPN6google8protobuf8internal12ParseContextE,
                            __ZN6TSSSOS19SpecSetColorArchive16default_instanceEv,
                            __ZN6TSSSOS19SpecSetColorArchive5ClearEv,
                            __ZN6TSSSOS19SpecSetColorArchive8CopyFromERKN6google8protobuf7MessageE,
                            __ZN6TSSSOS19SpecSetColorArchive8CopyFromERKS0_,
                            __ZN6TSSSOS19SpecSetColorArchive9ArenaDtorEPv,
                            __ZN6TSSSOS19SpecSetColorArchive9MergeFromERKN6google8protobuf7MessageE,
                            __ZN6TSSSOS19SpecSetColorArchive9MergeFromERKS0_,
                            __ZN6TSSSOS19SpecSetColorArchive9_Internal5colorEPKS0_,
                            __ZN6TSSSOS19SpecSetColorArchiveC1EPN6google8protobuf5ArenaE,
                            __ZN6TSSSOS19SpecSetColorArchiveC1ERKS0_,
                            __ZN6TSSSOS19SpecSetColorArchiveC2EPN6google8protobuf5ArenaE,
                            __ZN6TSSSOS19SpecSetColorArchiveC2ERKS0_,
                            __ZN6TSSSOS19SpecSetColorArchiveD0Ev,
                            __ZN6TSSSOS19SpecSetColorArchiveD1Ev,
                            __ZN6TSSSOS19SpecSetColorArchiveD2Ev,
                            __ZN6TSSSOS20SpecSetDoubleArchive12InternalSwapEPS0_,
                            __ZN6TSSSOS20SpecSetDoubleArchive14_InternalParseEPKcPN6google8protobuf8internal12ParseContextE,
                            __ZN6TSSSOS20SpecSetDoubleArchive16default_instanceEv,
                            __ZN6TSSSOS20SpecSetDoubleArchive5ClearEv,
                            __ZN6TSSSOS20SpecSetDoubleArchive8CopyFromERKN6google8protobuf7MessageE,
                            __ZN6TSSSOS20SpecSetDoubleArchive8CopyFromERKS0_,
                            __ZN6TSSSOS20SpecSetDoubleArchive9ArenaDtorEPv,
                            __ZN6TSSSOS20SpecSetDoubleArchive9MergeFromERKN6google8protobuf7MessageE,
                            __ZN6TSSSOS20SpecSetDoubleArchive9MergeFromERKS0_,
                            __ZN6TSSSOS20SpecSetDoubleArchiveC1EPN6google8protobuf5ArenaE,
                            __ZN6TSSSOS20SpecSetDoubleArchiveC1ERKS0_,
                            __ZN6TSSSOS20SpecSetDoubleArchiveC2EPN6google8protobuf5ArenaE,
                            __ZN6TSSSOS20SpecSetDoubleArchiveC2ERKS0_,
                            __ZN6TSSSOS20SpecSetDoubleArchiveD0Ev,
                            __ZN6TSSSOS20SpecSetDoubleArchiveD1Ev,
                            __ZN6TSSSOS20SpecSetDoubleArchiveD2Ev,
                            __ZN6TSSSOS20SpecSetStringArchive12InternalSwapEPS0_,
                            __ZN6TSSSOS20SpecSetStringArchive14_InternalParseEPKcPN6google8protobuf8internal12ParseContextE,
                            __ZN6TSSSOS20SpecSetStringArchive16default_instanceEv,
                            __ZN6TSSSOS20SpecSetStringArchive5ClearEv,
                            __ZN6TSSSOS20SpecSetStringArchive8CopyFromERKN6google8protobuf7MessageE,
                            __ZN6TSSSOS20SpecSetStringArchive8CopyFromERKS0_,
                            __ZN6TSSSOS20SpecSetStringArchive9ArenaDtorEPv,
                            __ZN6TSSSOS20SpecSetStringArchive9MergeFromERKN6google8protobuf7MessageE,
                            __ZN6TSSSOS20SpecSetStringArchive9MergeFromERKS0_,
                            __ZN6TSSSOS20SpecSetStringArchiveC1EPN6google8protobuf5ArenaE,
                            __ZN6TSSSOS20SpecSetStringArchiveC1ERKS0_,
                            __ZN6TSSSOS20SpecSetStringArchiveC2EPN6google8protobuf5ArenaE,
                            __ZN6TSSSOS20SpecSetStringArchiveC2ERKS0_,
                            __ZN6TSSSOS20SpecSetStringArchiveD0Ev,
                            __ZN6TSSSOS20SpecSetStringArchiveD1Ev,
                            __ZN6TSSSOS20SpecSetStringArchiveD2Ev,
                            __ZN6TSSSOS21SpecSetIntegerArchive12InternalSwapEPS0_,
                            __ZN6TSSSOS21SpecSetIntegerArchive14_InternalParseEPKcPN6google8protobuf8internal12ParseContextE,
                            __ZN6TSSSOS21SpecSetIntegerArchive16default_instanceEv,
                            __ZN6TSSSOS21SpecSetIntegerArchive5ClearEv,
                            __ZN6TSSSOS21SpecSetIntegerArchive8CopyFromERKN6google8protobuf7MessageE,
                            __ZN6TSSSOS21SpecSetIntegerArchive8CopyFromERKS0_,
                            __ZN6TSSSOS21SpecSetIntegerArchive9ArenaDtorEPv,
                            __ZN6TSSSOS21SpecSetIntegerArchive9MergeFromERKN6google8protobuf7MessageE,
                            __ZN6TSSSOS21SpecSetIntegerArchive9MergeFromERKS0_,
                            __ZN6TSSSOS21SpecSetIntegerArchiveC1EPN6google8protobuf5ArenaE,
                            __ZN6TSSSOS21SpecSetIntegerArchiveC1ERKS0_,
                            __ZN6TSSSOS21SpecSetIntegerArchiveC2EPN6google8protobuf5ArenaE,
                            __ZN6TSSSOS21SpecSetIntegerArchiveC2ERKS0_,
                            __ZN6TSSSOS21SpecSetIntegerArchiveD0Ev,
                            __ZN6TSSSOS21SpecSetIntegerArchiveD1Ev,
                            __ZN6TSSSOS21SpecSetIntegerArchiveD2Ev,
                            __ZN6TSSSOS34_SpecBoolArchive_default_instance_E,
                            __ZN6TSSSOS35_SpecColorArchive_default_instance_E,
                            __ZN6TSSSOS36_SpecDoubleArchive_default_instance_E,
                            __ZN6TSSSOS36_SpecStringArchive_default_instance_E,
                            __ZN6TSSSOS37_SpecIntegerArchive_default_instance_E,
                            __ZN6TSSSOS37_SpecSetBoolArchive_default_instance_E,
                            __ZN6TSSSOS38_SpecSetColorArchive_default_instance_E,
                            __ZN6TSSSOS39_SpecSetDoubleArchive_default_instance_E,
                            __ZN6TSSSOS39_SpecSetStringArchive_default_instance_E,
                            __ZN6TSSSOS40_SpecSetIntegerArchive_default_instance_E,
                            __ZN6google8protobuf5Arena18CreateMaybeMessageIN3TSS12StyleArchiveEJEEEPT_PS1_DpOT0_,
                            __ZN6google8protobuf5Arena18CreateMaybeMessageIN3TSS12ThemeArchiveEJEEEPT_PS1_DpOT0_,
                            __ZN6google8protobuf5Arena18CreateMaybeMessageIN3TSS17StylesheetArchiveEJEEEPT_PS1_DpOT0_,
                            __ZN6google8protobuf5Arena18CreateMaybeMessageIN3TSS24ApplyThemeCommandArchiveEJEEEPT_PS1_DpOT0_,
                            __ZN6google8protobuf5Arena18CreateMaybeMessageIN3TSS25CommandPropertyMapArchiveEJEEEPT_PS1_DpOT0_,
                            __ZN6google8protobuf5Arena18CreateMaybeMessageIN3TSS27CommandPropertyEntryArchiveEJEEEPT_PS1_DpOT0_,
                            __ZN6google8protobuf5Arena18CreateMaybeMessageIN3TSS29ApplyThemeChildCommandArchiveEJEEEPT_PS1_DpOT0_,
                            __ZN6google8protobuf5Arena18CreateMaybeMessageIN3TSS29ThemeMovePresetCommandArchiveEJEEEPT_PS1_DpOT0_,
                            __ZN6google8protobuf5Arena18CreateMaybeMessageIN3TSS32ThemeReplacePresetCommandArchiveEJEEEPT_PS1_DpOT0_,
                            __ZN6google8protobuf5Arena18CreateMaybeMessageIN3TSS33StylesheetArchive_VersionedStylesEJEEEPT_PS1_DpOT0_,
                            __ZN6google8protobuf5Arena18CreateMaybeMessageIN3TSS33ThemeAddStylePresetCommandArchiveEJEEEPT_PS1_DpOT0_,
                            __ZN6google8protobuf5Arena18CreateMaybeMessageIN3TSS36StyleUpdatePropertyMapCommandArchiveEJEEEPT_PS1_DpOT0_,
                            __ZN6google8protobuf5Arena18CreateMaybeMessageIN3TSS36StylesheetArchive_StyleChildrenEntryEJEEEPT_PS1_DpOT0_,
                            __ZN6google8protobuf5Arena18CreateMaybeMessageIN3TSS36ThemeRemoveStylePresetCommandArchiveEJEEEPT_PS1_DpOT0_,
                            __ZN6google8protobuf5Arena18CreateMaybeMessageIN3TSS37ThemeReplaceColorPresetCommandArchiveEJEEEPT_PS1_DpOT0_,
                            __ZN6google8protobuf5Arena18CreateMaybeMessageIN3TSS38StylesheetArchive_IdentifiedStyleEntryEJEEEPT_PS1_DpOT0_,
                            __ZN6google8protobuf5Arena18CreateMaybeMessageIN3TSS56ThemeReplaceStylePresetAndDisconnectStylesCommandArchiveEJEEEPT_PS1_DpOT0_,
                            __ZN6google8protobuf5Arena18CreateMaybeMessageIN6TSSSOS15SpecBoolArchiveEJEEEPT_PS1_DpOT0_,
                            __ZN6google8protobuf5Arena18CreateMaybeMessageIN6TSSSOS16SpecColorArchiveEJEEEPT_PS1_DpOT0_,
                            __ZN6google8protobuf5Arena18CreateMaybeMessageIN6TSSSOS17SpecDoubleArchiveEJEEEPT_PS1_DpOT0_,
                            __ZN6google8protobuf5Arena18CreateMaybeMessageIN6TSSSOS17SpecStringArchiveEJEEEPT_PS1_DpOT0_,
                            __ZN6google8protobuf5Arena18CreateMaybeMessageIN6TSSSOS18SpecIntegerArchiveEJEEEPT_PS1_DpOT0_,
                            __ZN6google8protobuf5Arena18CreateMaybeMessageIN6TSSSOS18SpecSetBoolArchiveEJEEEPT_PS1_DpOT0_,
                            __ZN6google8protobuf5Arena18CreateMaybeMessageIN6TSSSOS19SpecSetColorArchiveEJEEEPT_PS1_DpOT0_,
                            __ZN6google8protobuf5Arena18CreateMaybeMessageIN6TSSSOS20SpecSetDoubleArchiveEJEEEPT_PS1_DpOT0_,
                            __ZN6google8protobuf5Arena18CreateMaybeMessageIN6TSSSOS20SpecSetStringArchiveEJEEEPT_PS1_DpOT0_,
                            __ZN6google8protobuf5Arena18CreateMaybeMessageIN6TSSSOS21SpecSetIntegerArchiveEJEEEPT_PS1_DpOT0_,
                            __ZNK3TSS12StyleArchive11GetMetadataEv,
                            __ZNK3TSS12StyleArchive12ByteSizeLongEv,
                            __ZNK3TSS12StyleArchive13IsInitializedEv,
                            __ZNK3TSS12StyleArchive13SetCachedSizeEi,
                            __ZNK3TSS12StyleArchive18_InternalSerializeEPhPN6google8protobuf2io19EpsCopyOutputStreamE,
                            __ZNK3TSS12ThemeArchive11GetMetadataEv,
                            __ZNK3TSS12ThemeArchive12ByteSizeLongEv,
                            __ZNK3TSS12ThemeArchive13IsInitializedEv,
                            __ZNK3TSS12ThemeArchive13SetCachedSizeEi,
                            __ZNK3TSS12ThemeArchive18_InternalSerializeEPhPN6google8protobuf2io19EpsCopyOutputStreamE,
                            __ZNK3TSS17StylesheetArchive11GetMetadataEv,
                            __ZNK3TSS17StylesheetArchive12ByteSizeLongEv,
                            __ZNK3TSS17StylesheetArchive13IsInitializedEv,
                            __ZNK3TSS17StylesheetArchive13SetCachedSizeEi,
                            __ZNK3TSS17StylesheetArchive18_InternalSerializeEPhPN6google8protobuf2io19EpsCopyOutputStreamE,
                            __ZNK3TSS24ApplyThemeCommandArchive11GetMetadataEv,
                            __ZNK3TSS24ApplyThemeCommandArchive12ByteSizeLongEv,
                            __ZNK3TSS24ApplyThemeCommandArchive13IsInitializedEv,
                            __ZNK3TSS24ApplyThemeCommandArchive13SetCachedSizeEi,
                            __ZNK3TSS24ApplyThemeCommandArchive18_InternalSerializeEPhPN6google8protobuf2io19EpsCopyOutputStreamE,
                            __ZNK3TSS25CommandPropertyMapArchive11GetMetadataEv,
                            __ZNK3TSS25CommandPropertyMapArchive12ByteSizeLongEv,
                            __ZNK3TSS25CommandPropertyMapArchive13IsInitializedEv,
                            __ZNK3TSS25CommandPropertyMapArchive13SetCachedSizeEi,
                            __ZNK3TSS25CommandPropertyMapArchive18_InternalSerializeEPhPN6google8protobuf2io19EpsCopyOutputStreamE,
                            __ZNK3TSS27CommandPropertyEntryArchive11GetMetadataEv,
                            __ZNK3TSS27CommandPropertyEntryArchive12ByteSizeLongEv,
                            __ZNK3TSS27CommandPropertyEntryArchive13IsInitializedEv,
                            __ZNK3TSS27CommandPropertyEntryArchive13SetCachedSizeEi,
                            __ZNK3TSS27CommandPropertyEntryArchive18_InternalSerializeEPhPN6google8protobuf2io19EpsCopyOutputStreamE,
                            __ZNK3TSS27CommandPropertyEntryArchive30RequiredFieldsByteSizeFallbackEv,
                            __ZNK3TSS29ApplyThemeChildCommandArchive11GetMetadataEv,
                            __ZNK3TSS29ApplyThemeChildCommandArchive12ByteSizeLongEv,
                            __ZNK3TSS29ApplyThemeChildCommandArchive13IsInitializedEv,
                            __ZNK3TSS29ApplyThemeChildCommandArchive13SetCachedSizeEi,
                            __ZNK3TSS29ApplyThemeChildCommandArchive18_InternalSerializeEPhPN6google8protobuf2io19EpsCopyOutputStreamE,
                            __ZNK3TSS29ThemeMovePresetCommandArchive11GetMetadataEv,
                            __ZNK3TSS29ThemeMovePresetCommandArchive12ByteSizeLongEv,
                            __ZNK3TSS29ThemeMovePresetCommandArchive13IsInitializedEv,
                            __ZNK3TSS29ThemeMovePresetCommandArchive13SetCachedSizeEi,
                            __ZNK3TSS29ThemeMovePresetCommandArchive18_InternalSerializeEPhPN6google8protobuf2io19EpsCopyOutputStreamE,
                            __ZNK3TSS29ThemeMovePresetCommandArchive30RequiredFieldsByteSizeFallbackEv,
                            __ZNK3TSS32ThemeReplacePresetCommandArchive11GetMetadataEv,
                            __ZNK3TSS32ThemeReplacePresetCommandArchive12ByteSizeLongEv,
                            __ZNK3TSS32ThemeReplacePresetCommandArchive13IsInitializedEv,
                            __ZNK3TSS32ThemeReplacePresetCommandArchive13SetCachedSizeEi,
                            __ZNK3TSS32ThemeReplacePresetCommandArchive18_InternalSerializeEPhPN6google8protobuf2io19EpsCopyOutputStreamE,
                            __ZNK3TSS32ThemeReplacePresetCommandArchive30RequiredFieldsByteSizeFallbackEv,
                            __ZNK3TSS33StylesheetArchive_VersionedStyles11GetMetadataEv,
                            __ZNK3TSS33StylesheetArchive_VersionedStyles12ByteSizeLongEv,
                            __ZNK3TSS33StylesheetArchive_VersionedStyles13IsInitializedEv,
                            __ZNK3TSS33StylesheetArchive_VersionedStyles13SetCachedSizeEi,
                            __ZNK3TSS33StylesheetArchive_VersionedStyles18_InternalSerializeEPhPN6google8protobuf2io19EpsCopyOutputStreamE,
                            __ZNK3TSS33ThemeAddStylePresetCommandArchive11GetMetadataEv,
                            __ZNK3TSS33ThemeAddStylePresetCommandArchive12ByteSizeLongEv,
                            __ZNK3TSS33ThemeAddStylePresetCommandArchive13IsInitializedEv,
                            __ZNK3TSS33ThemeAddStylePresetCommandArchive13SetCachedSizeEi,
                            __ZNK3TSS33ThemeAddStylePresetCommandArchive18_InternalSerializeEPhPN6google8protobuf2io19EpsCopyOutputStreamE,
                            __ZNK3TSS33ThemeAddStylePresetCommandArchive30RequiredFieldsByteSizeFallbackEv,
                            __ZNK3TSS36StyleUpdatePropertyMapCommandArchive11GetMetadataEv,
                            __ZNK3TSS36StyleUpdatePropertyMapCommandArchive12ByteSizeLongEv,
                            __ZNK3TSS36StyleUpdatePropertyMapCommandArchive13IsInitializedEv,
                            __ZNK3TSS36StyleUpdatePropertyMapCommandArchive13SetCachedSizeEi,
                            __ZNK3TSS36StyleUpdatePropertyMapCommandArchive18_InternalSerializeEPhPN6google8protobuf2io19EpsCopyOutputStreamE,
                            __ZNK3TSS36StyleUpdatePropertyMapCommandArchive30RequiredFieldsByteSizeFallbackEv,
                            __ZNK3TSS36StylesheetArchive_StyleChildrenEntry11GetMetadataEv,
                            __ZNK3TSS36StylesheetArchive_StyleChildrenEntry12ByteSizeLongEv,
                            __ZNK3TSS36StylesheetArchive_StyleChildrenEntry13IsInitializedEv,
                            __ZNK3TSS36StylesheetArchive_StyleChildrenEntry13SetCachedSizeEi,
                            __ZNK3TSS36StylesheetArchive_StyleChildrenEntry18_InternalSerializeEPhPN6google8protobuf2io19EpsCopyOutputStreamE,
                            __ZNK3TSS36ThemeRemoveStylePresetCommandArchive11GetMetadataEv,
                            __ZNK3TSS36ThemeRemoveStylePresetCommandArchive12ByteSizeLongEv,
                            __ZNK3TSS36ThemeRemoveStylePresetCommandArchive13IsInitializedEv,
                            __ZNK3TSS36ThemeRemoveStylePresetCommandArchive13SetCachedSizeEi,
                            __ZNK3TSS36ThemeRemoveStylePresetCommandArchive18_InternalSerializeEPhPN6google8protobuf2io19EpsCopyOutputStreamE,
                            __ZNK3TSS36ThemeRemoveStylePresetCommandArchive30RequiredFieldsByteSizeFallbackEv,
                            __ZNK3TSS37ThemeReplaceColorPresetCommandArchive11GetMetadataEv,
                            __ZNK3TSS37ThemeReplaceColorPresetCommandArchive12ByteSizeLongEv,
                            __ZNK3TSS37ThemeReplaceColorPresetCommandArchive13IsInitializedEv,
                            __ZNK3TSS37ThemeReplaceColorPresetCommandArchive13SetCachedSizeEi,
                            __ZNK3TSS37ThemeReplaceColorPresetCommandArchive18_InternalSerializeEPhPN6google8protobuf2io19EpsCopyOutputStreamE,
                            __ZNK3TSS37ThemeReplaceColorPresetCommandArchive30RequiredFieldsByteSizeFallbackEv,
                            __ZNK3TSS38StylesheetArchive_IdentifiedStyleEntry11GetMetadataEv,
                            __ZNK3TSS38StylesheetArchive_IdentifiedStyleEntry12ByteSizeLongEv,
                            __ZNK3TSS38StylesheetArchive_IdentifiedStyleEntry13IsInitializedEv,
                            __ZNK3TSS38StylesheetArchive_IdentifiedStyleEntry13SetCachedSizeEi,
                            __ZNK3TSS38StylesheetArchive_IdentifiedStyleEntry18_InternalSerializeEPhPN6google8protobuf2io19EpsCopyOutputStreamE,
                            __ZNK3TSS38StylesheetArchive_IdentifiedStyleEntry30RequiredFieldsByteSizeFallbackEv,
                            __ZNK3TSS56ThemeReplaceStylePresetAndDisconnectStylesCommandArchive11GetMetadataEv,
                            __ZNK3TSS56ThemeReplaceStylePresetAndDisconnectStylesCommandArchive12ByteSizeLongEv,
                            __ZNK3TSS56ThemeReplaceStylePresetAndDisconnectStylesCommandArchive13IsInitializedEv,
                            __ZNK3TSS56ThemeReplaceStylePresetAndDisconnectStylesCommandArchive13SetCachedSizeEi,
                            __ZNK3TSS56ThemeReplaceStylePresetAndDisconnectStylesCommandArchive18_InternalSerializeEPhPN6google8protobuf2io19EpsCopyOutputStreamE,
                            __ZNK3TSS56ThemeReplaceStylePresetAndDisconnectStylesCommandArchive30RequiredFieldsByteSizeFallbackEv,
                            __ZNK6TSSSOS15SpecBoolArchive11GetMetadataEv,
                            __ZNK6TSSSOS15SpecBoolArchive12ByteSizeLongEv,
                            __ZNK6TSSSOS15SpecBoolArchive13IsInitializedEv,
                            __ZNK6TSSSOS15SpecBoolArchive13SetCachedSizeEi,
                            __ZNK6TSSSOS15SpecBoolArchive18_InternalSerializeEPhPN6google8protobuf2io19EpsCopyOutputStreamE,
                            __ZNK6TSSSOS16SpecColorArchive11GetMetadataEv,
                            __ZNK6TSSSOS16SpecColorArchive12ByteSizeLongEv,
                            __ZNK6TSSSOS16SpecColorArchive13IsInitializedEv,
                            __ZNK6TSSSOS16SpecColorArchive13SetCachedSizeEi,
                            __ZNK6TSSSOS16SpecColorArchive18_InternalSerializeEPhPN6google8protobuf2io19EpsCopyOutputStreamE,
                            __ZNK6TSSSOS17SpecDoubleArchive11GetMetadataEv,
                            __ZNK6TSSSOS17SpecDoubleArchive12ByteSizeLongEv,
                            __ZNK6TSSSOS17SpecDoubleArchive13IsInitializedEv,
                            __ZNK6TSSSOS17SpecDoubleArchive13SetCachedSizeEi,
                            __ZNK6TSSSOS17SpecDoubleArchive18_InternalSerializeEPhPN6google8protobuf2io19EpsCopyOutputStreamE,
                            __ZNK6TSSSOS17SpecStringArchive11GetMetadataEv,
                            __ZNK6TSSSOS17SpecStringArchive12ByteSizeLongEv,
                            __ZNK6TSSSOS17SpecStringArchive13IsInitializedEv,
                            __ZNK6TSSSOS17SpecStringArchive13SetCachedSizeEi,
                            __ZNK6TSSSOS17SpecStringArchive18_InternalSerializeEPhPN6google8protobuf2io19EpsCopyOutputStreamE,
                            __ZNK6TSSSOS18SpecIntegerArchive11GetMetadataEv,
                            __ZNK6TSSSOS18SpecIntegerArchive12ByteSizeLongEv,
                            __ZNK6TSSSOS18SpecIntegerArchive13IsInitializedEv,
                            __ZNK6TSSSOS18SpecIntegerArchive13SetCachedSizeEi,
                            __ZNK6TSSSOS18SpecIntegerArchive18_InternalSerializeEPhPN6google8protobuf2io19EpsCopyOutputStreamE,
                            __ZNK6TSSSOS18SpecSetBoolArchive11GetMetadataEv,
                            __ZNK6TSSSOS18SpecSetBoolArchive12ByteSizeLongEv,
                            __ZNK6TSSSOS18SpecSetBoolArchive13IsInitializedEv,
                            __ZNK6TSSSOS18SpecSetBoolArchive13SetCachedSizeEi,
                            __ZNK6TSSSOS18SpecSetBoolArchive18_InternalSerializeEPhPN6google8protobuf2io19EpsCopyOutputStreamE,
                            __ZNK6TSSSOS18SpecSetBoolArchive30RequiredFieldsByteSizeFallbackEv,
                            __ZNK6TSSSOS19SpecSetColorArchive11GetMetadataEv,
                            __ZNK6TSSSOS19SpecSetColorArchive12ByteSizeLongEv,
                            __ZNK6TSSSOS19SpecSetColorArchive13IsInitializedEv,
                            __ZNK6TSSSOS19SpecSetColorArchive13SetCachedSizeEi,
                            __ZNK6TSSSOS19SpecSetColorArchive18_InternalSerializeEPhPN6google8protobuf2io19EpsCopyOutputStreamE,
                            __ZNK6TSSSOS20SpecSetDoubleArchive11GetMetadataEv,
                            __ZNK6TSSSOS20SpecSetDoubleArchive12ByteSizeLongEv,
                            __ZNK6TSSSOS20SpecSetDoubleArchive13IsInitializedEv,
                            __ZNK6TSSSOS20SpecSetDoubleArchive13SetCachedSizeEi,
                            __ZNK6TSSSOS20SpecSetDoubleArchive18_InternalSerializeEPhPN6google8protobuf2io19EpsCopyOutputStreamE,
                            __ZNK6TSSSOS20SpecSetDoubleArchive30RequiredFieldsByteSizeFallbackEv,
                            __ZNK6TSSSOS20SpecSetStringArchive11GetMetadataEv,
                            __ZNK6TSSSOS20SpecSetStringArchive12ByteSizeLongEv,
                            __ZNK6TSSSOS20SpecSetStringArchive13IsInitializedEv,
                            __ZNK6TSSSOS20SpecSetStringArchive13SetCachedSizeEi,
                            __ZNK6TSSSOS20SpecSetStringArchive18_InternalSerializeEPhPN6google8protobuf2io19EpsCopyOutputStreamE,
                            __ZNK6TSSSOS21SpecSetIntegerArchive11GetMetadataEv,
                            __ZNK6TSSSOS21SpecSetIntegerArchive12ByteSizeLongEv,
                            __ZNK6TSSSOS21SpecSetIntegerArchive13IsInitializedEv,
                            __ZNK6TSSSOS21SpecSetIntegerArchive13SetCachedSizeEi,
                            __ZNK6TSSSOS21SpecSetIntegerArchive18_InternalSerializeEPhPN6google8protobuf2io19EpsCopyOutputStreamE,
                            __ZNK6TSSSOS21SpecSetIntegerArchive30RequiredFieldsByteSizeFallbackEv,
                            __ZTIN3TSS12StyleArchiveE, __ZTIN3TSS12ThemeArchiveE,
                            __ZTIN3TSS17StylesheetArchiveE,
                            __ZTIN3TSS24ApplyThemeCommandArchiveE,
                            __ZTIN3TSS25CommandPropertyMapArchiveE,
                            __ZTIN3TSS27CommandPropertyEntryArchiveE,
                            __ZTIN3TSS29ApplyThemeChildCommandArchiveE,
                            __ZTIN3TSS29ThemeMovePresetCommandArchiveE,
                            __ZTIN3TSS32ThemeReplacePresetCommandArchiveE,
                            __ZTIN3TSS33StylesheetArchive_VersionedStylesE,
                            __ZTIN3TSS33ThemeAddStylePresetCommandArchiveE,
                            __ZTIN3TSS36StyleUpdatePropertyMapCommandArchiveE,
                            __ZTIN3TSS36StylesheetArchive_StyleChildrenEntryE,
                            __ZTIN3TSS36ThemeRemoveStylePresetCommandArchiveE,
                            __ZTIN3TSS37ThemeReplaceColorPresetCommandArchiveE,
                            __ZTIN3TSS38StylesheetArchive_IdentifiedStyleEntryE,
                            __ZTIN3TSS56ThemeReplaceStylePresetAndDisconnectStylesCommandArchiveE,
                            __ZTIN6TSSSOS15SpecBoolArchiveE,
                            __ZTIN6TSSSOS16SpecColorArchiveE,
                            __ZTIN6TSSSOS17SpecDoubleArchiveE,
                            __ZTIN6TSSSOS17SpecStringArchiveE,
                            __ZTIN6TSSSOS18SpecIntegerArchiveE,
                            __ZTIN6TSSSOS18SpecSetBoolArchiveE,
                            __ZTIN6TSSSOS19SpecSetColorArchiveE,
                            __ZTIN6TSSSOS20SpecSetDoubleArchiveE,
                            __ZTIN6TSSSOS20SpecSetStringArchiveE,
                            __ZTIN6TSSSOS21SpecSetIntegerArchiveE,
                            __ZTSN3TSS12StyleArchiveE, __ZTSN3TSS12ThemeArchiveE,
                            __ZTSN3TSS17StylesheetArchiveE,
                            __ZTSN3TSS24ApplyThemeCommandArchiveE,
                            __ZTSN3TSS25CommandPropertyMapArchiveE,
                            __ZTSN3TSS27CommandPropertyEntryArchiveE,
                            __ZTSN3TSS29ApplyThemeChildCommandArchiveE,
                            __ZTSN3TSS29ThemeMovePresetCommandArchiveE,
                            __ZTSN3TSS32ThemeReplacePresetCommandArchiveE,
                            __ZTSN3TSS33StylesheetArchive_VersionedStylesE,
                            __ZTSN3TSS33ThemeAddStylePresetCommandArchiveE,
                            __ZTSN3TSS36StyleUpdatePropertyMapCommandArchiveE,
                            __ZTSN3TSS36StylesheetArchive_StyleChildrenEntryE,
                            __ZTSN3TSS36ThemeRemoveStylePresetCommandArchiveE,
                            __ZTSN3TSS37ThemeReplaceColorPresetCommandArchiveE,
                            __ZTSN3TSS38StylesheetArchive_IdentifiedStyleEntryE,
                            __ZTSN3TSS56ThemeReplaceStylePresetAndDisconnectStylesCommandArchiveE,
                            __ZTSN6TSSSOS15SpecBoolArchiveE,
                            __ZTSN6TSSSOS16SpecColorArchiveE,
                            __ZTSN6TSSSOS17SpecDoubleArchiveE,
                            __ZTSN6TSSSOS17SpecStringArchiveE,
                            __ZTSN6TSSSOS18SpecIntegerArchiveE,
                            __ZTSN6TSSSOS18SpecSetBoolArchiveE,
                            __ZTSN6TSSSOS19SpecSetColorArchiveE,
                            __ZTSN6TSSSOS20SpecSetDoubleArchiveE,
                            __ZTSN6TSSSOS20SpecSetStringArchiveE,
                            __ZTSN6TSSSOS21SpecSetIntegerArchiveE,
                            __ZTVN3TSS12StyleArchiveE, __ZTVN3TSS12ThemeArchiveE,
                            __ZTVN3TSS17StylesheetArchiveE,
                            __ZTVN3TSS24ApplyThemeCommandArchiveE,
                            __ZTVN3TSS25CommandPropertyMapArchiveE,
                            __ZTVN3TSS27CommandPropertyEntryArchiveE,
                            __ZTVN3TSS29ApplyThemeChildCommandArchiveE,
                            __ZTVN3TSS29ThemeMovePresetCommandArchiveE,
                            __ZTVN3TSS32ThemeReplacePresetCommandArchiveE,
                            __ZTVN3TSS33StylesheetArchive_VersionedStylesE,
                            __ZTVN3TSS33ThemeAddStylePresetCommandArchiveE,
                            __ZTVN3TSS36StyleUpdatePropertyMapCommandArchiveE,
                            __ZTVN3TSS36StylesheetArchive_StyleChildrenEntryE,
                            __ZTVN3TSS36ThemeRemoveStylePresetCommandArchiveE,
                            __ZTVN3TSS37ThemeReplaceColorPresetCommandArchiveE,
                            __ZTVN3TSS38StylesheetArchive_IdentifiedStyleEntryE,
                            __ZTVN3TSS56ThemeReplaceStylePresetAndDisconnectStylesCommandArchiveE,
                            __ZTVN6TSSSOS15SpecBoolArchiveE,
                            __ZTVN6TSSSOS16SpecColorArchiveE,
                            __ZTVN6TSSSOS17SpecDoubleArchiveE,
                            __ZTVN6TSSSOS17SpecStringArchiveE,
                            __ZTVN6TSSSOS18SpecIntegerArchiveE,
                            __ZTVN6TSSSOS18SpecSetBoolArchiveE,
                            __ZTVN6TSSSOS19SpecSetColorArchiveE,
                            __ZTVN6TSSSOS20SpecSetDoubleArchiveE,
                            __ZTVN6TSSSOS20SpecSetStringArchiveE,
                            __ZTVN6TSSSOS21SpecSetIntegerArchiveE,
                            __styleValidationQueue,
                            _descriptor_table_TSSArchives_2eproto,
                            _descriptor_table_TSSArchives_2esos_2eproto,
                            _i_TSSPropertyStoreAddEntry,
                            _i_TSSPropertyStoreAddNewEntries,
                            _i_TSSPropertyStoreCreateWithFirstPropertyAndArgumentList,
                            _i_TSSPropertyStoreSetPropertiesWithBoxedObjects,
                            _kTSSDiscontinueCullingIdentifiedStylesDocumentVersion,
                            _p_TSSPropertyEntryCompare,
                            _p_infoStringFromPropertyValue, _p_registerProperty,
                            _p_summaryFromPropertyValue, _sPresetSources,
                            _scc_info_ApplyThemeChildCommandArchive_TSSArchives_2eproto,
                            _scc_info_ApplyThemeCommandArchive_TSSArchives_2eproto,
                            _scc_info_CommandPropertyEntryArchive_TSSArchives_2eproto,
                            _scc_info_CommandPropertyMapArchive_TSSArchives_2eproto,
                            _scc_info_SpecBoolArchive_TSSArchives_2esos_2eproto,
                            _scc_info_SpecColorArchive_TSSArchives_2esos_2eproto,
                            _scc_info_SpecDoubleArchive_TSSArchives_2esos_2eproto,
                            _scc_info_SpecIntegerArchive_TSSArchives_2esos_2eproto,
                            _scc_info_SpecSetBoolArchive_TSSArchives_2esos_2eproto,
                            _scc_info_SpecSetColorArchive_TSSArchives_2esos_2eproto,
                            _scc_info_SpecSetDoubleArchive_TSSArchives_2esos_2eproto,
                            _scc_info_SpecSetIntegerArchive_TSSArchives_2esos_2eproto,
                            _scc_info_SpecSetStringArchive_TSSArchives_2esos_2eproto,
                            _scc_info_SpecStringArchive_TSSArchives_2esos_2eproto,
                            _scc_info_StyleArchive_TSSArchives_2eproto,
                            _scc_info_StyleUpdatePropertyMapCommandArchive_TSSArchives_2eproto,
                            _scc_info_StylesheetArchive_IdentifiedStyleEntry_TSSArchives_2eproto,
                            _scc_info_StylesheetArchive_StyleChildrenEntry_TSSArchives_2eproto,
                            _scc_info_StylesheetArchive_TSSArchives_2eproto,
                            _scc_info_StylesheetArchive_VersionedStyles_TSSArchives_2eproto,
                            _scc_info_ThemeAddStylePresetCommandArchive_TSSArchives_2eproto,
                            _scc_info_ThemeArchive_TSSArchives_2eproto,
                            _scc_info_ThemeMovePresetCommandArchive_TSSArchives_2eproto,
                            _scc_info_ThemeRemoveStylePresetCommandArchive_TSSArchives_2eproto,
                            _scc_info_ThemeReplaceColorPresetCommandArchive_TSSArchives_2eproto,
                            _scc_info_ThemeReplacePresetCommandArchive_TSSArchives_2eproto,
                            _scc_info_ThemeReplaceStylePresetAndDisconnectStylesCommandArchive_TSSArchives_2eproto ]
    objc-classes:         [ TSSMutablePropertySet,
                            TSSPropertyCommandObjectRegistry, TSSPropertyMap,
                            TSSPropertySet, TSSPropertySetChangeDetails,
                            TSSPropertyTypesafeDefinitionUtility, TSSSpec,
                            TSSStyle, TSSStyleComparison, TSSStyleDiff,
                            TSSStyleMapper, TSSStylePromise,
                            TSSStylePropertyChangeSet, TSSStylesheet,
                            TSSStylesheetPasteboardProxy, TSSTheme ]
    objc-ivars:           [ TSSPropertySet.mIndexSet,
                            TSSPropertySetChangeDetails.mChangedProperties,
                            TSSStyle.mOverridePropertyMap,
                            TSSStyleComparison._first,
                            TSSStyleComparison._second,
                            TSSStyleMapper._clientsMustRemap,
                            TSSStyleMapper._createdStyles,
                            TSSStyleMapper._forceMatchStyle,
                            TSSStyleMapper._mappingContext,
                            TSSStyleMapper._styleMap,
                            TSSStyleMapper._targetStylesheet,
                            TSSStylesheet.mIdentifierToStyleMap,
                            TSSStylesheet.mStyles,
                            TSSStylesheetPasteboardProxy.mReferencedStyles,
                            TSSStylesheetPasteboardProxy.mReferencedStylesQueue,
                            TSSStylesheetPasteboardProxy.mSelfArchiving,
                            TSSStylesheetPasteboardProxy.mStylesheet,
                            TSSTheme.mDocumentStylesheet,
                            TSSTheme.mLegacyStylesheet, TSSTheme.mPresetsByKind,
                            TSSTheme.mReplacedPresetUUIDs,
                            TSSTheme.mThemeIdentifier ]
    weak-def-symbols:     [ __ZTIN6google8protobuf8internal16InternalMetadata13ContainerBaseE,
                            __ZTIN6google8protobuf8internal16InternalMetadata9ContainerINS0_15UnknownFieldSetEEE,
                            __ZTINSt3__112basic_stringIcNS_11char_traitsIcEENS_9allocatorIcEEEE,
                            __ZTINSt3__121__basic_string_commonILb1EEE,
                            __ZTSN6google8protobuf8internal16InternalMetadata13ContainerBaseE,
                            __ZTSN6google8protobuf8internal16InternalMetadata9ContainerINS0_15UnknownFieldSetEEE,
                            __ZTSNSt3__112basic_stringIcNS_11char_traitsIcEENS_9allocatorIcEEEE,
                            __ZTSNSt3__121__basic_string_commonILb1EEE ]
...
