--- !tapi-tbd
tbd-version:           4
targets:               [ armv7-ios, armv7s-ios, arm64-ios, arm64e-ios ]
flags:                 [ flat_namespace ]
install-name:          /System/Library/PrivateFrameworks/Morpheus.framework/Morpheus
current-version:       1
compatibility-version: 1
exports:
  - targets:              [ armv7-ios, armv7s-ios, arm64-ios, arm64e-ios ]
    symbols:              [ _MorpheusVersionNumber, _MorpheusVersionString,
                            __ZN10mlx_array_8tostringEv,
                            __ZN11mlx_device_8tostringEv,
                            __ZN11mlx_stream_8tostringEv,
                            __ZN11mlx_string_8tostringEv,
                            __ZN12mlx_closure_8tostringEv,
                            __ZN16mlx_safetensors_8tostringEv,
                            __ZN17mlx_vector_array_8tostringEv,
                            __ZN24mlx_map_string_to_array_8tostringEv,
                            __ZN24mlx_vector_vector_array_8tostringEv,
                            __ZN25mlx_map_string_to_string_8tostringEv,
                            __ZN27mlx_closure_value_and_grad_8tostringEv,
                            __ZN33mlx_map_string_to_array_iterator_8tostringEv,
                            __ZN34mlx_map_string_to_string_iterator_8tostringEv,
                            __ZN3mlx4core10LogicalAnd3jvpERKNSt3__16vectorINS0_5arrayENS2_9allocatorIS4_EEEES9_RKNS3_IiNS5_IiEEEE,
                            __ZN3mlx4core10LogicalAnd3vjpERKNSt3__16vectorINS0_5arrayENS2_9allocatorIS4_EEEES9_RKNS3_IiNS5_IiEEEES9_,
                            __ZN3mlx4core10LogicalAnd4evalERKNSt3__16vectorINS0_5arrayENS2_9allocatorIS4_EEEERS4_,
                            __ZN3mlx4core10LogicalAnd4vmapERKNSt3__16vectorINS0_5arrayENS2_9allocatorIS4_EEEERKNS3_IiNS5_IiEEEE,
                            __ZN3mlx4core10LogicalAnd8eval_cpuERKNSt3__16vectorINS0_5arrayENS2_9allocatorIS4_EEEERS4_,
                            __ZN3mlx4core10LogicalAnd8eval_gpuERKNSt3__16vectorINS0_5arrayENS2_9allocatorIS4_EEEERS4_,
                            __ZN3mlx4core10LogicalNot3jvpERKNSt3__16vectorINS0_5arrayENS2_9allocatorIS4_EEEES9_RKNS3_IiNS5_IiEEEE,
                            __ZN3mlx4core10LogicalNot3vjpERKNSt3__16vectorINS0_5arrayENS2_9allocatorIS4_EEEES9_RKNS3_IiNS5_IiEEEES9_,
                            __ZN3mlx4core10LogicalNot4evalERKNSt3__16vectorINS0_5arrayENS2_9allocatorIS4_EEEERS4_,
                            __ZN3mlx4core10LogicalNot4vmapERKNSt3__16vectorINS0_5arrayENS2_9allocatorIS4_EEEERKNS3_IiNS5_IiEEEE,
                            __ZN3mlx4core10LogicalNot8eval_cpuERKNSt3__16vectorINS0_5arrayENS2_9allocatorIS4_EEEERS4_,
                            __ZN3mlx4core10LogicalNot8eval_gpuERKNSt3__16vectorINS0_5arrayENS2_9allocatorIS4_EEEERS4_,
                            __ZN3mlx4core10RandomBits4evalERKNSt3__16vectorINS0_5arrayENS2_9allocatorIS4_EEEERS4_,
                            __ZN3mlx4core10RandomBits4vmapERKNSt3__16vectorINS0_5arrayENS2_9allocatorIS4_EEEERKNS3_IiNS5_IiEEEE,
                            __ZN3mlx4core10RandomBits8eval_cpuERKNSt3__16vectorINS0_5arrayENS2_9allocatorIS4_EEEERS4_,
                            __ZN3mlx4core10RandomBits8eval_gpuERKNSt3__16vectorINS0_5arrayENS2_9allocatorIS4_EEEERS4_,
                            __ZN3mlx4core10as_stridedENS0_5arrayENSt3__16vectorIiNS2_9allocatorIiEEEENS3_ImNS4_ImEEEEmNS2_7variantIJNS2_9monostateENS0_6StreamENS0_6DeviceEEEE,
                            __ZN3mlx4core10async_evalENSt3__16vectorINS0_5arrayENS1_9allocatorIS3_EEEE,
                            __ZN3mlx4core10atleast_1dERKNS0_5arrayENSt3__17variantIJNS4_9monostateENS0_6StreamENS0_6DeviceEEEE,
                            __ZN3mlx4core10atleast_1dERKNSt3__16vectorINS0_5arrayENS1_9allocatorIS3_EEEENS1_7variantIJNS1_9monostateENS0_6StreamENS0_6DeviceEEEE,
                            __ZN3mlx4core10atleast_2dERKNS0_5arrayENSt3__17variantIJNS4_9monostateENS0_6StreamENS0_6DeviceEEEE,
                            __ZN3mlx4core10atleast_2dERKNSt3__16vectorINS0_5arrayENS1_9allocatorIS3_EEEENS1_7variantIJNS1_9monostateENS0_6StreamENS0_6DeviceEEEE,
                            __ZN3mlx4core10atleast_3dERKNS0_5arrayENSt3__17variantIJNS4_9monostateENS0_6StreamENS0_6DeviceEEEE,
                            __ZN3mlx4core10atleast_3dERKNSt3__16vectorINS0_5arrayENS1_9allocatorIS3_EEEENS1_7variantIJNS1_9monostateENS0_6StreamENS0_6DeviceEEEE,
                            __ZN3mlx4core10bitwise_orERKNS0_5arrayES3_NSt3__17variantIJNS4_9monostateENS0_6StreamENS0_6DeviceEEEE,
                            __ZN3mlx4core10checkpointENSt3__18functionIFNS1_6vectorINS0_5arrayENS1_9allocatorIS4_EEEERKS7_EEE,
                            __ZN3mlx4core10custom_vjpENSt3__18functionIFNS1_6vectorINS0_5arrayENS1_9allocatorIS4_EEEERKS7_EEENS2_IFS7_S9_S9_S9_EEE,
                            __ZN3mlx4core10issubdtypeERKNS0_5Dtype8CategoryERKS1_,
                            __ZN3mlx4core10issubdtypeERKNS0_5Dtype8CategoryES4_,
                            __ZN3mlx4core10issubdtypeERKNS0_5DtypeERKNS1_8CategoryE,
                            __ZN3mlx4core10issubdtypeERKNS0_5DtypeES3_,
                            __ZN3mlx4core10left_shiftERKNS0_5arrayES3_NSt3__17variantIJNS4_9monostateENS0_6StreamENS0_6DeviceEEEE,
                            __ZN3mlx4core10less_equalERKNS0_5arrayES3_NSt3__17variantIJNS4_9monostateENS0_6StreamENS0_6DeviceEEEE,
                            __ZN3mlx4core10logical_orERKNS0_5arrayES3_NSt3__17variantIJNS4_9monostateENS0_6StreamENS0_6DeviceEEEE,
                            __ZN3mlx4core10new_streamENS0_6DeviceE,
                            __ZN3mlx4core10new_streamEv,
                            __ZN3mlx4core10reciprocalERKNS0_5arrayENSt3__17variantIJNS4_9monostateENS0_6StreamENS0_6DeviceEEEE,
                            __ZN3mlx4core10zeros_likeERKNS0_5arrayENSt3__17variantIJNS4_9monostateENS0_6StreamENS0_6DeviceEEEE,
                            __ZN3mlx4core11Concatenate3jvpERKNSt3__16vectorINS0_5arrayENS2_9allocatorIS4_EEEES9_RKNS3_IiNS5_IiEEEE,
                            __ZN3mlx4core11Concatenate3vjpERKNSt3__16vectorINS0_5arrayENS2_9allocatorIS4_EEEES9_RKNS3_IiNS5_IiEEEES9_,
                            __ZN3mlx4core11Concatenate4evalERKNSt3__16vectorINS0_5arrayENS2_9allocatorIS4_EEEERS4_,
                            __ZN3mlx4core11Concatenate4vmapERKNSt3__16vectorINS0_5arrayENS2_9allocatorIS4_EEEERKNS3_IiNS5_IiEEEE,
                            __ZN3mlx4core11Concatenate8eval_cpuERKNSt3__16vectorINS0_5arrayENS2_9allocatorIS4_EEEERS4_,
                            __ZN3mlx4core11Concatenate8eval_gpuERKNSt3__16vectorINS0_5arrayENS2_9allocatorIS4_EEEERS4_,
                            __ZN3mlx4core11SliceUpdate13prepare_sliceERKNS0_5arrayE,
                            __ZN3mlx4core11SliceUpdate3jvpERKNSt3__16vectorINS0_5arrayENS2_9allocatorIS4_EEEES9_RKNS3_IiNS5_IiEEEE,
                            __ZN3mlx4core11SliceUpdate3vjpERKNSt3__16vectorINS0_5arrayENS2_9allocatorIS4_EEEES9_RKNS3_IiNS5_IiEEEES9_,
                            __ZN3mlx4core11SliceUpdate4evalERKNSt3__16vectorINS0_5arrayENS2_9allocatorIS4_EEEERS4_,
                            __ZN3mlx4core11SliceUpdate4vmapERKNSt3__16vectorINS0_5arrayENS2_9allocatorIS4_EEEERKNS3_IiNS5_IiEEEE,
                            __ZN3mlx4core11SliceUpdate8eval_cpuERKNSt3__16vectorINS0_5arrayENS2_9allocatorIS4_EEEERS4_,
                            __ZN3mlx4core11SliceUpdate8eval_gpuERKNSt3__16vectorINS0_5arrayENS2_9allocatorIS4_EEEERS4_,
                            __ZN3mlx4core11TypeToDtypeIaEcvNS0_5DtypeEEv,
                            __ZN3mlx4core11TypeToDtypeIbEcvNS0_5DtypeEEv,
                            __ZN3mlx4core11TypeToDtypeIdEcvNS0_5DtypeEEv,
                            __ZN3mlx4core11TypeToDtypeIfEcvNS0_5DtypeEEv,
                            __ZN3mlx4core11TypeToDtypeIhEcvNS0_5DtypeEEv,
                            __ZN3mlx4core11TypeToDtypeIiEcvNS0_5DtypeEEv,
                            __ZN3mlx4core11TypeToDtypeIjEcvNS0_5DtypeEEv,
                            __ZN3mlx4core11TypeToDtypeIxEcvNS0_5DtypeEEv,
                            __ZN3mlx4core11array_equalERKNS0_5arrayES3_bNSt3__17variantIJNS4_9monostateENS0_6StreamENS0_6DeviceEEEE,
                            __ZN3mlx4core11bitwise_andERKNS0_5arrayES3_NSt3__17variantIJNS4_9monostateENS0_6StreamENS0_6DeviceEEEE,
                            __ZN3mlx4core11bitwise_xorERKNS0_5arrayES3_NSt3__17variantIJNS4_9monostateENS0_6StreamENS0_6DeviceEEEE,
                            __ZN3mlx4core11concatenateERKNSt3__16vectorINS0_5arrayENS1_9allocatorIS3_EEEENS1_7variantIJNS1_9monostateENS0_6StreamENS0_6DeviceEEEE,
                            __ZN3mlx4core11concatenateERKNSt3__16vectorINS0_5arrayENS1_9allocatorIS3_EEEEiNS1_7variantIJNS1_9monostateENS0_6StreamENS0_6DeviceEEEE,
                            __ZN3mlx4core11distributed12is_availableEv,
                            __ZN3mlx4core11distributed4initEv,
                            __ZN3mlx4core11distributed5Group4rankEv,
                            __ZN3mlx4core11distributed5Group4sizeEv,
                            __ZN3mlx4core11distributed5Group5splitEii,
                            __ZN3mlx4core11distributed6detail10all_gatherENS1_5GroupERKNS0_5arrayERS4_,
                            __ZN3mlx4core11distributed6detail14all_reduce_sumENS1_5GroupERKNS0_5arrayERS4_,
                            __ZN3mlx4core11distributed6detail20communication_streamEv,
                            __ZN3mlx4core11expand_dimsERKNS0_5arrayERKNSt3__16vectorIiNS4_9allocatorIiEEEENS4_7variantIJNS4_9monostateENS0_6StreamENS0_6DeviceEEEE,
                            __ZN3mlx4core11expand_dimsERKNS0_5arrayEiNSt3__17variantIJNS4_9monostateENS0_6StreamENS0_6DeviceEEEE,
                            __ZN3mlx4core11logical_andERKNS0_5arrayES3_NSt3__17variantIJNS4_9monostateENS0_6StreamENS0_6DeviceEEEE,
                            __ZN3mlx4core11logical_notERKNS0_5arrayENSt3__17variantIJNS4_9monostateENS0_6StreamENS0_6DeviceEEEE,
                            __ZN3mlx4core11result_typeERKNSt3__16vectorINS0_5arrayENS1_9allocatorIS3_EEEE,
                            __ZN3mlx4core11right_shiftERKNS0_5arrayES3_NSt3__17variantIJNS4_9monostateENS0_6StreamENS0_6DeviceEEEE,
                            __ZN3mlx4core11scatter_addERKNS0_5arrayERKNSt3__16vectorIS1_NS4_9allocatorIS1_EEEES3_RKNS5_IiNS6_IiEEEENS4_7variantIJNS4_9monostateENS0_6StreamENS0_6DeviceEEEE,
                            __ZN3mlx4core11scatter_maxERKNS0_5arrayERKNSt3__16vectorIS1_NS4_9allocatorIS1_EEEES3_RKNS5_IiNS6_IiEEEENS4_7variantIJNS4_9monostateENS0_6StreamENS0_6DeviceEEEE,
                            __ZN3mlx4core11scatter_minERKNS0_5arrayERKNSt3__16vectorIS1_NS4_9allocatorIS1_EEEES3_RKNS5_IiNS6_IiEEEENS4_7variantIJNS4_9monostateENS0_6StreamENS0_6DeviceEEEE,
                            __ZN3mlx4core11synchronizeENS0_6StreamE,
                            __ZN3mlx4core11synchronizeEv,
                            __ZN3mlx4core12ArgPartition4evalERKNSt3__16vectorINS0_5arrayENS2_9allocatorIS4_EEEERS4_,
                            __ZN3mlx4core12ArgPartition4vmapERKNSt3__16vectorINS0_5arrayENS2_9allocatorIS4_EEEERKNS3_IiNS5_IiEEEE,
                            __ZN3mlx4core12ArgPartition8eval_cpuERKNSt3__16vectorINS0_5arrayENS2_9allocatorIS4_EEEERS4_,
                            __ZN3mlx4core12ArgPartition8eval_gpuERKNSt3__16vectorINS0_5arrayENS2_9allocatorIS4_EEEERS4_,
                            __ZN3mlx4core12GreaterEqual3jvpERKNSt3__16vectorINS0_5arrayENS2_9allocatorIS4_EEEES9_RKNS3_IiNS5_IiEEEE,
                            __ZN3mlx4core12GreaterEqual3vjpERKNSt3__16vectorINS0_5arrayENS2_9allocatorIS4_EEEES9_RKNS3_IiNS5_IiEEEES9_,
                            __ZN3mlx4core12GreaterEqual4evalERKNSt3__16vectorINS0_5arrayENS2_9allocatorIS4_EEEERS4_,
                            __ZN3mlx4core12GreaterEqual4vmapERKNSt3__16vectorINS0_5arrayENS2_9allocatorIS4_EEEERKNS3_IiNS5_IiEEEE,
                            __ZN3mlx4core12GreaterEqual8eval_cpuERKNSt3__16vectorINS0_5arrayENS2_9allocatorIS4_EEEERS4_,
                            __ZN3mlx4core12GreaterEqual8eval_gpuERKNSt3__16vectorINS0_5arrayENS2_9allocatorIS4_EEEERS4_,
                            __ZN3mlx4core12StopGradient4evalERKNSt3__16vectorINS0_5arrayENS2_9allocatorIS4_EEEERS4_,
                            __ZN3mlx4core12StopGradient4vmapERKNSt3__16vectorINS0_5arrayENS2_9allocatorIS4_EEEERKNS3_IiNS5_IiEEEE,
                            __ZN3mlx4core12StopGradient8eval_cpuERKNSt3__16vectorINS0_5arrayENS2_9allocatorIS4_EEEERS4_,
                            __ZN3mlx4core12StopGradient8eval_gpuERKNSt3__16vectorINS0_5arrayENS2_9allocatorIS4_EEEERS4_,
                            __ZN3mlx4core12argpartitionERKNS0_5arrayEiNSt3__17variantIJNS4_9monostateENS0_6StreamENS0_6DeviceEEEE,
                            __ZN3mlx4core12argpartitionERKNS0_5arrayEiiNSt3__17variantIJNS4_9monostateENS0_6StreamENS0_6DeviceEEEE,
                            __ZN3mlx4core12bitwise_implERKNS0_5arrayES3_NS0_13BitwiseBinary2OpERKNSt3__112basic_stringIcNS6_11char_traitsIcEENS6_9allocatorIcEEEERKNS6_7variantIJNS6_9monostateENS0_6StreamENS0_6DeviceEEEE,
                            __ZN3mlx4core12broadcast_toERKNS0_5arrayERKNSt3__16vectorIiNS4_9allocatorIiEEEENS4_7variantIJNS4_9monostateENS0_6StreamENS0_6DeviceEEEE,
                            __ZN3mlx4core12copy_inplaceERKNS0_5arrayERS1_NS0_8CopyTypeE,
                            __ZN3mlx4core12copy_inplaceIxEEvRKNS0_5arrayERS2_RKNSt3__16vectorIiNS6_9allocatorIiEEEERKNS7_IT_NS8_ISD_EEEESH_xxNS0_8CopyTypeE,
                            __ZN3mlx4core12floor_divideERKNS0_5arrayES3_NSt3__17variantIJNS4_9monostateENS0_6StreamENS0_6DeviceEEEE,
                            __ZN3mlx4core12inverse_implERKNS0_5arrayERS1_,
                            __ZN3mlx4core12scatter_prodERKNS0_5arrayERKNSt3__16vectorIS1_NS4_9allocatorIS1_EEEES3_RKNS5_IiNS6_IiEEEENS4_7variantIJNS4_9monostateENS0_6StreamENS0_6DeviceEEEE,
                            __ZN3mlx4core12slice_updateERKNS0_5arrayES3_NSt3__16vectorIiNS4_9allocatorIiEEEES8_NS4_7variantIJNS4_9monostateENS0_6StreamENS0_6DeviceEEEE,
                            __ZN3mlx4core12slice_updateERKNS0_5arrayES3_NSt3__16vectorIiNS4_9allocatorIiEEEES8_S8_NS4_7variantIJNS4_9monostateENS0_6StreamENS0_6DeviceEEEE,
                            __ZN3mlx4core13BitwiseBinary4vmapERKNSt3__16vectorINS0_5arrayENS2_9allocatorIS4_EEEERKNS3_IiNS5_IiEEEE,
                            __ZN3mlx4core13BitwiseBinary5printERNSt3__113basic_ostreamIcNS2_11char_traitsIcEEEE,
                            __ZN3mlx4core13BitwiseBinary8eval_cpuERKNSt3__16vectorINS0_5arrayENS2_9allocatorIS4_EEEERS4_,
                            __ZN3mlx4core13BitwiseBinary8eval_gpuERKNSt3__16vectorINS0_5arrayENS2_9allocatorIS4_EEEERS4_,
                            __ZN3mlx4core13BlockMaskedMM3vjpERKNSt3__16vectorINS0_5arrayENS2_9allocatorIS4_EEEES9_RKNS3_IiNS5_IiEEEES9_,
                            __ZN3mlx4core13BlockMaskedMM4evalERKNSt3__16vectorINS0_5arrayENS2_9allocatorIS4_EEEERS4_,
                            __ZN3mlx4core13BlockMaskedMM8eval_cpuERKNSt3__16vectorINS0_5arrayENS2_9allocatorIS4_EEEERS4_,
                            __ZN3mlx4core13BlockMaskedMM8eval_gpuERKNSt3__16vectorINS0_5arrayENS2_9allocatorIS4_EEEERS4_,
                            __ZN3mlx4core13cholesky_implERKNS0_5arrayERS1_b,
                            __ZN3mlx4core13greater_equalERKNS0_5arrayES3_NSt3__17variantIJNS4_9monostateENS0_6StreamENS0_6DeviceEEEE,
                            __ZN3mlx4core13is_same_shapeERKNSt3__16vectorINS0_5arrayENS1_9allocatorIS3_EEEE,
                            __ZN3mlx4core13promote_typesERKNS0_5DtypeES3_,
                            __ZN3mlx4core13stop_gradientERKNS0_5arrayENSt3__17variantIJNS4_9monostateENS0_6StreamENS0_6DeviceEEEE,
                            __ZN3mlx4core13to_bnns_dtypeENS0_5DtypeE,
                            __ZN3mlx4core14default_deviceEv,
                            __ZN3mlx4core14default_streamENS0_6DeviceE,
                            __ZN3mlx4core14normalize_axisEii,
                            __ZN3mlx4core14value_and_gradERKNSt3__18functionIFNS1_6vectorINS0_5arrayENS1_9allocatorIS4_EEEERKS7_EEERKNS3_IiNS5_IiEEEE,
                            __ZN3mlx4core15block_masked_mmENS0_5arrayES1_iNSt3__18optionalIS1_EES4_S4_NS2_7variantIJNS2_9monostateENS0_6StreamENS0_6DeviceEEEE,
                            __ZN3mlx4core15take_along_axisERKNS0_5arrayES3_iNSt3__17variantIJNS4_9monostateENS0_6StreamENS0_6DeviceEEEE,
                            __ZN3mlx4core16NumberOfElements4evalERKNSt3__16vectorINS0_5arrayENS2_9allocatorIS4_EEEERS4_,
                            __ZN3mlx4core16NumberOfElements4vmapERKNSt3__16vectorINS0_5arrayENS2_9allocatorIS4_EEEERKNS3_IiNS5_IiEEEE,
                            __ZN3mlx4core16NumberOfElements8eval_cpuERKNSt3__16vectorINS0_5arrayENS2_9allocatorIS4_EEEERS4_,
                            __ZN3mlx4core16NumberOfElements8eval_gpuERKNSt3__16vectorINS0_5arrayENS2_9allocatorIS4_EEEERS4_,
                            __ZN3mlx4core16broadcast_arraysERKNS0_5arrayES3_NSt3__17variantIJNS4_9monostateENS0_6StreamENS0_6DeviceEEEE,
                            __ZN3mlx4core16broadcast_arraysERKNSt3__16vectorINS0_5arrayENS1_9allocatorIS3_EEEENS1_7variantIJNS1_9monostateENS0_6StreamENS0_6DeviceEEEE,
                            __ZN3mlx4core16broadcast_shapesERKNSt3__16vectorIiNS1_9allocatorIiEEEES7_,
                            __ZN3mlx4core16global_formatterE,
                            __ZN3mlx4core16load_safetensorsENSt3__110shared_ptrINS0_2io6ReaderEEENS1_7variantIJNS1_9monostateENS0_6StreamENS0_6DeviceEEEE,
                            __ZN3mlx4core16load_safetensorsERKNSt3__112basic_stringIcNS1_11char_traitsIcEENS1_9allocatorIcEEEENS1_7variantIJNS1_9monostateENS0_6StreamENS0_6DeviceEEEE,
                            __ZN3mlx4core16save_safetensorsENSt3__110shared_ptrINS0_2io6WriterEEENS1_13unordered_mapINS1_12basic_stringIcNS1_11char_traitsIcEENS1_9allocatorIcEEEENS0_5arrayENS1_4hashISC_EENS1_8equal_toISC_EENSA_INS1_4pairIKSC_SD_EEEEEENS6_ISC_SC_SF_SH_NSA_INSI_ISJ_SC_EEEEEE,
                            __ZN3mlx4core16save_safetensorsENSt3__112basic_stringIcNS1_11char_traitsIcEENS1_9allocatorIcEEEENS1_13unordered_mapIS7_NS0_5arrayENS1_4hashIS7_EENS1_8equal_toIS7_EENS5_INS1_4pairIKS7_S9_EEEEEENS8_IS7_S7_SB_SD_NS5_INSE_ISF_S7_EEEEEE,
                            __ZN3mlx4core18number_of_elementsERKNS0_5arrayENSt3__16vectorIiNS4_9allocatorIiEEEEbNS0_5DtypeENS4_7variantIJNS4_9monostateENS0_6StreamENS0_6DeviceEEEE,
                            __ZN3mlx4core18set_default_deviceERKNS0_6DeviceE,
                            __ZN3mlx4core18set_default_streamENS0_6StreamE,
                            __ZN3mlx4core23dtype_to_array_protocolERKNS0_5DtypeE,
                            __ZN3mlx4core25dtype_from_array_protocolENSt3__117basic_string_viewIcNS1_11char_traitsIcEEEE,
                            __ZN3mlx4core3Abs3jvpERKNSt3__16vectorINS0_5arrayENS2_9allocatorIS4_EEEES9_RKNS3_IiNS5_IiEEEE,
                            __ZN3mlx4core3Abs3vjpERKNSt3__16vectorINS0_5arrayENS2_9allocatorIS4_EEEES9_RKNS3_IiNS5_IiEEEES9_,
                            __ZN3mlx4core3Abs4evalERKNSt3__16vectorINS0_5arrayENS2_9allocatorIS4_EEEERS4_,
                            __ZN3mlx4core3Abs4vmapERKNSt3__16vectorINS0_5arrayENS2_9allocatorIS4_EEEERKNS3_IiNS5_IiEEEE,
                            __ZN3mlx4core3Abs8eval_cpuERKNSt3__16vectorINS0_5arrayENS2_9allocatorIS4_EEEERS4_,
                            __ZN3mlx4core3Abs8eval_gpuERKNSt3__16vectorINS0_5arrayENS2_9allocatorIS4_EEEERS4_,
                            __ZN3mlx4core3Add3jvpERKNSt3__16vectorINS0_5arrayENS2_9allocatorIS4_EEEES9_RKNS3_IiNS5_IiEEEE,
                            __ZN3mlx4core3Add3vjpERKNSt3__16vectorINS0_5arrayENS2_9allocatorIS4_EEEES9_RKNS3_IiNS5_IiEEEES9_,
                            __ZN3mlx4core3Add4evalERKNSt3__16vectorINS0_5arrayENS2_9allocatorIS4_EEEERS4_,
                            __ZN3mlx4core3Add4vmapERKNSt3__16vectorINS0_5arrayENS2_9allocatorIS4_EEEERKNS3_IiNS5_IiEEEE,
                            __ZN3mlx4core3Add8eval_cpuERKNSt3__16vectorINS0_5arrayENS2_9allocatorIS4_EEEERS4_,
                            __ZN3mlx4core3Add8eval_gpuERKNSt3__16vectorINS0_5arrayENS2_9allocatorIS4_EEEERS4_,
                            __ZN3mlx4core3Cos3jvpERKNSt3__16vectorINS0_5arrayENS2_9allocatorIS4_EEEES9_RKNS3_IiNS5_IiEEEE,
                            __ZN3mlx4core3Cos3vjpERKNSt3__16vectorINS0_5arrayENS2_9allocatorIS4_EEEES9_RKNS3_IiNS5_IiEEEES9_,
                            __ZN3mlx4core3Cos4evalERKNSt3__16vectorINS0_5arrayENS2_9allocatorIS4_EEEERS4_,
                            __ZN3mlx4core3Cos4vmapERKNSt3__16vectorINS0_5arrayENS2_9allocatorIS4_EEEERKNS3_IiNS5_IiEEEE,
                            __ZN3mlx4core3Cos8eval_cpuERKNSt3__16vectorINS0_5arrayENS2_9allocatorIS4_EEEERS4_,
                            __ZN3mlx4core3Cos8eval_gpuERKNSt3__16vectorINS0_5arrayENS2_9allocatorIS4_EEEERS4_,
                            __ZN3mlx4core3Erf3jvpERKNSt3__16vectorINS0_5arrayENS2_9allocatorIS4_EEEES9_RKNS3_IiNS5_IiEEEE,
                            __ZN3mlx4core3Erf3vjpERKNSt3__16vectorINS0_5arrayENS2_9allocatorIS4_EEEES9_RKNS3_IiNS5_IiEEEES9_,
                            __ZN3mlx4core3Erf4evalERKNSt3__16vectorINS0_5arrayENS2_9allocatorIS4_EEEERS4_,
                            __ZN3mlx4core3Erf4vmapERKNSt3__16vectorINS0_5arrayENS2_9allocatorIS4_EEEERKNS3_IiNS5_IiEEEE,
                            __ZN3mlx4core3Erf8eval_cpuERKNSt3__16vectorINS0_5arrayENS2_9allocatorIS4_EEEERS4_,
                            __ZN3mlx4core3Erf8eval_gpuERKNSt3__16vectorINS0_5arrayENS2_9allocatorIS4_EEEERS4_,
                            __ZN3mlx4core3Exp3jvpERKNSt3__16vectorINS0_5arrayENS2_9allocatorIS4_EEEES9_RKNS3_IiNS5_IiEEEE,
                            __ZN3mlx4core3Exp3vjpERKNSt3__16vectorINS0_5arrayENS2_9allocatorIS4_EEEES9_RKNS3_IiNS5_IiEEEES9_,
                            __ZN3mlx4core3Exp4evalERKNSt3__16vectorINS0_5arrayENS2_9allocatorIS4_EEEERS4_,
                            __ZN3mlx4core3Exp4vmapERKNSt3__16vectorINS0_5arrayENS2_9allocatorIS4_EEEERKNS3_IiNS5_IiEEEE,
                            __ZN3mlx4core3Exp8eval_cpuERKNSt3__16vectorINS0_5arrayENS2_9allocatorIS4_EEEERS4_,
                            __ZN3mlx4core3Exp8eval_gpuERKNSt3__16vectorINS0_5arrayENS2_9allocatorIS4_EEEERS4_,
                            __ZN3mlx4core3Log3jvpERKNSt3__16vectorINS0_5arrayENS2_9allocatorIS4_EEEES9_RKNS3_IiNS5_IiEEEE,
                            __ZN3mlx4core3Log3vjpERKNSt3__16vectorINS0_5arrayENS2_9allocatorIS4_EEEES9_RKNS3_IiNS5_IiEEEES9_,
                            __ZN3mlx4core3Log4evalERKNSt3__16vectorINS0_5arrayENS2_9allocatorIS4_EEEERS4_,
                            __ZN3mlx4core3Log4vmapERKNSt3__16vectorINS0_5arrayENS2_9allocatorIS4_EEEERKNS3_IiNS5_IiEEEE,
                            __ZN3mlx4core3Log8eval_cpuERKNSt3__16vectorINS0_5arrayENS2_9allocatorIS4_EEEERS4_,
                            __ZN3mlx4core3Log8eval_gpuERKNSt3__16vectorINS0_5arrayENS2_9allocatorIS4_EEEERS4_,
                            __ZN3mlx4core3Pad3jvpERKNSt3__16vectorINS0_5arrayENS2_9allocatorIS4_EEEES9_RKNS3_IiNS5_IiEEEE,
                            __ZN3mlx4core3Pad3vjpERKNSt3__16vectorINS0_5arrayENS2_9allocatorIS4_EEEES9_RKNS3_IiNS5_IiEEEES9_,
                            __ZN3mlx4core3Pad4evalERKNSt3__16vectorINS0_5arrayENS2_9allocatorIS4_EEEERS4_,
                            __ZN3mlx4core3Pad4vmapERKNSt3__16vectorINS0_5arrayENS2_9allocatorIS4_EEEERKNS3_IiNS5_IiEEEE,
                            __ZN3mlx4core3Pad8eval_cpuERKNSt3__16vectorINS0_5arrayENS2_9allocatorIS4_EEEERS4_,
                            __ZN3mlx4core3Pad8eval_gpuERKNSt3__16vectorINS0_5arrayENS2_9allocatorIS4_EEEERS4_,
                            __ZN3mlx4core3QRF4evalERKNSt3__16vectorINS0_5arrayENS2_9allocatorIS4_EEEERS7_,
                            __ZN3mlx4core3QRF8eval_cpuERKNSt3__16vectorINS0_5arrayENS2_9allocatorIS4_EEEERS7_,
                            __ZN3mlx4core3QRF8eval_gpuERKNSt3__16vectorINS0_5arrayENS2_9allocatorIS4_EEEERS7_,
                            __ZN3mlx4core3SVD4evalERKNSt3__16vectorINS0_5arrayENS2_9allocatorIS4_EEEERS7_,
                            __ZN3mlx4core3SVD4vmapERKNSt3__16vectorINS0_5arrayENS2_9allocatorIS4_EEEERKNS3_IiNS5_IiEEEE,
                            __ZN3mlx4core3SVD8eval_cpuERKNSt3__16vectorINS0_5arrayENS2_9allocatorIS4_EEEERS7_,
                            __ZN3mlx4core3SVD8eval_gpuERKNSt3__16vectorINS0_5arrayENS2_9allocatorIS4_EEEERS7_,
                            __ZN3mlx4core3Sin3jvpERKNSt3__16vectorINS0_5arrayENS2_9allocatorIS4_EEEES9_RKNS3_IiNS5_IiEEEE,
                            __ZN3mlx4core3Sin3vjpERKNSt3__16vectorINS0_5arrayENS2_9allocatorIS4_EEEES9_RKNS3_IiNS5_IiEEEES9_,
                            __ZN3mlx4core3Sin4evalERKNSt3__16vectorINS0_5arrayENS2_9allocatorIS4_EEEERS4_,
                            __ZN3mlx4core3Sin4vmapERKNSt3__16vectorINS0_5arrayENS2_9allocatorIS4_EEEERKNS3_IiNS5_IiEEEE,
                            __ZN3mlx4core3Sin8eval_cpuERKNSt3__16vectorINS0_5arrayENS2_9allocatorIS4_EEEERS4_,
                            __ZN3mlx4core3Sin8eval_gpuERKNSt3__16vectorINS0_5arrayENS2_9allocatorIS4_EEEERS4_,
                            __ZN3mlx4core3Tan3jvpERKNSt3__16vectorINS0_5arrayENS2_9allocatorIS4_EEEES9_RKNS3_IiNS5_IiEEEE,
                            __ZN3mlx4core3Tan3vjpERKNSt3__16vectorINS0_5arrayENS2_9allocatorIS4_EEEES9_RKNS3_IiNS5_IiEEEES9_,
                            __ZN3mlx4core3Tan4evalERKNSt3__16vectorINS0_5arrayENS2_9allocatorIS4_EEEERS4_,
                            __ZN3mlx4core3Tan4vmapERKNSt3__16vectorINS0_5arrayENS2_9allocatorIS4_EEEERKNS3_IiNS5_IiEEEE,
                            __ZN3mlx4core3Tan8eval_cpuERKNSt3__16vectorINS0_5arrayENS2_9allocatorIS4_EEEERS4_,
                            __ZN3mlx4core3Tan8eval_gpuERKNSt3__16vectorINS0_5arrayENS2_9allocatorIS4_EEEERS4_,
                            __ZN3mlx4core3absERKNS0_5arrayENSt3__17variantIJNS4_9monostateENS0_6StreamENS0_6DeviceEEEE,
                            __ZN3mlx4core3addERKNS0_5arrayES3_NSt3__17variantIJNS4_9monostateENS0_6StreamENS0_6DeviceEEEE,
                            __ZN3mlx4core3allERKNS0_5arrayERKNSt3__16vectorIiNS4_9allocatorIiEEEEbNS4_7variantIJNS4_9monostateENS0_6StreamENS0_6DeviceEEEE,
                            __ZN3mlx4core3allERKNS0_5arrayEbNSt3__17variantIJNS4_9monostateENS0_6StreamENS0_6DeviceEEEE,
                            __ZN3mlx4core3allERKNS0_5arrayEibNSt3__17variantIJNS4_9monostateENS0_6StreamENS0_6DeviceEEEE,
                            __ZN3mlx4core3anyERKNS0_5arrayERKNSt3__16vectorIiNS4_9allocatorIiEEEEbNS4_7variantIJNS4_9monostateENS0_6StreamENS0_6DeviceEEEE,
                            __ZN3mlx4core3anyERKNS0_5arrayEbNSt3__17variantIJNS4_9monostateENS0_6StreamENS0_6DeviceEEEE,
                            __ZN3mlx4core3anyERKNS0_5arrayEibNSt3__17variantIJNS4_9monostateENS0_6StreamENS0_6DeviceEEEE,
                            __ZN3mlx4core3cosERKNS0_5arrayENSt3__17variantIJNS4_9monostateENS0_6StreamENS0_6DeviceEEEE,
                            __ZN3mlx4core3erfERKNS0_5arrayENSt3__17variantIJNS4_9monostateENS0_6StreamENS0_6DeviceEEEE,
                            __ZN3mlx4core3expERKNS0_5arrayENSt3__17variantIJNS4_9monostateENS0_6StreamENS0_6DeviceEEEE,
                            __ZN3mlx4core3eyeEiiiNS0_5DtypeENSt3__17variantIJNS2_9monostateENS0_6StreamENS0_6DeviceEEEE,
                            __ZN3mlx4core3jvpERKNSt3__18functionIFNS0_5arrayERKS3_EEES5_S5_,
                            __ZN3mlx4core3jvpERKNSt3__18functionIFNS1_6vectorINS0_5arrayENS1_9allocatorIS4_EEEERKS7_EEES9_S9_,
                            __ZN3mlx4core3logERKNS0_5arrayENSt3__17variantIJNS4_9monostateENS0_6StreamENS0_6DeviceEEEE,
                            __ZN3mlx4core3maxERKNS0_5arrayERKNSt3__16vectorIiNS4_9allocatorIiEEEEbNS4_7variantIJNS4_9monostateENS0_6StreamENS0_6DeviceEEEE,
                            __ZN3mlx4core3maxERKNS0_5arrayEbNSt3__17variantIJNS4_9monostateENS0_6StreamENS0_6DeviceEEEE,
                            __ZN3mlx4core3maxERKNS0_5arrayEibNSt3__17variantIJNS4_9monostateENS0_6StreamENS0_6DeviceEEEE,
                            __ZN3mlx4core3minERKNS0_5arrayERKNSt3__16vectorIiNS4_9allocatorIiEEEEbNS4_7variantIJNS4_9monostateENS0_6StreamENS0_6DeviceEEEE,
                            __ZN3mlx4core3minERKNS0_5arrayEbNSt3__17variantIJNS4_9monostateENS0_6StreamENS0_6DeviceEEEE,
                            __ZN3mlx4core3minERKNS0_5arrayEibNSt3__17variantIJNS4_9monostateENS0_6StreamENS0_6DeviceEEEE,
                            __ZN3mlx4core3padERKNS0_5arrayERKNSt3__14pairIiiEES3_NS4_7variantIJNS4_9monostateENS0_6StreamENS0_6DeviceEEEE,
                            __ZN3mlx4core3padERKNS0_5arrayERKNSt3__16vectorINS4_4pairIiiEENS4_9allocatorIS7_EEEES3_NS4_7variantIJNS4_9monostateENS0_6StreamENS0_6DeviceEEEE,
                            __ZN3mlx4core3padERKNS0_5arrayERKNSt3__16vectorIiNS4_9allocatorIiEEEESA_SA_S3_NS4_7variantIJNS4_9monostateENS0_6StreamENS0_6DeviceEEEE,
                            __ZN3mlx4core3padERKNS0_5arrayEiS3_NSt3__17variantIJNS4_9monostateENS0_6StreamENS0_6DeviceEEEE,
                            __ZN3mlx4core3sinERKNS0_5arrayENSt3__17variantIJNS4_9monostateENS0_6StreamENS0_6DeviceEEEE,
                            __ZN3mlx4core3stdERKNS0_5arrayERKNSt3__16vectorIiNS4_9allocatorIiEEEEbiNS4_7variantIJNS4_9monostateENS0_6StreamENS0_6DeviceEEEE,
                            __ZN3mlx4core3stdERKNS0_5arrayEbiNSt3__17variantIJNS4_9monostateENS0_6StreamENS0_6DeviceEEEE,
                            __ZN3mlx4core3stdERKNS0_5arrayEibiNSt3__17variantIJNS4_9monostateENS0_6StreamENS0_6DeviceEEEE,
                            __ZN3mlx4core3sumERKNS0_5arrayERKNSt3__16vectorIiNS4_9allocatorIiEEEEbNS4_7variantIJNS4_9monostateENS0_6StreamENS0_6DeviceEEEE,
                            __ZN3mlx4core3sumERKNS0_5arrayEbNSt3__17variantIJNS4_9monostateENS0_6StreamENS0_6DeviceEEEE,
                            __ZN3mlx4core3sumERKNS0_5arrayEibNSt3__17variantIJNS4_9monostateENS0_6StreamENS0_6DeviceEEEE,
                            __ZN3mlx4core3tanERKNS0_5arrayENSt3__17variantIJNS4_9monostateENS0_6StreamENS0_6DeviceEEEE,
                            __ZN3mlx4core3varERKNS0_5arrayERKNSt3__16vectorIiNS4_9allocatorIiEEEEbiNS4_7variantIJNS4_9monostateENS0_6StreamENS0_6DeviceEEEE,
                            __ZN3mlx4core3varERKNS0_5arrayEbiNSt3__17variantIJNS4_9monostateENS0_6StreamENS0_6DeviceEEEE,
                            __ZN3mlx4core3varERKNS0_5arrayEibiNSt3__17variantIJNS4_9monostateENS0_6StreamENS0_6DeviceEEEE,
                            __ZN3mlx4core3vjpERKNSt3__18functionIFNS0_5arrayERKS3_EEES5_S5_,
                            __ZN3mlx4core3vjpERKNSt3__18functionIFNS1_6vectorINS0_5arrayENS1_9allocatorIS4_EEEERKS7_EEES9_S9_,
                            __ZN3mlx4core4Ceil3jvpERKNSt3__16vectorINS0_5arrayENS2_9allocatorIS4_EEEES9_RKNS3_IiNS5_IiEEEE,
                            __ZN3mlx4core4Ceil3vjpERKNSt3__16vectorINS0_5arrayENS2_9allocatorIS4_EEEES9_RKNS3_IiNS5_IiEEEES9_,
                            __ZN3mlx4core4Ceil4evalERKNSt3__16vectorINS0_5arrayENS2_9allocatorIS4_EEEERS4_,
                            __ZN3mlx4core4Ceil4vmapERKNSt3__16vectorINS0_5arrayENS2_9allocatorIS4_EEEERKNS3_IiNS5_IiEEEE,
                            __ZN3mlx4core4Ceil8eval_cpuERKNSt3__16vectorINS0_5arrayENS2_9allocatorIS4_EEEERS4_,
                            __ZN3mlx4core4Ceil8eval_gpuERKNSt3__16vectorINS0_5arrayENS2_9allocatorIS4_EEEERS4_,
                            __ZN3mlx4core4Copy3jvpERKNSt3__16vectorINS0_5arrayENS2_9allocatorIS4_EEEES9_RKNS3_IiNS5_IiEEEE,
                            __ZN3mlx4core4Copy3vjpERKNSt3__16vectorINS0_5arrayENS2_9allocatorIS4_EEEES9_RKNS3_IiNS5_IiEEEES9_,
                            __ZN3mlx4core4Copy4evalERKNSt3__16vectorINS0_5arrayENS2_9allocatorIS4_EEEERS4_,
                            __ZN3mlx4core4Copy4vmapERKNSt3__16vectorINS0_5arrayENS2_9allocatorIS4_EEEERKNS3_IiNS5_IiEEEE,
                            __ZN3mlx4core4Copy8eval_cpuERKNSt3__16vectorINS0_5arrayENS2_9allocatorIS4_EEEERS4_,
                            __ZN3mlx4core4Copy8eval_gpuERKNSt3__16vectorINS0_5arrayENS2_9allocatorIS4_EEEERS4_,
                            __ZN3mlx4core4Cosh3jvpERKNSt3__16vectorINS0_5arrayENS2_9allocatorIS4_EEEES9_RKNS3_IiNS5_IiEEEE,
                            __ZN3mlx4core4Cosh3vjpERKNSt3__16vectorINS0_5arrayENS2_9allocatorIS4_EEEES9_RKNS3_IiNS5_IiEEEES9_,
                            __ZN3mlx4core4Cosh4evalERKNSt3__16vectorINS0_5arrayENS2_9allocatorIS4_EEEERS4_,
                            __ZN3mlx4core4Cosh4vmapERKNSt3__16vectorINS0_5arrayENS2_9allocatorIS4_EEEERKNS3_IiNS5_IiEEEE,
                            __ZN3mlx4core4Cosh8eval_cpuERKNSt3__16vectorINS0_5arrayENS2_9allocatorIS4_EEEERS4_,
                            __ZN3mlx4core4Cosh8eval_gpuERKNSt3__16vectorINS0_5arrayENS2_9allocatorIS4_EEEERS4_,
                            __ZN3mlx4core4Full3jvpERKNSt3__16vectorINS0_5arrayENS2_9allocatorIS4_EEEES9_RKNS3_IiNS5_IiEEEE,
                            __ZN3mlx4core4Full3vjpERKNSt3__16vectorINS0_5arrayENS2_9allocatorIS4_EEEES9_RKNS3_IiNS5_IiEEEES9_,
                            __ZN3mlx4core4Full4evalERKNSt3__16vectorINS0_5arrayENS2_9allocatorIS4_EEEERS4_,
                            __ZN3mlx4core4Full4vmapERKNSt3__16vectorINS0_5arrayENS2_9allocatorIS4_EEEERKNS3_IiNS5_IiEEEE,
                            __ZN3mlx4core4Full8eval_cpuERKNSt3__16vectorINS0_5arrayENS2_9allocatorIS4_EEEERS4_,
                            __ZN3mlx4core4Full8eval_gpuERKNSt3__16vectorINS0_5arrayENS2_9allocatorIS4_EEEERS4_,
                            __ZN3mlx4core4Less3jvpERKNSt3__16vectorINS0_5arrayENS2_9allocatorIS4_EEEES9_RKNS3_IiNS5_IiEEEE,
                            __ZN3mlx4core4Less3vjpERKNSt3__16vectorINS0_5arrayENS2_9allocatorIS4_EEEES9_RKNS3_IiNS5_IiEEEES9_,
                            __ZN3mlx4core4Less4evalERKNSt3__16vectorINS0_5arrayENS2_9allocatorIS4_EEEERS4_,
                            __ZN3mlx4core4Less4vmapERKNSt3__16vectorINS0_5arrayENS2_9allocatorIS4_EEEERKNS3_IiNS5_IiEEEE,
                            __ZN3mlx4core4Less8eval_cpuERKNSt3__16vectorINS0_5arrayENS2_9allocatorIS4_EEEERS4_,
                            __ZN3mlx4core4Less8eval_gpuERKNSt3__16vectorINS0_5arrayENS2_9allocatorIS4_EEEERS4_,
                            __ZN3mlx4core4Scan3jvpERKNSt3__16vectorINS0_5arrayENS2_9allocatorIS4_EEEES9_RKNS3_IiNS5_IiEEEE,
                            __ZN3mlx4core4Scan3vjpERKNSt3__16vectorINS0_5arrayENS2_9allocatorIS4_EEEES9_RKNS3_IiNS5_IiEEEES9_,
                            __ZN3mlx4core4Scan4evalERKNSt3__16vectorINS0_5arrayENS2_9allocatorIS4_EEEERS4_,
                            __ZN3mlx4core4Scan4vmapERKNSt3__16vectorINS0_5arrayENS2_9allocatorIS4_EEEERKNS3_IiNS5_IiEEEE,
                            __ZN3mlx4core4Scan8eval_cpuERKNSt3__16vectorINS0_5arrayENS2_9allocatorIS4_EEEERS4_,
                            __ZN3mlx4core4Scan8eval_gpuERKNSt3__16vectorINS0_5arrayENS2_9allocatorIS4_EEEERS4_,
                            __ZN3mlx4core4Sign3jvpERKNSt3__16vectorINS0_5arrayENS2_9allocatorIS4_EEEES9_RKNS3_IiNS5_IiEEEE,
                            __ZN3mlx4core4Sign3vjpERKNSt3__16vectorINS0_5arrayENS2_9allocatorIS4_EEEES9_RKNS3_IiNS5_IiEEEES9_,
                            __ZN3mlx4core4Sign4evalERKNSt3__16vectorINS0_5arrayENS2_9allocatorIS4_EEEERS4_,
                            __ZN3mlx4core4Sign4vmapERKNSt3__16vectorINS0_5arrayENS2_9allocatorIS4_EEEERKNS3_IiNS5_IiEEEE,
                            __ZN3mlx4core4Sign8eval_cpuERKNSt3__16vectorINS0_5arrayENS2_9allocatorIS4_EEEERS4_,
                            __ZN3mlx4core4Sign8eval_gpuERKNSt3__16vectorINS0_5arrayENS2_9allocatorIS4_EEEERS4_,
                            __ZN3mlx4core4Sinh3jvpERKNSt3__16vectorINS0_5arrayENS2_9allocatorIS4_EEEES9_RKNS3_IiNS5_IiEEEE,
                            __ZN3mlx4core4Sinh3vjpERKNSt3__16vectorINS0_5arrayENS2_9allocatorIS4_EEEES9_RKNS3_IiNS5_IiEEEES9_,
                            __ZN3mlx4core4Sinh4evalERKNSt3__16vectorINS0_5arrayENS2_9allocatorIS4_EEEERS4_,
                            __ZN3mlx4core4Sinh4vmapERKNSt3__16vectorINS0_5arrayENS2_9allocatorIS4_EEEERKNS3_IiNS5_IiEEEE,
                            __ZN3mlx4core4Sinh8eval_cpuERKNSt3__16vectorINS0_5arrayENS2_9allocatorIS4_EEEERS4_,
                            __ZN3mlx4core4Sinh8eval_gpuERKNSt3__16vectorINS0_5arrayENS2_9allocatorIS4_EEEERS4_,
                            __ZN3mlx4core4Sort3jvpERKNSt3__16vectorINS0_5arrayENS2_9allocatorIS4_EEEES9_RKNS3_IiNS5_IiEEEE,
                            __ZN3mlx4core4Sort3vjpERKNSt3__16vectorINS0_5arrayENS2_9allocatorIS4_EEEES9_RKNS3_IiNS5_IiEEEES9_,
                            __ZN3mlx4core4Sort4evalERKNSt3__16vectorINS0_5arrayENS2_9allocatorIS4_EEEERS4_,
                            __ZN3mlx4core4Sort4vmapERKNSt3__16vectorINS0_5arrayENS2_9allocatorIS4_EEEERKNS3_IiNS5_IiEEEE,
                            __ZN3mlx4core4Sort8eval_cpuERKNSt3__16vectorINS0_5arrayENS2_9allocatorIS4_EEEERS4_,
                            __ZN3mlx4core4Sort8eval_gpuERKNSt3__16vectorINS0_5arrayENS2_9allocatorIS4_EEEERS4_,
                            __ZN3mlx4core4Sqrt3jvpERKNSt3__16vectorINS0_5arrayENS2_9allocatorIS4_EEEES9_RKNS3_IiNS5_IiEEEE,
                            __ZN3mlx4core4Sqrt3vjpERKNSt3__16vectorINS0_5arrayENS2_9allocatorIS4_EEEES9_RKNS3_IiNS5_IiEEEES9_,
                            __ZN3mlx4core4Sqrt4evalERKNSt3__16vectorINS0_5arrayENS2_9allocatorIS4_EEEERS4_,
                            __ZN3mlx4core4Sqrt4vmapERKNSt3__16vectorINS0_5arrayENS2_9allocatorIS4_EEEERKNS3_IiNS5_IiEEEE,
                            __ZN3mlx4core4Sqrt8eval_cpuERKNSt3__16vectorINS0_5arrayENS2_9allocatorIS4_EEEERS4_,
                            __ZN3mlx4core4Sqrt8eval_gpuERKNSt3__16vectorINS0_5arrayENS2_9allocatorIS4_EEEERS4_,
                            __ZN3mlx4core4Tanh3jvpERKNSt3__16vectorINS0_5arrayENS2_9allocatorIS4_EEEES9_RKNS3_IiNS5_IiEEEE,
                            __ZN3mlx4core4Tanh3vjpERKNSt3__16vectorINS0_5arrayENS2_9allocatorIS4_EEEES9_RKNS3_IiNS5_IiEEEES9_,
                            __ZN3mlx4core4Tanh4evalERKNSt3__16vectorINS0_5arrayENS2_9allocatorIS4_EEEERS4_,
                            __ZN3mlx4core4Tanh4vmapERKNSt3__16vectorINS0_5arrayENS2_9allocatorIS4_EEEERKNS3_IiNS5_IiEEEE,
                            __ZN3mlx4core4Tanh8eval_cpuERKNSt3__16vectorINS0_5arrayENS2_9allocatorIS4_EEEERS4_,
                            __ZN3mlx4core4Tanh8eval_gpuERKNSt3__16vectorINS0_5arrayENS2_9allocatorIS4_EEEERS4_,
                            __ZN3mlx4core4ceilERKNS0_5arrayENSt3__17variantIJNS4_9monostateENS0_6StreamENS0_6DeviceEEEE,
                            __ZN3mlx4core4clipERKNS0_5arrayERKNSt3__18optionalIS1_EES8_NS4_7variantIJNS4_9monostateENS0_6StreamENS0_6DeviceEEEE,
                            __ZN3mlx4core4copyENS0_5arrayENSt3__17variantIJNS2_9monostateENS0_6StreamENS0_6DeviceEEEE,
                            __ZN3mlx4core4copyERKNS0_5arrayERS1_NS0_8CopyTypeE,
                            __ZN3mlx4core4coshERKNS0_5arrayENSt3__17variantIJNS4_9monostateENS0_6StreamENS0_6DeviceEEEE,
                            __ZN3mlx4core4diagERKNS0_5arrayEiNSt3__17variantIJNS4_9monostateENS0_6StreamENS0_6DeviceEEEE,
                            __ZN3mlx4core4evalENSt3__16vectorINS0_5arrayENS1_9allocatorIS3_EEEE,
                            __ZN3mlx4core4fullENSt3__16vectorIiNS1_9allocatorIiEEEENS0_5arrayENS0_5DtypeENS1_7variantIJNS1_9monostateENS0_6StreamENS0_6DeviceEEEE,
                            __ZN3mlx4core4fullENSt3__16vectorIiNS1_9allocatorIiEEEENS0_5arrayENS1_7variantIJNS1_9monostateENS0_6StreamENS0_6DeviceEEEE,
                            __ZN3mlx4core4lessERKNS0_5arrayES3_NSt3__17variantIJNS4_9monostateENS0_6StreamENS0_6DeviceEEEE,
                            __ZN3mlx4core4log2ERKNS0_5arrayENSt3__17variantIJNS4_9monostateENS0_6StreamENS0_6DeviceEEEE,
                            __ZN3mlx4core4meanERKNS0_5arrayERKNSt3__16vectorIiNS4_9allocatorIiEEEEbNS4_7variantIJNS4_9monostateENS0_6StreamENS0_6DeviceEEEE,
                            __ZN3mlx4core4meanERKNS0_5arrayEbNSt3__17variantIJNS4_9monostateENS0_6StreamENS0_6DeviceEEEE,
                            __ZN3mlx4core4meanERKNS0_5arrayEibNSt3__17variantIJNS4_9monostateENS0_6StreamENS0_6DeviceEEEE,
                            __ZN3mlx4core4onesERKNSt3__16vectorIiNS1_9allocatorIiEEEENS0_5DtypeENS1_7variantIJNS1_9monostateENS0_6StreamENS0_6DeviceEEEE,
                            __ZN3mlx4core4prodERKNS0_5arrayERKNSt3__16vectorIiNS4_9allocatorIiEEEEbNS4_7variantIJNS4_9monostateENS0_6StreamENS0_6DeviceEEEE,
                            __ZN3mlx4core4prodERKNS0_5arrayEbNSt3__17variantIJNS4_9monostateENS0_6StreamENS0_6DeviceEEEE,
                            __ZN3mlx4core4prodERKNS0_5arrayEibNSt3__17variantIJNS4_9monostateENS0_6StreamENS0_6DeviceEEEE,
                            __ZN3mlx4core4signERKNS0_5arrayENSt3__17variantIJNS4_9monostateENS0_6StreamENS0_6DeviceEEEE,
                            __ZN3mlx4core4sinhERKNS0_5arrayENSt3__17variantIJNS4_9monostateENS0_6StreamENS0_6DeviceEEEE,
                            __ZN3mlx4core4sortERKNS0_5arrayENSt3__17variantIJNS4_9monostateENS0_6StreamENS0_6DeviceEEEE,
                            __ZN3mlx4core4sortERKNS0_5arrayEiNSt3__17variantIJNS4_9monostateENS0_6StreamENS0_6DeviceEEEE,
                            __ZN3mlx4core4sqrtERKNS0_5arrayENSt3__17variantIJNS4_9monostateENS0_6StreamENS0_6DeviceEEEE,
                            __ZN3mlx4core4takeERKNS0_5arrayES3_NSt3__17variantIJNS4_9monostateENS0_6StreamENS0_6DeviceEEEE,
                            __ZN3mlx4core4takeERKNS0_5arrayES3_iNSt3__17variantIJNS4_9monostateENS0_6StreamENS0_6DeviceEEEE,
                            __ZN3mlx4core4tanhERKNS0_5arrayENSt3__17variantIJNS4_9monostateENS0_6StreamENS0_6DeviceEEEE,
                            __ZN3mlx4core4tileERKNS0_5arrayENSt3__16vectorIiNS4_9allocatorIiEEEENS4_7variantIJNS4_9monostateENS0_6StreamENS0_6DeviceEEEE,
                            __ZN3mlx4core4topkERKNS0_5arrayEiNSt3__17variantIJNS4_9monostateENS0_6StreamENS0_6DeviceEEEE,
                            __ZN3mlx4core4topkERKNS0_5arrayEiiNSt3__17variantIJNS4_9monostateENS0_6StreamENS0_6DeviceEEEE,
                            __ZN3mlx4core4vmapERKNSt3__18functionIFNS0_5arrayERKS3_EEEii,
                            __ZN3mlx4core4vmapERKNSt3__18functionIFNS0_5arrayERKS3_S5_EEEiii,
                            __ZN3mlx4core4vmapERKNSt3__18functionIFNS1_6vectorINS0_5arrayENS1_9allocatorIS4_EEEERKS7_EEERKNS3_IiNS5_IiEEEESH_,
                            __ZN3mlx4core5AddMM3vjpERKNSt3__16vectorINS0_5arrayENS2_9allocatorIS4_EEEES9_RKNS3_IiNS5_IiEEEES9_,
                            __ZN3mlx4core5AddMM4vmapERKNSt3__16vectorINS0_5arrayENS2_9allocatorIS4_EEEERKNS3_IiNS5_IiEEEE,
                            __ZN3mlx4core5AddMM8eval_cpuERKNSt3__16vectorINS0_5arrayENS2_9allocatorIS4_EEEERS4_,
                            __ZN3mlx4core5AddMM8eval_gpuERKNSt3__16vectorINS0_5arrayENS2_9allocatorIS4_EEEERS4_,
                            __ZN3mlx4core5Equal3jvpERKNSt3__16vectorINS0_5arrayENS2_9allocatorIS4_EEEES9_RKNS3_IiNS5_IiEEEE,
                            __ZN3mlx4core5Equal3vjpERKNSt3__16vectorINS0_5arrayENS2_9allocatorIS4_EEEES9_RKNS3_IiNS5_IiEEEES9_,
                            __ZN3mlx4core5Equal4evalERKNSt3__16vectorINS0_5arrayENS2_9allocatorIS4_EEEERS4_,
                            __ZN3mlx4core5Equal4vmapERKNSt3__16vectorINS0_5arrayENS2_9allocatorIS4_EEEERKNS3_IiNS5_IiEEEE,
                            __ZN3mlx4core5Equal8eval_cpuERKNSt3__16vectorINS0_5arrayENS2_9allocatorIS4_EEEERS4_,
                            __ZN3mlx4core5Equal8eval_gpuERKNSt3__16vectorINS0_5arrayENS2_9allocatorIS4_EEEERS4_,
                            __ZN3mlx4core5Event4waitEv,
                            __ZN3mlx4core5Event6signalEv,
                            __ZN3mlx4core5EventC1ERKNS0_6StreamE,
                            __ZN3mlx4core5EventC2ERKNS0_6StreamE,
                            __ZN3mlx4core5Expm13jvpERKNSt3__16vectorINS0_5arrayENS2_9allocatorIS4_EEEES9_RKNS3_IiNS5_IiEEEE,
                            __ZN3mlx4core5Expm13vjpERKNSt3__16vectorINS0_5arrayENS2_9allocatorIS4_EEEES9_RKNS3_IiNS5_IiEEEES9_,
                            __ZN3mlx4core5Expm14evalERKNSt3__16vectorINS0_5arrayENS2_9allocatorIS4_EEEERS4_,
                            __ZN3mlx4core5Expm14vmapERKNSt3__16vectorINS0_5arrayENS2_9allocatorIS4_EEEERKNS3_IiNS5_IiEEEE,
                            __ZN3mlx4core5Expm18eval_cpuERKNSt3__16vectorINS0_5arrayENS2_9allocatorIS4_EEEERS4_,
                            __ZN3mlx4core5Expm18eval_gpuERKNSt3__16vectorINS0_5arrayENS2_9allocatorIS4_EEEERS4_,
                            __ZN3mlx4core5Floor3jvpERKNSt3__16vectorINS0_5arrayENS2_9allocatorIS4_EEEES9_RKNS3_IiNS5_IiEEEE,
                            __ZN3mlx4core5Floor3vjpERKNSt3__16vectorINS0_5arrayENS2_9allocatorIS4_EEEES9_RKNS3_IiNS5_IiEEEES9_,
                            __ZN3mlx4core5Floor4evalERKNSt3__16vectorINS0_5arrayENS2_9allocatorIS4_EEEERS4_,
                            __ZN3mlx4core5Floor4vmapERKNSt3__16vectorINS0_5arrayENS2_9allocatorIS4_EEEERKNS3_IiNS5_IiEEEE,
                            __ZN3mlx4core5Floor8eval_cpuERKNSt3__16vectorINS0_5arrayENS2_9allocatorIS4_EEEERS4_,
                            __ZN3mlx4core5Floor8eval_gpuERKNSt3__16vectorINS0_5arrayENS2_9allocatorIS4_EEEERS4_,
                            __ZN3mlx4core5Log1p3jvpERKNSt3__16vectorINS0_5arrayENS2_9allocatorIS4_EEEES9_RKNS3_IiNS5_IiEEEE,
                            __ZN3mlx4core5Log1p3vjpERKNSt3__16vectorINS0_5arrayENS2_9allocatorIS4_EEEES9_RKNS3_IiNS5_IiEEEES9_,
                            __ZN3mlx4core5Log1p4evalERKNSt3__16vectorINS0_5arrayENS2_9allocatorIS4_EEEERS4_,
                            __ZN3mlx4core5Log1p4vmapERKNSt3__16vectorINS0_5arrayENS2_9allocatorIS4_EEEERKNS3_IiNS5_IiEEEE,
                            __ZN3mlx4core5Log1p8eval_cpuERKNSt3__16vectorINS0_5arrayENS2_9allocatorIS4_EEEERS4_,
                            __ZN3mlx4core5Log1p8eval_gpuERKNSt3__16vectorINS0_5arrayENS2_9allocatorIS4_EEEERS4_,
                            __ZN3mlx4core5Power3jvpERKNSt3__16vectorINS0_5arrayENS2_9allocatorIS4_EEEES9_RKNS3_IiNS5_IiEEEE,
                            __ZN3mlx4core5Power3vjpERKNSt3__16vectorINS0_5arrayENS2_9allocatorIS4_EEEES9_RKNS3_IiNS5_IiEEEES9_,
                            __ZN3mlx4core5Power4evalERKNSt3__16vectorINS0_5arrayENS2_9allocatorIS4_EEEERS4_,
                            __ZN3mlx4core5Power4vmapERKNSt3__16vectorINS0_5arrayENS2_9allocatorIS4_EEEERKNS3_IiNS5_IiEEEE,
                            __ZN3mlx4core5Power8eval_cpuERKNSt3__16vectorINS0_5arrayENS2_9allocatorIS4_EEEERS4_,
                            __ZN3mlx4core5Power8eval_gpuERKNSt3__16vectorINS0_5arrayENS2_9allocatorIS4_EEEERS4_,
                            __ZN3mlx4core5Round3jvpERKNSt3__16vectorINS0_5arrayENS2_9allocatorIS4_EEEES9_RKNS3_IiNS5_IiEEEE,
                            __ZN3mlx4core5Round3vjpERKNSt3__16vectorINS0_5arrayENS2_9allocatorIS4_EEEES9_RKNS3_IiNS5_IiEEEES9_,
                            __ZN3mlx4core5Round4evalERKNSt3__16vectorINS0_5arrayENS2_9allocatorIS4_EEEERS4_,
                            __ZN3mlx4core5Round4vmapERKNSt3__16vectorINS0_5arrayENS2_9allocatorIS4_EEEERKNS3_IiNS5_IiEEEE,
                            __ZN3mlx4core5Round8eval_cpuERKNSt3__16vectorINS0_5arrayENS2_9allocatorIS4_EEEERS4_,
                            __ZN3mlx4core5Round8eval_gpuERKNSt3__16vectorINS0_5arrayENS2_9allocatorIS4_EEEERS4_,
                            __ZN3mlx4core5Slice13prepare_sliceERKNS0_5arrayE,
                            __ZN3mlx4core5Slice19shared_buffer_sliceERKNS0_5arrayERKNSt3__16vectorImNS5_9allocatorImEEEEmRS2_,
                            __ZN3mlx4core5Slice3jvpERKNSt3__16vectorINS0_5arrayENS2_9allocatorIS4_EEEES9_RKNS3_IiNS5_IiEEEE,
                            __ZN3mlx4core5Slice3vjpERKNSt3__16vectorINS0_5arrayENS2_9allocatorIS4_EEEES9_RKNS3_IiNS5_IiEEEES9_,
                            __ZN3mlx4core5Slice4evalERKNSt3__16vectorINS0_5arrayENS2_9allocatorIS4_EEEERS4_,
                            __ZN3mlx4core5Slice4vmapERKNSt3__16vectorINS0_5arrayENS2_9allocatorIS4_EEEERKNS3_IiNS5_IiEEEE,
                            __ZN3mlx4core5Slice8eval_cpuERKNSt3__16vectorINS0_5arrayENS2_9allocatorIS4_EEEERS4_,
                            __ZN3mlx4core5Slice8eval_gpuERKNSt3__16vectorINS0_5arrayENS2_9allocatorIS4_EEEERS4_,
                            __ZN3mlx4core5Split3jvpERKNSt3__16vectorINS0_5arrayENS2_9allocatorIS4_EEEES9_RKNS3_IiNS5_IiEEEE,
                            __ZN3mlx4core5Split3vjpERKNSt3__16vectorINS0_5arrayENS2_9allocatorIS4_EEEES9_RKNS3_IiNS5_IiEEEES9_,
                            __ZN3mlx4core5Split4evalERKNSt3__16vectorINS0_5arrayENS2_9allocatorIS4_EEEERS7_,
                            __ZN3mlx4core5Split4vmapERKNSt3__16vectorINS0_5arrayENS2_9allocatorIS4_EEEERKNS3_IiNS5_IiEEEE,
                            __ZN3mlx4core5Split8eval_cpuERKNSt3__16vectorINS0_5arrayENS2_9allocatorIS4_EEEERS7_,
                            __ZN3mlx4core5Split8eval_gpuERKNSt3__16vectorINS0_5arrayENS2_9allocatorIS4_EEEERS7_,
                            __ZN3mlx4core5addmmENS0_5arrayES1_S1_RKfS3_NSt3__17variantIJNS4_9monostateENS0_6StreamENS0_6DeviceEEEE,
                            __ZN3mlx4core5array11make_arraysENSt3__16vectorINS3_IiNS2_9allocatorIiEEEENS4_IS6_EEEERKNS3_INS0_5DtypeENS4_IS9_EEEERKNS2_10shared_ptrINS0_9PrimitiveEEERKNS3_IS1_NS4_IS1_EEEE,
                            __ZN3mlx4core5array13ArrayIteratorC1ERKS1_i,
                            __ZN3mlx4core5array13ArrayIteratorC2ERKS1_i,
                            __ZN3mlx4core5array18copy_shared_bufferERKS1_,
                            __ZN3mlx4core5array18copy_shared_bufferERKS1_RKNSt3__16vectorImNS4_9allocatorImEEEENS1_5FlagsEmm,
                            __ZN3mlx4core5array18move_shared_bufferES1_,
                            __ZN3mlx4core5array18move_shared_bufferES1_RKNSt3__16vectorImNS2_9allocatorImEEEENS1_5FlagsEmm,
                            __ZN3mlx4core5array4evalEv,
                            __ZN3mlx4core5array6detachEv,
                            __ZN3mlx4core5array8set_dataENS0_9allocator6BufferENSt3__18functionIFvS3_EEE,
                            __ZN3mlx4core5array8set_dataENS0_9allocator6BufferEmNSt3__16vectorImNS4_9allocatorImEEEENS1_5FlagsENS4_8functionIFvS3_EEE,
                            __ZN3mlx4core5array9ArrayDesc4initEv,
                            __ZN3mlx4core5array9ArrayDescC1ENSt3__16vectorIiNS3_9allocatorIiEEEENS0_5DtypeE,
                            __ZN3mlx4core5array9ArrayDescC1ENSt3__16vectorIiNS3_9allocatorIiEEEENS0_5DtypeENS3_10shared_ptrINS0_9PrimitiveEEENS4_IS1_NS5_IS1_EEEE,
                            __ZN3mlx4core5array9ArrayDescC2ENSt3__16vectorIiNS3_9allocatorIiEEEENS0_5DtypeE,
                            __ZN3mlx4core5array9ArrayDescC2ENSt3__16vectorIiNS3_9allocatorIiEEEENS0_5DtypeENS3_10shared_ptrINS0_9PrimitiveEEENS4_IS1_NS5_IS1_EEEE,
                            __ZN3mlx4core5array9ArrayDescD1Ev,
                            __ZN3mlx4core5array9ArrayDescD2Ev,
                            __ZN3mlx4core5arrayC1ENS0_9allocator6BufferENSt3__16vectorIiNS4_9allocatorIiEEEENS0_5DtypeENS4_8functionIFvS3_EEE,
                            __ZN3mlx4core5arrayC1ENSt3__16vectorIiNS2_9allocatorIiEEEENS0_5DtypeENS2_10shared_ptrINS0_9PrimitiveEEENS3_IS1_NS4_IS1_EEEE,
                            __ZN3mlx4core5arrayC1ESt16initializer_listIfE,
                            __ZN3mlx4core5arrayC1ESt16initializer_listIiENS0_5DtypeE,
                            __ZN3mlx4core5arrayC2ENS0_9allocator6BufferENSt3__16vectorIiNS4_9allocatorIiEEEENS0_5DtypeENS4_8functionIFvS3_EEE,
                            __ZN3mlx4core5arrayC2ENSt3__16vectorIiNS2_9allocatorIiEEEENS0_5DtypeENS2_10shared_ptrINS0_9PrimitiveEEENS3_IS1_NS4_IS1_EEEE,
                            __ZN3mlx4core5arrayC2ESt16initializer_listIfE,
                            __ZN3mlx4core5arrayC2ESt16initializer_listIiENS0_5DtypeE,
                            __ZN3mlx4core5arrayD1Ev, __ZN3mlx4core5arrayD2Ev,
                            __ZN3mlx4core5equalERKNS0_5arrayES3_NSt3__17variantIJNS4_9monostateENS0_6StreamENS0_6DeviceEEEE,
                            __ZN3mlx4core5expm1ERKNS0_5arrayENSt3__17variantIJNS4_9monostateENS0_6StreamENS0_6DeviceEEEE,
                            __ZN3mlx4core5floorERKNS0_5arrayENSt3__17variantIJNS4_9monostateENS0_6StreamENS0_6DeviceEEEE,
                            __ZN3mlx4core5innerERKNS0_5arrayES3_NSt3__17variantIJNS4_9monostateENS0_6StreamENS0_6DeviceEEEE,
                            __ZN3mlx4core5isinfERKNS0_5arrayENSt3__17variantIJNS4_9monostateENS0_6StreamENS0_6DeviceEEEE,
                            __ZN3mlx4core5isnanERKNS0_5arrayENSt3__17variantIJNS4_9monostateENS0_6StreamENS0_6DeviceEEEE,
                            __ZN3mlx4core5log10ERKNS0_5arrayENSt3__17variantIJNS4_9monostateENS0_6StreamENS0_6DeviceEEEE,
                            __ZN3mlx4core5log1pERKNS0_5arrayENSt3__17variantIJNS4_9monostateENS0_6StreamENS0_6DeviceEEEE,
                            __ZN3mlx4core5metal10new_streamENS0_6StreamE,
                            __ZN3mlx4core5metal11clear_cacheEv,
                            __ZN3mlx4core5metal11device_infoEv,
                            __ZN3mlx4core5metal12is_availableEv,
                            __ZN3mlx4core5metal12stop_captureEv,
                            __ZN3mlx4core5metal13start_captureENSt3__112basic_stringIcNS2_11char_traitsIcEENS2_9allocatorIcEEEE,
                            __ZN3mlx4core5metal15get_peak_memoryEv,
                            __ZN3mlx4core5metal15set_cache_limitEm,
                            __ZN3mlx4core5metal16get_cache_memoryEv,
                            __ZN3mlx4core5metal16set_memory_limitEmb,
                            __ZN3mlx4core5metal17get_active_memoryEv,
                            __ZN3mlx4core5metal17reset_peak_memoryEv,
                            __ZN3mlx4core5metal21make_synchronize_taskENS0_6StreamENSt3__110shared_ptrINS3_7promiseIvEEEE,
                            __ZN3mlx4core5metal22new_scoped_memory_poolEv,
                            __ZN3mlx4core5metal9make_taskENS0_5arrayEb,
                            __ZN3mlx4core5outerERKNS0_5arrayES3_NSt3__17variantIJNS4_9monostateENS0_6StreamENS0_6DeviceEEEE,
                            __ZN3mlx4core5powerERKNS0_5arrayES3_NSt3__17variantIJNS4_9monostateENS0_6StreamENS0_6DeviceEEEE,
                            __ZN3mlx4core5roundERKNS0_5arrayEiNSt3__17variantIJNS4_9monostateENS0_6StreamENS0_6DeviceEEEE,
                            __ZN3mlx4core5rsqrtERKNS0_5arrayENSt3__17variantIJNS4_9monostateENS0_6StreamENS0_6DeviceEEEE,
                            __ZN3mlx4core5sliceERKNS0_5arrayENSt3__16vectorIiNS4_9allocatorIiEEEES8_S8_NS4_7variantIJNS4_9monostateENS0_6StreamENS0_6DeviceEEEE,
                            __ZN3mlx4core5sliceERKNS0_5arrayERKNSt3__16vectorIiNS4_9allocatorIiEEEESA_NS4_7variantIJNS4_9monostateENS0_6StreamENS0_6DeviceEEEE,
                            __ZN3mlx4core5splitERKNS0_5arrayERKNSt3__16vectorIiNS4_9allocatorIiEEEENS4_7variantIJNS4_9monostateENS0_6StreamENS0_6DeviceEEEE,
                            __ZN3mlx4core5splitERKNS0_5arrayERKNSt3__16vectorIiNS4_9allocatorIiEEEEiNS4_7variantIJNS4_9monostateENS0_6StreamENS0_6DeviceEEEE,
                            __ZN3mlx4core5splitERKNS0_5arrayEiNSt3__17variantIJNS4_9monostateENS0_6StreamENS0_6DeviceEEEE,
                            __ZN3mlx4core5splitERKNS0_5arrayEiiNSt3__17variantIJNS4_9monostateENS0_6StreamENS0_6DeviceEEEE,
                            __ZN3mlx4core5stackERKNSt3__16vectorINS0_5arrayENS1_9allocatorIS3_EEEENS1_7variantIJNS1_9monostateENS0_6StreamENS0_6DeviceEEEE,
                            __ZN3mlx4core5stackERKNSt3__16vectorINS0_5arrayENS1_9allocatorIS3_EEEEiNS1_7variantIJNS1_9monostateENS0_6StreamENS0_6DeviceEEEE,
                            __ZN3mlx4core5traceERKNS0_5arrayENSt3__17variantIJNS4_9monostateENS0_6StreamENS0_6DeviceEEEE,
                            __ZN3mlx4core5traceERKNS0_5arrayEiiiNS0_5DtypeENSt3__17variantIJNS5_9monostateENS0_6StreamENS0_6DeviceEEEE,
                            __ZN3mlx4core5traceERKNS0_5arrayEiiiNSt3__17variantIJNS4_9monostateENS0_6StreamENS0_6DeviceEEEE,
                            __ZN3mlx4core5whereERKNS0_5arrayES3_S3_NSt3__17variantIJNS4_9monostateENS0_6StreamENS0_6DeviceEEEE,
                            __ZN3mlx4core5zerosERKNSt3__16vectorIiNS1_9allocatorIiEEEENS0_5DtypeENS1_7variantIJNS1_9monostateENS0_6StreamENS0_6DeviceEEEE,
                            __ZN3mlx4core6Arange4evalERKNSt3__16vectorINS0_5arrayENS2_9allocatorIS4_EEEERS4_,
                            __ZN3mlx4core6Arange8eval_cpuERKNSt3__16vectorINS0_5arrayENS2_9allocatorIS4_EEEERS4_,
                            __ZN3mlx4core6Arange8eval_gpuERKNSt3__16vectorINS0_5arrayENS2_9allocatorIS4_EEEERS4_,
                            __ZN3mlx4core6ArcCos3jvpERKNSt3__16vectorINS0_5arrayENS2_9allocatorIS4_EEEES9_RKNS3_IiNS5_IiEEEE,
                            __ZN3mlx4core6ArcCos3vjpERKNSt3__16vectorINS0_5arrayENS2_9allocatorIS4_EEEES9_RKNS3_IiNS5_IiEEEES9_,
                            __ZN3mlx4core6ArcCos4evalERKNSt3__16vectorINS0_5arrayENS2_9allocatorIS4_EEEERS4_,
                            __ZN3mlx4core6ArcCos4vmapERKNSt3__16vectorINS0_5arrayENS2_9allocatorIS4_EEEERKNS3_IiNS5_IiEEEE,
                            __ZN3mlx4core6ArcCos8eval_cpuERKNSt3__16vectorINS0_5arrayENS2_9allocatorIS4_EEEERS4_,
                            __ZN3mlx4core6ArcCos8eval_gpuERKNSt3__16vectorINS0_5arrayENS2_9allocatorIS4_EEEERS4_,
                            __ZN3mlx4core6ArcSin3jvpERKNSt3__16vectorINS0_5arrayENS2_9allocatorIS4_EEEES9_RKNS3_IiNS5_IiEEEE,
                            __ZN3mlx4core6ArcSin3vjpERKNSt3__16vectorINS0_5arrayENS2_9allocatorIS4_EEEES9_RKNS3_IiNS5_IiEEEES9_,
                            __ZN3mlx4core6ArcSin4evalERKNSt3__16vectorINS0_5arrayENS2_9allocatorIS4_EEEERS4_,
                            __ZN3mlx4core6ArcSin4vmapERKNSt3__16vectorINS0_5arrayENS2_9allocatorIS4_EEEERKNS3_IiNS5_IiEEEE,
                            __ZN3mlx4core6ArcSin8eval_cpuERKNSt3__16vectorINS0_5arrayENS2_9allocatorIS4_EEEERS4_,
                            __ZN3mlx4core6ArcSin8eval_gpuERKNSt3__16vectorINS0_5arrayENS2_9allocatorIS4_EEEERS4_,
                            __ZN3mlx4core6ArcTan3jvpERKNSt3__16vectorINS0_5arrayENS2_9allocatorIS4_EEEES9_RKNS3_IiNS5_IiEEEE,
                            __ZN3mlx4core6ArcTan3vjpERKNSt3__16vectorINS0_5arrayENS2_9allocatorIS4_EEEES9_RKNS3_IiNS5_IiEEEES9_,
                            __ZN3mlx4core6ArcTan4evalERKNSt3__16vectorINS0_5arrayENS2_9allocatorIS4_EEEERS4_,
                            __ZN3mlx4core6ArcTan4vmapERKNSt3__16vectorINS0_5arrayENS2_9allocatorIS4_EEEERKNS3_IiNS5_IiEEEE,
                            __ZN3mlx4core6ArcTan8eval_cpuERKNSt3__16vectorINS0_5arrayENS2_9allocatorIS4_EEEERS4_,
                            __ZN3mlx4core6ArcTan8eval_gpuERKNSt3__16vectorINS0_5arrayENS2_9allocatorIS4_EEEERS4_,
                            __ZN3mlx4core6AsType3jvpERKNSt3__16vectorINS0_5arrayENS2_9allocatorIS4_EEEES9_RKNS3_IiNS5_IiEEEE,
                            __ZN3mlx4core6AsType3vjpERKNSt3__16vectorINS0_5arrayENS2_9allocatorIS4_EEEES9_RKNS3_IiNS5_IiEEEES9_,
                            __ZN3mlx4core6AsType4evalERKNSt3__16vectorINS0_5arrayENS2_9allocatorIS4_EEEERS4_,
                            __ZN3mlx4core6AsType4vmapERKNSt3__16vectorINS0_5arrayENS2_9allocatorIS4_EEEERKNS3_IiNS5_IiEEEE,
                            __ZN3mlx4core6AsType8eval_cpuERKNSt3__16vectorINS0_5arrayENS2_9allocatorIS4_EEEERS4_,
                            __ZN3mlx4core6AsType8eval_gpuERKNSt3__16vectorINS0_5arrayENS2_9allocatorIS4_EEEERS4_,
                            __ZN3mlx4core6DivMod3jvpERKNSt3__16vectorINS0_5arrayENS2_9allocatorIS4_EEEES9_RKNS3_IiNS5_IiEEEE,
                            __ZN3mlx4core6DivMod3vjpERKNSt3__16vectorINS0_5arrayENS2_9allocatorIS4_EEEES9_RKNS3_IiNS5_IiEEEES9_,
                            __ZN3mlx4core6DivMod4evalERKNSt3__16vectorINS0_5arrayENS2_9allocatorIS4_EEEERS7_,
                            __ZN3mlx4core6DivMod4vmapERKNSt3__16vectorINS0_5arrayENS2_9allocatorIS4_EEEERKNS3_IiNS5_IiEEEE,
                            __ZN3mlx4core6DivMod8eval_cpuERKNSt3__16vectorINS0_5arrayENS2_9allocatorIS4_EEEERS7_,
                            __ZN3mlx4core6DivMod8eval_gpuERKNSt3__16vectorINS0_5arrayENS2_9allocatorIS4_EEEERS7_,
                            __ZN3mlx4core6Divide3jvpERKNSt3__16vectorINS0_5arrayENS2_9allocatorIS4_EEEES9_RKNS3_IiNS5_IiEEEE,
                            __ZN3mlx4core6Divide3vjpERKNSt3__16vectorINS0_5arrayENS2_9allocatorIS4_EEEES9_RKNS3_IiNS5_IiEEEES9_,
                            __ZN3mlx4core6Divide4evalERKNSt3__16vectorINS0_5arrayENS2_9allocatorIS4_EEEERS4_,
                            __ZN3mlx4core6Divide4vmapERKNSt3__16vectorINS0_5arrayENS2_9allocatorIS4_EEEERKNS3_IiNS5_IiEEEE,
                            __ZN3mlx4core6Divide8eval_cpuERKNSt3__16vectorINS0_5arrayENS2_9allocatorIS4_EEEERS4_,
                            __ZN3mlx4core6Divide8eval_gpuERKNSt3__16vectorINS0_5arrayENS2_9allocatorIS4_EEEERS4_,
                            __ZN3mlx4core6ErfInv3jvpERKNSt3__16vectorINS0_5arrayENS2_9allocatorIS4_EEEES9_RKNS3_IiNS5_IiEEEE,
                            __ZN3mlx4core6ErfInv3vjpERKNSt3__16vectorINS0_5arrayENS2_9allocatorIS4_EEEES9_RKNS3_IiNS5_IiEEEES9_,
                            __ZN3mlx4core6ErfInv4evalERKNSt3__16vectorINS0_5arrayENS2_9allocatorIS4_EEEERS4_,
                            __ZN3mlx4core6ErfInv4vmapERKNSt3__16vectorINS0_5arrayENS2_9allocatorIS4_EEEERKNS3_IiNS5_IiEEEE,
                            __ZN3mlx4core6ErfInv8eval_cpuERKNSt3__16vectorINS0_5arrayENS2_9allocatorIS4_EEEERS4_,
                            __ZN3mlx4core6ErfInv8eval_gpuERKNSt3__16vectorINS0_5arrayENS2_9allocatorIS4_EEEERS4_,
                            __ZN3mlx4core6Gather3jvpERKNSt3__16vectorINS0_5arrayENS2_9allocatorIS4_EEEES9_RKNS3_IiNS5_IiEEEE,
                            __ZN3mlx4core6Gather3vjpERKNSt3__16vectorINS0_5arrayENS2_9allocatorIS4_EEEES9_RKNS3_IiNS5_IiEEEES9_,
                            __ZN3mlx4core6Gather4evalERKNSt3__16vectorINS0_5arrayENS2_9allocatorIS4_EEEERS4_,
                            __ZN3mlx4core6Gather4vmapERKNSt3__16vectorINS0_5arrayENS2_9allocatorIS4_EEEERKNS3_IiNS5_IiEEEE,
                            __ZN3mlx4core6Gather8eval_cpuERKNSt3__16vectorINS0_5arrayENS2_9allocatorIS4_EEEERS4_,
                            __ZN3mlx4core6Gather8eval_gpuERKNSt3__16vectorINS0_5arrayENS2_9allocatorIS4_EEEERS4_,
                            __ZN3mlx4core6Matmul3vjpERKNSt3__16vectorINS0_5arrayENS2_9allocatorIS4_EEEES9_RKNS3_IiNS5_IiEEEES9_,
                            __ZN3mlx4core6Matmul4vmapERKNSt3__16vectorINS0_5arrayENS2_9allocatorIS4_EEEERKNS3_IiNS5_IiEEEE,
                            __ZN3mlx4core6Matmul8eval_cpuERKNSt3__16vectorINS0_5arrayENS2_9allocatorIS4_EEEERS4_,
                            __ZN3mlx4core6Matmul8eval_gpuERKNSt3__16vectorINS0_5arrayENS2_9allocatorIS4_EEEERS4_,
                            __ZN3mlx4core6Reduce13output_shapesERKNSt3__16vectorINS0_5arrayENS2_9allocatorIS4_EEEE,
                            __ZN3mlx4core6Reduce3vjpERKNSt3__16vectorINS0_5arrayENS2_9allocatorIS4_EEEES9_RKNS3_IiNS5_IiEEEES9_,
                            __ZN3mlx4core6Reduce4evalERKNSt3__16vectorINS0_5arrayENS2_9allocatorIS4_EEEERS4_,
                            __ZN3mlx4core6Reduce4vmapERKNSt3__16vectorINS0_5arrayENS2_9allocatorIS4_EEEERKNS3_IiNS5_IiEEEE,
                            __ZN3mlx4core6Reduce8eval_cpuERKNSt3__16vectorINS0_5arrayENS2_9allocatorIS4_EEEERS4_,
                            __ZN3mlx4core6Reduce8eval_gpuERKNSt3__16vectorINS0_5arrayENS2_9allocatorIS4_EEEERS4_,
                            __ZN3mlx4core6Select3jvpERKNSt3__16vectorINS0_5arrayENS2_9allocatorIS4_EEEES9_RKNS3_IiNS5_IiEEEE,
                            __ZN3mlx4core6Select3vjpERKNSt3__16vectorINS0_5arrayENS2_9allocatorIS4_EEEES9_RKNS3_IiNS5_IiEEEES9_,
                            __ZN3mlx4core6Select4evalERKNSt3__16vectorINS0_5arrayENS2_9allocatorIS4_EEEERS4_,
                            __ZN3mlx4core6Select4vmapERKNSt3__16vectorINS0_5arrayENS2_9allocatorIS4_EEEERKNS3_IiNS5_IiEEEE,
                            __ZN3mlx4core6Select8eval_cpuERKNSt3__16vectorINS0_5arrayENS2_9allocatorIS4_EEEERS4_,
                            __ZN3mlx4core6Select8eval_gpuERKNSt3__16vectorINS0_5arrayENS2_9allocatorIS4_EEEERS4_,
                            __ZN3mlx4core6Square3jvpERKNSt3__16vectorINS0_5arrayENS2_9allocatorIS4_EEEES9_RKNS3_IiNS5_IiEEEE,
                            __ZN3mlx4core6Square3vjpERKNSt3__16vectorINS0_5arrayENS2_9allocatorIS4_EEEES9_RKNS3_IiNS5_IiEEEES9_,
                            __ZN3mlx4core6Square4evalERKNSt3__16vectorINS0_5arrayENS2_9allocatorIS4_EEEERS4_,
                            __ZN3mlx4core6Square4vmapERKNSt3__16vectorINS0_5arrayENS2_9allocatorIS4_EEEERKNS3_IiNS5_IiEEEE,
                            __ZN3mlx4core6Square8eval_cpuERKNSt3__16vectorINS0_5arrayENS2_9allocatorIS4_EEEERS4_,
                            __ZN3mlx4core6Square8eval_gpuERKNSt3__16vectorINS0_5arrayENS2_9allocatorIS4_EEEERS4_,
                            __ZN3mlx4core6arangeERKNSt3__16vectorINS0_5arrayENS1_9allocatorIS3_EEEERS3_dd,
                            __ZN3mlx4core6arangeEdNS0_5DtypeENSt3__17variantIJNS2_9monostateENS0_6StreamENS0_6DeviceEEEE,
                            __ZN3mlx4core6arangeEdNSt3__17variantIJNS1_9monostateENS0_6StreamENS0_6DeviceEEEE,
                            __ZN3mlx4core6arangeEddNS0_5DtypeENSt3__17variantIJNS2_9monostateENS0_6StreamENS0_6DeviceEEEE,
                            __ZN3mlx4core6arangeEddNSt3__17variantIJNS1_9monostateENS0_6StreamENS0_6DeviceEEEE,
                            __ZN3mlx4core6arangeEdddNS0_5DtypeENSt3__17variantIJNS2_9monostateENS0_6StreamENS0_6DeviceEEEE,
                            __ZN3mlx4core6arangeEdddNSt3__17variantIJNS1_9monostateENS0_6StreamENS0_6DeviceEEEE,
                            __ZN3mlx4core6arangeEiNSt3__17variantIJNS1_9monostateENS0_6StreamENS0_6DeviceEEEE,
                            __ZN3mlx4core6arangeEiiNSt3__17variantIJNS1_9monostateENS0_6StreamENS0_6DeviceEEEE,
                            __ZN3mlx4core6arangeEiiiNSt3__17variantIJNS1_9monostateENS0_6StreamENS0_6DeviceEEEE,
                            __ZN3mlx4core6arccosERKNS0_5arrayENSt3__17variantIJNS4_9monostateENS0_6StreamENS0_6DeviceEEEE,
                            __ZN3mlx4core6arcsinERKNS0_5arrayENSt3__17variantIJNS4_9monostateENS0_6StreamENS0_6DeviceEEEE,
                            __ZN3mlx4core6arctanERKNS0_5arrayENSt3__17variantIJNS4_9monostateENS0_6StreamENS0_6DeviceEEEE,
                            __ZN3mlx4core6argmaxERKNS0_5arrayEbNSt3__17variantIJNS4_9monostateENS0_6StreamENS0_6DeviceEEEE,
                            __ZN3mlx4core6argmaxERKNS0_5arrayEibNSt3__17variantIJNS4_9monostateENS0_6StreamENS0_6DeviceEEEE,
                            __ZN3mlx4core6argminERKNS0_5arrayEbNSt3__17variantIJNS4_9monostateENS0_6StreamENS0_6DeviceEEEE,
                            __ZN3mlx4core6argminERKNS0_5arrayEibNSt3__17variantIJNS4_9monostateENS0_6StreamENS0_6DeviceEEEE,
                            __ZN3mlx4core6astypeENS0_5arrayENS0_5DtypeENSt3__17variantIJNS3_9monostateENS0_6StreamENS0_6DeviceEEEE,
                            __ZN3mlx4core6cummaxERKNS0_5arrayEibbNSt3__17variantIJNS4_9monostateENS0_6StreamENS0_6DeviceEEEE,
                            __ZN3mlx4core6cumminERKNS0_5arrayEibbNSt3__17variantIJNS4_9monostateENS0_6StreamENS0_6DeviceEEEE,
                            __ZN3mlx4core6cumsumERKNS0_5arrayEibbNSt3__17variantIJNS4_9monostateENS0_6StreamENS0_6DeviceEEEE,
                            __ZN3mlx4core6detail10vmap_traceERKNSt3__18functionIFNS2_6vectorINS0_5arrayENS2_9allocatorIS5_EEEERKS8_EEESA_RKNS4_IiNS6_IiEEEE,
                            __ZN3mlx4core6detail12vmap_replaceERKNSt3__16vectorINS0_5arrayENS2_9allocatorIS4_EEEES9_S9_RKNS3_IiNS5_IiEEEESD_,
                            __ZN3mlx4core6detail28compile_available_for_deviceERKNS0_6DeviceE,
                            __ZN3mlx4core6detail9InTracing15tracing_counterE,
                            __ZN3mlx4core6divideERKNS0_5arrayES3_NSt3__17variantIJNS4_9monostateENS0_6StreamENS0_6DeviceEEEE,
                            __ZN3mlx4core6divmodERKNS0_5arrayES3_NSt3__17variantIJNS4_9monostateENS0_6StreamENS0_6DeviceEEEE,
                            __ZN3mlx4core6erfinvERKNS0_5arrayENSt3__17variantIJNS4_9monostateENS0_6StreamENS0_6DeviceEEEE,
                            __ZN3mlx4core6erfinvEf,
                            __ZN3mlx4core6gatherERKNS0_5arrayERKNSt3__16vectorIS1_NS4_9allocatorIS1_EEEERKNS5_IiNS6_IiEEEESE_NS4_7variantIJNS4_9monostateENS0_6StreamENS0_6DeviceEEEE,
                            __ZN3mlx4core6kindofERKNS0_5DtypeE,
                            __ZN3mlx4core6linalg14at_least_floatERKNS0_5DtypeE,
                            __ZN3mlx4core6linalg2qrERKNS0_5arrayENSt3__17variantIJNS5_9monostateENS0_6StreamENS0_6DeviceEEEE,
                            __ZN3mlx4core6linalg3invERKNS0_5arrayENSt3__17variantIJNS5_9monostateENS0_6StreamENS0_6DeviceEEEE,
                            __ZN3mlx4core6linalg3svdERKNS0_5arrayENSt3__17variantIJNS5_9monostateENS0_6StreamENS0_6DeviceEEEE,
                            __ZN3mlx4core6linalg4normERKNS0_5arrayERKNSt3__112basic_stringIcNS5_11char_traitsIcEENS5_9allocatorIcEEEERKNS5_8optionalINS5_6vectorIiNS9_IiEEEEEEbNS5_7variantIJNS5_9monostateENS0_6StreamENS0_6DeviceEEEE,
                            __ZN3mlx4core6linalg4normERKNS0_5arrayERKNSt3__18optionalINS5_6vectorIiNS5_9allocatorIiEEEEEEbNS5_7variantIJNS5_9monostateENS0_6StreamENS0_6DeviceEEEE,
                            __ZN3mlx4core6linalg4normERKNS0_5arrayEdRKNSt3__18optionalINS5_6vectorIiNS5_9allocatorIiEEEEEEbNS5_7variantIJNS5_9monostateENS0_6StreamENS0_6DeviceEEEE,
                            __ZN3mlx4core6linalg8choleskyERKNS0_5arrayEbNSt3__17variantIJNS5_9monostateENS0_6StreamENS0_6DeviceEEEE,
                            __ZN3mlx4core6matmulERKNS0_5arrayES3_NSt3__17variantIJNS4_9monostateENS0_6StreamENS0_6DeviceEEEE,
                            __ZN3mlx4core6random11KeySequence4nextEv,
                            __ZN3mlx4core6random11KeySequence4seedEy,
                            __ZN3mlx4core6random11KeySequenceC1Ey,
                            __ZN3mlx4core6random11KeySequenceC2Ey,
                            __ZN3mlx4core6random11categoricalERKNS0_5arrayEiRKNSt3__16vectorIiNS5_9allocatorIiEEEERKNS5_8optionalIS2_EENS5_7variantIJNS5_9monostateENS0_6StreamENS0_6DeviceEEEE,
                            __ZN3mlx4core6random11categoricalERKNS0_5arrayEiRKNSt3__18optionalIS2_EENS5_7variantIJNS5_9monostateENS0_6StreamENS0_6DeviceEEEE,
                            __ZN3mlx4core6random11categoricalERKNS0_5arrayEiiRKNSt3__18optionalIS2_EENS5_7variantIJNS5_9monostateENS0_6StreamENS0_6DeviceEEEE,
                            __ZN3mlx4core6random14get_valid_axisEii,
                            __ZN3mlx4core6random16categorical_implERKNS0_5arrayEiRKNSt3__16vectorIiNS5_9allocatorIiEEEERKNS5_8optionalIS2_EENS5_7variantIJNS5_9monostateENS0_6StreamENS0_6DeviceEEEE,
                            __ZN3mlx4core6random16truncated_normalERKNS0_5arrayES4_NS0_5DtypeERKNSt3__18optionalIS2_EENS6_7variantIJNS6_9monostateENS0_6StreamENS0_6DeviceEEEE,
                            __ZN3mlx4core6random16truncated_normalERKNS0_5arrayES4_RKNSt3__16vectorIiNS5_9allocatorIiEEEENS0_5DtypeERKNS5_8optionalIS2_EENS5_7variantIJNS5_9monostateENS0_6StreamENS0_6DeviceEEEE,
                            __ZN3mlx4core6random17threefry2x32_hashERKNSt3__14pairIjjEES4_,
                            __ZN3mlx4core6random19multivariate_normalERKNS0_5arrayES4_RKNSt3__16vectorIiNS5_9allocatorIiEEEENS0_5DtypeERKNS5_8optionalIS2_EENS5_7variantIJNS5_9monostateENS0_6StreamENS0_6DeviceEEEE,
                            __ZN3mlx4core6random3keyEy,
                            __ZN3mlx4core6random4bitsERKNSt3__16vectorIiNS2_9allocatorIiEEEEiRKNS2_8optionalINS0_5arrayEEENS2_7variantIJNS2_9monostateENS0_6StreamENS0_6DeviceEEEE,
                            __ZN3mlx4core6random4seedEy,
                            __ZN3mlx4core6random5splitERKNS0_5arrayENSt3__17variantIJNS5_9monostateENS0_6StreamENS0_6DeviceEEEE,
                            __ZN3mlx4core6random5splitERKNS0_5arrayEiNSt3__17variantIJNS5_9monostateENS0_6StreamENS0_6DeviceEEEE,
                            __ZN3mlx4core6random6gumbelERKNSt3__16vectorIiNS2_9allocatorIiEEEENS0_5DtypeERKNS2_8optionalINS0_5arrayEEENS2_7variantIJNS2_9monostateENS0_6StreamENS0_6DeviceEEEE,
                            __ZN3mlx4core6random6normalERKNSt3__16vectorIiNS2_9allocatorIiEEEENS0_5DtypeEffRKNS2_8optionalINS0_5arrayEEENS2_7variantIJNS2_9monostateENS0_6StreamENS0_6DeviceEEEE,
                            __ZN3mlx4core6random7randintERKNS0_5arrayES4_RKNSt3__16vectorIiNS5_9allocatorIiEEEENS0_5DtypeERKNS5_8optionalIS2_EENS5_7variantIJNS5_9monostateENS0_6StreamENS0_6DeviceEEEE,
                            __ZN3mlx4core6random7uniformERKNS0_5arrayES4_RKNSt3__16vectorIiNS5_9allocatorIiEEEENS0_5DtypeERKNS5_8optionalIS2_EENS5_7variantIJNS5_9monostateENS0_6StreamENS0_6DeviceEEEE,
                            __ZN3mlx4core6random7uniformERKNSt3__16vectorIiNS2_9allocatorIiEEEENS0_5DtypeERKNS2_8optionalINS0_5arrayEEENS2_7variantIJNS2_9monostateENS0_6StreamENS0_6DeviceEEEE,
                            __ZN3mlx4core6random9bernoulliERKNS0_5arrayERKNSt3__16vectorIiNS5_9allocatorIiEEEERKNS5_8optionalIS2_EENS5_7variantIJNS5_9monostateENS0_6StreamENS0_6DeviceEEEE,
                            __ZN3mlx4core6random9bernoulliERKNS0_5arrayERKNSt3__18optionalIS2_EENS5_7variantIJNS5_9monostateENS0_6StreamENS0_6DeviceEEEE,
                            __ZN3mlx4core6random9bernoulliERKNSt3__18optionalINS0_5arrayEEENS2_7variantIJNS2_9monostateENS0_6StreamENS0_6DeviceEEEE,
                            __ZN3mlx4core6repeatERKNS0_5arrayEiNSt3__17variantIJNS4_9monostateENS0_6StreamENS0_6DeviceEEEE,
                            __ZN3mlx4core6repeatERKNS0_5arrayEiiNSt3__17variantIJNS4_9monostateENS0_6StreamENS0_6DeviceEEEE,
                            __ZN3mlx4core6squareERKNS0_5arrayENSt3__17variantIJNS4_9monostateENS0_6StreamENS0_6DeviceEEEE,
                            __ZN3mlx4core7ArcCosh3jvpERKNSt3__16vectorINS0_5arrayENS2_9allocatorIS4_EEEES9_RKNS3_IiNS5_IiEEEE,
                            __ZN3mlx4core7ArcCosh3vjpERKNSt3__16vectorINS0_5arrayENS2_9allocatorIS4_EEEES9_RKNS3_IiNS5_IiEEEES9_,
                            __ZN3mlx4core7ArcCosh4evalERKNSt3__16vectorINS0_5arrayENS2_9allocatorIS4_EEEERS4_,
                            __ZN3mlx4core7ArcCosh4vmapERKNSt3__16vectorINS0_5arrayENS2_9allocatorIS4_EEEERKNS3_IiNS5_IiEEEE,
                            __ZN3mlx4core7ArcCosh8eval_cpuERKNSt3__16vectorINS0_5arrayENS2_9allocatorIS4_EEEERS4_,
                            __ZN3mlx4core7ArcCosh8eval_gpuERKNSt3__16vectorINS0_5arrayENS2_9allocatorIS4_EEEERS4_,
                            __ZN3mlx4core7ArcSinh3jvpERKNSt3__16vectorINS0_5arrayENS2_9allocatorIS4_EEEES9_RKNS3_IiNS5_IiEEEE,
                            __ZN3mlx4core7ArcSinh3vjpERKNSt3__16vectorINS0_5arrayENS2_9allocatorIS4_EEEES9_RKNS3_IiNS5_IiEEEES9_,
                            __ZN3mlx4core7ArcSinh4evalERKNSt3__16vectorINS0_5arrayENS2_9allocatorIS4_EEEERS4_,
                            __ZN3mlx4core7ArcSinh4vmapERKNSt3__16vectorINS0_5arrayENS2_9allocatorIS4_EEEERKNS3_IiNS5_IiEEEE,
                            __ZN3mlx4core7ArcSinh8eval_cpuERKNSt3__16vectorINS0_5arrayENS2_9allocatorIS4_EEEERS4_,
                            __ZN3mlx4core7ArcSinh8eval_gpuERKNSt3__16vectorINS0_5arrayENS2_9allocatorIS4_EEEERS4_,
                            __ZN3mlx4core7ArcTan23jvpERKNSt3__16vectorINS0_5arrayENS2_9allocatorIS4_EEEES9_RKNS3_IiNS5_IiEEEE,
                            __ZN3mlx4core7ArcTan23vjpERKNSt3__16vectorINS0_5arrayENS2_9allocatorIS4_EEEES9_RKNS3_IiNS5_IiEEEES9_,
                            __ZN3mlx4core7ArcTan24evalERKNSt3__16vectorINS0_5arrayENS2_9allocatorIS4_EEEERS4_,
                            __ZN3mlx4core7ArcTan24vmapERKNSt3__16vectorINS0_5arrayENS2_9allocatorIS4_EEEERKNS3_IiNS5_IiEEEE,
                            __ZN3mlx4core7ArcTan28eval_cpuERKNSt3__16vectorINS0_5arrayENS2_9allocatorIS4_EEEERS4_,
                            __ZN3mlx4core7ArcTan28eval_gpuERKNSt3__16vectorINS0_5arrayENS2_9allocatorIS4_EEEERS4_,
                            __ZN3mlx4core7ArcTanh3jvpERKNSt3__16vectorINS0_5arrayENS2_9allocatorIS4_EEEES9_RKNS3_IiNS5_IiEEEE,
                            __ZN3mlx4core7ArcTanh3vjpERKNSt3__16vectorINS0_5arrayENS2_9allocatorIS4_EEEES9_RKNS3_IiNS5_IiEEEES9_,
                            __ZN3mlx4core7ArcTanh4evalERKNSt3__16vectorINS0_5arrayENS2_9allocatorIS4_EEEERS4_,
                            __ZN3mlx4core7ArcTanh4vmapERKNSt3__16vectorINS0_5arrayENS2_9allocatorIS4_EEEERKNS3_IiNS5_IiEEEE,
                            __ZN3mlx4core7ArcTanh8eval_cpuERKNSt3__16vectorINS0_5arrayENS2_9allocatorIS4_EEEERS4_,
                            __ZN3mlx4core7ArcTanh8eval_gpuERKNSt3__16vectorINS0_5arrayENS2_9allocatorIS4_EEEERS4_,
                            __ZN3mlx4core7ArgSort4evalERKNSt3__16vectorINS0_5arrayENS2_9allocatorIS4_EEEERS4_,
                            __ZN3mlx4core7ArgSort4vmapERKNSt3__16vectorINS0_5arrayENS2_9allocatorIS4_EEEERKNS3_IiNS5_IiEEEE,
                            __ZN3mlx4core7ArgSort8eval_cpuERKNSt3__16vectorINS0_5arrayENS2_9allocatorIS4_EEEERS4_,
                            __ZN3mlx4core7ArgSort8eval_gpuERKNSt3__16vectorINS0_5arrayENS2_9allocatorIS4_EEEERS4_,
                            __ZN3mlx4core7Depends3vjpERKNSt3__16vectorINS0_5arrayENS2_9allocatorIS4_EEEES9_RKNS3_IiNS5_IiEEEES9_,
                            __ZN3mlx4core7Depends4evalERKNSt3__16vectorINS0_5arrayENS2_9allocatorIS4_EEEERS7_,
                            __ZN3mlx4core7Depends8eval_cpuERKNSt3__16vectorINS0_5arrayENS2_9allocatorIS4_EEEERS7_,
                            __ZN3mlx4core7Depends8eval_gpuERKNSt3__16vectorINS0_5arrayENS2_9allocatorIS4_EEEERS7_,
                            __ZN3mlx4core7Greater3jvpERKNSt3__16vectorINS0_5arrayENS2_9allocatorIS4_EEEES9_RKNS3_IiNS5_IiEEEE,
                            __ZN3mlx4core7Greater3vjpERKNSt3__16vectorINS0_5arrayENS2_9allocatorIS4_EEEES9_RKNS3_IiNS5_IiEEEES9_,
                            __ZN3mlx4core7Greater4evalERKNSt3__16vectorINS0_5arrayENS2_9allocatorIS4_EEEERS4_,
                            __ZN3mlx4core7Greater4vmapERKNSt3__16vectorINS0_5arrayENS2_9allocatorIS4_EEEERKNS3_IiNS5_IiEEEE,
                            __ZN3mlx4core7Greater8eval_cpuERKNSt3__16vectorINS0_5arrayENS2_9allocatorIS4_EEEERS4_,
                            __ZN3mlx4core7Greater8eval_gpuERKNSt3__16vectorINS0_5arrayENS2_9allocatorIS4_EEEERS4_,
                            __ZN3mlx4core7Inverse4evalERKNSt3__16vectorINS0_5arrayENS2_9allocatorIS4_EEEERS4_,
                            __ZN3mlx4core7Inverse4vmapERKNSt3__16vectorINS0_5arrayENS2_9allocatorIS4_EEEERKNS3_IiNS5_IiEEEE,
                            __ZN3mlx4core7Inverse8eval_cpuERKNSt3__16vectorINS0_5arrayENS2_9allocatorIS4_EEEERS4_,
                            __ZN3mlx4core7Inverse8eval_gpuERKNSt3__16vectorINS0_5arrayENS2_9allocatorIS4_EEEERS4_,
                            __ZN3mlx4core7Maximum3jvpERKNSt3__16vectorINS0_5arrayENS2_9allocatorIS4_EEEES9_RKNS3_IiNS5_IiEEEE,
                            __ZN3mlx4core7Maximum3vjpERKNSt3__16vectorINS0_5arrayENS2_9allocatorIS4_EEEES9_RKNS3_IiNS5_IiEEEES9_,
                            __ZN3mlx4core7Maximum4evalERKNSt3__16vectorINS0_5arrayENS2_9allocatorIS4_EEEERS4_,
                            __ZN3mlx4core7Maximum4vmapERKNSt3__16vectorINS0_5arrayENS2_9allocatorIS4_EEEERKNS3_IiNS5_IiEEEE,
                            __ZN3mlx4core7Maximum8eval_cpuERKNSt3__16vectorINS0_5arrayENS2_9allocatorIS4_EEEERS4_,
                            __ZN3mlx4core7Maximum8eval_gpuERKNSt3__16vectorINS0_5arrayENS2_9allocatorIS4_EEEERS4_,
                            __ZN3mlx4core7Minimum3jvpERKNSt3__16vectorINS0_5arrayENS2_9allocatorIS4_EEEES9_RKNS3_IiNS5_IiEEEE,
                            __ZN3mlx4core7Minimum3vjpERKNSt3__16vectorINS0_5arrayENS2_9allocatorIS4_EEEES9_RKNS3_IiNS5_IiEEEES9_,
                            __ZN3mlx4core7Minimum4evalERKNSt3__16vectorINS0_5arrayENS2_9allocatorIS4_EEEERS4_,
                            __ZN3mlx4core7Minimum4vmapERKNSt3__16vectorINS0_5arrayENS2_9allocatorIS4_EEEERKNS3_IiNS5_IiEEEE,
                            __ZN3mlx4core7Minimum8eval_cpuERKNSt3__16vectorINS0_5arrayENS2_9allocatorIS4_EEEERS4_,
                            __ZN3mlx4core7Minimum8eval_gpuERKNSt3__16vectorINS0_5arrayENS2_9allocatorIS4_EEEERS4_,
                            __ZN3mlx4core7Reshape15prepare_reshapeERKNS0_5arrayES4_,
                            __ZN3mlx4core7Reshape21shared_buffer_reshapeERKNS0_5arrayERKNSt3__16vectorImNS5_9allocatorImEEEERS2_,
                            __ZN3mlx4core7Reshape3jvpERKNSt3__16vectorINS0_5arrayENS2_9allocatorIS4_EEEES9_RKNS3_IiNS5_IiEEEE,
                            __ZN3mlx4core7Reshape3vjpERKNSt3__16vectorINS0_5arrayENS2_9allocatorIS4_EEEES9_RKNS3_IiNS5_IiEEEES9_,
                            __ZN3mlx4core7Reshape4evalERKNSt3__16vectorINS0_5arrayENS2_9allocatorIS4_EEEERS4_,
                            __ZN3mlx4core7Reshape4vmapERKNSt3__16vectorINS0_5arrayENS2_9allocatorIS4_EEEERKNS3_IiNS5_IiEEEE,
                            __ZN3mlx4core7Reshape8eval_cpuERKNSt3__16vectorINS0_5arrayENS2_9allocatorIS4_EEEERS4_,
                            __ZN3mlx4core7Reshape8eval_gpuERKNSt3__16vectorINS0_5arrayENS2_9allocatorIS4_EEEERS4_,
                            __ZN3mlx4core7Scatter3jvpERKNSt3__16vectorINS0_5arrayENS2_9allocatorIS4_EEEES9_RKNS3_IiNS5_IiEEEE,
                            __ZN3mlx4core7Scatter3vjpERKNSt3__16vectorINS0_5arrayENS2_9allocatorIS4_EEEES9_RKNS3_IiNS5_IiEEEES9_,
                            __ZN3mlx4core7Scatter4evalERKNSt3__16vectorINS0_5arrayENS2_9allocatorIS4_EEEERS4_,
                            __ZN3mlx4core7Scatter8eval_cpuERKNSt3__16vectorINS0_5arrayENS2_9allocatorIS4_EEEERS4_,
                            __ZN3mlx4core7Scatter8eval_gpuERKNSt3__16vectorINS0_5arrayENS2_9allocatorIS4_EEEERS4_,
                            __ZN3mlx4core7Sigmoid3jvpERKNSt3__16vectorINS0_5arrayENS2_9allocatorIS4_EEEES9_RKNS3_IiNS5_IiEEEE,
                            __ZN3mlx4core7Sigmoid3vjpERKNSt3__16vectorINS0_5arrayENS2_9allocatorIS4_EEEES9_RKNS3_IiNS5_IiEEEES9_,
                            __ZN3mlx4core7Sigmoid4evalERKNSt3__16vectorINS0_5arrayENS2_9allocatorIS4_EEEERS4_,
                            __ZN3mlx4core7Sigmoid4vmapERKNSt3__16vectorINS0_5arrayENS2_9allocatorIS4_EEEERKNS3_IiNS5_IiEEEE,
                            __ZN3mlx4core7Sigmoid8eval_cpuERKNSt3__16vectorINS0_5arrayENS2_9allocatorIS4_EEEERS4_,
                            __ZN3mlx4core7Sigmoid8eval_gpuERKNSt3__16vectorINS0_5arrayENS2_9allocatorIS4_EEEERS4_,
                            __ZN3mlx4core7arccoshERKNS0_5arrayENSt3__17variantIJNS4_9monostateENS0_6StreamENS0_6DeviceEEEE,
                            __ZN3mlx4core7arcsinhERKNS0_5arrayENSt3__17variantIJNS4_9monostateENS0_6StreamENS0_6DeviceEEEE,
                            __ZN3mlx4core7arctan2ERKNS0_5arrayES3_NSt3__17variantIJNS4_9monostateENS0_6StreamENS0_6DeviceEEEE,
                            __ZN3mlx4core7arctanhERKNS0_5arrayENSt3__17variantIJNS4_9monostateENS0_6StreamENS0_6DeviceEEEE,
                            __ZN3mlx4core7argsortERKNS0_5arrayENSt3__17variantIJNS4_9monostateENS0_6StreamENS0_6DeviceEEEE,
                            __ZN3mlx4core7argsortERKNS0_5arrayEiNSt3__17variantIJNS4_9monostateENS0_6StreamENS0_6DeviceEEEE,
                            __ZN3mlx4core7cumprodERKNS0_5arrayEibbNSt3__17variantIJNS4_9monostateENS0_6StreamENS0_6DeviceEEEE,
                            __ZN3mlx4core7degreesERKNS0_5arrayENSt3__17variantIJNS4_9monostateENS0_6StreamENS0_6DeviceEEEE,
                            __ZN3mlx4core7dependsERKNSt3__16vectorINS0_5arrayENS1_9allocatorIS3_EEEES8_,
                            __ZN3mlx4core7flattenERKNS0_5arrayENSt3__17variantIJNS4_9monostateENS0_6StreamENS0_6DeviceEEEE,
                            __ZN3mlx4core7flattenERKNS0_5arrayEiiNSt3__17variantIJNS4_9monostateENS0_6StreamENS0_6DeviceEEEE,
                            __ZN3mlx4core7greaterERKNS0_5arrayES3_NSt3__17variantIJNS4_9monostateENS0_6StreamENS0_6DeviceEEEE,
                            __ZN3mlx4core7iscloseERKNS0_5arrayES3_ddbNSt3__17variantIJNS4_9monostateENS0_6StreamENS0_6DeviceEEEE,
                            __ZN3mlx4core7maximumERKNS0_5arrayES3_NSt3__17variantIJNS4_9monostateENS0_6StreamENS0_6DeviceEEEE,
                            __ZN3mlx4core7minimumERKNS0_5arrayES3_NSt3__17variantIJNS4_9monostateENS0_6StreamENS0_6DeviceEEEE,
                            __ZN3mlx4core7radiansERKNS0_5arrayENSt3__17variantIJNS4_9monostateENS0_6StreamENS0_6DeviceEEEE,
                            __ZN3mlx4core7reshapeERKNS0_5arrayENSt3__16vectorIiNS4_9allocatorIiEEEENS4_7variantIJNS4_9monostateENS0_6StreamENS0_6DeviceEEEE,
                            __ZN3mlx4core7scatterERKNS0_5arrayERKNSt3__16vectorIS1_NS4_9allocatorIS1_EEEES3_RKNS5_IiNS6_IiEEEENS0_7Scatter10ReduceTypeENS4_7variantIJNS4_9monostateENS0_6StreamENS0_6DeviceEEEE,
                            __ZN3mlx4core7scatterERKNS0_5arrayERKNSt3__16vectorIS1_NS4_9allocatorIS1_EEEES3_RKNS5_IiNS6_IiEEEENS4_7variantIJNS4_9monostateENS0_6StreamENS0_6DeviceEEEE,
                            __ZN3mlx4core7sigmoidERKNS0_5arrayENSt3__17variantIJNS4_9monostateENS0_6StreamENS0_6DeviceEEEE,
                            __ZN3mlx4core7squeezeERKNS0_5arrayENSt3__17variantIJNS4_9monostateENS0_6StreamENS0_6DeviceEEEE,
                            __ZN3mlx4core7squeezeERKNS0_5arrayERKNSt3__16vectorIiNS4_9allocatorIiEEEENS4_7variantIJNS4_9monostateENS0_6StreamENS0_6DeviceEEEE,
                            __ZN3mlx4core8Cholesky4evalERKNSt3__16vectorINS0_5arrayENS2_9allocatorIS4_EEEERS4_,
                            __ZN3mlx4core8Cholesky4vmapERKNSt3__16vectorINS0_5arrayENS2_9allocatorIS4_EEEERKNS3_IiNS5_IiEEEE,
                            __ZN3mlx4core8Cholesky8eval_cpuERKNSt3__16vectorINS0_5arrayENS2_9allocatorIS4_EEEERS4_,
                            __ZN3mlx4core8Cholesky8eval_gpuERKNSt3__16vectorINS0_5arrayENS2_9allocatorIS4_EEEERS4_,
                            __ZN3mlx4core8GatherMM3vjpERKNSt3__16vectorINS0_5arrayENS2_9allocatorIS4_EEEES9_RKNS3_IiNS5_IiEEEES9_,
                            __ZN3mlx4core8GatherMM4evalERKNSt3__16vectorINS0_5arrayENS2_9allocatorIS4_EEEERS4_,
                            __ZN3mlx4core8GatherMM8eval_cpuERKNSt3__16vectorINS0_5arrayENS2_9allocatorIS4_EEEERS4_,
                            __ZN3mlx4core8GatherMM8eval_gpuERKNSt3__16vectorINS0_5arrayENS2_9allocatorIS4_EEEERS4_,
                            __ZN3mlx4core8Multiply3jvpERKNSt3__16vectorINS0_5arrayENS2_9allocatorIS4_EEEES9_RKNS3_IiNS5_IiEEEE,
                            __ZN3mlx4core8Multiply3vjpERKNSt3__16vectorINS0_5arrayENS2_9allocatorIS4_EEEES9_RKNS3_IiNS5_IiEEEES9_,
                            __ZN3mlx4core8Multiply4evalERKNSt3__16vectorINS0_5arrayENS2_9allocatorIS4_EEEERS4_,
                            __ZN3mlx4core8Multiply4vmapERKNSt3__16vectorINS0_5arrayENS2_9allocatorIS4_EEEERKNS3_IiNS5_IiEEEE,
                            __ZN3mlx4core8Multiply8eval_cpuERKNSt3__16vectorINS0_5arrayENS2_9allocatorIS4_EEEERS4_,
                            __ZN3mlx4core8Multiply8eval_gpuERKNSt3__16vectorINS0_5arrayENS2_9allocatorIS4_EEEERS4_,
                            __ZN3mlx4core8Negative3jvpERKNSt3__16vectorINS0_5arrayENS2_9allocatorIS4_EEEES9_RKNS3_IiNS5_IiEEEE,
                            __ZN3mlx4core8Negative3vjpERKNSt3__16vectorINS0_5arrayENS2_9allocatorIS4_EEEES9_RKNS3_IiNS5_IiEEEES9_,
                            __ZN3mlx4core8Negative4evalERKNSt3__16vectorINS0_5arrayENS2_9allocatorIS4_EEEERS4_,
                            __ZN3mlx4core8Negative4vmapERKNSt3__16vectorINS0_5arrayENS2_9allocatorIS4_EEEERKNS3_IiNS5_IiEEEE,
                            __ZN3mlx4core8Negative8eval_cpuERKNSt3__16vectorINS0_5arrayENS2_9allocatorIS4_EEEERS4_,
                            __ZN3mlx4core8Negative8eval_gpuERKNSt3__16vectorINS0_5arrayENS2_9allocatorIS4_EEEERS4_,
                            __ZN3mlx4core8NotEqual3jvpERKNSt3__16vectorINS0_5arrayENS2_9allocatorIS4_EEEES9_RKNS3_IiNS5_IiEEEE,
                            __ZN3mlx4core8NotEqual3vjpERKNSt3__16vectorINS0_5arrayENS2_9allocatorIS4_EEEES9_RKNS3_IiNS5_IiEEEES9_,
                            __ZN3mlx4core8NotEqual4evalERKNSt3__16vectorINS0_5arrayENS2_9allocatorIS4_EEEERS4_,
                            __ZN3mlx4core8NotEqual4vmapERKNSt3__16vectorINS0_5arrayENS2_9allocatorIS4_EEEERKNS3_IiNS5_IiEEEE,
                            __ZN3mlx4core8NotEqual8eval_cpuERKNSt3__16vectorINS0_5arrayENS2_9allocatorIS4_EEEERS4_,
                            __ZN3mlx4core8NotEqual8eval_gpuERKNSt3__16vectorINS0_5arrayENS2_9allocatorIS4_EEEERS4_,
                            __ZN3mlx4core8Subtract3jvpERKNSt3__16vectorINS0_5arrayENS2_9allocatorIS4_EEEES9_RKNS3_IiNS5_IiEEEE,
                            __ZN3mlx4core8Subtract3vjpERKNSt3__16vectorINS0_5arrayENS2_9allocatorIS4_EEEES9_RKNS3_IiNS5_IiEEEES9_,
                            __ZN3mlx4core8Subtract4evalERKNSt3__16vectorINS0_5arrayENS2_9allocatorIS4_EEEERS4_,
                            __ZN3mlx4core8Subtract4vmapERKNSt3__16vectorINS0_5arrayENS2_9allocatorIS4_EEEERKNS3_IiNS5_IiEEEE,
                            __ZN3mlx4core8Subtract8eval_cpuERKNSt3__16vectorINS0_5arrayENS2_9allocatorIS4_EEEERS4_,
                            __ZN3mlx4core8Subtract8eval_gpuERKNSt3__16vectorINS0_5arrayENS2_9allocatorIS4_EEEERS4_,
                            __ZN3mlx4core8allcloseERKNS0_5arrayES3_ddbNSt3__17variantIJNS4_9monostateENS0_6StreamENS0_6DeviceEEEE,
                            __ZN3mlx4core8diagonalERKNS0_5arrayEiiiNSt3__17variantIJNS4_9monostateENS0_6StreamENS0_6DeviceEEEE,
                            __ZN3mlx4core8identityEiNS0_5DtypeENSt3__17variantIJNS2_9monostateENS0_6StreamENS0_6DeviceEEEE,
                            __ZN3mlx4core8isneginfERKNS0_5arrayENSt3__17variantIJNS4_9monostateENS0_6StreamENS0_6DeviceEEEE,
                            __ZN3mlx4core8isposinfERKNS0_5arrayENSt3__17variantIJNS4_9monostateENS0_6StreamENS0_6DeviceEEEE,
                            __ZN3mlx4core8linspaceEddiNS0_5DtypeENSt3__17variantIJNS2_9monostateENS0_6StreamENS0_6DeviceEEEE,
                            __ZN3mlx4core8meshgridERKNSt3__16vectorINS0_5arrayENS1_9allocatorIS3_EEEEbNS1_12basic_stringIcNS1_11char_traitsIcEENS4_IcEEEENS1_7variantIJNS1_9monostateENS0_6StreamENS0_6DeviceEEEE,
                            __ZN3mlx4core8moveaxisERKNS0_5arrayEiiNSt3__17variantIJNS4_9monostateENS0_6StreamENS0_6DeviceEEEE,
                            __ZN3mlx4core8multiplyERKNS0_5arrayES3_NSt3__17variantIJNS4_9monostateENS0_6StreamENS0_6DeviceEEEE,
                            __ZN3mlx4core8negativeERKNS0_5arrayENSt3__17variantIJNS4_9monostateENS0_6StreamENS0_6DeviceEEEE,
                            __ZN3mlx4core8subtractERKNS0_5arrayES3_NSt3__17variantIJNS4_9monostateENS0_6StreamENS0_6DeviceEEEE,
                            __ZN3mlx4core8svd_implERKNS0_5arrayERS1_S4_S4_,
                            __ZN3mlx4core8swapaxesERKNS0_5arrayEiiNSt3__17variantIJNS4_9monostateENS0_6StreamENS0_6DeviceEEEE,
                            __ZN3mlx4core9ArgReduce13output_shapesERKNSt3__16vectorINS0_5arrayENS2_9allocatorIS4_EEEE,
                            __ZN3mlx4core9ArgReduce4evalERKNSt3__16vectorINS0_5arrayENS2_9allocatorIS4_EEEERS4_,
                            __ZN3mlx4core9ArgReduce4vmapERKNSt3__16vectorINS0_5arrayENS2_9allocatorIS4_EEEERKNS3_IiNS5_IiEEEE,
                            __ZN3mlx4core9ArgReduce8eval_cpuERKNSt3__16vectorINS0_5arrayENS2_9allocatorIS4_EEEERS4_,
                            __ZN3mlx4core9ArgReduce8eval_gpuERKNSt3__16vectorINS0_5arrayENS2_9allocatorIS4_EEEERS4_,
                            __ZN3mlx4core9AsStrided3jvpERKNSt3__16vectorINS0_5arrayENS2_9allocatorIS4_EEEES9_RKNS3_IiNS5_IiEEEE,
                            __ZN3mlx4core9AsStrided3vjpERKNSt3__16vectorINS0_5arrayENS2_9allocatorIS4_EEEES9_RKNS3_IiNS5_IiEEEES9_,
                            __ZN3mlx4core9AsStrided4evalERKNSt3__16vectorINS0_5arrayENS2_9allocatorIS4_EEEERS4_,
                            __ZN3mlx4core9AsStrided8eval_cpuERKNSt3__16vectorINS0_5arrayENS2_9allocatorIS4_EEEERS4_,
                            __ZN3mlx4core9AsStrided8eval_gpuERKNSt3__16vectorINS0_5arrayENS2_9allocatorIS4_EEEERS4_,
                            __ZN3mlx4core9Broadcast3jvpERKNSt3__16vectorINS0_5arrayENS2_9allocatorIS4_EEEES9_RKNS3_IiNS5_IiEEEE,
                            __ZN3mlx4core9Broadcast3vjpERKNSt3__16vectorINS0_5arrayENS2_9allocatorIS4_EEEES9_RKNS3_IiNS5_IiEEEES9_,
                            __ZN3mlx4core9Broadcast4evalERKNSt3__16vectorINS0_5arrayENS2_9allocatorIS4_EEEERS4_,
                            __ZN3mlx4core9Broadcast4vmapERKNSt3__16vectorINS0_5arrayENS2_9allocatorIS4_EEEERKNS3_IiNS5_IiEEEE,
                            __ZN3mlx4core9Broadcast8eval_cpuERKNSt3__16vectorINS0_5arrayENS2_9allocatorIS4_EEEERS4_,
                            __ZN3mlx4core9Broadcast8eval_gpuERKNSt3__16vectorINS0_5arrayENS2_9allocatorIS4_EEEERS4_,
                            __ZN3mlx4core9CustomVJP3vjpERKNSt3__16vectorINS0_5arrayENS2_9allocatorIS4_EEEES9_RKNS3_IiNS5_IiEEEES9_,
                            __ZN3mlx4core9CustomVJP4evalERKNSt3__16vectorINS0_5arrayENS2_9allocatorIS4_EEEERS7_,
                            __ZN3mlx4core9CustomVJP8eval_cpuERKNSt3__16vectorINS0_5arrayENS2_9allocatorIS4_EEEERS7_,
                            __ZN3mlx4core9CustomVJP8eval_gpuERKNSt3__16vectorINS0_5arrayENS2_9allocatorIS4_EEEERS7_,
                            __ZN3mlx4core9LessEqual3jvpERKNSt3__16vectorINS0_5arrayENS2_9allocatorIS4_EEEES9_RKNS3_IiNS5_IiEEEE,
                            __ZN3mlx4core9LessEqual3vjpERKNSt3__16vectorINS0_5arrayENS2_9allocatorIS4_EEEES9_RKNS3_IiNS5_IiEEEES9_,
                            __ZN3mlx4core9LessEqual4evalERKNSt3__16vectorINS0_5arrayENS2_9allocatorIS4_EEEERS4_,
                            __ZN3mlx4core9LessEqual4vmapERKNSt3__16vectorINS0_5arrayENS2_9allocatorIS4_EEEERKNS3_IiNS5_IiEEEE,
                            __ZN3mlx4core9LessEqual8eval_cpuERKNSt3__16vectorINS0_5arrayENS2_9allocatorIS4_EEEERS4_,
                            __ZN3mlx4core9LessEqual8eval_gpuERKNSt3__16vectorINS0_5arrayENS2_9allocatorIS4_EEEERS4_,
                            __ZN3mlx4core9LogAddExp3jvpERKNSt3__16vectorINS0_5arrayENS2_9allocatorIS4_EEEES9_RKNS3_IiNS5_IiEEEE,
                            __ZN3mlx4core9LogAddExp3vjpERKNSt3__16vectorINS0_5arrayENS2_9allocatorIS4_EEEES9_RKNS3_IiNS5_IiEEEES9_,
                            __ZN3mlx4core9LogAddExp4evalERKNSt3__16vectorINS0_5arrayENS2_9allocatorIS4_EEEERS4_,
                            __ZN3mlx4core9LogAddExp4vmapERKNSt3__16vectorINS0_5arrayENS2_9allocatorIS4_EEEERKNS3_IiNS5_IiEEEE,
                            __ZN3mlx4core9LogAddExp8eval_cpuERKNSt3__16vectorINS0_5arrayENS2_9allocatorIS4_EEEERS4_,
                            __ZN3mlx4core9LogAddExp8eval_gpuERKNSt3__16vectorINS0_5arrayENS2_9allocatorIS4_EEEERS4_,
                            __ZN3mlx4core9LogicalOr3jvpERKNSt3__16vectorINS0_5arrayENS2_9allocatorIS4_EEEES9_RKNS3_IiNS5_IiEEEE,
                            __ZN3mlx4core9LogicalOr3vjpERKNSt3__16vectorINS0_5arrayENS2_9allocatorIS4_EEEES9_RKNS3_IiNS5_IiEEEES9_,
                            __ZN3mlx4core9LogicalOr4evalERKNSt3__16vectorINS0_5arrayENS2_9allocatorIS4_EEEERS4_,
                            __ZN3mlx4core9LogicalOr4vmapERKNSt3__16vectorINS0_5arrayENS2_9allocatorIS4_EEEERKNS3_IiNS5_IiEEEE,
                            __ZN3mlx4core9LogicalOr8eval_cpuERKNSt3__16vectorINS0_5arrayENS2_9allocatorIS4_EEEERS4_,
                            __ZN3mlx4core9LogicalOr8eval_gpuERKNSt3__16vectorINS0_5arrayENS2_9allocatorIS4_EEEERS4_,
                            __ZN3mlx4core9Partition3jvpERKNSt3__16vectorINS0_5arrayENS2_9allocatorIS4_EEEES9_RKNS3_IiNS5_IiEEEE,
                            __ZN3mlx4core9Partition3vjpERKNSt3__16vectorINS0_5arrayENS2_9allocatorIS4_EEEES9_RKNS3_IiNS5_IiEEEES9_,
                            __ZN3mlx4core9Partition4evalERKNSt3__16vectorINS0_5arrayENS2_9allocatorIS4_EEEERS4_,
                            __ZN3mlx4core9Partition4vmapERKNSt3__16vectorINS0_5arrayENS2_9allocatorIS4_EEEERKNS3_IiNS5_IiEEEE,
                            __ZN3mlx4core9Partition8eval_cpuERKNSt3__16vectorINS0_5arrayENS2_9allocatorIS4_EEEERS4_,
                            __ZN3mlx4core9Partition8eval_gpuERKNSt3__16vectorINS0_5arrayENS2_9allocatorIS4_EEEERS4_,
                            __ZN3mlx4core9Primitive13output_shapesERKNSt3__16vectorINS0_5arrayENS2_9allocatorIS4_EEEE,
                            __ZN3mlx4core9Primitive3jvpERKNSt3__16vectorINS0_5arrayENS2_9allocatorIS4_EEEES9_RKNS3_IiNS5_IiEEEE,
                            __ZN3mlx4core9Primitive3vjpERKNSt3__16vectorINS0_5arrayENS2_9allocatorIS4_EEEES9_RKNS3_IiNS5_IiEEEES9_,
                            __ZN3mlx4core9Primitive4vmapERKNSt3__16vectorINS0_5arrayENS2_9allocatorIS4_EEEERKNS3_IiNS5_IiEEEE,
                            __ZN3mlx4core9Remainder3jvpERKNSt3__16vectorINS0_5arrayENS2_9allocatorIS4_EEEES9_RKNS3_IiNS5_IiEEEE,
                            __ZN3mlx4core9Remainder3vjpERKNSt3__16vectorINS0_5arrayENS2_9allocatorIS4_EEEES9_RKNS3_IiNS5_IiEEEES9_,
                            __ZN3mlx4core9Remainder4evalERKNSt3__16vectorINS0_5arrayENS2_9allocatorIS4_EEEERS4_,
                            __ZN3mlx4core9Remainder4vmapERKNSt3__16vectorINS0_5arrayENS2_9allocatorIS4_EEEERKNS3_IiNS5_IiEEEE,
                            __ZN3mlx4core9Remainder8eval_cpuERKNSt3__16vectorINS0_5arrayENS2_9allocatorIS4_EEEERS4_,
                            __ZN3mlx4core9Remainder8eval_gpuERKNSt3__16vectorINS0_5arrayENS2_9allocatorIS4_EEEERS4_,
                            __ZN3mlx4core9Transpose3jvpERKNSt3__16vectorINS0_5arrayENS2_9allocatorIS4_EEEES9_RKNS3_IiNS5_IiEEEE,
                            __ZN3mlx4core9Transpose3vjpERKNSt3__16vectorINS0_5arrayENS2_9allocatorIS4_EEEES9_RKNS3_IiNS5_IiEEEES9_,
                            __ZN3mlx4core9Transpose4evalERKNSt3__16vectorINS0_5arrayENS2_9allocatorIS4_EEEERS4_,
                            __ZN3mlx4core9Transpose4vmapERKNSt3__16vectorINS0_5arrayENS2_9allocatorIS4_EEEERKNS3_IiNS5_IiEEEE,
                            __ZN3mlx4core9Transpose8eval_cpuERKNSt3__16vectorINS0_5arrayENS2_9allocatorIS4_EEEERS4_,
                            __ZN3mlx4core9Transpose8eval_gpuERKNSt3__16vectorINS0_5arrayENS2_9allocatorIS4_EEEERS4_,
                            __ZN3mlx4core9allocator14malloc_or_waitEm,
                            __ZN3mlx4core9allocator15CommonAllocator4freeENS1_6BufferE,
                            __ZN3mlx4core9allocator15CommonAllocator6mallocEmb,
                            __ZN3mlx4core9allocator4freeENS1_6BufferE,
                            __ZN3mlx4core9allocator6Buffer7raw_ptrEv,
                            __ZN3mlx4core9allocator6mallocEm,
                            __ZN3mlx4core9allocator9allocatorEv,
                            __ZN3mlx4core9eval_implENSt3__16vectorINS0_5arrayENS1_9allocatorIS3_EEEEb,
                            __ZN3mlx4core9gather_mmENS0_5arrayES1_NSt3__18optionalIS1_EES4_NS2_7variantIJNS2_9monostateENS0_6StreamENS0_6DeviceEEEE,
                            __ZN3mlx4core9load_ggufERKNSt3__112basic_stringIcNS1_11char_traitsIcEENS1_9allocatorIcEEEENS1_7variantIJNS1_9monostateENS0_6StreamENS0_6DeviceEEEE,
                            __ZN3mlx4core9logaddexpERKNS0_5arrayES3_NSt3__17variantIJNS4_9monostateENS0_6StreamENS0_6DeviceEEEE,
                            __ZN3mlx4core9logsumexpERKNS0_5arrayERKNSt3__16vectorIiNS4_9allocatorIiEEEEbNS4_7variantIJNS4_9monostateENS0_6StreamENS0_6DeviceEEEE,
                            __ZN3mlx4core9logsumexpERKNS0_5arrayEbNSt3__17variantIJNS4_9monostateENS0_6StreamENS0_6DeviceEEEE,
                            __ZN3mlx4core9logsumexpERKNS0_5arrayEibNSt3__17variantIJNS4_9monostateENS0_6StreamENS0_6DeviceEEEE,
                            __ZN3mlx4core9not_equalERKNS0_5arrayES3_NSt3__17variantIJNS4_9monostateENS0_6StreamENS0_6DeviceEEEE,
                            __ZN3mlx4core9ones_likeERKNS0_5arrayENSt3__17variantIJNS4_9monostateENS0_6StreamENS0_6DeviceEEEE,
                            __ZN3mlx4core9partitionERKNS0_5arrayEiNSt3__17variantIJNS4_9monostateENS0_6StreamENS0_6DeviceEEEE,
                            __ZN3mlx4core9partitionERKNS0_5arrayEiiNSt3__17variantIJNS4_9monostateENS0_6StreamENS0_6DeviceEEEE,
                            __ZN3mlx4core9remainderERKNS0_5arrayES3_NSt3__17variantIJNS4_9monostateENS0_6StreamENS0_6DeviceEEEE,
                            __ZN3mlx4core9save_ggufENSt3__112basic_stringIcNS1_11char_traitsIcEENS1_9allocatorIcEEEENS1_13unordered_mapIS7_NS0_5arrayENS1_4hashIS7_EENS1_8equal_toIS7_EENS5_INS1_4pairIKS7_S9_EEEEEENS8_IS7_NS1_7variantIJNS1_9monostateES9_S7_NS1_6vectorIS7_NS5_IS7_EEEEEEESB_SD_NS5_INSE_ISF_SO_EEEEEE,
                            __ZN3mlx4core9scheduler9schedulerEv,
                            __ZN3mlx4core9tensordotERKNS0_5arrayES3_RKNSt3__16vectorIiNS4_9allocatorIiEEEESA_NS4_7variantIJNS4_9monostateENS0_6StreamENS0_6DeviceEEEE,
                            __ZN3mlx4core9tensordotERKNS0_5arrayES3_iNSt3__17variantIJNS4_9monostateENS0_6StreamENS0_6DeviceEEEE,
                            __ZN3mlx4core9to_streamENSt3__17variantIJNS1_9monostateENS0_6StreamENS0_6DeviceEEEE,
                            __ZN3mlx4core9transposeERKNS0_5arrayENSt3__16vectorIiNS4_9allocatorIiEEEENS4_7variantIJNS4_9monostateENS0_6StreamENS0_6DeviceEEEE,
                            __ZN3mlx4core9transposeERKNS0_5arrayENSt3__17variantIJNS4_9monostateENS0_6StreamENS0_6DeviceEEEE,
                            __ZN3mlx4coreaaERKNS0_5arrayES3_,
                            __ZN3mlx4coreanERKNS0_5arrayES3_,
                            __ZN3mlx4coredvERKNS0_5arrayES3_,
                            __ZN3mlx4coredvERKNS0_5arrayEd,
                            __ZN3mlx4coredvEdRKNS0_5arrayE,
                            __ZN3mlx4coreeoERKNS0_5arrayES3_,
                            __ZN3mlx4coreeqERKNS0_6DeviceES3_,
                            __ZN3mlx4corelsERKNS0_5arrayES3_,
                            __ZN3mlx4corelsERNSt3__113basic_ostreamIcNS1_11char_traitsIcEEEENS0_5arrayE,
                            __ZN3mlx4corelsERNSt3__113basic_ostreamIcNS1_11char_traitsIcEEEERKNS0_5Dtype4KindE,
                            __ZN3mlx4corelsERNSt3__113basic_ostreamIcNS1_11char_traitsIcEEEERKNS0_5DtypeE,
                            __ZN3mlx4corelsERNSt3__113basic_ostreamIcNS1_11char_traitsIcEEEERKNS0_6DeviceE,
                            __ZN3mlx4corelsERNSt3__113basic_ostreamIcNS1_11char_traitsIcEEEERKNS0_6StreamE,
                            __ZN3mlx4corelsERNSt3__113basic_ostreamIcNS1_11char_traitsIcEEEERKNS1_6vectorIiNS1_9allocatorIiEEEE,
                            __ZN3mlx4corelsERNSt3__113basic_ostreamIcNS1_11char_traitsIcEEEERKNS1_6vectorImNS1_9allocatorImEEEE,
                            __ZN3mlx4corelsERNSt3__113basic_ostreamIcNS1_11char_traitsIcEEEERKNS1_6vectorIxNS1_9allocatorIxEEEE,
                            __ZN3mlx4corelsERNSt3__113basic_ostreamIcNS1_11char_traitsIcEEEEa,
                            __ZN3mlx4corelsERNSt3__113basic_ostreamIcNS1_11char_traitsIcEEEEh,
                            __ZN3mlx4coremiERKNS0_5arrayES3_,
                            __ZN3mlx4coremlERKNS0_5arrayES3_,
                            __ZN3mlx4coreneERKNS0_6DeviceES3_,
                            __ZN3mlx4corengERKNS0_5arrayE,
                            __ZN3mlx4coreooERKNS0_5arrayES3_,
                            __ZN3mlx4coreorERKNS0_5arrayES3_,
                            __ZN3mlx4coreplERKNS0_5arrayES3_,
                            __ZN3mlx4corermERKNS0_5arrayES3_,
                            __ZN3mlx4corersERKNS0_5arrayES3_,
                            __ZNK3mlx4core10RandomBits13is_equivalentERKNS0_9PrimitiveE,
                            __ZNK3mlx4core11Concatenate13is_equivalentERKNS0_9PrimitiveE,
                            __ZNK3mlx4core11SliceUpdate13is_equivalentERKNS0_9PrimitiveE,
                            __ZNK3mlx4core12ArgPartition13is_equivalentERKNS0_9PrimitiveE,
                            __ZNK3mlx4core13BitwiseBinary13is_equivalentERKNS0_9PrimitiveE,
                            __ZNK3mlx4core13BlockMaskedMM13is_equivalentERKNS0_9PrimitiveE,
                            __ZNK3mlx4core16NumberOfElements13is_equivalentERKNS0_9PrimitiveE,
                            __ZNK3mlx4core3Pad13is_equivalentERKNS0_9PrimitiveE,
                            __ZNK3mlx4core4Scan13is_equivalentERKNS0_9PrimitiveE,
                            __ZNK3mlx4core4Sort13is_equivalentERKNS0_9PrimitiveE,
                            __ZNK3mlx4core4Sqrt13is_equivalentERKNS0_9PrimitiveE,
                            __ZNK3mlx4core5AddMM13is_equivalentERKNS0_9PrimitiveE,
                            __ZNK3mlx4core5Slice13is_equivalentERKNS0_9PrimitiveE,
                            __ZNK3mlx4core5Split13is_equivalentERKNS0_9PrimitiveE,
                            __ZNK3mlx4core5array13ArrayIteratordeEv,
                            __ZNK3mlx4core5array9is_tracerEv,
                            __ZNK3mlx4core6Arange13is_equivalentERKNS0_9PrimitiveE,
                            __ZNK3mlx4core6AsType13is_equivalentERKNS0_9PrimitiveE,
                            __ZNK3mlx4core6Gather13is_equivalentERKNS0_9PrimitiveE,
                            __ZNK3mlx4core6Reduce13is_equivalentERKNS0_9PrimitiveE,
                            __ZNK3mlx4core7ArgSort13is_equivalentERKNS0_9PrimitiveE,
                            __ZNK3mlx4core7Reshape13is_equivalentERKNS0_9PrimitiveE,
                            __ZNK3mlx4core7Scatter13is_equivalentERKNS0_9PrimitiveE,
                            __ZNK3mlx4core9ArgReduce13is_equivalentERKNS0_9PrimitiveE,
                            __ZNK3mlx4core9AsStrided13is_equivalentERKNS0_9PrimitiveE,
                            __ZNK3mlx4core9Broadcast13is_equivalentERKNS0_9PrimitiveE,
                            __ZNK3mlx4core9Partition13is_equivalentERKNS0_9PrimitiveE,
                            __ZNK3mlx4core9Transpose13is_equivalentERKNS0_9PrimitiveE,
                            __ZTI10mlx_array_, __ZTI11mlx_device_,
                            __ZTI11mlx_stream_, __ZTI11mlx_string_,
                            __ZTI12mlx_closure_, __ZTI16mlx_safetensors_,
                            __ZTI17mlx_vector_array_,
                            __ZTI24mlx_map_string_to_array_,
                            __ZTI24mlx_vector_vector_array_,
                            __ZTI25mlx_map_string_to_string_,
                            __ZTI27mlx_closure_value_and_grad_,
                            __ZTI33mlx_map_string_to_array_iterator_,
                            __ZTI34mlx_map_string_to_string_iterator_,
                            __ZTIN3mlx4core10LogicalAndE,
                            __ZTIN3mlx4core10LogicalNotE,
                            __ZTIN3mlx4core10RandomBitsE,
                            __ZTIN3mlx4core11ConcatenateE,
                            __ZTIN3mlx4core11SliceUpdateE,
                            __ZTIN3mlx4core12ArgPartitionE,
                            __ZTIN3mlx4core12GreaterEqualE,
                            __ZTIN3mlx4core12StopGradientE,
                            __ZTIN3mlx4core13BitwiseBinaryE,
                            __ZTIN3mlx4core13BlockMaskedMME,
                            __ZTIN3mlx4core16NumberOfElementsE,
                            __ZTIN3mlx4core3AbsE, __ZTIN3mlx4core3AddE,
                            __ZTIN3mlx4core3CosE, __ZTIN3mlx4core3ErfE,
                            __ZTIN3mlx4core3ExpE, __ZTIN3mlx4core3LogE,
                            __ZTIN3mlx4core3PadE, __ZTIN3mlx4core3QRFE,
                            __ZTIN3mlx4core3SVDE, __ZTIN3mlx4core3SinE,
                            __ZTIN3mlx4core3TanE, __ZTIN3mlx4core4CeilE,
                            __ZTIN3mlx4core4CopyE, __ZTIN3mlx4core4CoshE,
                            __ZTIN3mlx4core4FullE, __ZTIN3mlx4core4LessE,
                            __ZTIN3mlx4core4ScanE, __ZTIN3mlx4core4SignE,
                            __ZTIN3mlx4core4SinhE, __ZTIN3mlx4core4SortE,
                            __ZTIN3mlx4core4SqrtE, __ZTIN3mlx4core4TanhE,
                            __ZTIN3mlx4core5AddMME, __ZTIN3mlx4core5EqualE,
                            __ZTIN3mlx4core5Expm1E, __ZTIN3mlx4core5FloorE,
                            __ZTIN3mlx4core5Log1pE, __ZTIN3mlx4core5PowerE,
                            __ZTIN3mlx4core5RoundE, __ZTIN3mlx4core5SliceE,
                            __ZTIN3mlx4core5SplitE, __ZTIN3mlx4core6ArangeE,
                            __ZTIN3mlx4core6ArcCosE, __ZTIN3mlx4core6ArcSinE,
                            __ZTIN3mlx4core6ArcTanE, __ZTIN3mlx4core6AsTypeE,
                            __ZTIN3mlx4core6DivModE, __ZTIN3mlx4core6DivideE,
                            __ZTIN3mlx4core6ErfInvE, __ZTIN3mlx4core6GatherE,
                            __ZTIN3mlx4core6MatmulE, __ZTIN3mlx4core6ReduceE,
                            __ZTIN3mlx4core6SelectE, __ZTIN3mlx4core6SquareE,
                            __ZTIN3mlx4core7ArcCoshE, __ZTIN3mlx4core7ArcSinhE,
                            __ZTIN3mlx4core7ArcTan2E, __ZTIN3mlx4core7ArcTanhE,
                            __ZTIN3mlx4core7ArgSortE, __ZTIN3mlx4core7DependsE,
                            __ZTIN3mlx4core7GreaterE, __ZTIN3mlx4core7InverseE,
                            __ZTIN3mlx4core7MaximumE, __ZTIN3mlx4core7MinimumE,
                            __ZTIN3mlx4core7ReshapeE, __ZTIN3mlx4core7ScatterE,
                            __ZTIN3mlx4core7SigmoidE, __ZTIN3mlx4core8CholeskyE,
                            __ZTIN3mlx4core8GatherMME, __ZTIN3mlx4core8MultiplyE,
                            __ZTIN3mlx4core8NegativeE, __ZTIN3mlx4core8NotEqualE,
                            __ZTIN3mlx4core8SubtractE,
                            __ZTIN3mlx4core9ArgReduceE,
                            __ZTIN3mlx4core9AsStridedE,
                            __ZTIN3mlx4core9BroadcastE,
                            __ZTIN3mlx4core9CustomVJPE,
                            __ZTIN3mlx4core9LessEqualE,
                            __ZTIN3mlx4core9LogAddExpE,
                            __ZTIN3mlx4core9LogicalOrE,
                            __ZTIN3mlx4core9PartitionE,
                            __ZTIN3mlx4core9PrimitiveE,
                            __ZTIN3mlx4core9RemainderE,
                            __ZTIN3mlx4core9TransposeE,
                            __ZTIN3mlx4core9allocator15CommonAllocatorE,
                            __ZTS10mlx_array_, __ZTS11mlx_device_,
                            __ZTS11mlx_stream_, __ZTS11mlx_string_,
                            __ZTS12mlx_closure_, __ZTS16mlx_safetensors_,
                            __ZTS17mlx_vector_array_,
                            __ZTS24mlx_map_string_to_array_,
                            __ZTS24mlx_vector_vector_array_,
                            __ZTS25mlx_map_string_to_string_,
                            __ZTS27mlx_closure_value_and_grad_,
                            __ZTS33mlx_map_string_to_array_iterator_,
                            __ZTS34mlx_map_string_to_string_iterator_,
                            __ZTSN3mlx4core10LogicalAndE,
                            __ZTSN3mlx4core10LogicalNotE,
                            __ZTSN3mlx4core10RandomBitsE,
                            __ZTSN3mlx4core11ConcatenateE,
                            __ZTSN3mlx4core11SliceUpdateE,
                            __ZTSN3mlx4core12ArgPartitionE,
                            __ZTSN3mlx4core12GreaterEqualE,
                            __ZTSN3mlx4core12StopGradientE,
                            __ZTSN3mlx4core13BitwiseBinaryE,
                            __ZTSN3mlx4core13BlockMaskedMME,
                            __ZTSN3mlx4core16NumberOfElementsE,
                            __ZTSN3mlx4core3AbsE, __ZTSN3mlx4core3AddE,
                            __ZTSN3mlx4core3CosE, __ZTSN3mlx4core3ErfE,
                            __ZTSN3mlx4core3ExpE, __ZTSN3mlx4core3LogE,
                            __ZTSN3mlx4core3PadE, __ZTSN3mlx4core3QRFE,
                            __ZTSN3mlx4core3SVDE, __ZTSN3mlx4core3SinE,
                            __ZTSN3mlx4core3TanE, __ZTSN3mlx4core4CeilE,
                            __ZTSN3mlx4core4CopyE, __ZTSN3mlx4core4CoshE,
                            __ZTSN3mlx4core4FullE, __ZTSN3mlx4core4LessE,
                            __ZTSN3mlx4core4ScanE, __ZTSN3mlx4core4SignE,
                            __ZTSN3mlx4core4SinhE, __ZTSN3mlx4core4SortE,
                            __ZTSN3mlx4core4SqrtE, __ZTSN3mlx4core4TanhE,
                            __ZTSN3mlx4core5AddMME, __ZTSN3mlx4core5EqualE,
                            __ZTSN3mlx4core5Expm1E, __ZTSN3mlx4core5FloorE,
                            __ZTSN3mlx4core5Log1pE, __ZTSN3mlx4core5PowerE,
                            __ZTSN3mlx4core5RoundE, __ZTSN3mlx4core5SliceE,
                            __ZTSN3mlx4core5SplitE, __ZTSN3mlx4core6ArangeE,
                            __ZTSN3mlx4core6ArcCosE, __ZTSN3mlx4core6ArcSinE,
                            __ZTSN3mlx4core6ArcTanE, __ZTSN3mlx4core6AsTypeE,
                            __ZTSN3mlx4core6DivModE, __ZTSN3mlx4core6DivideE,
                            __ZTSN3mlx4core6ErfInvE, __ZTSN3mlx4core6GatherE,
                            __ZTSN3mlx4core6MatmulE, __ZTSN3mlx4core6ReduceE,
                            __ZTSN3mlx4core6SelectE, __ZTSN3mlx4core6SquareE,
                            __ZTSN3mlx4core7ArcCoshE, __ZTSN3mlx4core7ArcSinhE,
                            __ZTSN3mlx4core7ArcTan2E, __ZTSN3mlx4core7ArcTanhE,
                            __ZTSN3mlx4core7ArgSortE, __ZTSN3mlx4core7DependsE,
                            __ZTSN3mlx4core7GreaterE, __ZTSN3mlx4core7InverseE,
                            __ZTSN3mlx4core7MaximumE, __ZTSN3mlx4core7MinimumE,
                            __ZTSN3mlx4core7ReshapeE, __ZTSN3mlx4core7ScatterE,
                            __ZTSN3mlx4core7SigmoidE, __ZTSN3mlx4core8CholeskyE,
                            __ZTSN3mlx4core8GatherMME, __ZTSN3mlx4core8MultiplyE,
                            __ZTSN3mlx4core8NegativeE, __ZTSN3mlx4core8NotEqualE,
                            __ZTSN3mlx4core8SubtractE,
                            __ZTSN3mlx4core9ArgReduceE,
                            __ZTSN3mlx4core9AsStridedE,
                            __ZTSN3mlx4core9BroadcastE,
                            __ZTSN3mlx4core9CustomVJPE,
                            __ZTSN3mlx4core9LessEqualE,
                            __ZTSN3mlx4core9LogAddExpE,
                            __ZTSN3mlx4core9LogicalOrE,
                            __ZTSN3mlx4core9PartitionE,
                            __ZTSN3mlx4core9PrimitiveE,
                            __ZTSN3mlx4core9RemainderE,
                            __ZTSN3mlx4core9TransposeE,
                            __ZTSN3mlx4core9allocator15CommonAllocatorE,
                            __ZTV10mlx_array_, __ZTV11mlx_device_,
                            __ZTV11mlx_stream_, __ZTV11mlx_string_,
                            __ZTV12mlx_closure_, __ZTV16mlx_safetensors_,
                            __ZTV17mlx_vector_array_,
                            __ZTV24mlx_map_string_to_array_,
                            __ZTV24mlx_vector_vector_array_,
                            __ZTV25mlx_map_string_to_string_,
                            __ZTV27mlx_closure_value_and_grad_,
                            __ZTV33mlx_map_string_to_array_iterator_,
                            __ZTV34mlx_map_string_to_string_iterator_,
                            __ZTVN3mlx4core10LogicalAndE,
                            __ZTVN3mlx4core10LogicalNotE,
                            __ZTVN3mlx4core10RandomBitsE,
                            __ZTVN3mlx4core11ConcatenateE,
                            __ZTVN3mlx4core11SliceUpdateE,
                            __ZTVN3mlx4core12ArgPartitionE,
                            __ZTVN3mlx4core12GreaterEqualE,
                            __ZTVN3mlx4core12StopGradientE,
                            __ZTVN3mlx4core13BitwiseBinaryE,
                            __ZTVN3mlx4core13BlockMaskedMME,
                            __ZTVN3mlx4core16NumberOfElementsE,
                            __ZTVN3mlx4core3AbsE, __ZTVN3mlx4core3AddE,
                            __ZTVN3mlx4core3CosE, __ZTVN3mlx4core3ErfE,
                            __ZTVN3mlx4core3ExpE, __ZTVN3mlx4core3LogE,
                            __ZTVN3mlx4core3PadE, __ZTVN3mlx4core3QRFE,
                            __ZTVN3mlx4core3SVDE, __ZTVN3mlx4core3SinE,
                            __ZTVN3mlx4core3TanE, __ZTVN3mlx4core4CeilE,
                            __ZTVN3mlx4core4CopyE, __ZTVN3mlx4core4CoshE,
                            __ZTVN3mlx4core4FullE, __ZTVN3mlx4core4LessE,
                            __ZTVN3mlx4core4ScanE, __ZTVN3mlx4core4SignE,
                            __ZTVN3mlx4core4SinhE, __ZTVN3mlx4core4SortE,
                            __ZTVN3mlx4core4SqrtE, __ZTVN3mlx4core4TanhE,
                            __ZTVN3mlx4core5AddMME, __ZTVN3mlx4core5EqualE,
                            __ZTVN3mlx4core5Expm1E, __ZTVN3mlx4core5FloorE,
                            __ZTVN3mlx4core5Log1pE, __ZTVN3mlx4core5PowerE,
                            __ZTVN3mlx4core5RoundE, __ZTVN3mlx4core5SliceE,
                            __ZTVN3mlx4core5SplitE, __ZTVN3mlx4core6ArangeE,
                            __ZTVN3mlx4core6ArcCosE, __ZTVN3mlx4core6ArcSinE,
                            __ZTVN3mlx4core6ArcTanE, __ZTVN3mlx4core6AsTypeE,
                            __ZTVN3mlx4core6DivModE, __ZTVN3mlx4core6DivideE,
                            __ZTVN3mlx4core6ErfInvE, __ZTVN3mlx4core6GatherE,
                            __ZTVN3mlx4core6MatmulE, __ZTVN3mlx4core6ReduceE,
                            __ZTVN3mlx4core6SelectE, __ZTVN3mlx4core6SquareE,
                            __ZTVN3mlx4core7ArcCoshE, __ZTVN3mlx4core7ArcSinhE,
                            __ZTVN3mlx4core7ArcTan2E, __ZTVN3mlx4core7ArcTanhE,
                            __ZTVN3mlx4core7ArgSortE, __ZTVN3mlx4core7DependsE,
                            __ZTVN3mlx4core7GreaterE, __ZTVN3mlx4core7InverseE,
                            __ZTVN3mlx4core7MaximumE, __ZTVN3mlx4core7MinimumE,
                            __ZTVN3mlx4core7ReshapeE, __ZTVN3mlx4core7ScatterE,
                            __ZTVN3mlx4core7SigmoidE, __ZTVN3mlx4core8CholeskyE,
                            __ZTVN3mlx4core8GatherMME, __ZTVN3mlx4core8MultiplyE,
                            __ZTVN3mlx4core8NegativeE, __ZTVN3mlx4core8NotEqualE,
                            __ZTVN3mlx4core8SubtractE,
                            __ZTVN3mlx4core9ArgReduceE,
                            __ZTVN3mlx4core9AsStridedE,
                            __ZTVN3mlx4core9BroadcastE,
                            __ZTVN3mlx4core9CustomVJPE,
                            __ZTVN3mlx4core9LessEqualE,
                            __ZTVN3mlx4core9LogAddExpE,
                            __ZTVN3mlx4core9LogicalOrE,
                            __ZTVN3mlx4core9PartitionE,
                            __ZTVN3mlx4core9PrimitiveE,
                            __ZTVN3mlx4core9RemainderE,
                            __ZTVN3mlx4core9TransposeE,
                            __ZTVN3mlx4core9allocator15CommonAllocatorE,
                            _mlx_abs, _mlx_add, _mlx_addmm, _mlx_all_all,
                            _mlx_all_axes, _mlx_all_axis, _mlx_allclose, _mlx_any,
                            _mlx_any_all, _mlx_arange, _mlx_arccos, _mlx_arccosh,
                            _mlx_arcsin, _mlx_arcsinh, _mlx_arctan, _mlx_arctan2,
                            _mlx_arctanh, _mlx_argmax, _mlx_argmax_all, _mlx_argmin,
                            _mlx_argmin_all, _mlx_argpartition,
                            _mlx_argpartition_all, _mlx_argsort, _mlx_argsort_all,
                            _mlx_array_data_bool, _mlx_array_data_float32,
                            _mlx_array_data_int32, _mlx_array_data_int64,
                            _mlx_array_data_int8, _mlx_array_data_uint32,
                            _mlx_array_data_uint8, _mlx_array_dim,
                            _mlx_array_equal, _mlx_array_eval,
                            _mlx_array_from_bool, _mlx_array_from_data,
                            _mlx_array_from_float, _mlx_array_from_int,
                            _mlx_array_get_dtype, _mlx_array_item_bool,
                            _mlx_array_item_float32, _mlx_array_item_int32,
                            _mlx_array_item_int64, _mlx_array_item_int8,
                            _mlx_array_item_uint32, _mlx_array_item_uint8,
                            _mlx_array_itemsize, _mlx_array_nbytes,
                            _mlx_array_ndim, _mlx_array_shape, _mlx_array_size,
                            _mlx_array_strides, _mlx_as_strided, _mlx_astype,
                            _mlx_async_eval, _mlx_atleast_1d, _mlx_atleast_2d,
                            _mlx_atleast_3d, _mlx_bitwise_and, _mlx_bitwise_or,
                            _mlx_bitwise_xor, _mlx_block_masked_mm,
                            _mlx_broadcast_arrays, _mlx_broadcast_to, _mlx_ceil,
                            _mlx_checkpoint, _mlx_clip, _mlx_closure_apply,
                            _mlx_closure_new, _mlx_closure_new_unary,
                            _mlx_closure_new_with_payload,
                            _mlx_closure_value_and_grad_apply, _mlx_concatenate,
                            _mlx_concatenate_all, _mlx_copy, _mlx_cos, _mlx_cosh,
                            _mlx_cpu_stream, _mlx_cummax, _mlx_cummin, _mlx_cumprod,
                            _mlx_cumsum, _mlx_default_device, _mlx_default_stream,
                            _mlx_degrees, _mlx_depends, _mlx_device_equal,
                            _mlx_device_get_type, _mlx_device_new, _mlx_diag,
                            _mlx_diagonal, _mlx_divide, _mlx_divmod, _mlx_equal,
                            _mlx_erf, _mlx_erfinv, _mlx_eval, _mlx_exp,
                            _mlx_expand_dims, _mlx_expm1, _mlx_eye, _mlx_flatten,
                            _mlx_floor, _mlx_floor_divide, _mlx_free, _mlx_full,
                            _mlx_gather, _mlx_gather_mm, _mlx_gpu_stream,
                            _mlx_greater, _mlx_greater_equal, _mlx_identity,
                            _mlx_inner, _mlx_isclose, _mlx_isinf, _mlx_isnan,
                            _mlx_isneginf, _mlx_isposinf, _mlx_jvp, _mlx_left_shift,
                            _mlx_less, _mlx_less_equal, _mlx_linalg_cholesky,
                            _mlx_linalg_inv, _mlx_linalg_norm,
                            _mlx_linalg_norm_ord, _mlx_linalg_norm_p,
                            _mlx_linalg_qr, _mlx_linalg_svd, _mlx_linspace, _mlx_log,
                            _mlx_log10, _mlx_log1p, _mlx_log2, _mlx_logaddexp,
                            _mlx_logical_and, _mlx_logical_not, _mlx_logical_or,
                            _mlx_logsumexp, _mlx_logsumexp_all,
                            _mlx_map_string_to_array_get,
                            _mlx_map_string_to_array_insert,
                            _mlx_map_string_to_array_iterate,
                            _mlx_map_string_to_array_iterator_end,
                            _mlx_map_string_to_array_iterator_key,
                            _mlx_map_string_to_array_iterator_next,
                            _mlx_map_string_to_array_iterator_value,
                            _mlx_map_string_to_array_new,
                            _mlx_map_string_to_string_get,
                            _mlx_map_string_to_string_insert,
                            _mlx_map_string_to_string_iterate,
                            _mlx_map_string_to_string_iterator_end,
                            _mlx_map_string_to_string_iterator_key,
                            _mlx_map_string_to_string_iterator_next,
                            _mlx_map_string_to_string_iterator_value,
                            _mlx_map_string_to_string_new, _mlx_matmul, _mlx_max,
                            _mlx_max_all, _mlx_maximum, _mlx_mean, _mlx_mean_all,
                            _mlx_meshgrid, _mlx_metal_clear_cache,
                            _mlx_metal_get_active_memory,
                            _mlx_metal_get_cache_memory,
                            _mlx_metal_get_peak_memory, _mlx_metal_is_available,
                            _mlx_metal_reset_peak_memory,
                            _mlx_metal_set_cache_limit,
                            _mlx_metal_set_memory_limit,
                            _mlx_metal_start_capture, _mlx_metal_stop_capture,
                            _mlx_min, _mlx_min_all, _mlx_minimum, _mlx_moveaxis,
                            _mlx_multiply, _mlx_negative, _mlx_not_equal,
                            _mlx_number_of_elements, _mlx_ones, _mlx_ones_like,
                            _mlx_outer, _mlx_pad, _mlx_partition, _mlx_partition_all,
                            _mlx_power, _mlx_prod, _mlx_prod_all, _mlx_radians,
                            _mlx_random_bernoulli, _mlx_random_bits,
                            _mlx_random_categorical,
                            _mlx_random_categorical_num_samples,
                            _mlx_random_categorical_shape, _mlx_random_gumbel,
                            _mlx_random_key, _mlx_random_multivariate_normal,
                            _mlx_random_normal, _mlx_random_randint,
                            _mlx_random_seed, _mlx_random_split,
                            _mlx_random_split_equal_parts,
                            _mlx_random_truncated_normal, _mlx_random_uniform,
                            _mlx_reciprocal, _mlx_remainder, _mlx_repeat,
                            _mlx_repeat_all, _mlx_reshape, _mlx_retain,
                            _mlx_right_shift, _mlx_round, _mlx_rsqrt,
                            _mlx_safetensors_data, _mlx_safetensors_metadata,
                            _mlx_safetensors_new, _mlx_scatter, _mlx_scatter_add,
                            _mlx_scatter_max, _mlx_scatter_min, _mlx_scatter_prod,
                            _mlx_set_default_device, _mlx_set_default_stream,
                            _mlx_sigmoid, _mlx_sign, _mlx_sin, _mlx_sinh, _mlx_slice,
                            _mlx_slice_update, _mlx_sort, _mlx_sort_all, _mlx_split,
                            _mlx_split_equal_parts, _mlx_sqrt, _mlx_square,
                            _mlx_squeeze, _mlx_squeeze_all, _mlx_stack,
                            _mlx_stack_all, _mlx_std, _mlx_std_all,
                            _mlx_stop_gradient, _mlx_stream_equal,
                            _mlx_stream_get_device, _mlx_stream_new,
                            _mlx_stream_new_on_device, _mlx_string_data,
                            _mlx_string_new, _mlx_subtract, _mlx_sum, _mlx_sum_all,
                            _mlx_swapaxes, _mlx_synchronize, _mlx_take,
                            _mlx_take_all, _mlx_take_along_axis, _mlx_tan, _mlx_tanh,
                            _mlx_tensordot, _mlx_tensordot_along_axis, _mlx_tile,
                            _mlx_topk, _mlx_topk_all, _mlx_tostring, _mlx_trace,
                            _mlx_transpose, _mlx_transpose_all,
                            _mlx_value_and_grad, _mlx_var, _mlx_var_all,
                            _mlx_vector_array_add, _mlx_vector_array_add_arrays,
                            _mlx_vector_array_from_array,
                            _mlx_vector_array_from_arrays, _mlx_vector_array_get,
                            _mlx_vector_array_new, _mlx_vector_array_size,
                            _mlx_vector_vector_array_add,
                            _mlx_vector_vector_array_get,
                            _mlx_vector_vector_array_get2d,
                            _mlx_vector_vector_array_new,
                            _mlx_vector_vector_array_size, _mlx_vjp, _mlx_where,
                            _mlx_zeros, _mlx_zeros_like ]
    weak-def-symbols:     [ __ZN3mlx4core15complexfloatingE,
                            __ZN3mlx4core15unsignedintegerE,
                            __ZN3mlx4core5bool_E, __ZN3mlx4core5uint8E,
                            __ZN3mlx4core7float32E, __ZN3mlx4core7inexactE,
                            __ZN3mlx4core7integerE, __ZN3mlx4core8floatingE ]
...
