--- !tapi-tbd
tbd-version:           4
targets:               [ armv7-ios, armv7s-ios, arm64-ios, arm64e-ios ]
flags:                 [ flat_namespace ]
install-name:          /System/Library/PrivateFrameworks/KnowledgeGraphKit.framework/KnowledgeGraphKit
current-version:       1
compatibility-version: 1
exports:
  - targets:              [ armv7-ios, armv7s-ios, arm64-ios, arm64e-ios ]
    symbols:              [ _CheckInTransaction, _KGAbstractMethodException,
                            _KGElementIdentifierSetWithArray,
                            _KGElementIdentifierSetWithSet, _KGErrorDomain,
                            _KGFullMethodName, _KGLoggingConnection,
                            _KGMethodNotImplentedException,
                            _KnowledgeGraphKitVersionNumber,
                            _KnowledgeGraphKitVersionString,
                            _MABenchmarkGetAppMallocMemory,
                            _MABenchmarkGetAppMemory, _MABenchmarkGetHostMemory,
                            _MAErrorDomain, _MAInverseEdgeType,
                            _MALabelAndDomainFromKGLabels,
                            _MALabelsAndDomainsFromKGLabels,
                            _PropertiesVisualStringForKeys,
                            __Z15bitmapTestCombov,
                            __Z22testEncodeDecodeBitmapRKN5degas6BitmapE,
                            __Z31kg_errorCodeFromDegasReturnCodeN5degas10ReturnCodeE,
                            __Z7testSetv, __Z9testUnsetRKN5degas6BitmapE,
                            __ZN5degas10ArrayTableC1ERKNSt3__112basic_stringIcNS1_11char_traitsIcEENS1_9allocatorIcEEEEP7sqlite3,
                            __ZN5degas10ArrayTableC2ERKNSt3__112basic_stringIcNS1_11char_traitsIcEENS1_9allocatorIcEEEEP7sqlite3,
                            __ZN5degas10ArrayTableD1Ev,
                            __ZN5degas10ArrayTableD2Ev,
                            __ZN5degas10BitsetPool11allocBitsetERNS_9BitsetPtrEPPKh,
                            __ZN5degas10BitsetPool11allocBitsetERNS_9BitsetPtrERKNS_6BitsetE,
                            __ZN5degas10BitsetPool11allocBitsetERNS_9BitsetPtrEy,
                            __ZN5degas10BitsetPool15purgeEmptyPagesEv,
                            __ZN5degas10BitsetPool19getPageWithSlotFreeEv,
                            __ZN5degas10BitsetPoolC1Ev,
                            __ZN5degas10BitsetPoolC2Ev,
                            __ZN5degas10EdgeCursor10identifierEv,
                            __ZN5degas10EdgeCursor11setForLabelEyRKNS_9EdgeTableE,
                            __ZN5degas10EdgeCursor12sourceNodeIdEv,
                            __ZN5degas10EdgeCursor12targetNodeIdEv,
                            __ZN5degas10EdgeCursor13literalLabelsEv,
                            __ZN5degas10EdgeCursor15setForAllLabelsERKNS_6BitmapERKNS_9EdgeTableE,
                            __ZN5degas10EdgeCursor15setForAnyLabelsERKNS_6BitmapERKNS_9EdgeTableE,
                            __ZN5degas10EdgeCursor15setForSelectAllERKNS_9EdgeTableE,
                            __ZN5degas10EdgeCursor16setForIdentifierEyRKNS_9EdgeTableE,
                            __ZN5degas10EdgeCursor17setForIdentifiersERKNS_6BitmapERKNS_9EdgeTableE,
                            __ZN5degas10EdgeCursor29setForAllLabelsAndIdentifiersERKNS_6BitmapES3_RKNS_9EdgeTableE,
                            __ZN5degas10EdgeCursor29setForAnyLabelsAndIdentifiersERKNS_6BitmapES3_RKNS_9EdgeTableE,
                            __ZN5degas10EdgeCursor6labelsERNS_6BitmapE,
                            __ZN5degas10EdgeCursorC1Ev,
                            __ZN5degas10EdgeCursorC2Ev,
                            __ZN5degas10EdgeFilterC2EPNS_8DatabaseE,
                            __ZN5degas10EdgeFilterD0Ev,
                            __ZN5degas10EdgeFilterD1Ev,
                            __ZN5degas10EdgeFilterD2Ev,
                            __ZN5degas10LabelIndex10removeEdgeEyy,
                            __ZN5degas10LabelIndex10removeNodeEyy,
                            __ZN5degas10LabelIndex11removeEdgesERKNS_6BitmapES3_,
                            __ZN5degas10LabelIndex11removeNodesERKNS_6BitmapES3_,
                            __ZN5degas10LabelIndex7addEdgeEyy,
                            __ZN5degas10LabelIndex7addNodeEyy,
                            __ZN5degas10LabelIndexC2Ev,
                            __ZN5degas10LabelIndexD0Ev,
                            __ZN5degas10LabelIndexD1Ev,
                            __ZN5degas10LabelIndexD2Ev,
                            __ZN5degas10LabelTableC1EP7sqlite3RNS_14StatementCacheE,
                            __ZN5degas10LabelTableC2EP7sqlite3RNS_14StatementCacheE,
                            __ZN5degas10LabelTableD0Ev,
                            __ZN5degas10LabelTableD1Ev,
                            __ZN5degas10LabelTableD2Ev,
                            __ZN5degas10NodeCursor10identifierEv,
                            __ZN5degas10NodeCursor11setForLabelEyRKNS_9NodeTableE,
                            __ZN5degas10NodeCursor13literalLabelsEv,
                            __ZN5degas10NodeCursor13setForNoEdgesERKNS_9NodeTableE,
                            __ZN5degas10NodeCursor14literalEdgesInEv,
                            __ZN5degas10NodeCursor15literalEdgesOutEv,
                            __ZN5degas10NodeCursor15setForAllLabelsERKNS_6BitmapERKNS_9NodeTableE,
                            __ZN5degas10NodeCursor15setForAnyLabelsERKNS_6BitmapERKNS_9NodeTableE,
                            __ZN5degas10NodeCursor15setForNoInEdgesERKNS_9NodeTableE,
                            __ZN5degas10NodeCursor15setForSelectAllERKNS_9NodeTableE,
                            __ZN5degas10NodeCursor16setForIdentifierEyRKNS_9NodeTableE,
                            __ZN5degas10NodeCursor16setForNoOutEdgesERKNS_9NodeTableE,
                            __ZN5degas10NodeCursor17setForIdentifiersERKNS_6BitmapERKNS_9NodeTableE,
                            __ZN5degas10NodeCursor29setForAllLabelsAndIdentifiersERKNS_6BitmapES3_RKNS_9NodeTableE,
                            __ZN5degas10NodeCursor29setForAnyLabelsAndIdentifiersERKNS_6BitmapES3_RKNS_9NodeTableE,
                            __ZN5degas10NodeCursor6labelsERNS_6BitmapE,
                            __ZN5degas10NodeCursor7edgesInERNS_6BitmapE,
                            __ZN5degas10NodeCursor8edgesOutERNS_6BitmapE,
                            __ZN5degas10NodeCursorC1Ev,
                            __ZN5degas10NodeCursorC2Ev,
                            __ZN5degas10NodeFilterC2EPNS_8DatabaseE,
                            __ZN5degas10NodeFilterD0Ev,
                            __ZN5degas10NodeFilterD1Ev,
                            __ZN5degas10NodeFilterD2Ev, __ZN5degas10getLogFileEv,
                            __ZN5degas11BitmapTableC1ERKNSt3__112basic_stringIcNS1_11char_traitsIcEENS1_9allocatorIcEEEEP7sqlite3,
                            __ZN5degas11BitmapTableC2ERKNSt3__112basic_stringIcNS1_11char_traitsIcEENS1_9allocatorIcEEEEP7sqlite3,
                            __ZN5degas11BitmapTableD1Ev,
                            __ZN5degas11BitmapTableD2Ev,
                            __ZN5degas11DatabaseMap16registerDatabaseERKNSt3__112basic_stringIcNS1_11char_traitsIcEENS1_9allocatorIcEEEEPNS_8DatabaseE,
                            __ZN5degas11DatabaseMap18deregisterDatabaseERKNSt3__112basic_stringIcNS1_11char_traitsIcEENS1_9allocatorIcEEEEPNS_8DatabaseE,
                            __ZN5degas11DatabaseMapC1Ev,
                            __ZN5degas11DatabaseMapC2Ev,
                            __ZN5degas11LabelCursor14literalEdgeIdsEv,
                            __ZN5degas11LabelCursor14literalNodeIdsEv,
                            __ZN5degas11LabelCursor4nameERNSt3__112basic_stringIcNS1_11char_traitsIcEENS1_9allocatorIcEEEE,
                            __ZN5degas11LabelCursor7edgeIdsERNS_6BitmapE,
                            __ZN5degas11LabelCursor7labelIdEv,
                            __ZN5degas11LabelCursor7nodeIdsERNS_6BitmapE,
                            __ZN5degas11LabelCursorC1ERKNS_10LabelTableE,
                            __ZN5degas11LabelCursorC1ERKNS_6BitmapERKNS_10LabelTableE,
                            __ZN5degas11LabelCursorC1EyRKNS_10LabelTableE,
                            __ZN5degas11LabelCursorC1EyRKNS_10LabelTableENS_14BinaryOperatorE,
                            __ZN5degas11LabelCursorC2ERKNS_10LabelTableE,
                            __ZN5degas11LabelCursorC2ERKNS_6BitmapERKNS_10LabelTableE,
                            __ZN5degas11LabelCursorC2EyRKNS_10LabelTableE,
                            __ZN5degas11LabelCursorC2EyRKNS_10LabelTableENS_14BinaryOperatorE,
                            __ZN5degas11MemoryEntryC1ERNS_16MemoryAccountantE,
                            __ZN5degas11MemoryEntryC2ERNS_16MemoryAccountantE,
                            __ZN5degas11MemoryEntryD1Ev,
                            __ZN5degas11MemoryEntryD2Ev,
                            __ZN5degas11NoPredicate14filterElementsERKNS_6BitmapERS1_,
                            __ZN5degas11NoPredicate24decomposeLabelsPredicateERKNSt3__110shared_ptrINS_9PredicateEEE,
                            __ZN5degas11NoPredicate8elementsERNS_6BitmapE,
                            __ZN5degas11NoPredicateC1Ev,
                            __ZN5degas11NoPredicateC2Ev,
                            __ZN5degas12Distribution14enumeratePathsEU13block_pointerFvyyiE,
                            __ZN5degas12Distribution24setCountedPathCollectionERKNSt3__110shared_ptrINS_21CountedPathCollectionEEE,
                            __ZN5degas12Distribution26setUncountedPathCollectionERKNSt3__110shared_ptrINS_23UncountedPathCollectionEEE,
                            __ZN5degas12DistributionC1Ev,
                            __ZN5degas12DistributionC2Ev,
                            __ZN5degas12LocalLogFile4openEv,
                            __ZN5degas12LocalLogFile5closeEv,
                            __ZN5degas12LocalLogFile9writeTextERKNSt3__112basic_stringIcNS1_11char_traitsIcEENS1_9allocatorIcEEEE,
                            __ZN5degas12LocalLogFileC1ERKNSt3__112basic_stringIcNS1_11char_traitsIcEENS1_9allocatorIcEEEE,
                            __ZN5degas12LocalLogFileC2ERKNSt3__112basic_stringIcNS1_11char_traitsIcEENS1_9allocatorIcEEEE,
                            __ZN5degas12bitmapEqualsEP15sqlite3_contextiPP13sqlite3_value,
                            __ZN5degas13EdgeFilter_Or12addSubFilterERKNSt3__110shared_ptrINS_10EdgeFilterEEE,
                            __ZN5degas13EdgeFilter_Or12resolveEdgesERNS_6BitmapE,
                            __ZN5degas13EdgeFilter_OrC1EPNS_8DatabaseE,
                            __ZN5degas13EdgeFilter_OrC1EPNS_8DatabaseERKNSt3__16vectorINS3_10shared_ptrINS_10EdgeFilterEEENS3_9allocatorIS7_EEEE,
                            __ZN5degas13EdgeFilter_OrC2EPNS_8DatabaseE,
                            __ZN5degas13EdgeFilter_OrC2EPNS_8DatabaseERKNSt3__16vectorINS3_10shared_ptrINS_10EdgeFilterEEENS3_9allocatorIS7_EEEE,
                            __ZN5degas13EdgeFilter_OrD0Ev,
                            __ZN5degas13EdgeFilter_OrD1Ev,
                            __ZN5degas13EdgeFilter_OrD2Ev,
                            __ZN5degas13LiteralBitmap11emptyBitmapEv,
                            __ZN5degas13LiteralBitmap16sizeForPageCountEj,
                            __ZN5degas13LiteralBitmap17makeLiteralBitmapERKNS_6BitmapE,
                            __ZN5degas13LiteralBitmap24stampMetadataWithVersionEv,
                            __ZN5degas13LiteralBitmapC1Ej,
                            __ZN5degas13LiteralBitmapC2Ej,
                            __ZN5degas13MetadataTableC1EP7sqlite3RNS_14StatementCacheE,
                            __ZN5degas13MetadataTableC2EP7sqlite3RNS_14StatementCacheE,
                            __ZN5degas13MetadataTableD0Ev,
                            __ZN5degas13MetadataTableD1Ev,
                            __ZN5degas13MetadataTableD2Ev,
                            __ZN5degas13NeighborQuery10choosePlanEyyb,
                            __ZN5degas13NeighborQuery13queryPlanNameENS0_17NeighborQueryPlanE,
                            __ZN5degas13NeighborQuery17neighborsWithPlanENS0_17NeighborQueryPlanERKNS_6BitmapERKNSt3__110shared_ptrINS_9PredicateEEESA_S4_NS_13EdgeDirectionERS2_,
                            __ZN5degas13NeighborQuery19neighborsNodesFirstERKNS_6BitmapERKNSt3__110shared_ptrINS_9PredicateEEES9_S3_NS_13EdgeDirectionERS1_,
                            __ZN5degas13NeighborQuery22neighbors_instrumentedERKNS_6BitmapENS_13EdgeDirectionERS1_,
                            __ZN5degas13NeighborQuery23neighborsNodeTableEdgesERKNS_6BitmapERKNSt3__110shared_ptrINS_9PredicateEEES3_NS_13EdgeDirectionERS1_,
                            __ZN5degas13NeighborQuery23reportTimingPlanFailureERKNSt3__112basic_stringIcNS1_11char_traitsIcEENS1_9allocatorIcEEEEdNS0_17NeighborQueryPlanEdSA_yyyyyiid,
                            __ZN5degas13NeighborQuery24neighborsNodesEdgeFilterERKNS_6BitmapERKNSt3__110shared_ptrINS_9PredicateEEES9_S3_NS_13EdgeDirectionERS1_,
                            __ZN5degas13NeighborQuery24reportNodeFirstPlanTimesERKNSt3__112basic_stringIcNS1_11char_traitsIcEENS1_9allocatorIcEEEEyyyddd,
                            __ZN5degas13NeighborQuery25appendSourceNodesForEdgesERKNS_6BitmapERS1_,
                            __ZN5degas13NeighborQuery25appendTargetNodesForEdgesERKNS_6BitmapERS1_,
                            __ZN5degas13NeighborQuery25reportIncorrectPlanResultERKNSt3__112basic_stringIcNS1_11char_traitsIcEENS1_9allocatorIcEEEENS0_17NeighborQueryPlanEyyy,
                            __ZN5degas13NeighborQuery26transitiveClosureNeighborsERKNS_6BitmapENS_13EdgeDirectionERS1_,
                            __ZN5degas13NeighborQuery27enableInstrumentedTraversalEv,
                            __ZN5degas13NeighborQuery27neighborsEdgesFirstJoinBothERKNS_6BitmapERKNSt3__110shared_ptrINS_9PredicateEEES3_NS_13EdgeDirectionERS1_,
                            __ZN5degas13NeighborQuery27neighborsEdgesFirstJoinEdgeERKNS_6BitmapERKNSt3__110shared_ptrINS_9PredicateEEES3_NS_13EdgeDirectionERS1_,
                            __ZN5degas13NeighborQuery29neighborsEdgesFirstFilterEdgeERKNS_6BitmapERKNSt3__110shared_ptrINS_9PredicateEEES3_NS_13EdgeDirectionERS1_,
                            __ZN5degas13NeighborQuery29neighborsEdgesFirstFilterNodeERKNS_6BitmapERKNSt3__110shared_ptrINS_9PredicateEEES3_NS_13EdgeDirectionERS1_,
                            __ZN5degas13NeighborQuery34transitiveClosureNeighborsWithPlanENS0_17NeighborQueryPlanERKNS_6BitmapERKNSt3__110shared_ptrINS_9PredicateEEESA_S4_NS_13EdgeDirectionERS2_,
                            __ZN5degas13NeighborQuery39transitiveClosureNeighbors_instrumentedERKNS_6BitmapENS_13EdgeDirectionERS1_,
                            __ZN5degas13NeighborQuery9neighborsERKNS_6BitmapENS_13EdgeDirectionERS1_,
                            __ZN5degas13NeighborQueryC1ERKNSt3__110shared_ptrINS_9PredicateEEERNS_8DatabaseE,
                            __ZN5degas13NeighborQueryC2ERKNSt3__110shared_ptrINS_9PredicateEEERNS_8DatabaseE,
                            __ZN5degas13NodeFilter_Or12addSubFilterERKNSt3__110shared_ptrINS_10NodeFilterEEE,
                            __ZN5degas13NodeFilter_Or12resolveNodesERNS_6BitmapE,
                            __ZN5degas13NodeFilter_OrC1EPNS_8DatabaseE,
                            __ZN5degas13NodeFilter_OrC1EPNS_8DatabaseERKNSt3__16vectorINS3_10shared_ptrINS_10NodeFilterEEENS3_9allocatorIS7_EEEE,
                            __ZN5degas13NodeFilter_OrC2EPNS_8DatabaseE,
                            __ZN5degas13NodeFilter_OrC2EPNS_8DatabaseERKNSt3__16vectorINS3_10shared_ptrINS_10NodeFilterEEENS3_9allocatorIS7_EEEE,
                            __ZN5degas13NodeFilter_OrD0Ev,
                            __ZN5degas13NodeFilter_OrD1Ev,
                            __ZN5degas13NodeFilter_OrD2Ev,
                            __ZN5degas13getBitsetPoolEv,
                            __ZN5degas14AttributeQuery25elementsForAttributeValueEyRKNSt3__112basic_stringIcNS1_11char_traitsIcEENS1_9allocatorIcEEEENS_14BinaryOperatorERNS_6BitmapE,
                            __ZN5degas14AttributeQuery25elementsForAttributeValueEydNS_14BinaryOperatorERNS_6BitmapE,
                            __ZN5degas14AttributeQuery25elementsForAttributeValueEyxNS_14BinaryOperatorERNS_6BitmapE,
                            __ZN5degas14AttributeQuery26elementsForAttributeValuesEyPNSt3__112basic_stringIcNS1_11char_traitsIcEENS1_9allocatorIcEEEEiNS_14BinaryOperatorERNS_6BitmapE,
                            __ZN5degas14AttributeQuery26elementsForAttributeValuesEyPPKciNS_14BinaryOperatorERNS_6BitmapE,
                            __ZN5degas14AttributeQuery26elementsForAttributeValuesEyPdiNS_14BinaryOperatorERNS_6BitmapE,
                            __ZN5degas14AttributeQuery26elementsForAttributeValuesEyPxiNS_14BinaryOperatorERNS_6BitmapE,
                            __ZN5degas14AttributeQuery30elementsForAttributeValueRangeEyRKNSt3__112basic_stringIcNS1_11char_traitsIcEENS1_9allocatorIcEEEES9_NS_15TernaryOperatorERNS_6BitmapE,
                            __ZN5degas14AttributeQuery30elementsForAttributeValueRangeEyddNS_15TernaryOperatorERNS_6BitmapE,
                            __ZN5degas14AttributeQuery30elementsForAttributeValueRangeEyxxNS_15TernaryOperatorERNS_6BitmapE,
                            __ZN5degas14AttributeQuery31filterElementsForAttributeValueEyRKNSt3__112basic_stringIcNS1_11char_traitsIcEENS1_9allocatorIcEEEENS_14BinaryOperatorERKNS_6BitmapERSB_,
                            __ZN5degas14AttributeQuery31filterElementsForAttributeValueEydNS_14BinaryOperatorERKNS_6BitmapERS2_,
                            __ZN5degas14AttributeQuery31filterElementsForAttributeValueEyxNS_14BinaryOperatorERKNS_6BitmapERS2_,
                            __ZN5degas14AttributeQuery32filterElementsForAttributeValuesEyPNSt3__112basic_stringIcNS1_11char_traitsIcEENS1_9allocatorIcEEEEiNS_14BinaryOperatorERKNS_6BitmapERSA_,
                            __ZN5degas14AttributeQuery32filterElementsForAttributeValuesEyPPKciNS_14BinaryOperatorERKNS_6BitmapERS5_,
                            __ZN5degas14AttributeQuery32filterElementsForAttributeValuesEyPdiNS_14BinaryOperatorERKNS_6BitmapERS3_,
                            __ZN5degas14AttributeQuery32filterElementsForAttributeValuesEyPxiNS_14BinaryOperatorERKNS_6BitmapERS3_,
                            __ZN5degas14AttributeQuery36filterElementsForAttributeValueRangeEyRKNSt3__112basic_stringIcNS1_11char_traitsIcEENS1_9allocatorIcEEEES9_NS_15TernaryOperatorERKNS_6BitmapERSB_,
                            __ZN5degas14AttributeQuery36filterElementsForAttributeValueRangeEyddNS_15TernaryOperatorERKNS_6BitmapERS2_,
                            __ZN5degas14AttributeQuery36filterElementsForAttributeValueRangeEyxxNS_15TernaryOperatorERKNS_6BitmapERS2_,
                            __ZN5degas14AttributeQueryC1ERKNS_19AggregateValueTableEy,
                            __ZN5degas14AttributeQueryC2ERKNS_19AggregateValueTableEy,
                            __ZN5degas14AttributeTableC1EP7sqlite3RNS_14StatementCacheE,
                            __ZN5degas14AttributeTableC2EP7sqlite3RNS_14StatementCacheE,
                            __ZN5degas14AttributeTableD0Ev,
                            __ZN5degas14AttributeTableD1Ev,
                            __ZN5degas14AttributeTableD2Ev,
                            __ZN5degas14BitsetPoolPage11allocBitsetERNS_9BitsetPtrEPPKh,
                            __ZN5degas14BitsetPoolPage11allocBitsetERNS_9BitsetPtrERKNS_6BitsetE,
                            __ZN5degas14BitsetPoolPage11allocBitsetERNS_9BitsetPtrEy,
                            __ZN5degas14BitsetPoolPage13releaseBitsetEPNS_6BitsetE,
                            __ZN5degas14BitsetPoolPage15allocBitsetSlotEv,
                            __ZN5degas14BitsetPoolPage15provideFreeSlotEv,
                            __ZN5degas14BitsetPoolPageC1EP16os_unfair_lock_s,
                            __ZN5degas14BitsetPoolPageC2EP16os_unfair_lock_s,
                            __ZN5degas14BitsetPoolPageD1Ev,
                            __ZN5degas14BitsetPoolPageD2Ev,
                            __ZN5degas14ClientLogTableC1EP7sqlite3RNS_14StatementCacheE,
                            __ZN5degas14ClientLogTableC2EP7sqlite3RNS_14StatementCacheE,
                            __ZN5degas14ClientLogTableD0Ev,
                            __ZN5degas14ClientLogTableD1Ev,
                            __ZN5degas14ClientLogTableD2Ev,
                            __ZN5degas14EdgeFilter_And12addSubFilterERKNSt3__110shared_ptrINS_10EdgeFilterEEE,
                            __ZN5degas14EdgeFilter_And12resolveEdgesERNS_6BitmapE,
                            __ZN5degas14EdgeFilter_AndC1EPNS_8DatabaseE,
                            __ZN5degas14EdgeFilter_AndC1EPNS_8DatabaseERKNSt3__16vectorINS3_10shared_ptrINS_10EdgeFilterEEENS3_9allocatorIS7_EEEE,
                            __ZN5degas14EdgeFilter_AndC2EPNS_8DatabaseE,
                            __ZN5degas14EdgeFilter_AndC2EPNS_8DatabaseERKNSt3__16vectorINS3_10shared_ptrINS_10EdgeFilterEEENS3_9allocatorIS7_EEEE,
                            __ZN5degas14EdgeFilter_AndD0Ev,
                            __ZN5degas14EdgeFilter_AndD1Ev,
                            __ZN5degas14EdgeFilter_AndD2Ev,
                            __ZN5degas14EdgeLabelQuery13edgesForLabelEyRNS_6BitmapE,
                            __ZN5degas14EdgeLabelQuery17edgesForAllLabelsERKNS_6BitmapERS1_,
                            __ZN5degas14EdgeLabelQuery17edgesForAnyLabelsERKNS_6BitmapERS1_,
                            __ZN5degas14EdgeLabelQuery23filterEdgesForAllLabelsERKNS_6BitmapES3_RS1_,
                            __ZN5degas14EdgeLabelQuery23filterEdgesForAnyLabelsERKNS_6BitmapES3_RS1_,
                            __ZN5degas14EdgeLabelQuery8allEdgesERNS_6BitmapE,
                            __ZN5degas14EdgeLabelQueryC1ERKNS_9EdgeTableERKNS_8DatabaseE,
                            __ZN5degas14EdgeLabelQueryC2ERKNS_9EdgeTableERKNS_8DatabaseE,
                            __ZN5degas14MetadataCursor11metadataKeyEv,
                            __ZN5degas14MetadataCursor11stringValueERNSt3__112basic_stringIcNS1_11char_traitsIcEENS1_9allocatorIcEEEE,
                            __ZN5degas14MetadataCursor12integerValueEv,
                            __ZN5degas14MetadataCursor9realValueEv,
                            __ZN5degas14MetadataCursorC1EyRKNS_13MetadataTableE,
                            __ZN5degas14MetadataCursorC2EyRKNS_13MetadataTableE,
                            __ZN5degas14NodeFilter_And12addSubFilterERKNSt3__110shared_ptrINS_10NodeFilterEEE,
                            __ZN5degas14NodeFilter_And12resolveNodesERNS_6BitmapE,
                            __ZN5degas14NodeFilter_AndC1EPNS_8DatabaseE,
                            __ZN5degas14NodeFilter_AndC1EPNS_8DatabaseERKNSt3__16vectorINS3_10shared_ptrINS_10NodeFilterEEENS3_9allocatorIS7_EEEE,
                            __ZN5degas14NodeFilter_AndC2EPNS_8DatabaseE,
                            __ZN5degas14NodeFilter_AndC2EPNS_8DatabaseERKNSt3__16vectorINS3_10shared_ptrINS_10NodeFilterEEENS3_9allocatorIS7_EEEE,
                            __ZN5degas14NodeFilter_AndD0Ev,
                            __ZN5degas14NodeFilter_AndD1Ev,
                            __ZN5degas14NodeFilter_AndD2Ev,
                            __ZN5degas14NodeLabelQuery13nodesForLabelEyRNS_6BitmapE,
                            __ZN5degas14NodeLabelQuery17nodesForAllLabelsERKNS_6BitmapERS1_,
                            __ZN5degas14NodeLabelQuery17nodesForAnyLabelsERKNS_6BitmapERS1_,
                            __ZN5degas14NodeLabelQuery23filterNodesForAllLabelsERKNS_6BitmapES3_RS1_,
                            __ZN5degas14NodeLabelQuery23filterNodesForAnyLabelsERKNS_6BitmapES3_RS1_,
                            __ZN5degas14NodeLabelQuery8allNodesERNS_6BitmapE,
                            __ZN5degas14NodeLabelQueryC1ERKNS_9NodeTableERKNS_8DatabaseE,
                            __ZN5degas14NodeLabelQueryC2ERKNS_9NodeTableERKNS_8DatabaseE,
                            __ZN5degas14StatementCache12addStatementEjRKNSt3__110shared_ptrINS_9StatementEEE,
                            __ZN5degas14StatementCache12getStatementEjU13block_pointerFNSt3__110shared_ptrINS_9StatementEEEvE,
                            __ZN5degas14StatementCache18purgeAllStatementsEv,
                            __ZN5degas14StatementCacheC1Ev,
                            __ZN5degas14StatementCacheC2Ev,
                            __ZN5degas14UnionPredicate11isTrivialNoEv,
                            __ZN5degas14UnionPredicate12isTrivialYesEv,
                            __ZN5degas14UnionPredicate14filterElementsERKNS_6BitmapERS1_,
                            __ZN5degas14UnionPredicate16debugDescriptionERKNS_8DatabaseE,
                            __ZN5degas14UnionPredicate24decomposeLabelsPredicateERKNSt3__110shared_ptrINS_9PredicateEEE,
                            __ZN5degas14UnionPredicate8elementsERNS_6BitmapE,
                            __ZN5degas14UnionPredicateC1ERKNSt3__16vectorINS1_10shared_ptrINS_9PredicateEEENS1_9allocatorIS5_EEEE,
                            __ZN5degas14UnionPredicateC2ERKNSt3__16vectorINS1_10shared_ptrINS_9PredicateEEENS1_9allocatorIS5_EEEE,
                            __ZN5degas14bitmapContainsEP15sqlite3_contextiPP13sqlite3_value,
                            __ZN5degas14bitmapOverlapsEP15sqlite3_contextiPP13sqlite3_value,
                            __ZN5degas15AttributeCursor4nameERNSt3__112basic_stringIcNS1_11char_traitsIcEENS1_9allocatorIcEEEE,
                            __ZN5degas15AttributeCursor6attrIdEv,
                            __ZN5degas15AttributeCursorC1ERKNS_14AttributeTableE,
                            __ZN5degas15AttributeCursorC1ERKNSt3__112basic_stringIcNS1_11char_traitsIcEENS1_9allocatorIcEEEERKNS_14AttributeTableE,
                            __ZN5degas15AttributeCursorC1EyRKNS_14AttributeTableE,
                            __ZN5degas15AttributeCursorC1EyRKNS_14AttributeTableENS_14BinaryOperatorE,
                            __ZN5degas15AttributeCursorC2ERKNS_14AttributeTableE,
                            __ZN5degas15AttributeCursorC2ERKNSt3__112basic_stringIcNS1_11char_traitsIcEENS1_9allocatorIcEEEERKNS_14AttributeTableE,
                            __ZN5degas15AttributeCursorC2EyRKNS_14AttributeTableE,
                            __ZN5degas15AttributeCursorC2EyRKNS_14AttributeTableENS_14BinaryOperatorE,
                            __ZN5degas15ClientLogCursor13transactionIdEv,
                            __ZN5degas15ClientLogCursor8clientIdEv,
                            __ZN5degas15ClientLogCursorC1ERKNS_14ClientLogTableE,
                            __ZN5degas15ClientLogCursorC1EyRKNS_14ClientLogTableE,
                            __ZN5degas15ClientLogCursorC2ERKNS_14ClientLogTableE,
                            __ZN5degas15ClientLogCursorC2EyRKNS_14ClientLogTableE,
                            __ZN5degas15TombstoneCopier8copyEdgeEy,
                            __ZN5degas15TombstoneCopier8copyNodeEy,
                            __ZN5degas15TombstoneCopier9copyEdgesERKNS_6BitmapE,
                            __ZN5degas15TombstoneCopier9copyNodesERKNS_6BitmapE,
                            __ZN5degas15TombstoneCopierC1EP7sqlite3RNS_14StatementCacheE,
                            __ZN5degas15TombstoneCopierC2EP7sqlite3RNS_14StatementCacheE,
                            __ZN5degas15chooseFilteringERKNS_6BitmapEy,
                            __ZN5degas16MemoryAccountant11recordDiffsEyy,
                            __ZN5degas16MemoryAccountant9logTotalsEv,
                            __ZN5degas16MemoryAccountantC1Ev,
                            __ZN5degas16MemoryAccountantC2Ev,
                            __ZN5degas16YesEdgePredicate14filterElementsERKNS_6BitmapERS1_,
                            __ZN5degas16YesEdgePredicate24decomposeLabelsPredicateERKNSt3__110shared_ptrINS_9PredicateEEE,
                            __ZN5degas16YesEdgePredicate8elementsERNS_6BitmapE,
                            __ZN5degas16YesEdgePredicateC1ERNS_8DatabaseE,
                            __ZN5degas16YesEdgePredicateC2ERNS_8DatabaseE,
                            __ZN5degas16YesNodePredicate14filterElementsERKNS_6BitmapERS1_,
                            __ZN5degas16YesNodePredicate24decomposeLabelsPredicateERKNSt3__110shared_ptrINS_9PredicateEEE,
                            __ZN5degas16YesNodePredicate8elementsERNS_6BitmapE,
                            __ZN5degas16YesNodePredicateC1ERNS_8DatabaseE,
                            __ZN5degas16YesNodePredicateC2ERNS_8DatabaseE,
                            __ZN5degas16nullStatementPtrEv,
                            __ZN5degas17EdgeFilter_Labels12resolveEdgesERNS_6BitmapE,
                            __ZN5degas17EdgeFilter_Labels8addLabelEy,
                            __ZN5degas17EdgeFilter_LabelsC1EPNS_8DatabaseERKNS_6BitmapE,
                            __ZN5degas17EdgeFilter_LabelsC1EPNS_8DatabaseEy,
                            __ZN5degas17EdgeFilter_LabelsC2EPNS_8DatabaseERKNS_6BitmapE,
                            __ZN5degas17EdgeFilter_LabelsC2EPNS_8DatabaseEy,
                            __ZN5degas17EdgeFilter_LabelsD0Ev,
                            __ZN5degas17EdgeFilter_LabelsD1Ev,
                            __ZN5degas17EdgeFilter_LabelsD2Ev,
                            __ZN5degas17IOAccountingEntrymIERKS0_,
                            __ZN5degas17IOAccountingEntrypLERKS0_,
                            __ZN5degas17LabelledEdgeTableC1EP7sqlite3RNS_14StatementCacheE,
                            __ZN5degas17LabelledEdgeTableC2EP7sqlite3RNS_14StatementCacheE,
                            __ZN5degas17LabelledEdgeTableD0Ev,
                            __ZN5degas17LabelledEdgeTableD1Ev,
                            __ZN5degas17LabelledEdgeTableD2Ev,
                            __ZN5degas17NodeFilter_Labels12resolveNodesERNS_6BitmapE,
                            __ZN5degas17NodeFilter_Labels8addLabelEy,
                            __ZN5degas17NodeFilter_LabelsC1EPNS_8DatabaseERKNS_6BitmapE,
                            __ZN5degas17NodeFilter_LabelsC1EPNS_8DatabaseEy,
                            __ZN5degas17NodeFilter_LabelsC2EPNS_8DatabaseERKNS_6BitmapE,
                            __ZN5degas17NodeFilter_LabelsC2EPNS_8DatabaseEy,
                            __ZN5degas17NodeFilter_LabelsD0Ev,
                            __ZN5degas17NodeFilter_LabelsD1Ev,
                            __ZN5degas17NodeFilter_LabelsD2Ev,
                            __ZN5degas17StepSpecification19setTargetNodeFilterERKNSt3__110shared_ptrINS_10NodeFilterEEE,
                            __ZN5degas17StepSpecificationC1ENS_13EdgeDirectionERKNSt3__110shared_ptrINS_10EdgeFilterEEE,
                            __ZN5degas17StepSpecificationC1ERKS0_,
                            __ZN5degas17StepSpecificationC2ENS_13EdgeDirectionERKNSt3__110shared_ptrINS_10EdgeFilterEEE,
                            __ZN5degas17StepSpecificationC2ERKS0_,
                            __ZN5degas17StepSpecificationaSERKS0_,
                            __ZN5degas17StepSpecificationeqERKS0_,
                            __ZN5degas18IntersectPredicate11isTrivialNoEv,
                            __ZN5degas18IntersectPredicate12isTrivialYesEv,
                            __ZN5degas18IntersectPredicate14filterElementsERKNS_6BitmapERS1_,
                            __ZN5degas18IntersectPredicate16debugDescriptionERKNS_8DatabaseE,
                            __ZN5degas18IntersectPredicate24decomposeLabelsPredicateERKNSt3__110shared_ptrINS_9PredicateEEE,
                            __ZN5degas18IntersectPredicate8elementsERNS_6BitmapE,
                            __ZN5degas18IntersectPredicateC1ERKNSt3__16vectorINS1_10shared_ptrINS_9PredicateEEENS1_9allocatorIS5_EEEE,
                            __ZN5degas18IntersectPredicateC2ERKNSt3__16vectorINS1_10shared_ptrINS_9PredicateEEENS1_9allocatorIS5_EEEE,
                            __ZN5degas18LabelledEdgeCursor11identifiersERNS_6BitmapE,
                            __ZN5degas18LabelledEdgeCursor11identifiersEv,
                            __ZN5degas18LabelledEdgeCursor25setForEdgesFromSourceNodeEyRKNS_17LabelledEdgeTableE,
                            __ZN5degas18LabelledEdgeCursor25setForEdgesFromTargetNodeEyRKNS_17LabelledEdgeTableE,
                            __ZN5degas18LabelledEdgeCursor26setForEdgesFromSourceNodesERKNS_6BitmapERKNS_17LabelledEdgeTableE,
                            __ZN5degas18LabelledEdgeCursor26setForEdgesFromTargetNodesERKNS_6BitmapERKNS_17LabelledEdgeTableE,
                            __ZN5degas18LabelledEdgeCursor26setForSourceNodesFromEdgesERKNS_6BitmapERKNS_17LabelledEdgeTableE,
                            __ZN5degas18LabelledEdgeCursor26setForTargetNodesFromEdgesERKNS_6BitmapERKNS_17LabelledEdgeTableE,
                            __ZN5degas18LabelledEdgeCursor32setForEdgesFromLabelsSourceNodesERKNS_6BitmapES3_RKNS_17LabelledEdgeTableE,
                            __ZN5degas18LabelledEdgeCursor32setForEdgesFromLabelsTargetNodesERKNS_6BitmapES3_RKNS_17LabelledEdgeTableE,
                            __ZN5degas18LabelledEdgeCursor32setForSourceNodesFromTargetNodesERKNS_6BitmapERKNS_17LabelledEdgeTableE,
                            __ZN5degas18LabelledEdgeCursor32setForTargetNodesFromSourceNodesERKNS_6BitmapERKNS_17LabelledEdgeTableE,
                            __ZN5degas18LabelledEdgeCursor36setForEdgesFromSourceNodesEdgeFilterERKNS_6BitmapES3_RKNS_17LabelledEdgeTableE,
                            __ZN5degas18LabelledEdgeCursor36setForEdgesFromTargetNodesEdgeFilterERKNS_6BitmapES3_RKNS_17LabelledEdgeTableE,
                            __ZN5degas18LabelledEdgeCursor38setForSourceNodesFromLabelsTargetNodesERKNS_6BitmapES3_RKNS_17LabelledEdgeTableE,
                            __ZN5degas18LabelledEdgeCursor38setForTargetNodesFromLabelsSourceNodesERKNS_6BitmapES3_RKNS_17LabelledEdgeTableE,
                            __ZN5degas18LabelledEdgeCursor45setForSourceNodesFromEdgesTargetNodesJoinBothERKNS_6BitmapES3_RKNS_17LabelledEdgeTableE,
                            __ZN5degas18LabelledEdgeCursor45setForSourceNodesFromEdgesTargetNodesJoinEdgeERKNS_6BitmapES3_RKNS_17LabelledEdgeTableE,
                            __ZN5degas18LabelledEdgeCursor45setForSourceNodesFromEdgesTargetNodesJoinNodeERKNS_6BitmapES3_RKNS_17LabelledEdgeTableE,
                            __ZN5degas18LabelledEdgeCursor45setForTargetNodesFromEdgesSourceNodesJoinBothERKNS_6BitmapES3_RKNS_17LabelledEdgeTableE,
                            __ZN5degas18LabelledEdgeCursor45setForTargetNodesFromEdgesSourceNodesJoinEdgeERKNS_6BitmapES3_RKNS_17LabelledEdgeTableE,
                            __ZN5degas18LabelledEdgeCursor45setForTargetNodesFromEdgesSourceNodesJoinNodeERKNS_6BitmapES3_RKNS_17LabelledEdgeTableE,
                            __ZN5degas18LabelledEdgeCursor47setForSourceNodesFromEdgesTargetNodesFilterEdgeERKNS_6BitmapES3_RKNS_17LabelledEdgeTableE,
                            __ZN5degas18LabelledEdgeCursor47setForSourceNodesFromEdgesTargetNodesFilterNodeERKNS_6BitmapES3_RKNS_17LabelledEdgeTableE,
                            __ZN5degas18LabelledEdgeCursor47setForTargetNodesFromEdgesSourceNodesFilterEdgeERKNS_6BitmapES3_RKNS_17LabelledEdgeTableE,
                            __ZN5degas18LabelledEdgeCursor47setForTargetNodesFromEdgesSourceNodesFilterNodeERKNS_6BitmapES3_RKNS_17LabelledEdgeTableE,
                            __ZN5degas18LabelledEdgeCursorC1Ev,
                            __ZN5degas18LabelledEdgeCursorC2Ev,
                            __ZN5degas19AggregateValueTableC1EP7sqlite3RKNSt3__112basic_stringIcNS3_11char_traitsIcEENS3_9allocatorIcEEEENS_15TableIdentifierERNS_14StatementCacheE,
                            __ZN5degas19AggregateValueTableC2EP7sqlite3RKNSt3__112basic_stringIcNS3_11char_traitsIcEENS3_9allocatorIcEEEENS_15TableIdentifierERNS_14StatementCacheE,
                            __ZN5degas19AggregateValueTableD0Ev,
                            __ZN5degas19AggregateValueTableD1Ev,
                            __ZN5degas19AggregateValueTableD2Ev,
                            __ZN5degas19AttributeValueTable12operatorTextENS_14BinaryOperatorE,
                            __ZN5degas19AttributeValueTable16listOperatorTextENS_14BinaryOperatorE,
                            __ZN5degas19AttributeValueTable17rangeOperatorTextEPKcNS_15TernaryOperatorE,
                            __ZN5degas19AttributeValueTableC1EP7sqlite3RKNSt3__112basic_stringIcNS3_11char_traitsIcEENS3_9allocatorIcEEEENS_15TableIdentifierERNS_14StatementCacheE,
                            __ZN5degas19AttributeValueTableC2EP7sqlite3RKNSt3__112basic_stringIcNS3_11char_traitsIcEENS3_9allocatorIcEEEENS_15TableIdentifierERNS_14StatementCacheE,
                            __ZN5degas19AttributeValueTableD0Ev,
                            __ZN5degas19AttributeValueTableD1Ev,
                            __ZN5degas19AttributeValueTableD2Ev,
                            __ZN5degas19LabelIndexDirectory20indexForDatabasePathERKNSt3__112basic_stringIcNS1_11char_traitsIcEENS1_9allocatorIcEEEE,
                            __ZN5degas19LabelIndexDirectory25resetIndexForDatabasePathERKNSt3__112basic_stringIcNS1_11char_traitsIcEENS1_9allocatorIcEEEE,
                            __ZN5degas19LabelIndexDirectoryC1Ev,
                            __ZN5degas19LabelIndexDirectoryC2Ev,
                            __ZN5degas19LabelIndex_Snapshot16beginTransactionEv,
                            __ZN5degas19LabelIndex_Snapshot17commitTransactionEv,
                            __ZN5degas19LabelIndex_Snapshot18allEdgeIdentifiersERNS_6BitmapE,
                            __ZN5degas19LabelIndex_Snapshot18allNodeIdentifiersERNS_6BitmapE,
                            __ZN5degas19LabelIndex_Snapshot19rollbackTransactionEv,
                            __ZN5degas19LabelIndex_Snapshot33edgeIdentifiersForLabelIdentifierEyRNS_6BitmapE,
                            __ZN5degas19LabelIndex_Snapshot33nodeIdentifiersForLabelIdentifierEyRNS_6BitmapE,
                            __ZN5degas19LabelIndex_SnapshotC1ERKNSt3__112basic_stringIcNS1_11char_traitsIcEENS1_9allocatorIcEEEERNS_10LabelTableE,
                            __ZN5degas19LabelIndex_SnapshotC2ERKNSt3__112basic_stringIcNS1_11char_traitsIcEENS1_9allocatorIcEEEERNS_10LabelTableE,
                            __ZN5degas19LabelIndex_SnapshotD0Ev,
                            __ZN5degas19LabelIndex_SnapshotD1Ev,
                            __ZN5degas19LabelIndex_SnapshotD2Ev,
                            __ZN5degas19StatementCacheEntryC1ERKS0_,
                            __ZN5degas19StatementCacheEntryC1EjRKNSt3__110shared_ptrINS_9StatementEEE,
                            __ZN5degas19StatementCacheEntryC2ERKS0_,
                            __ZN5degas19StatementCacheEntryC2EjRKNSt3__110shared_ptrINS_9StatementEEE,
                            __ZN5degas19StatementCacheEntryaSERKS0_,
                            __ZN5degas19StatementCacheEntryeqERKS0_,
                            __ZN5degas19TransactionLogTableC1EP7sqlite3RNS_14StatementCacheE,
                            __ZN5degas19TransactionLogTableC2EP7sqlite3RNS_14StatementCacheE,
                            __ZN5degas19TransactionLogTableD0Ev,
                            __ZN5degas19TransactionLogTableD1Ev,
                            __ZN5degas19TransactionLogTableD2Ev,
                            __ZN5degas20AggregateValueCursor11identifiersERNS_6BitmapE,
                            __ZN5degas20AggregateValueCursor11identifiersEv,
                            __ZN5degas20AggregateValueCursor11setForRangeEyRKNSt3__112basic_stringIcNS1_11char_traitsIcEENS1_9allocatorIcEEEES9_NS_15TernaryOperatorERKNS_19AggregateValueTableE,
                            __ZN5degas20AggregateValueCursor11setForRangeEyddNS_15TernaryOperatorERKNS_19AggregateValueTableE,
                            __ZN5degas20AggregateValueCursor11setForRangeEyxxNS_15TernaryOperatorERKNS_19AggregateValueTableE,
                            __ZN5degas20AggregateValueCursor11setForValueEyRKNSt3__112basic_stringIcNS1_11char_traitsIcEENS1_9allocatorIcEEEENS_14BinaryOperatorERKNS_19AggregateValueTableE,
                            __ZN5degas20AggregateValueCursor11setForValueEydNS_14BinaryOperatorERKNS_19AggregateValueTableE,
                            __ZN5degas20AggregateValueCursor11setForValueEyxNS_14BinaryOperatorERKNS_19AggregateValueTableE,
                            __ZN5degas20AggregateValueCursor12setForValuesEyPPKciNS_14BinaryOperatorERKNS_19AggregateValueTableE,
                            __ZN5degas20AggregateValueCursor12setForValuesEyPdiNS_14BinaryOperatorERKNS_19AggregateValueTableE,
                            __ZN5degas20AggregateValueCursor12setForValuesEyPxiNS_14BinaryOperatorERKNS_19AggregateValueTableE,
                            __ZN5degas20AggregateValueCursor19setToFilterForRangeEyRKNSt3__112basic_stringIcNS1_11char_traitsIcEENS1_9allocatorIcEEEES9_NS_15TernaryOperatorERKNS_6BitmapERKNS_19AggregateValueTableE,
                            __ZN5degas20AggregateValueCursor19setToFilterForRangeEyddNS_15TernaryOperatorERKNS_6BitmapERKNS_19AggregateValueTableE,
                            __ZN5degas20AggregateValueCursor19setToFilterForRangeEyxxNS_15TernaryOperatorERKNS_6BitmapERKNS_19AggregateValueTableE,
                            __ZN5degas20AggregateValueCursor19setToFilterForValueEyRKNSt3__112basic_stringIcNS1_11char_traitsIcEENS1_9allocatorIcEEEENS_14BinaryOperatorERKNS_6BitmapERKNS_19AggregateValueTableE,
                            __ZN5degas20AggregateValueCursor19setToFilterForValueEydNS_14BinaryOperatorERKNS_6BitmapERKNS_19AggregateValueTableE,
                            __ZN5degas20AggregateValueCursor19setToFilterForValueEyxNS_14BinaryOperatorERKNS_6BitmapERKNS_19AggregateValueTableE,
                            __ZN5degas20AggregateValueCursor20setToFilterForValuesEyPPKciNS_14BinaryOperatorERKNS_6BitmapERKNS_19AggregateValueTableE,
                            __ZN5degas20AggregateValueCursor20setToFilterForValuesEyPdiNS_14BinaryOperatorERKNS_6BitmapERKNS_19AggregateValueTableE,
                            __ZN5degas20AggregateValueCursor20setToFilterForValuesEyPxiNS_14BinaryOperatorERKNS_6BitmapERKNS_19AggregateValueTableE,
                            __ZN5degas20AggregateValueCursorC1ERKNS_19AggregateValueTableE,
                            __ZN5degas20AggregateValueCursorC1ERKNS_6BitmapERKNS_19AggregateValueTableE,
                            __ZN5degas20AggregateValueCursorC1Ev,
                            __ZN5degas20AggregateValueCursorC1EyRKNS_19AggregateValueTableE,
                            __ZN5degas20AggregateValueCursorC1EyyRKNS_19AggregateValueTableE,
                            __ZN5degas20AggregateValueCursorC2ERKNS_19AggregateValueTableE,
                            __ZN5degas20AggregateValueCursorC2ERKNS_6BitmapERKNS_19AggregateValueTableE,
                            __ZN5degas20AggregateValueCursorC2Ev,
                            __ZN5degas20AggregateValueCursorC2EyRKNS_19AggregateValueTableE,
                            __ZN5degas20AggregateValueCursorC2EyyRKNS_19AggregateValueTableE,
                            __ZN5degas20AttributeValueCursor11attributeIdEv,
                            __ZN5degas20AttributeValueCursor11setForRangeEyRKNSt3__112basic_stringIcNS1_11char_traitsIcEENS1_9allocatorIcEEEES9_NS_15TernaryOperatorERKNS_19AttributeValueTableE,
                            __ZN5degas20AttributeValueCursor11setForRangeEyddNS_15TernaryOperatorERKNS_19AttributeValueTableE,
                            __ZN5degas20AttributeValueCursor11setForRangeEyxxNS_15TernaryOperatorERKNS_19AttributeValueTableE,
                            __ZN5degas20AttributeValueCursor11setForValueEyRKNSt3__112basic_stringIcNS1_11char_traitsIcEENS1_9allocatorIcEEEENS_14BinaryOperatorERKNS_19AttributeValueTableE,
                            __ZN5degas20AttributeValueCursor11setForValueEydNS_14BinaryOperatorERKNS_19AttributeValueTableE,
                            __ZN5degas20AttributeValueCursor11setForValueEyxNS_14BinaryOperatorERKNS_19AttributeValueTableE,
                            __ZN5degas20AttributeValueCursor11stringValueERNSt3__112basic_stringIcNS1_11char_traitsIcEENS1_9allocatorIcEEEE,
                            __ZN5degas20AttributeValueCursor12integerValueEv,
                            __ZN5degas20AttributeValueCursor12setForValuesEyPPKciNS_14BinaryOperatorERKNS_19AttributeValueTableE,
                            __ZN5degas20AttributeValueCursor12setForValuesEyPdiNS_14BinaryOperatorERKNS_19AttributeValueTableE,
                            __ZN5degas20AttributeValueCursor12setForValuesEyPxiNS_14BinaryOperatorERKNS_19AttributeValueTableE,
                            __ZN5degas20AttributeValueCursor19setToFilterForValueEyRKNSt3__112basic_stringIcNS1_11char_traitsIcEENS1_9allocatorIcEEEENS_14BinaryOperatorERKNS_6BitmapERKNS_19AttributeValueTableE,
                            __ZN5degas20AttributeValueCursor19setToFilterForValueEydNS_14BinaryOperatorERKNS_6BitmapERKNS_19AttributeValueTableE,
                            __ZN5degas20AttributeValueCursor19setToFilterForValueEyxNS_14BinaryOperatorERKNS_6BitmapERKNS_19AttributeValueTableE,
                            __ZN5degas20AttributeValueCursor9elementIdEv,
                            __ZN5degas20AttributeValueCursor9realValueEv,
                            __ZN5degas20AttributeValueCursor9valueTypeEv,
                            __ZN5degas20AttributeValueCursorC1ERKNS_19AttributeValueTableE,
                            __ZN5degas20AttributeValueCursorC1ERKNS_6BitmapERKNS_19AttributeValueTableE,
                            __ZN5degas20AttributeValueCursorC1ERKNS_6BitmapEyRKNS_19AttributeValueTableE,
                            __ZN5degas20AttributeValueCursorC1Ev,
                            __ZN5degas20AttributeValueCursorC1EyRKNS_19AttributeValueTableE,
                            __ZN5degas20AttributeValueCursorC1EyyRKNS_19AttributeValueTableE,
                            __ZN5degas20AttributeValueCursorC2ERKNS_19AttributeValueTableE,
                            __ZN5degas20AttributeValueCursorC2ERKNS_6BitmapERKNS_19AttributeValueTableE,
                            __ZN5degas20AttributeValueCursorC2ERKNS_6BitmapEyRKNS_19AttributeValueTableE,
                            __ZN5degas20AttributeValueCursorC2Ev,
                            __ZN5degas20AttributeValueCursorC2EyRKNS_19AttributeValueTableE,
                            __ZN5degas20AttributeValueCursorC2EyyRKNS_19AttributeValueTableE,
                            __ZN5degas20EdgeFilter_Attribute12resolveEdgesERNS_6BitmapE,
                            __ZN5degas20EdgeFilter_AttributeC1EPNS_8DatabaseEyRKNSt3__112basic_stringIcNS3_11char_traitsIcEENS3_9allocatorIcEEEE,
                            __ZN5degas20EdgeFilter_AttributeC1EPNS_8DatabaseEyd,
                            __ZN5degas20EdgeFilter_AttributeC1EPNS_8DatabaseEyx,
                            __ZN5degas20EdgeFilter_AttributeC2EPNS_8DatabaseEyRKNSt3__112basic_stringIcNS3_11char_traitsIcEENS3_9allocatorIcEEEE,
                            __ZN5degas20EdgeFilter_AttributeC2EPNS_8DatabaseEyd,
                            __ZN5degas20EdgeFilter_AttributeC2EPNS_8DatabaseEyx,
                            __ZN5degas20EdgeFilter_AttributeD0Ev,
                            __ZN5degas20EdgeFilter_AttributeD1Ev,
                            __ZN5degas20EdgeFilter_AttributeD2Ev,
                            __ZN5degas20LabelIndex_Immediate10removeEdgeEyy,
                            __ZN5degas20LabelIndex_Immediate10removeNodeEyy,
                            __ZN5degas20LabelIndex_Immediate11removeEdgesERKNS_6BitmapES3_,
                            __ZN5degas20LabelIndex_Immediate11removeNodesERKNS_6BitmapES3_,
                            __ZN5degas20LabelIndex_Immediate18allEdgeIdentifiersERNS_6BitmapE,
                            __ZN5degas20LabelIndex_Immediate18allNodeIdentifiersERNS_6BitmapE,
                            __ZN5degas20LabelIndex_Immediate33edgeIdentifiersForLabelIdentifierEyRNS_6BitmapE,
                            __ZN5degas20LabelIndex_Immediate33nodeIdentifiersForLabelIdentifierEyRNS_6BitmapE,
                            __ZN5degas20LabelIndex_Immediate7addEdgeEyy,
                            __ZN5degas20LabelIndex_Immediate7addNodeEyy,
                            __ZN5degas20LabelIndex_ImmediateC1ERNS_10LabelTableE,
                            __ZN5degas20LabelIndex_ImmediateC2ERNS_10LabelTableE,
                            __ZN5degas20LabelIndex_ImmediateD0Ev,
                            __ZN5degas20LabelIndex_ImmediateD1Ev,
                            __ZN5degas20LabelIndex_ImmediateD2Ev,
                            __ZN5degas20LabelIndex_Persisted10resetIndexEv,
                            __ZN5degas20LabelIndex_Persisted12makeSnapshotERNSt3__13mapIyNS_6BitmapENS1_4lessIyEENS1_9allocatorINS1_4pairIKyS3_EEEEEESC_,
                            __ZN5degas20LabelIndex_Persisted15locked_populateERNS_10LabelTableE,
                            __ZN5degas20LabelIndex_Persisted18allEdgeIdentifiersERNS_6BitmapE,
                            __ZN5degas20LabelIndex_Persisted18allNodeIdentifiersERNS_6BitmapE,
                            __ZN5degas20LabelIndex_Persisted33edgeIdentifiersForLabelIdentifierEyRNS_6BitmapE,
                            __ZN5degas20LabelIndex_Persisted33nodeIdentifiersForLabelIdentifierEyRNS_6BitmapE,
                            __ZN5degas20LabelIndex_Persisted6updateERNS_10LabelTableERKNSt3__13mapIyNS_6BitmapENS3_4lessIyEENS3_9allocatorINS3_4pairIKyS5_EEEEEESF_SF_SF_,
                            __ZN5degas20LabelIndex_Persisted8populateERNS_10LabelTableE,
                            __ZN5degas20LabelIndex_PersistedC1Ev,
                            __ZN5degas20LabelIndex_PersistedC2Ev,
                            __ZN5degas20LabelIndex_PersistedD0Ev,
                            __ZN5degas20LabelIndex_PersistedD1Ev,
                            __ZN5degas20LabelIndex_PersistedD2Ev,
                            __ZN5degas20NodeFilter_Attribute12resolveNodesERNS_6BitmapE,
                            __ZN5degas20NodeFilter_AttributeC1EPNS_8DatabaseEyRKNSt3__112basic_stringIcNS3_11char_traitsIcEENS3_9allocatorIcEEEE,
                            __ZN5degas20NodeFilter_AttributeC1EPNS_8DatabaseEyd,
                            __ZN5degas20NodeFilter_AttributeC1EPNS_8DatabaseEyx,
                            __ZN5degas20NodeFilter_AttributeC2EPNS_8DatabaseEyRKNSt3__112basic_stringIcNS3_11char_traitsIcEENS3_9allocatorIcEEEE,
                            __ZN5degas20NodeFilter_AttributeC2EPNS_8DatabaseEyd,
                            __ZN5degas20NodeFilter_AttributeC2EPNS_8DatabaseEyx,
                            __ZN5degas20NodeFilter_AttributeD0Ev,
                            __ZN5degas20NodeFilter_AttributeD1Ev,
                            __ZN5degas20NodeFilter_AttributeD2Ev,
                            __ZN5degas20TransactionLogCursor13transactionIdEv,
                            __ZN5degas20TransactionLogCursor14deletedEdgeIdsEv,
                            __ZN5degas20TransactionLogCursor14deletedNodeIdsEv,
                            __ZN5degas20TransactionLogCursor14updatedEdgeIdsEv,
                            __ZN5degas20TransactionLogCursor14updatedNodeIdsEv,
                            __ZN5degas20TransactionLogCursor15insertedEdgeIdsEv,
                            __ZN5degas20TransactionLogCursor15insertedNodeIdsEv,
                            __ZN5degas20TransactionLogCursorC1ERKNS_19TransactionLogTableE,
                            __ZN5degas20TransactionLogCursorC1EyRKNS_19TransactionLogTableE,
                            __ZN5degas20TransactionLogCursorC1EyjRKNS_19TransactionLogTableE,
                            __ZN5degas20TransactionLogCursorC2ERKNS_19TransactionLogTableE,
                            __ZN5degas20TransactionLogCursorC2EyRKNS_19TransactionLogTableE,
                            __ZN5degas20TransactionLogCursorC2EyjRKNS_19TransactionLogTableE,
                            __ZN5degas20returnCodeFromSqliteEiNS_10ReturnCodeE,
                            __ZN5degas21CountedPathCollection25addToCollectionWithFilterERS0_RKNS_6BitmapE,
                            __ZN5degas21CountedPathCollection7addPathEyyi,
                            __ZN5degas21CountedPathCollection8addPathsEyRKNSt3__13mapIyiNS1_4lessIyEENS1_9allocatorINS1_4pairIKyiEEEEEE,
                            __ZN5degas21CountedPathCollectionC1ERKNS_6BitmapE,
                            __ZN5degas21CountedPathCollectionC1Ev,
                            __ZN5degas21CountedPathCollectionC2ERKNS_6BitmapE,
                            __ZN5degas21CountedPathCollectionC2Ev,
                            __ZN5degas21createBitmapFunctionsEP7sqlite3,
                            __ZN5degas21kArrayPointerTypeNameE,
                            __ZN5degas22AllLabelsEdgePredicate14filterElementsERKNS_6BitmapERS1_,
                            __ZN5degas22AllLabelsEdgePredicate16debugDescriptionERKNS_8DatabaseE,
                            __ZN5degas22AllLabelsEdgePredicate24decomposeLabelsPredicateERKNSt3__110shared_ptrINS_9PredicateEEE,
                            __ZN5degas22AllLabelsEdgePredicate8elementsERNS_6BitmapE,
                            __ZN5degas22AllLabelsEdgePredicateC1ERKNS_6BitmapERKNS_9EdgeTableERKNS_8DatabaseE,
                            __ZN5degas22AllLabelsEdgePredicateC2ERKNS_6BitmapERKNS_9EdgeTableERKNS_8DatabaseE,
                            __ZN5degas22AllLabelsNodePredicate14filterElementsERKNS_6BitmapERS1_,
                            __ZN5degas22AllLabelsNodePredicate16debugDescriptionERKNS_8DatabaseE,
                            __ZN5degas22AllLabelsNodePredicate24decomposeLabelsPredicateERKNSt3__110shared_ptrINS_9PredicateEEE,
                            __ZN5degas22AllLabelsNodePredicate8elementsERNS_6BitmapE,
                            __ZN5degas22AllLabelsNodePredicateC1ERKNS_6BitmapERKNS_9NodeTableERKNS_8DatabaseE,
                            __ZN5degas22AllLabelsNodePredicateC2ERKNS_6BitmapERKNS_9NodeTableERKNS_8DatabaseE,
                            __ZN5degas22AnyLabelsEdgePredicate14filterElementsERKNS_6BitmapERS1_,
                            __ZN5degas22AnyLabelsEdgePredicate16debugDescriptionERKNS_8DatabaseE,
                            __ZN5degas22AnyLabelsEdgePredicate24decomposeLabelsPredicateERKNSt3__110shared_ptrINS_9PredicateEEE,
                            __ZN5degas22AnyLabelsEdgePredicate8elementsERNS_6BitmapE,
                            __ZN5degas22AnyLabelsEdgePredicateC1ERKNS_6BitmapERKNS_9EdgeTableERKNS_8DatabaseE,
                            __ZN5degas22AnyLabelsEdgePredicateC2ERKNS_6BitmapERKNS_9EdgeTableERKNS_8DatabaseE,
                            __ZN5degas22AnyLabelsNodePredicate14filterElementsERKNS_6BitmapERS1_,
                            __ZN5degas22AnyLabelsNodePredicate16debugDescriptionERKNS_8DatabaseE,
                            __ZN5degas22AnyLabelsNodePredicate24decomposeLabelsPredicateERKNSt3__110shared_ptrINS_9PredicateEEE,
                            __ZN5degas22AnyLabelsNodePredicate8elementsERNS_6BitmapE,
                            __ZN5degas22AnyLabelsNodePredicateC1ERKNS_6BitmapERKNS_9NodeTableERKNS_8DatabaseE,
                            __ZN5degas22AnyLabelsNodePredicateC2ERKNS_6BitmapERKNS_9NodeTableERKNS_8DatabaseE,
                            __ZN5degas22AttributeInstanceTable13tableSafeNameERKNSt3__112basic_stringIcNS1_11char_traitsIcEENS1_9allocatorIcEEEE,
                            __ZN5degas22AttributeInstanceTableC1EP7sqlite3RKNSt3__112basic_stringIcNS3_11char_traitsIcEENS3_9allocatorIcEEEENS_8DataTypeEyRNS_14StatementCacheE,
                            __ZN5degas22AttributeInstanceTableC1ERKS0_,
                            __ZN5degas22AttributeInstanceTableC2EP7sqlite3RKNSt3__112basic_stringIcNS3_11char_traitsIcEENS3_9allocatorIcEEEENS_8DataTypeEyRNS_14StatementCacheE,
                            __ZN5degas22AttributeInstanceTableC2ERKS0_,
                            __ZN5degas22AttributeInstanceTableD0Ev,
                            __ZN5degas22AttributeInstanceTableD1Ev,
                            __ZN5degas22AttributeInstanceTableD2Ev,
                            __ZN5degas22AttributeInstanceTableaSERKS0_,
                            __ZN5degas22DegasLoggingConnectionEv,
                            __ZN5degas22LabelIndex_Transaction10removeEdgeEyy,
                            __ZN5degas22LabelIndex_Transaction10removeNodeEyy,
                            __ZN5degas22LabelIndex_Transaction10resetIndexEv,
                            __ZN5degas22LabelIndex_Transaction11removeEdgesERKNS_6BitmapES3_,
                            __ZN5degas22LabelIndex_Transaction11removeNodesERKNS_6BitmapES3_,
                            __ZN5degas22LabelIndex_Transaction12resetForPathERKNSt3__112basic_stringIcNS1_11char_traitsIcEENS1_9allocatorIcEEEE,
                            __ZN5degas22LabelIndex_Transaction16beginTransactionEv,
                            __ZN5degas22LabelIndex_Transaction17commitTransactionEv,
                            __ZN5degas22LabelIndex_Transaction18allEdgeIdentifiersERNS_6BitmapE,
                            __ZN5degas22LabelIndex_Transaction18allNodeIdentifiersERNS_6BitmapE,
                            __ZN5degas22LabelIndex_Transaction19rollbackTransactionEv,
                            __ZN5degas22LabelIndex_Transaction33edgeIdentifiersForLabelIdentifierEyRNS_6BitmapE,
                            __ZN5degas22LabelIndex_Transaction33nodeIdentifiersForLabelIdentifierEyRNS_6BitmapE,
                            __ZN5degas22LabelIndex_Transaction7addEdgeEyy,
                            __ZN5degas22LabelIndex_Transaction7addNodeEyy,
                            __ZN5degas22LabelIndex_TransactionC1ERKNSt3__112basic_stringIcNS1_11char_traitsIcEENS1_9allocatorIcEEEERNS_10LabelTableE,
                            __ZN5degas22LabelIndex_TransactionC2ERKNSt3__112basic_stringIcNS1_11char_traitsIcEENS1_9allocatorIcEEEERNS_10LabelTableE,
                            __ZN5degas22LabelIndex_TransactionD0Ev,
                            __ZN5degas22LabelIndex_TransactionD1Ev,
                            __ZN5degas22LabelIndex_TransactionD2Ev,
                            __ZN5degas22kBitmapPointerTypeNameE,
                            __ZN5degas22literalBitmapUnionStepEP15sqlite3_contextiPP13sqlite3_value,
                            __ZN5degas22mergeLiteralBitmapStepEP15sqlite3_contextiPP13sqlite3_value,
                            __ZN5degas23AttributeInstanceCursor11setForValueERKNSt3__112basic_stringIcNS1_11char_traitsIcEENS1_9allocatorIcEEEERNS_22AttributeInstanceTableE,
                            __ZN5degas23AttributeInstanceCursor11setForValueEdRNS_22AttributeInstanceTableE,
                            __ZN5degas23AttributeInstanceCursor11setForValueExRNS_22AttributeInstanceTableE,
                            __ZN5degas23AttributeInstanceCursorC1ERKNS_6BitmapERNS_22AttributeInstanceTableE,
                            __ZN5degas23AttributeInstanceCursorC1ERNS_22AttributeInstanceTableE,
                            __ZN5degas23AttributeInstanceCursorC1Ev,
                            __ZN5degas23AttributeInstanceCursorC1EyRNS_22AttributeInstanceTableE,
                            __ZN5degas23AttributeInstanceCursorC2ERKNS_6BitmapERNS_22AttributeInstanceTableE,
                            __ZN5degas23AttributeInstanceCursorC2ERNS_22AttributeInstanceTableE,
                            __ZN5degas23AttributeInstanceCursorC2Ev,
                            __ZN5degas23AttributeInstanceCursorC2EyRNS_22AttributeInstanceTableE,
                            __ZN5degas23SortAttributeValueTableC1EP7sqlite3RKNSt3__112basic_stringIcNS3_11char_traitsIcEENS3_9allocatorIcEEEENS_15TableIdentifierERNS_14StatementCacheE,
                            __ZN5degas23SortAttributeValueTableC2EP7sqlite3RKNSt3__112basic_stringIcNS3_11char_traitsIcEENS3_9allocatorIcEEEENS_15TableIdentifierERNS_14StatementCacheE,
                            __ZN5degas23SortAttributeValueTableD0Ev,
                            __ZN5degas23SortAttributeValueTableD1Ev,
                            __ZN5degas23SortAttributeValueTableD2Ev,
                            __ZN5degas23StatementPerformanceLog11appendEntryERKNS_25StatementPerformanceEntryE,
                            __ZN5degas23StatementPerformanceLog16rowCountForTableERKNS_5TableE,
                            __ZN5degas23StatementPerformanceLogC1ERKNSt3__112basic_stringIcNS1_11char_traitsIcEENS1_9allocatorIcEEEE,
                            __ZN5degas23StatementPerformanceLogC2ERKNSt3__112basic_stringIcNS1_11char_traitsIcEENS1_9allocatorIcEEEE,
                            __ZN5degas23UncountedPathCollection25addToCollectionWithFilterERS0_RKNS_6BitmapE,
                            __ZN5degas23UncountedPathCollection5clearEv,
                            __ZN5degas23UncountedPathCollection7addPathEyy,
                            __ZN5degas23UncountedPathCollection8addPathsEyRKNSt3__110shared_ptrINS_6BitmapEEE,
                            __ZN5degas23UncountedPathCollectionC1ERKNS_6BitmapE,
                            __ZN5degas23UncountedPathCollectionC1Ev,
                            __ZN5degas23UncountedPathCollectionC2ERKNS_6BitmapE,
                            __ZN5degas23UncountedPathCollectionC2Ev,
                            __ZN5degas23literalBitmapUnionFinalEP15sqlite3_context,
                            __ZN5degas23mergeLiteralBitmapFinalEP15sqlite3_context,
                            __ZN5degas24SortAttributeValueCursor11stringValueERNSt3__112basic_stringIcNS1_11char_traitsIcEENS1_9allocatorIcEEEE,
                            __ZN5degas24SortAttributeValueCursor12integerValueEv,
                            __ZN5degas24SortAttributeValueCursor13setForIntAttrEybxRKNS_23SortAttributeValueTableE,
                            __ZN5degas24SortAttributeValueCursor14setForRealAttrEybxRKNS_23SortAttributeValueTableE,
                            __ZN5degas24SortAttributeValueCursor16setForStringAttrEybxRKNS_23SortAttributeValueTableE,
                            __ZN5degas24SortAttributeValueCursor24setForIntAttrIdentifiersEyRKNS_6BitmapEbxRKNS_23SortAttributeValueTableE,
                            __ZN5degas24SortAttributeValueCursor25setForRealAttrIdentifiersEyRKNS_6BitmapEbxRKNS_23SortAttributeValueTableE,
                            __ZN5degas24SortAttributeValueCursor27setForStringAttrIdentifiersEyRKNS_6BitmapEbxRKNS_23SortAttributeValueTableE,
                            __ZN5degas24SortAttributeValueCursor9elementIdEv,
                            __ZN5degas24SortAttributeValueCursor9realValueEv,
                            __ZN5degas24SortAttributeValueCursorC1Ev,
                            __ZN5degas24SortAttributeValueCursorC2Ev,
                            __ZN5degas24bitmapContainsIdentifierEP15sqlite3_contextiPP13sqlite3_value,
                            __ZN5degas25BinaryOperatorDescriptionENS_14BinaryOperatorE,
                            __ZN5degas25StatementPerformanceEntry5addIOERKNS_17IOAccountingEntryE,
                            __ZN5degas25StatementPerformanceEntry5resetEv,
                            __ZN5degas25StatementPerformanceEntry7addStepEdj,
                            __ZN5degas25implAllElementsFromLabelsERKNS_10LabelTableERNS_6BitmapENSt3__18functionIFvRNS_11LabelCursorES4_EEE,
                            __ZN5degas26TernaryOperatorDescriptionENS_15TernaryOperatorERKNSt3__112basic_stringIcNS1_11char_traitsIcEENS1_9allocatorIcEEEE,
                            __ZN5degas29literalBitmapIntersectionStepEP15sqlite3_contextiPP13sqlite3_value,
                            __ZN5degas30implElementsForLabelFromLabelsERKNS_10LabelTableEyRNS_6BitmapENSt3__18functionIFvRNS_11LabelCursorES4_EEE,
                            __ZN5degas30literalBitmapIntersectionFinalEP15sqlite3_context,
                            __ZN5degas32createLiteralBitmapUnionFunctionEP7sqlite3,
                            __ZN5degas32createMergeLiteralBitmapFunctionEP7sqlite3,
                            __ZN5degas32filterElementsForAggregateCursorERNS_20AggregateValueCursorERNS_6BitmapERKS2_,
                            __ZN5degas33sqliteFlagFromDataProtectionClassE21KGDataProtectionClass,
                            __ZN5degas34implElementsForAllLabelsFromLabelsERKNS_10LabelTableERKNS_6BitmapERS3_NSt3__18functionIFvRNS_11LabelCursorES6_EEE,
                            __ZN5degas34implElementsForAnyLabelsFromLabelsERKNS_10LabelTableERKNS_6BitmapERS3_NSt3__18functionIFvRNS_11LabelCursorES6_EEE,
                            __ZN5degas39createLiteralBitmapIntersectionFunctionEP7sqlite3,
                            __ZN5degas39kBitmapEncodingVersionDefinitelyInvalidE,
                            __ZN5degas5Table19statementIdentifierEhhh,
                            __ZN5degas5TableC2ERKNSt3__112basic_stringIcNS1_11char_traitsIcEENS1_9allocatorIcEEEEP7sqlite3RNS_14StatementCacheE,
                            __ZN5degas5TableC2ERKS0_, __ZN5degas5TableD0Ev,
                            __ZN5degas5TableD1Ev, __ZN5degas5TableD2Ev,
                            __ZN5degas5TableaSERKS0_,
                            __ZN5degas6Bitmap10clearRangeEyy,
                            __ZN5degas6Bitmap11emptyBitmapEv,
                            __ZN5degas6Bitmap11firstBitsetEv,
                            __ZN5degas6Bitmap11mergeBitsetERyRNS_6BitsetES1_RKS2_,
                            __ZN5degas6Bitmap12appendBitsetERKNS_6BitsetE,
                            __ZN5degas6Bitmap12clearAllBitsEv,
                            __ZN5degas6Bitmap12insertBitsetEyRKNS_6BitsetE,
                            __ZN5degas6Bitmap13bitsetAtIndexEy,
                            __ZN5degas6Bitmap15intersectBitsetERyRNS_6BitsetES1_RKS2_y,
                            __ZN5degas6Bitmap23unshadowedBitSetAtIndexEy,
                            __ZN5degas6Bitmap24replaceFromEncodedBufferEPPKh,
                            __ZN5degas6Bitmap6setBitEy,
                            __ZN5degas6Bitmap8clearBitEy,
                            __ZN5degas6Bitmap8iterator4seekEy,
                            __ZN5degas6Bitmap8iteratorC1EPKS0_yRNSt3__111__wrap_iterIPKNS_9BitsetPtrEEE,
                            __ZN5degas6Bitmap8iteratorC1EPKS0_yl,
                            __ZN5degas6Bitmap8iteratorC1ERKS1_,
                            __ZN5degas6Bitmap8iteratorC2EPKS0_yRNSt3__111__wrap_iterIPKNS_9BitsetPtrEEE,
                            __ZN5degas6Bitmap8iteratorC2EPKS0_yl,
                            __ZN5degas6Bitmap8iteratorC2ERKS1_,
                            __ZN5degas6Bitmap8iteratoraSERKS1_,
                            __ZN5degas6Bitmap8iteratorppEi,
                            __ZN5degas6Bitmap8iteratorppEv,
                            __ZN5degas6Bitmap8setRangeEyy,
                            __ZN5degas6BitmapC1ERKNS_13LiteralBitmapE,
                            __ZN5degas6BitmapC1ERKNSt3__16vectorINS_9BitsetPtrENS1_9allocatorIS3_EEEE,
                            __ZN5degas6BitmapC1ERKS0_, __ZN5degas6BitmapC1Ev,
                            __ZN5degas6BitmapC2ERKNS_13LiteralBitmapE,
                            __ZN5degas6BitmapC2ERKNSt3__16vectorINS_9BitsetPtrENS1_9allocatorIS3_EEEE,
                            __ZN5degas6BitmapC2ERKS0_, __ZN5degas6BitmapC2Ev,
                            __ZN5degas6BitmapaSERKS0_,
                            __ZN5degas6Bitset10clearRangeEyy,
                            __ZN5degas6Bitset6setBitEy,
                            __ZN5degas6Bitset8clearBitEy,
                            __ZN5degas6Bitset8setRangeEyy,
                            __ZN5degas6BitsetC1EPPKh, __ZN5degas6BitsetC2EPPKh,
                            __ZN5degas6Cursor14columnDataTypeEi,
                            __ZN5degas6CursorC1EOS0_,
                            __ZN5degas6CursorC1ERKNSt3__110shared_ptrINS_9StatementEEE,
                            __ZN5degas6CursorC1ERKS0_, __ZN5degas6CursorC2EOS0_,
                            __ZN5degas6CursorC2ERKNSt3__110shared_ptrINS_9StatementEEE,
                            __ZN5degas6CursorC2ERKS0_, __ZN5degas6CursorD1Ev,
                            __ZN5degas6CursorD2Ev,
                            __ZN5degas8Database10insertEdgeERNS_19EdgeCreationRequestE,
                            __ZN5degas8Database10insertNodeERNS_19NodeCreationRequestE,
                            __ZN5degas8Database10openCreateERKNSt3__112basic_stringIcNS1_11char_traitsIcEENS1_9allocatorIcEEEE,
                            __ZN5degas8Database10removeEdgeEy,
                            __ZN5degas8Database10removeEdgeEyy,
                            __ZN5degas8Database10removeNodeEy,
                            __ZN5degas8Database11checkSchemaEb,
                            __ZN5degas8Database11edgesOfNodeEyRNS_6BitmapENS_13EdgeDirectionE,
                            __ZN5degas8Database11getNodeInfoEyRNS_6BitmapES2_S2_,
                            __ZN5degas8Database11insertEdgesERNSt3__16vectorINS_19EdgeCreationRequestENS1_9allocatorIS3_EEEE,
                            __ZN5degas8Database11insertNodesERNSt3__16vectorINS_19NodeCreationRequestENS1_9allocatorIS3_EEEE,
                            __ZN5degas8Database11removeEdgesERKNS_6BitmapE,
                            __ZN5degas8Database11removeEdgesERKNS_6BitmapES3_,
                            __ZN5degas8Database11removeNodesERKNS_6BitmapE,
                            __ZN5degas8Database12addAttributeERyRKNSt3__112basic_stringIcNS2_11char_traitsIcEENS2_9allocatorIcEEEE,
                            __ZN5degas8Database12copyDatabaseERKNSt3__112basic_stringIcNS1_11char_traitsIcEENS1_9allocatorIcEEEE,
                            __ZN5degas8Database12edgesOfNodesERKNS_6BitmapERS1_NS_13EdgeDirectionE,
                            __ZN5degas8Database12edgesOfNodesERNS_10NodeCursorERNS_6BitmapENS_13EdgeDirectionE,
                            __ZN5degas8Database12openReadOnlyERKNSt3__112basic_stringIcNS1_11char_traitsIcEENS1_9allocatorIcEEEE,
                            __ZN5degas8Database13metadataValueEyRNSt3__112basic_stringIcNS1_11char_traitsIcEENS1_9allocatorIcEEEE,
                            __ZN5degas8Database13metadataValueEyRy,
                            __ZN5degas8Database13nodeNeighborsERKNS_6BitmapERS1_NS_13EdgeDirectionE,
                            __ZN5degas8Database13nodeNeighborsERKNS_6BitmapERS1_S3_NS_13EdgeDirectionE,
                            __ZN5degas8Database13nodeNeighborsERNS_10NodeCursorERNS_6BitmapENS_13EdgeDirectionE,
                            __ZN5degas8Database13nodeNeighborsEyRNS_6BitmapENS_13EdgeDirectionE,
                            __ZN5degas8Database14backupDatabaseERKNSt3__112basic_stringIcNS1_11char_traitsIcEENS1_9allocatorIcEEEE,
                            __ZN5degas8Database14beginStatementEv,
                            __ZN5degas8Database14logMemoryUsageEv,
                            __ZN5degas8Database15commitStatementEv,
                            __ZN5degas8Database15removeAttributeEy,
                            __ZN5degas8Database15updateNodeEdgesEyRKNS_6BitmapES3_S3_S3_,
                            __ZN5degas8Database16beginTransactionEv,
                            __ZN5degas8Database16setMetadataValueEyRKNSt3__112basic_stringIcNS1_11char_traitsIcEENS1_9allocatorIcEEEE,
                            __ZN5degas8Database16setMetadataValueEyy,
                            __ZN5degas8Database16setTraceCallbackEv,
                            __ZN5degas8Database16truncateDatabaseEv,
                            __ZN5degas8Database17commitTransactionEv,
                            __ZN5degas8Database17edgesBetweenNodesERKNS_6BitmapES3_RS1_,
                            __ZN5degas8Database17getDatabaseHealthERbRNSt3__112basic_stringIcNS2_11char_traitsIcEENS2_9allocatorIcEEEE,
                            __ZN5degas8Database17setDeliberateFailEv,
                            __ZN5degas8Database18copyDatabaseFromToERKNSt3__112basic_stringIcNS1_11char_traitsIcEENS1_9allocatorIcEEEES9_,
                            __ZN5degas8Database18edgeAttributeValueEyyRNSt3__112basic_stringIcNS1_11char_traitsIcEENS1_9allocatorIcEEEE,
                            __ZN5degas8Database18edgeAttributeValueEyyRd,
                            __ZN5degas8Database18edgeAttributeValueEyyRx,
                            __ZN5degas8Database18filterEdgesOfNodesERKNS_6BitmapES3_RS1_NS_13EdgeDirectionE,
                            __ZN5degas8Database18nodeAttributeValueEyyRNSt3__112basic_stringIcNS1_11char_traitsIcEENS1_9allocatorIcEEEE,
                            __ZN5degas8Database18nodeAttributeValueEyyRd,
                            __ZN5degas8Database18nodeAttributeValueEyyRx,
                            __ZN5degas8Database19releaseSqliteMemoryEv,
                            __ZN5degas8Database19rollbackTransactionEv,
                            __ZN5degas8Database20updateTableInstancesEv,
                            __ZN5degas8Database21databaseFormatVersionERNS_13FormatVersionE,
                            __ZN5degas8Database21isEmptyDatabaseAtPathERKNSt3__112basic_stringIcNS1_11char_traitsIcEENS1_9allocatorIcEEEE,
                            __ZN5degas8Database21nodeNeighborsViaEdgesERKNS_6BitmapES3_RS1_NS_13EdgeDirectionE,
                            __ZN5degas8Database21nodeNeighborsViaEdgesERNS_10NodeCursorERKNS_6BitmapERS3_NS_13EdgeDirectionE,
                            __ZN5degas8Database21nodeNeighborsViaEdgesEyRKNS_6BitmapERS1_NS_13EdgeDirectionE,
                            __ZN5degas8Database21purgeEmptyBitsetPagesEv,
                            __ZN5degas8Database21setEdgeAttributeValueEyyRKNSt3__112basic_stringIcNS1_11char_traitsIcEENS1_9allocatorIcEEEE,
                            __ZN5degas8Database21setEdgeAttributeValueEyyd,
                            __ZN5degas8Database21setEdgeAttributeValueEyyx,
                            __ZN5degas8Database21setEnableQueryLoggingEv,
                            __ZN5degas8Database21setNodeAttributeValueEyyRKNSt3__112basic_stringIcNS1_11char_traitsIcEENS1_9allocatorIcEEEE,
                            __ZN5degas8Database21setNodeAttributeValueEyyd,
                            __ZN5degas8Database21setNodeAttributeValueEyyx,
                            __ZN5degas8Database22appendAllNodesForEdgesERKNS_6BitmapERS1_,
                            __ZN5degas8Database22setDataProtectionClassE21KGDataProtectionClass,
                            __ZN5degas8Database22truncateDatabaseAtPathERKNSt3__112basic_stringIcNS1_11char_traitsIcEENS1_9allocatorIcEEEE,
                            __ZN5degas8Database23cursorForAdhocStatementERKNSt3__112basic_stringIcNS1_11char_traitsIcEENS1_9allocatorIcEEEE,
                            __ZN5degas8Database23filterEdgesBetweenNodesERKNS_6BitmapES3_S3_RS1_,
                            __ZN5degas8Database23setDatabaseFatalProblemERKNSt3__112basic_stringIcNS1_11char_traitsIcEENS1_9allocatorIcEEEE,
                            __ZN5degas8Database23setEnableChangeTrackingEv,
                            __ZN5degas8Database23setEnableQueryProfilingEv,
                            __ZN5degas8Database23sortEdgesByIntAttributeEybxRKNS_6BitmapEU13block_pointerFvyxE,
                            __ZN5degas8Database23sortNodesByIntAttributeEybxRKNS_6BitmapEU13block_pointerFvyxE,
                            __ZN5degas8Database24createAggregateFunctionsEv,
                            __ZN5degas8Database24setDatabaseFormatVersionENS_13FormatVersionE,
                            __ZN5degas8Database24sortEdgesByRealAttributeEybxRKNS_6BitmapEU13block_pointerFvydE,
                            __ZN5degas8Database24sortNodesByRealAttributeEybxRKNS_6BitmapEU13block_pointerFvydE,
                            __ZN5degas8Database25appendSourceNodesForEdgesERKNS_6BitmapERS1_,
                            __ZN5degas8Database25appendTargetNodesForEdgesERKNS_6BitmapERS1_,
                            __ZN5degas8Database25removeEdgeAttributeValuesEyRKNS_6BitmapE,
                            __ZN5degas8Database25removeNodeAttributeValuesEyRKNS_6BitmapE,
                            __ZN5degas8Database26setEnableLabelElementCacheEv,
                            __ZN5degas8Database26sortEdgesByStringAttributeEybxRKNS_6BitmapEU13block_pointerFvyRKNSt3__112basic_stringIcNS4_11char_traitsIcEENS4_9allocatorIcEEEEE,
                            __ZN5degas8Database26sortNodesByStringAttributeEybxRKNS_6BitmapEU13block_pointerFvyRKNSt3__112basic_stringIcNS4_11char_traitsIcEENS4_9allocatorIcEEEEE,
                            __ZN5degas8Database27setDisableLabelElementCacheEv,
                            __ZN5degas8Database28checkEdgeExistsForIdentifierEy,
                            __ZN5degas8Database28checkNodeExistsForIdentifierEy,
                            __ZN5degas8Database28setEnableInsertLabelTrackingEv,
                            __ZN5degas8Database29setEdgeAttributeValueUnsignedEyyy,
                            __ZN5degas8Database29setEnableDatabasePathTrackingEv,
                            __ZN5degas8Database29setNodeAttributeValueUnsignedEyyy,
                            __ZN5degas8Database30findMissingNodesForIdentifiersERKNS_6BitmapERS1_,
                            __ZN5degas8Database34appendSourceAndTargetNodesForEdgesERKNS_6BitmapERS1_S4_,
                            __ZN5degas8Database45enumerateTransactionChangesAfterTransactionIdEyiNSt3__18functionIFvyRKNS0_18TransactionChangesEEEE,
                            __ZN5degas8Database5closeEv,
                            __ZN5degas8Database8addLabelERKNSt3__112basic_stringIcNS1_11char_traitsIcEENS1_9allocatorIcEEEE,
                            __ZN5degas8Database9openWriteERKNSt3__112basic_stringIcNS1_11char_traitsIcEENS1_9allocatorIcEEEE,
                            __ZN5degas8DatabaseC1Ev, __ZN5degas8DatabaseC2Ev,
                            __ZN5degas8DatabaseD1Ev, __ZN5degas8DatabaseD2Ev,
                            __ZN5degas9BitsetPtr13releaseBitsetEv,
                            __ZN5degas9BitsetPtr5resetEPNS_6BitsetEPNS_14BitsetPoolPageE,
                            __ZN5degas9BitsetPtrC1EPNS_6BitsetEPNS_14BitsetPoolPageE,
                            __ZN5degas9BitsetPtrC1ERKS0_,
                            __ZN5degas9BitsetPtrC2EPNS_6BitsetEPNS_14BitsetPoolPageE,
                            __ZN5degas9BitsetPtrC2ERKS0_,
                            __ZN5degas9BitsetPtrD1Ev, __ZN5degas9BitsetPtrD2Ev,
                            __ZN5degas9BitsetPtraSERKS0_,
                            __ZN5degas9EdgeTableC1EP7sqlite3RKNSt3__112basic_stringIcNS3_11char_traitsIcEENS3_9allocatorIcEEEEbNS_15TableIdentifierERNS_14StatementCacheE,
                            __ZN5degas9EdgeTableC2EP7sqlite3RKNSt3__112basic_stringIcNS3_11char_traitsIcEENS3_9allocatorIcEEEEbNS_15TableIdentifierERNS_14StatementCacheE,
                            __ZN5degas9EdgeTableD0Ev, __ZN5degas9EdgeTableD1Ev,
                            __ZN5degas9EdgeTableD2Ev,
                            __ZN5degas9Migration14migrateWeightsEv,
                            __ZN5degas9Migration16migrateEdgeIndexEv,
                            __ZN5degas9Migration18migratePruneSchemaEv,
                            __ZN5degas9Migration19migrateBitmapSchemaEv,
                            __ZN5degas9Migration22migrateAttributeSchemaEv,
                            __ZN5degas9Migration7migrateENS_13FormatVersionES1_,
                            __ZN5degas9MigrationC1ERNS_8DatabaseEP7sqlite3,
                            __ZN5degas9MigrationC2ERNS_8DatabaseEP7sqlite3,
                            __ZN5degas9NodeTableC1EP7sqlite3RKNSt3__112basic_stringIcNS3_11char_traitsIcEENS3_9allocatorIcEEEEbNS_15TableIdentifierERNS_14StatementCacheE,
                            __ZN5degas9NodeTableC2EP7sqlite3RKNSt3__112basic_stringIcNS3_11char_traitsIcEENS3_9allocatorIcEEEEbNS_15TableIdentifierERNS_14StatementCacheE,
                            __ZN5degas9NodeTableD0Ev, __ZN5degas9NodeTableD1Ev,
                            __ZN5degas9NodeTableD2Ev,
                            __ZN5degas9Predicate7nullPtrEv,
                            __ZN5degas9Statement10bindBitmapEiRKNS_6BitmapE,
                            __ZN5degas9Statement10bindDoubleEid,
                            __ZN5degas9Statement10bindStringEiRKNSt3__112basic_stringIcNS1_11char_traitsIcEENS1_9allocatorIcEEEE,
                            __ZN5degas9Statement11bindIntegerEiy,
                            __ZN5degas9Statement13prepareForUseEv,
                            __ZN5degas9Statement14sqliteDataTypeEi,
                            __ZN5degas9Statement15blobColumnValueEi,
                            __ZN5degas9Statement15realColumnValueEi,
                            __ZN5degas9Statement16bindArrayPointerEiPv,
                            __ZN5degas9Statement17bindBitmapPointerEiRKNS_6BitmapE,
                            __ZN5degas9Statement17bindLiteralBitmapEiPKNS_13LiteralBitmapE,
                            __ZN5degas9Statement17bitmapColumnValueEiRNS_6BitmapE,
                            __ZN5degas9Statement17stringColumnValueEiRNSt3__112basic_stringIcNS1_11char_traitsIcEENS1_9allocatorIcEEEE,
                            __ZN5degas9Statement18enableQueryExplainEb,
                            __ZN5degas9Statement18integerColumnValueEi,
                            __ZN5degas9Statement21finishStatementCursorEv,
                            __ZN5degas9Statement22enableQueryPlanExplainEb,
                            __ZN5degas9Statement22setStatementIdentifierEj,
                            __ZN5degas9Statement24literalBitmapColumnValueEi,
                            __ZN5degas9Statement26reportStatementMemoryUsageEv,
                            __ZN5degas9Statement4nextEv,
                            __ZN5degas9Statement6updateEv,
                            __ZN5degas9Statement8bindNullEi,
                            __ZN5degas9Statement9measureIOERNS_17IOAccountingEntryE,
                            __ZN5degas9StatementC1EP7sqlite3RKNSt3__112basic_stringIcNS3_11char_traitsIcEENS3_9allocatorIcEEEE,
                            __ZN5degas9StatementC2EP7sqlite3RKNSt3__112basic_stringIcNS3_11char_traitsIcEENS3_9allocatorIcEEEE,
                            __ZN5degas9StatementD1Ev, __ZN5degas9StatementD2Ev,
                            __ZN5degas9Traversal14startFromNodesERKNS_6BitmapE,
                            __ZN5degas9Traversal14startFromNodesERKNSt3__110shared_ptrINS_10NodeFilterEEE,
                            __ZN5degas9Traversal16setRecordingTypeENS0_13RecordingTypeE,
                            __ZN5degas9Traversal20populateDistributionERNS_12DistributionE,
                            __ZN5degas9Traversal23setTerminatingConditionERKNSt3__110shared_ptrINS_10NodeFilterEEE,
                            __ZN5degas9Traversal25performFixedStepTraversalEv,
                            __ZN5degas9Traversal28performVariableStepTraversalEv,
                            __ZN5degas9Traversal7addStepERKNS_17StepSpecificationE,
                            __ZN5degas9TraversalC1EPNS_8DatabaseE,
                            __ZN5degas9TraversalC2EPNS_8DatabaseE,
                            __ZN5degas9callstackERNSt3__112basic_stringIcNS0_11char_traitsIcEENS0_9allocatorIcEEEE,
                            __ZNK5degas10ArrayTable11createTableEv,
                            __ZNK5degas10LabelTable11createTableEv,
                            __ZNK5degas10LabelTable11deleteEntryEy,
                            __ZNK5degas10LabelTable15deleteStatementEv,
                            __ZNK5degas10LabelTable15insertStatementEv,
                            __ZNK5degas10LabelTable15updateStatementEv,
                            __ZNK5degas10LabelTable16readAllStatementEv,
                            __ZNK5degas10LabelTable21readByBitmapStatementEv,
                            __ZNK5degas10LabelTable25prepareStatementToReadAllEv,
                            __ZNK5degas10LabelTable25readByIdentifierStatementEv,
                            __ZNK5degas10LabelTable28readAfterIdentifierStatementEv,
                            __ZNK5degas10LabelTable30prepareStatementToReadByBitmapERKNS_6BitmapE,
                            __ZNK5degas10LabelTable34prepareStatementToReadByIdentifierEy,
                            __ZNK5degas10LabelTable37prepareStatementToReadAfterIdentifierEy,
                            __ZNK5degas10LabelTable6insertERyRKNSt3__112basic_stringIcNS2_11char_traitsIcEENS2_9allocatorIcEEEE,
                            __ZNK5degas10LabelTable6updateEyRKNS_6BitmapES3_,
                            __ZNK5degas11BitmapTable11createTableEv,
                            __ZNK5degas13LiteralBitmap10bitAtIndexEy,
                            __ZNK5degas13LiteralBitmap10findOffsetEy,
                            __ZNK5degas13LiteralBitmap10findOffsetEyyy,
                            __ZNK5degas13LiteralBitmap12rangeCompareEyy,
                            __ZNK5degas13LiteralBitmap16countBitsInRangeEyy,
                            __ZNK5degas13LiteralBitmap5countEv,
                            __ZNK5degas13LiteralBitmap5isSetEy,
                            __ZNK5degas13LiteralBitmap7lastBitEv,
                            __ZNK5degas13LiteralBitmap8firstBitEv,
                            __ZNK5degas13LiteralBitmapeqERKS0_,
                            __ZNK5degas13MetadataTable11createTableEv,
                            __ZNK5degas13MetadataTable11deleteEntryEy,
                            __ZNK5degas13MetadataTable14insertOrUpdateEyRKNSt3__112basic_stringIcNS1_11char_traitsIcEENS1_9allocatorIcEEEE,
                            __ZNK5degas13MetadataTable14insertOrUpdateEyd,
                            __ZNK5degas13MetadataTable14insertOrUpdateEyy,
                            __ZNK5degas13MetadataTable15deleteStatementEv,
                            __ZNK5degas13MetadataTable15upsertStatementEv,
                            __ZNK5degas13MetadataTable25readByIdentifierStatementEv,
                            __ZNK5degas13MetadataTable34prepareStatementToReadByIdentifierEy,
                            __ZNK5degas14AttributeTable11createTableEv,
                            __ZNK5degas14AttributeTable11deleteEntryEy,
                            __ZNK5degas14AttributeTable15deleteStatementEv,
                            __ZNK5degas14AttributeTable15insertStatementEv,
                            __ZNK5degas14AttributeTable15updateStatementEv,
                            __ZNK5degas14AttributeTable16readAllStatementEv,
                            __ZNK5degas14AttributeTable19readByNameStatementEv,
                            __ZNK5degas14AttributeTable25prepareStatementToReadAllEv,
                            __ZNK5degas14AttributeTable25readByIdentifierStatementEv,
                            __ZNK5degas14AttributeTable28prepareStatementToReadByNameERKNSt3__112basic_stringIcNS1_11char_traitsIcEENS1_9allocatorIcEEEE,
                            __ZNK5degas14AttributeTable28readAfterIdentifierStatementEv,
                            __ZNK5degas14AttributeTable34prepareStatementToReadByIdentifierEy,
                            __ZNK5degas14AttributeTable37prepareStatementToReadAfterIdentifierEy,
                            __ZNK5degas14AttributeTable6insertERyRKNSt3__112basic_stringIcNS2_11char_traitsIcEENS2_9allocatorIcEEEE,
                            __ZNK5degas14AttributeTable6updateEyRKNSt3__112basic_stringIcNS1_11char_traitsIcEENS1_9allocatorIcEEEE,
                            __ZNK5degas14BitsetPoolPage6isFullEv,
                            __ZNK5degas14BitsetPoolPage7isEmptyEv,
                            __ZNK5degas14ClientLogTable11createTableEv,
                            __ZNK5degas14ClientLogTable11deleteEntryEy,
                            __ZNK5degas14ClientLogTable15deleteStatementEv,
                            __ZNK5degas14ClientLogTable15upsertStatementEv,
                            __ZNK5degas14ClientLogTable16readAllStatementEv,
                            __ZNK5degas14ClientLogTable25prepareStatementToReadAllEv,
                            __ZNK5degas14ClientLogTable25readByIdentifierStatementEv,
                            __ZNK5degas14ClientLogTable34prepareStatementToReadByIdentifierEy,
                            __ZNK5degas14ClientLogTable6upsertEyRy,
                            __ZNK5degas17IOAccountingEntry18totalCacheActivityEv,
                            __ZNK5degas17LabelledEdgeTable11createTableEv,
                            __ZNK5degas17LabelledEdgeTable40readEdgesBySourceNodeIdentifierStatementEv,
                            __ZNK5degas17LabelledEdgeTable40readEdgesByTargetNodeIdentifierStatementEv,
                            __ZNK5degas17LabelledEdgeTable41readEdgesBySourceNodeIdentifiersStatementEv,
                            __ZNK5degas17LabelledEdgeTable41readEdgesByTargetNodeIdentifiersStatementEv,
                            __ZNK5degas17LabelledEdgeTable41readSourceNodesByEdgeIdentifiersStatementEv,
                            __ZNK5degas17LabelledEdgeTable41readTargetNodesByEdgeIdentifiersStatementEv,
                            __ZNK5degas17LabelledEdgeTable47readSourceNodesByTargetNodeIdentifiersStatementEv,
                            __ZNK5degas17LabelledEdgeTable47readTargetNodesBySourceNodeIdentifiersStatementEv,
                            __ZNK5degas17LabelledEdgeTable49prepareStatementToReadEdgesBySourceNodeIdentifierEy,
                            __ZNK5degas17LabelledEdgeTable49prepareStatementToReadEdgesByTargetNodeIdentifierEy,
                            __ZNK5degas17LabelledEdgeTable50prepareStatementToReadEdgesBySourceNodeIdentifiersERKNS_6BitmapE,
                            __ZNK5degas17LabelledEdgeTable50prepareStatementToReadEdgesByTargetNodeIdentifiersERKNS_6BitmapE,
                            __ZNK5degas17LabelledEdgeTable50prepareStatementToReadSourceNodesByEdgeIdentifiersERKNS_6BitmapE,
                            __ZNK5degas17LabelledEdgeTable50prepareStatementToReadTargetNodesByEdgeIdentifiersERKNS_6BitmapE,
                            __ZNK5degas17LabelledEdgeTable51readEdgesBySourceNodeIdentifiersEdgeFilterStatementEv,
                            __ZNK5degas17LabelledEdgeTable51readEdgesByTargetNodeIdentifiersEdgeFilterStatementEv,
                            __ZNK5degas17LabelledEdgeTable56prepareStatementToReadSourceNodesByTargetNodeIdentifiersERKNS_6BitmapE,
                            __ZNK5degas17LabelledEdgeTable56prepareStatementToReadTargetNodesBySourceNodeIdentifiersERKNS_6BitmapE,
                            __ZNK5degas17LabelledEdgeTable57readEdgesByLabelIdentifiersSourceNodeIdentifiersStatementEv,
                            __ZNK5degas17LabelledEdgeTable57readEdgesByLabelIdentifiersTargetNodeIdentifiersStatementEv,
                            __ZNK5degas17LabelledEdgeTable60prepareStatementToReadEdgesBySourceNodeIdentifiersEdgeFilterERKNS_6BitmapES3_,
                            __ZNK5degas17LabelledEdgeTable60prepareStatementToReadEdgesByTargetNodeIdentifiersEdgeFilterERKNS_6BitmapES3_,
                            __ZNK5degas17LabelledEdgeTable63readSourceNodesByLabelIdentifiersTargetNodeIdentifiersStatementEv,
                            __ZNK5degas17LabelledEdgeTable63readTargetNodesByLabelIdentifiersSourceNodeIdentifiersStatementEv,
                            __ZNK5degas17LabelledEdgeTable66prepareStatementToReadEdgesByLabelIdentifiersSourceNodeIdentifiersERKNS_6BitmapES3_,
                            __ZNK5degas17LabelledEdgeTable66prepareStatementToReadEdgesByLabelIdentifiersTargetNodeIdentifiersERKNS_6BitmapES3_,
                            __ZNK5degas17LabelledEdgeTable70readSourceNodesByEdgeIdentifiersTargetNodeIdentifiersJoinBothStatementEv,
                            __ZNK5degas17LabelledEdgeTable70readSourceNodesByEdgeIdentifiersTargetNodeIdentifiersJoinEdgeStatementEv,
                            __ZNK5degas17LabelledEdgeTable70readSourceNodesByEdgeIdentifiersTargetNodeIdentifiersJoinNodeStatementEv,
                            __ZNK5degas17LabelledEdgeTable70readTargetNodesByEdgeIdentifiersSourceNodeIdentifiersJoinBothStatementEv,
                            __ZNK5degas17LabelledEdgeTable70readTargetNodesByEdgeIdentifiersSourceNodeIdentifiersJoinEdgeStatementEv,
                            __ZNK5degas17LabelledEdgeTable70readTargetNodesByEdgeIdentifiersSourceNodeIdentifiersJoinNodeStatementEv,
                            __ZNK5degas17LabelledEdgeTable72prepareStatementToReadSourceNodesByLabelIdentifiersTargetNodeIdentifiersERKNS_6BitmapES3_,
                            __ZNK5degas17LabelledEdgeTable72prepareStatementToReadTargetNodesByLabelIdentifiersSourceNodeIdentifiersERKNS_6BitmapES3_,
                            __ZNK5degas17LabelledEdgeTable72readSourceNodesByEdgeIdentifiersTargetNodeIdentifiersFilterEdgeStatementEv,
                            __ZNK5degas17LabelledEdgeTable72readSourceNodesByEdgeIdentifiersTargetNodeIdentifiersFilterNodeStatementEv,
                            __ZNK5degas17LabelledEdgeTable72readTargetNodesByEdgeIdentifiersSourceNodeIdentifiersFilterEdgeStatementEv,
                            __ZNK5degas17LabelledEdgeTable72readTargetNodesByEdgeIdentifiersSourceNodeIdentifiersFilterNodeStatementEv,
                            __ZNK5degas17LabelledEdgeTable79prepareStatementToReadSourceNodesByEdgeIdentifiersTargetNodeIdentifiersJoinBothERKNS_6BitmapES3_,
                            __ZNK5degas17LabelledEdgeTable79prepareStatementToReadSourceNodesByEdgeIdentifiersTargetNodeIdentifiersJoinEdgeERKNS_6BitmapES3_,
                            __ZNK5degas17LabelledEdgeTable79prepareStatementToReadSourceNodesByEdgeIdentifiersTargetNodeIdentifiersJoinNodeERKNS_6BitmapES3_,
                            __ZNK5degas17LabelledEdgeTable79prepareStatementToReadTargetNodesByEdgeIdentifiersSourceNodeIdentifiersJoinBothERKNS_6BitmapES3_,
                            __ZNK5degas17LabelledEdgeTable79prepareStatementToReadTargetNodesByEdgeIdentifiersSourceNodeIdentifiersJoinEdgeERKNS_6BitmapES3_,
                            __ZNK5degas17LabelledEdgeTable79prepareStatementToReadTargetNodesByEdgeIdentifiersSourceNodeIdentifiersJoinNodeERKNS_6BitmapES3_,
                            __ZNK5degas17LabelledEdgeTable81prepareStatementToReadSourceNodesByEdgeIdentifiersTargetNodeIdentifiersFilterEdgeERKNS_6BitmapES3_,
                            __ZNK5degas17LabelledEdgeTable81prepareStatementToReadSourceNodesByEdgeIdentifiersTargetNodeIdentifiersFilterNodeERKNS_6BitmapES3_,
                            __ZNK5degas17LabelledEdgeTable81prepareStatementToReadTargetNodesByEdgeIdentifiersSourceNodeIdentifiersFilterEdgeERKNS_6BitmapES3_,
                            __ZNK5degas17LabelledEdgeTable81prepareStatementToReadTargetNodesByEdgeIdentifiersSourceNodeIdentifiersFilterNodeERKNS_6BitmapES3_,
                            __ZNK5degas17StepSpecification13hasSomeFilterEv,
                            __ZNK5degas17StepSpecification25appendSourceNodesForEdgesEPNS_8DatabaseERKNS_6BitmapERS3_,
                            __ZNK5degas17StepSpecification25appendTargetNodesForEdgesEPNS_8DatabaseERKNS_6BitmapERS3_,
                            __ZNK5degas17StepSpecification31performStepWithoutPathRecordingEPNS_8DatabaseERKNS_6BitmapERS3_,
                            __ZNK5degas17StepSpecification35performStepWithCountedPathRecordingEPNS_8DatabaseERKNS_21CountedPathCollectionERS3_,
                            __ZNK5degas17StepSpecification37performStepWithUncountedPathRecordingEPNS_8DatabaseERKNS_23UncountedPathCollectionERS3_,
                            __ZNK5degas19AggregateValueTable11createTableEv,
                            __ZNK5degas19AggregateValueTable16readAllStatementEv,
                            __ZNK5degas19AggregateValueTable21readByBitmapStatementEv,
                            __ZNK5degas19AggregateValueTable23readByIntRangeStatementENS_15TernaryOperatorE,
                            __ZNK5degas19AggregateValueTable23readByIntValueStatementENS_14BinaryOperatorE,
                            __ZNK5degas19AggregateValueTable24readByIntValuesStatementENS_14BinaryOperatorE,
                            __ZNK5degas19AggregateValueTable24readByRealRangeStatementENS_15TernaryOperatorE,
                            __ZNK5degas19AggregateValueTable24readByRealValueStatementENS_14BinaryOperatorE,
                            __ZNK5degas19AggregateValueTable25prepareStatementToReadAllEv,
                            __ZNK5degas19AggregateValueTable25readByIdentifierStatementEv,
                            __ZNK5degas19AggregateValueTable25readByRealValuesStatementENS_14BinaryOperatorE,
                            __ZNK5degas19AggregateValueTable26readByStringRangeStatementENS_15TernaryOperatorE,
                            __ZNK5degas19AggregateValueTable26readByStringValueStatementENS_14BinaryOperatorE,
                            __ZNK5degas19AggregateValueTable27readByStringValuesStatementENS_14BinaryOperatorE,
                            __ZNK5degas19AggregateValueTable29prepareStatementToReadByRangeEyRKNSt3__112basic_stringIcNS1_11char_traitsIcEENS1_9allocatorIcEEEES9_NS_15TernaryOperatorE,
                            __ZNK5degas19AggregateValueTable29prepareStatementToReadByRangeEyddNS_15TernaryOperatorE,
                            __ZNK5degas19AggregateValueTable29prepareStatementToReadByRangeEyxxNS_15TernaryOperatorE,
                            __ZNK5degas19AggregateValueTable29prepareStatementToReadByValueEyRKNSt3__112basic_stringIcNS1_11char_traitsIcEENS1_9allocatorIcEEEENS_14BinaryOperatorE,
                            __ZNK5degas19AggregateValueTable29prepareStatementToReadByValueEydNS_14BinaryOperatorE,
                            __ZNK5degas19AggregateValueTable29prepareStatementToReadByValueEyxNS_14BinaryOperatorE,
                            __ZNK5degas19AggregateValueTable30prepareStatementToReadByBitmapERKNS_6BitmapE,
                            __ZNK5degas19AggregateValueTable30prepareStatementToReadByValuesEyPPKciNS_14BinaryOperatorE,
                            __ZNK5degas19AggregateValueTable30prepareStatementToReadByValuesEyPdiNS_14BinaryOperatorE,
                            __ZNK5degas19AggregateValueTable30prepareStatementToReadByValuesEyPxiNS_14BinaryOperatorE,
                            __ZNK5degas19AggregateValueTable31readByAttrIdIdentifierStatementEv,
                            __ZNK5degas19AggregateValueTable34prepareStatementToReadByIdentifierEy,
                            __ZNK5degas19AggregateValueTable34readByIntRangeIdentifiersStatementENS_15TernaryOperatorE,
                            __ZNK5degas19AggregateValueTable34readByIntValueIdentifiersStatementENS_14BinaryOperatorE,
                            __ZNK5degas19AggregateValueTable35readByIntValuesIdentifiersStatementENS_14BinaryOperatorE,
                            __ZNK5degas19AggregateValueTable35readByRealRangeIdentifiersStatementENS_15TernaryOperatorE,
                            __ZNK5degas19AggregateValueTable35readByRealValueIdentifiersStatementENS_14BinaryOperatorE,
                            __ZNK5degas19AggregateValueTable36readByRealValuesIdentifiersStatementENS_14BinaryOperatorE,
                            __ZNK5degas19AggregateValueTable37readByStringRangeIdentifiersStatementENS_15TernaryOperatorE,
                            __ZNK5degas19AggregateValueTable37readByStringValueIdentifiersStatementENS_14BinaryOperatorE,
                            __ZNK5degas19AggregateValueTable38readByStringValuesIdentifiersStatementENS_14BinaryOperatorE,
                            __ZNK5degas19AggregateValueTable40prepareStatementToReadByAttrIdIdentifierEyy,
                            __ZNK5degas19AggregateValueTable40prepareStatementToReadByRangeIdentifiersEyRKNSt3__112basic_stringIcNS1_11char_traitsIcEENS1_9allocatorIcEEEES9_NS_15TernaryOperatorERKNS_6BitmapE,
                            __ZNK5degas19AggregateValueTable40prepareStatementToReadByRangeIdentifiersEyddNS_15TernaryOperatorERKNS_6BitmapE,
                            __ZNK5degas19AggregateValueTable40prepareStatementToReadByRangeIdentifiersEyxxNS_15TernaryOperatorERKNS_6BitmapE,
                            __ZNK5degas19AggregateValueTable40prepareStatementToReadByValueIdentifiersEyRKNSt3__112basic_stringIcNS1_11char_traitsIcEENS1_9allocatorIcEEEENS_14BinaryOperatorERKNS_6BitmapE,
                            __ZNK5degas19AggregateValueTable40prepareStatementToReadByValueIdentifiersEydNS_14BinaryOperatorERKNS_6BitmapE,
                            __ZNK5degas19AggregateValueTable40prepareStatementToReadByValueIdentifiersEyxNS_14BinaryOperatorERKNS_6BitmapE,
                            __ZNK5degas19AggregateValueTable41prepareStatementToReadByValuesIdentifiersEyPPKciNS_14BinaryOperatorERKNS_6BitmapE,
                            __ZNK5degas19AggregateValueTable41prepareStatementToReadByValuesIdentifiersEyPdiNS_14BinaryOperatorERKNS_6BitmapE,
                            __ZNK5degas19AggregateValueTable41prepareStatementToReadByValuesIdentifiersEyPxiNS_14BinaryOperatorERKNS_6BitmapE,
                            __ZNK5degas19AttributeValueTable11createTableEv,
                            __ZNK5degas19AttributeValueTable11deleteEntryEy,
                            __ZNK5degas19AttributeValueTable11deleteValueEyy,
                            __ZNK5degas19AttributeValueTable14insertOrUpdateEyyRKNSt3__112basic_stringIcNS1_11char_traitsIcEENS1_9allocatorIcEEEE,
                            __ZNK5degas19AttributeValueTable14insertOrUpdateEyyd,
                            __ZNK5degas19AttributeValueTable14insertOrUpdateEyyx,
                            __ZNK5degas19AttributeValueTable15deleteStatementEv,
                            __ZNK5degas19AttributeValueTable15upsertStatementEv,
                            __ZNK5degas19AttributeValueTable16readAllStatementEv,
                            __ZNK5degas19AttributeValueTable20deleteValueStatementEv,
                            __ZNK5degas19AttributeValueTable21readByBitmapStatementEv,
                            __ZNK5degas19AttributeValueTable22insertOrUpdateUnsignedEyyy,
                            __ZNK5degas19AttributeValueTable23readByIntRangeStatementENS_15TernaryOperatorE,
                            __ZNK5degas19AttributeValueTable23readByIntValueStatementENS_14BinaryOperatorE,
                            __ZNK5degas19AttributeValueTable24readByIntValuesStatementENS_14BinaryOperatorE,
                            __ZNK5degas19AttributeValueTable24readByRealRangeStatementENS_15TernaryOperatorE,
                            __ZNK5degas19AttributeValueTable24readByRealValueStatementENS_14BinaryOperatorE,
                            __ZNK5degas19AttributeValueTable25prepareStatementToReadAllEv,
                            __ZNK5degas19AttributeValueTable25readByIdentifierStatementEv,
                            __ZNK5degas19AttributeValueTable25readByRealValuesStatementENS_14BinaryOperatorE,
                            __ZNK5degas19AttributeValueTable26readByStringRangeStatementENS_15TernaryOperatorE,
                            __ZNK5degas19AttributeValueTable26readByStringValueStatementENS_14BinaryOperatorE,
                            __ZNK5degas19AttributeValueTable27readByStringValuesStatementENS_14BinaryOperatorE,
                            __ZNK5degas19AttributeValueTable29prepareStatementToReadByRangeEyRKNSt3__112basic_stringIcNS1_11char_traitsIcEENS1_9allocatorIcEEEES9_NS_15TernaryOperatorE,
                            __ZNK5degas19AttributeValueTable29prepareStatementToReadByRangeEyddNS_15TernaryOperatorE,
                            __ZNK5degas19AttributeValueTable29prepareStatementToReadByRangeEyxxNS_15TernaryOperatorE,
                            __ZNK5degas19AttributeValueTable29prepareStatementToReadByValueEyRKNSt3__112basic_stringIcNS1_11char_traitsIcEENS1_9allocatorIcEEEENS_14BinaryOperatorE,
                            __ZNK5degas19AttributeValueTable29prepareStatementToReadByValueEydNS_14BinaryOperatorE,
                            __ZNK5degas19AttributeValueTable29prepareStatementToReadByValueEyxNS_14BinaryOperatorE,
                            __ZNK5degas19AttributeValueTable30prepareStatementToReadByBitmapERKNS_6BitmapE,
                            __ZNK5degas19AttributeValueTable30prepareStatementToReadByValuesEyPPKciNS_14BinaryOperatorE,
                            __ZNK5degas19AttributeValueTable30prepareStatementToReadByValuesEyPdiNS_14BinaryOperatorE,
                            __ZNK5degas19AttributeValueTable30prepareStatementToReadByValuesEyPxiNS_14BinaryOperatorE,
                            __ZNK5degas19AttributeValueTable31readByAttrIdIdentifierStatementEv,
                            __ZNK5degas19AttributeValueTable34prepareStatementToReadByIdentifierEy,
                            __ZNK5degas19AttributeValueTable34readByIntValueIdentifiersStatementENS_14BinaryOperatorE,
                            __ZNK5degas19AttributeValueTable35readByRealValueIdentifiersStatementENS_14BinaryOperatorE,
                            __ZNK5degas19AttributeValueTable37readByStringValueIdentifiersStatementENS_14BinaryOperatorE,
                            __ZNK5degas19AttributeValueTable38readByBitmapAndAttrIdentifierStatementEv,
                            __ZNK5degas19AttributeValueTable40prepareStatementToReadByAttrIdIdentifierEyy,
                            __ZNK5degas19AttributeValueTable40prepareStatementToReadByValueIdentifiersEyRKNSt3__112basic_stringIcNS1_11char_traitsIcEENS1_9allocatorIcEEEENS_14BinaryOperatorERKNS_6BitmapE,
                            __ZNK5degas19AttributeValueTable40prepareStatementToReadByValueIdentifiersEydNS_14BinaryOperatorERKNS_6BitmapE,
                            __ZNK5degas19AttributeValueTable40prepareStatementToReadByValueIdentifiersEyxNS_14BinaryOperatorERKNS_6BitmapE,
                            __ZNK5degas19AttributeValueTable49prepareStatementToReadByBitmapAndAttrIdIdentifierERKNS_6BitmapEy,
                            __ZNK5degas19StatementCacheEntry12getStatementEv,
                            __ZNK5degas19StatementCacheEntry13fadeAttentionEv,
                            __ZNK5degas19StatementCacheEntry13insertInClockEPKS0_,
                            __ZNK5degas19StatementCacheEntry14boostAttentionEv,
                            __ZNK5degas19StatementCacheEntry15removeFromClockEv,
                            __ZNK5degas19TransactionLogTable11createTableEv,
                            __ZNK5degas19TransactionLogTable11deleteEntryEy,
                            __ZNK5degas19TransactionLogTable15deleteStatementEv,
                            __ZNK5degas19TransactionLogTable15insertStatementEv,
                            __ZNK5degas19TransactionLogTable16readAllStatementEv,
                            __ZNK5degas19TransactionLogTable25prepareStatementToReadAllEv,
                            __ZNK5degas19TransactionLogTable25readByIdentifierStatementEv,
                            __ZNK5degas19TransactionLogTable28readAfterIdentifierStatementEv,
                            __ZNK5degas19TransactionLogTable34prepareStatementToReadByIdentifierEy,
                            __ZNK5degas19TransactionLogTable37prepareStatementToReadAfterIdentifierEyj,
                            __ZNK5degas19TransactionLogTable6insertERyRKNS_6BitmapES4_S4_S4_S4_S4_,
                            __ZNK5degas21CountedPathCollection11targetNodesEv,
                            __ZNK5degas21CountedPathCollection26sourcePathsForTargetNodeIdEy,
                            __ZNK5degas21CountedPathCollection8hasPathsEv,
                            __ZNK5degas22AttributeInstanceTable11createTableEv,
                            __ZNK5degas22AttributeInstanceTable11deleteEntryEy,
                            __ZNK5degas22AttributeInstanceTable14insertOrUpdateEyRKNSt3__112basic_stringIcNS1_11char_traitsIcEENS1_9allocatorIcEEEE,
                            __ZNK5degas22AttributeInstanceTable14insertOrUpdateEyd,
                            __ZNK5degas22AttributeInstanceTable14insertOrUpdateEyx,
                            __ZNK5degas22AttributeInstanceTable15deleteStatementEv,
                            __ZNK5degas22AttributeInstanceTable15upsertStatementEv,
                            __ZNK5degas22AttributeInstanceTable16readAllStatementEv,
                            __ZNK5degas22AttributeInstanceTable21readByBitmapStatementEv,
                            __ZNK5degas22AttributeInstanceTable22insertOrUpdateUnsignedEyy,
                            __ZNK5degas22AttributeInstanceTable23readByIntValueStatementEv,
                            __ZNK5degas22AttributeInstanceTable24readByRealValueStatementEv,
                            __ZNK5degas22AttributeInstanceTable25prepareStatementToReadAllEv,
                            __ZNK5degas22AttributeInstanceTable25readByIdentifierStatementEv,
                            __ZNK5degas22AttributeInstanceTable26readByStringValueStatementEv,
                            __ZNK5degas22AttributeInstanceTable29prepareStatementToReadByValueERKNSt3__112basic_stringIcNS1_11char_traitsIcEENS1_9allocatorIcEEEE,
                            __ZNK5degas22AttributeInstanceTable29prepareStatementToReadByValueEd,
                            __ZNK5degas22AttributeInstanceTable29prepareStatementToReadByValueEx,
                            __ZNK5degas22AttributeInstanceTable30prepareStatementToReadByBitmapERKNS_6BitmapE,
                            __ZNK5degas22AttributeInstanceTable34prepareStatementToReadByIdentifierEy,
                            __ZNK5degas22AttributeInstanceTableeqERKS0_,
                            __ZNK5degas23AttributeInstanceCursor11stringValueERNSt3__112basic_stringIcNS1_11char_traitsIcEENS1_9allocatorIcEEEE,
                            __ZNK5degas23AttributeInstanceCursor12integerValueEv,
                            __ZNK5degas23AttributeInstanceCursor9elementIdEv,
                            __ZNK5degas23AttributeInstanceCursor9realValueEv,
                            __ZNK5degas23AttributeInstanceCursor9valueTypeEv,
                            __ZNK5degas23SortAttributeValueTable22readByIntAttrStatementEbb,
                            __ZNK5degas23SortAttributeValueTable23readByRealAttrStatementEbb,
                            __ZNK5degas23SortAttributeValueTable25readByStringAttrStatementEbb,
                            __ZNK5degas23SortAttributeValueTable31prepareStatementToReadByIntAttrEybx,
                            __ZNK5degas23SortAttributeValueTable32prepareStatementToReadByRealAttrEybx,
                            __ZNK5degas23SortAttributeValueTable33readByIntAttrIdentifiersStatementEbb,
                            __ZNK5degas23SortAttributeValueTable34prepareStatementToReadByStringAttrEybx,
                            __ZNK5degas23SortAttributeValueTable34readByRealAttrIdentifiersStatementEbb,
                            __ZNK5degas23SortAttributeValueTable36readByStringAttrIdentifiersStatementEbb,
                            __ZNK5degas23SortAttributeValueTable42prepareStatementToReadByIntAttrIdentifiersEybxRKNS_6BitmapE,
                            __ZNK5degas23SortAttributeValueTable43prepareStatementToReadByRealAttrIdentifiersEybxRKNS_6BitmapE,
                            __ZNK5degas23SortAttributeValueTable45prepareStatementToReadByStringAttrIdentifiersEybxRKNS_6BitmapE,
                            __ZNK5degas23UncountedPathCollection11targetNodesEv,
                            __ZNK5degas23UncountedPathCollection26sourceNodesForTargetNodeIdEy,
                            __ZNK5degas23UncountedPathCollection8hasPathsEv,
                            __ZNK5degas5Table12errorMessageEv,
                            __ZNK5degas5Table16checkTableExistsEv,
                            __ZNK5degas5Table19statementIdentifierEhh,
                            __ZNK5degas5Table8rowCountERy,
                            __ZNK5degas5TableeqERKS0_,
                            __ZNK5degas6Bitmap10bitAtIndexEy,
                            __ZNK5degas6Bitmap10findOffsetEy,
                            __ZNK5degas6Bitmap10findOffsetEyyy,
                            __ZNK5degas6Bitmap11descriptionEv,
                            __ZNK5degas6Bitmap12rangeCompareEyy,
                            __ZNK5degas6Bitmap13useV2EncodingERy,
                            __ZNK5degas6Bitmap16countBitsInRangeEyy,
                            __ZNK5degas6Bitmap19lengthOfEncodedDataEv,
                            __ZNK5degas6Bitmap21appendToEncodedBufferEPPh,
                            __ZNK5degas6Bitmap3endEv, __ZNK5degas6Bitmap5beginEv,
                            __ZNK5degas6Bitmap5countEv,
                            __ZNK5degas6Bitmap5isSetEy,
                            __ZNK5degas6Bitmap7lastBitEv,
                            __ZNK5degas6Bitmap8firstBitEv,
                            __ZNK5degas6Bitmap8getBatchERS0_y,
                            __ZNK5degas6Bitmap8iteratoreqERKS1_,
                            __ZNK5degas6Bitmap8iteratorneERKS1_,
                            __ZNK5degas6BitmapeqERKS0_,
                            __ZNK5degas6Bitset10isSubsetOfERKS0_,
                            __ZNK5degas6Bitset12overlapsWithERKS0_,
                            __ZNK5degas6Bitset12rangeOfBatchEyRyS1_,
                            __ZNK5degas6Bitset13encodedLengthEv,
                            __ZNK5degas6Bitset16countBitsInRangeEyy,
                            __ZNK5degas6Bitset21appendEncodedToBufferEPPh,
                            __ZNK5degas6Bitset7lastBitERy,
                            __ZNK5degas6Bitset7nextBitERyy,
                            __ZNK5degas6Bitset8firstBitERy,
                            __ZNK5degas8Database10isReadOnlyEv,
                            __ZNK5degas8Database12getLabelNameEyRNSt3__112basic_stringIcNS1_11char_traitsIcEENS1_9allocatorIcEEEE,
                            __ZNK5degas8Database15databaseIsEmptyEv,
                            __ZNK5degas8Database22getAttributePropertiesEyRNSt3__112basic_stringIcNS1_11char_traitsIcEENS1_9allocatorIcEEEE,
                            __ZNK5degas8Database9edgeCountEv,
                            __ZNK5degas8Database9nodeCountEv,
                            __ZNK5degas9BitsetPtr6uniqueEv,
                            __ZNK5degas9BitsetPtreqERKS0_,
                            __ZNK5degas9EdgeTable11createTableEv,
                            __ZNK5degas9EdgeTable11deleteEntryEy,
                            __ZNK5degas9EdgeTable15deleteStatementEv,
                            __ZNK5degas9EdgeTable15insertStatementEv,
                            __ZNK5degas9EdgeTable16readAllStatementEv,
                            __ZNK5degas9EdgeTable20readByLabelStatementEv,
                            __ZNK5degas9EdgeTable21readByBitmapStatementEv,
                            __ZNK5degas9EdgeTable24readByAllLabelsStatementEv,
                            __ZNK5degas9EdgeTable24readByAnyLabelsStatementEv,
                            __ZNK5degas9EdgeTable25prepareStatementToReadAllEv,
                            __ZNK5degas9EdgeTable25readByIdentifierStatementEv,
                            __ZNK5degas9EdgeTable29prepareStatementToReadByLabelEy,
                            __ZNK5degas9EdgeTable30prepareStatementToReadByBitmapERKNS_6BitmapE,
                            __ZNK5degas9EdgeTable33prepareStatementToReadByAllLabelsERKNS_6BitmapE,
                            __ZNK5degas9EdgeTable33prepareStatementToReadByAnyLabelsERKNS_6BitmapE,
                            __ZNK5degas9EdgeTable34prepareStatementToReadByIdentifierEy,
                            __ZNK5degas9EdgeTable38readByAllLabelsAndIdentifiersStatementEv,
                            __ZNK5degas9EdgeTable38readByAnyLabelsAndIdentifiersStatementEv,
                            __ZNK5degas9EdgeTable47prepareStatementToReadByAllLabelsAndIdentifiersERKNS_6BitmapES3_,
                            __ZNK5degas9EdgeTable47prepareStatementToReadByAnyLabelsAndIdentifiersERKNS_6BitmapES3_,
                            __ZNK5degas9EdgeTable6insertERyRKNS_6BitmapEyy,
                            __ZNK5degas9NodeTable11createTableEv,
                            __ZNK5degas9NodeTable11deleteEntryEy,
                            __ZNK5degas9NodeTable15deleteStatementEv,
                            __ZNK5degas9NodeTable15insertStatementEv,
                            __ZNK5degas9NodeTable15updateStatementEv,
                            __ZNK5degas9NodeTable16readAllStatementEv,
                            __ZNK5degas9NodeTable20readByLabelStatementEv,
                            __ZNK5degas9NodeTable21readByBitmapStatementEv,
                            __ZNK5degas9NodeTable24readByAllLabelsStatementEv,
                            __ZNK5degas9NodeTable24readByAnyLabelsStatementEv,
                            __ZNK5degas9NodeTable25prepareStatementToReadAllEv,
                            __ZNK5degas9NodeTable25readByIdentifierStatementEv,
                            __ZNK5degas9NodeTable25readWhereNoEdgesStatementEv,
                            __ZNK5degas9NodeTable27readWhereNoInEdgesStatementEv,
                            __ZNK5degas9NodeTable28readWhereNoOutEdgesStatementEv,
                            __ZNK5degas9NodeTable29prepareStatementToReadByLabelEy,
                            __ZNK5degas9NodeTable30prepareStatementToReadByBitmapERKNS_6BitmapE,
                            __ZNK5degas9NodeTable33prepareStatementToReadByAllLabelsERKNS_6BitmapE,
                            __ZNK5degas9NodeTable33prepareStatementToReadByAnyLabelsERKNS_6BitmapE,
                            __ZNK5degas9NodeTable34prepareStatementToReadByIdentifierEy,
                            __ZNK5degas9NodeTable34prepareStatementToReadWhereNoEdgesEv,
                            __ZNK5degas9NodeTable36prepareStatementToReadWhereNoInEdgesEv,
                            __ZNK5degas9NodeTable37prepareStatementToReadWhereNoOutEdgesEv,
                            __ZNK5degas9NodeTable38readByAllLabelsAndIdentifiersStatementEv,
                            __ZNK5degas9NodeTable38readByAnyLabelsAndIdentifiersStatementEv,
                            __ZNK5degas9NodeTable47prepareStatementToReadByAllLabelsAndIdentifiersERKNS_6BitmapES3_,
                            __ZNK5degas9NodeTable47prepareStatementToReadByAnyLabelsAndIdentifiersERKNS_6BitmapES3_,
                            __ZNK5degas9NodeTable6insertERyRKNS_6BitmapE,
                            __ZNK5degas9NodeTable6updateEyPKNS_13LiteralBitmapES3_,
                            __ZNK5degas9NodeTable6updateEyRKNS_6BitmapES3_,
                            __ZNK5degas9Statement19statementIdentifierEv,
                            __ZNK5degas9Statement7isErrorEv,
                            __ZNK5degas9Traversal11targetNodesEv,
                            __ZTIN5degas10EdgeFilterE, __ZTIN5degas10LabelIndexE,
                            __ZTIN5degas10LabelTableE, __ZTIN5degas10NodeFilterE,
                            __ZTIN5degas11NoPredicateE,
                            __ZTIN5degas13EdgeFilter_OrE,
                            __ZTIN5degas13MetadataTableE,
                            __ZTIN5degas13NodeFilter_OrE,
                            __ZTIN5degas14AttributeTableE,
                            __ZTIN5degas14ClientLogTableE,
                            __ZTIN5degas14EdgeFilter_AndE,
                            __ZTIN5degas14NodeFilter_AndE,
                            __ZTIN5degas14UnionPredicateE,
                            __ZTIN5degas16YesEdgePredicateE,
                            __ZTIN5degas16YesNodePredicateE,
                            __ZTIN5degas17EdgeFilter_LabelsE,
                            __ZTIN5degas17LabelledEdgeTableE,
                            __ZTIN5degas17NodeFilter_LabelsE,
                            __ZTIN5degas18IntersectPredicateE,
                            __ZTIN5degas19AggregateValueTableE,
                            __ZTIN5degas19AttributeValueTableE,
                            __ZTIN5degas19LabelIndex_SnapshotE,
                            __ZTIN5degas19TransactionLogTableE,
                            __ZTIN5degas20EdgeFilter_AttributeE,
                            __ZTIN5degas20LabelIndex_ImmediateE,
                            __ZTIN5degas20LabelIndex_PersistedE,
                            __ZTIN5degas20NodeFilter_AttributeE,
                            __ZTIN5degas22AllLabelsEdgePredicateE,
                            __ZTIN5degas22AllLabelsNodePredicateE,
                            __ZTIN5degas22AnyLabelsEdgePredicateE,
                            __ZTIN5degas22AnyLabelsNodePredicateE,
                            __ZTIN5degas22AttributeInstanceTableE,
                            __ZTIN5degas22LabelIndex_TransactionE,
                            __ZTIN5degas23SortAttributeValueTableE,
                            __ZTIN5degas5TableE, __ZTIN5degas9EdgeTableE,
                            __ZTIN5degas9NodeTableE, __ZTSN5degas10EdgeFilterE,
                            __ZTSN5degas10LabelIndexE, __ZTSN5degas10LabelTableE,
                            __ZTSN5degas10NodeFilterE,
                            __ZTSN5degas11NoPredicateE,
                            __ZTSN5degas13EdgeFilter_OrE,
                            __ZTSN5degas13MetadataTableE,
                            __ZTSN5degas13NodeFilter_OrE,
                            __ZTSN5degas14AttributeTableE,
                            __ZTSN5degas14ClientLogTableE,
                            __ZTSN5degas14EdgeFilter_AndE,
                            __ZTSN5degas14NodeFilter_AndE,
                            __ZTSN5degas14UnionPredicateE,
                            __ZTSN5degas16YesEdgePredicateE,
                            __ZTSN5degas16YesNodePredicateE,
                            __ZTSN5degas17EdgeFilter_LabelsE,
                            __ZTSN5degas17LabelledEdgeTableE,
                            __ZTSN5degas17NodeFilter_LabelsE,
                            __ZTSN5degas18IntersectPredicateE,
                            __ZTSN5degas19AggregateValueTableE,
                            __ZTSN5degas19AttributeValueTableE,
                            __ZTSN5degas19LabelIndex_SnapshotE,
                            __ZTSN5degas19TransactionLogTableE,
                            __ZTSN5degas20EdgeFilter_AttributeE,
                            __ZTSN5degas20LabelIndex_ImmediateE,
                            __ZTSN5degas20LabelIndex_PersistedE,
                            __ZTSN5degas20NodeFilter_AttributeE,
                            __ZTSN5degas22AllLabelsEdgePredicateE,
                            __ZTSN5degas22AllLabelsNodePredicateE,
                            __ZTSN5degas22AnyLabelsEdgePredicateE,
                            __ZTSN5degas22AnyLabelsNodePredicateE,
                            __ZTSN5degas22AttributeInstanceTableE,
                            __ZTSN5degas22LabelIndex_TransactionE,
                            __ZTSN5degas23SortAttributeValueTableE,
                            __ZTSN5degas5TableE, __ZTSN5degas9EdgeTableE,
                            __ZTSN5degas9NodeTableE, __ZTVN5degas10EdgeFilterE,
                            __ZTVN5degas10LabelIndexE, __ZTVN5degas10LabelTableE,
                            __ZTVN5degas10NodeFilterE,
                            __ZTVN5degas11NoPredicateE,
                            __ZTVN5degas13EdgeFilter_OrE,
                            __ZTVN5degas13MetadataTableE,
                            __ZTVN5degas13NodeFilter_OrE,
                            __ZTVN5degas14AttributeTableE,
                            __ZTVN5degas14ClientLogTableE,
                            __ZTVN5degas14EdgeFilter_AndE,
                            __ZTVN5degas14NodeFilter_AndE,
                            __ZTVN5degas14UnionPredicateE,
                            __ZTVN5degas16YesEdgePredicateE,
                            __ZTVN5degas16YesNodePredicateE,
                            __ZTVN5degas17EdgeFilter_LabelsE,
                            __ZTVN5degas17LabelledEdgeTableE,
                            __ZTVN5degas17NodeFilter_LabelsE,
                            __ZTVN5degas18IntersectPredicateE,
                            __ZTVN5degas19AggregateValueTableE,
                            __ZTVN5degas19AttributeValueTableE,
                            __ZTVN5degas19LabelIndex_SnapshotE,
                            __ZTVN5degas19TransactionLogTableE,
                            __ZTVN5degas20EdgeFilter_AttributeE,
                            __ZTVN5degas20LabelIndex_ImmediateE,
                            __ZTVN5degas20LabelIndex_PersistedE,
                            __ZTVN5degas20NodeFilter_AttributeE,
                            __ZTVN5degas22AllLabelsEdgePredicateE,
                            __ZTVN5degas22AllLabelsNodePredicateE,
                            __ZTVN5degas22AnyLabelsEdgePredicateE,
                            __ZTVN5degas22AnyLabelsNodePredicateE,
                            __ZTVN5degas22AttributeInstanceTableE,
                            __ZTVN5degas22LabelIndex_TransactionE,
                            __ZTVN5degas23SortAttributeValueTableE,
                            __ZTVN5degas5TableE, __ZTVN5degas9EdgeTableE,
                            __ZTVN5degas9NodeTableE, _edgePrintableSchema,
                            _elementMatchesDefinition,
                            _isElementMatchingDefinition,
                            _kKGDatabaseFileExtension, _kMAElementDefaultDomain,
                            _kMAElementDefaultWeight,
                            _kMAElementDefinitionGenericLabel,
                            _kMAElementIgnoreDomain, _kMAElementInvalidDomain,
                            _kMAElementInvalidIdentifier,
                            _kMAElementWeightPropertyName,
                            _kMAGraphDataExtension, _kMAGraphElementAlreadyInUse,
                            _kMAGraphInvalidGraph, _kMAGraphJSONExtension,
                            _kMAGraphMLExtension, _kgDefaultWeightPropertyName,
                            _kgWaitForProtectedAccess, _kg_errorWithCode,
                            _nodePrintableSchema ]
    objc-classes:         [ KGBinaryPredicate, KGChainRelation, KGDatabase,
                            KGDatabaseNameCache, KGDegasAllInMemoryGraphStore,
                            KGDegasGraphStore, KGDirectedBinaryAdjacency,
                            KGDoublePropertyValue, KGEdgeChangeRequest,
                            KGEdgeCollection, KGEdgeFilter, KGElementCollection,
                            KGElementFilter, KGElementIdentifierSet, KGErrorMarker,
                            KGGraph, KGGraphChange, KGGraphChangeRequest,
                            KGGraphLockFile, KGGraphManager, KGGraphManagerRecord,
                            KGGraphPath, KGGraphUniverse, KGInt64PropertyValue,
                            KGLabelBasedEntityFactory, KGMemoryEdge,
                            KGMemoryGraphStore, KGMemoryNode,
                            KGMutableDirectedBinaryAdjacency,
                            KGMutableElementIdentifierSet, KGMutableGraph,
                            KGMutablePropertyValueArray, KGNeighborRelation,
                            KGNodeChangeRequest, KGNodeCollection, KGNodeFilter,
                            KGNodeFilterRelation, KGPropertyValue,
                            KGPropertyValueArray, KGRangePredicate, KGSetWrapper,
                            KGSnapshotEdge, KGSnapshotNode, KGStoredGraph,
                            KGStringPropertyValue, KGTransactionToken,
                            KGUInt64PropertyValue, KnowledgeGraphTestEnvironment,
                            MAAbstractEdge, MAAbstractGraph, MAAbstractNode,
                            MABaseGraph, MABinaryAdjacency, MAChainRelation,
                            MAChildProgressReporter, MAConcreteEdge,
                            MAConcreteNode, MADataFrame, MAEdge, MAEdgeCollection,
                            MAEdgeFilter, MAElementCollection, MAElementFilter,
                            MAError, MAExcludeSourceRelation, MAFeatureExtractor,
                            MAFlattenFeatureExtractor, MAFloatMatrix,
                            MAFloatVector, MAGraph, MAGraphChangeRequest,
                            MAGraphReference, MAGraphSpecification,
                            MAIgnoreProgressReporter, MAIndexCache,
                            MAKGDomainConversion, MAKGEntityFactory, MAKGTestGraph,
                            MAKGWeightConversion, MALearningStreamResult,
                            MALearningStreamUtils, MALegacyProgressReporter,
                            MALogging, MAMemoryFootprint, MAMemoryUtilities,
                            MAMultiStepRelation, MAMutableFloatMatrix,
                            MAMutableFloatVector, MANeighborRelation, MANode,
                            MANodeCollection, MANodeFilter, MANodeFilterRelation,
                            MANodeKGImplementation, MANodeLegacyImplementation,
                            MAOptionalStepRelation, MAParallelProgress,
                            MAParallelProgressReporter, MAPath, MAPaths,
                            MAProgressReporter, MAProgressReporterSplitter,
                            MARelation, MARelationCollectionFeatureExtractor,
                            MARootProgressReporter, MASeries,
                            MAStatisticsElapsedTime, MASubGraph,
                            MATransitiveClosureRelation,
                            MATransitiveNeighborRelation, MAUnionRelation,
                            _TtC17KnowledgeGraphKit20MAFloatMatrixWrapper,
                            _TtC17KnowledgeGraphKit20MAFloatVectorWrapper,
                            _TtC17KnowledgeGraphKit27MAMutableFloatMatrixWrapper,
                            _TtC17KnowledgeGraphKit27MAMutableFloatVectorWrapper,
                            _TtC17KnowledgeGraphKit28MAWrapperLearningStreamUtils,
                            _TtC17KnowledgeGraphKit29MAWrapperLearningStreamResult,
                            _TtC17KnowledgeGraphKit32KGWrapperDirectedBinaryAdjacency,
                            _TtC17KnowledgeGraphKit39KGWrapperMutableDirectedBinaryAdjacency ]
    objc-ivars:           [ KGBinaryPredicate._comparator,
                            KGBinaryPredicate._value, KGChainRelation._relations,
                            KGDatabase._database, KGDatabase._databaseStatus,
                            KGDatabase._lockFile, KGDatabase._nameCache,
                            KGDatabase._url,
                            KGDatabaseNameCache._attrIdByPropertyName,
                            KGDatabaseNameCache._highestAttrId,
                            KGDatabaseNameCache._highestLabelId,
                            KGDatabaseNameCache._labelIdByName,
                            KGDatabaseNameCache._labelNameById,
                            KGDatabaseNameCache._loaded,
                            KGDatabaseNameCache._loadedInThisTransaction,
                            KGDatabaseNameCache._lock,
                            KGDatabaseNameCache._propertyNameByAttrId,
                            KGDatabaseNameCache._readOnly,
                            KGDatabaseNameCache._useCount,
                            KGDegasAllInMemoryGraphStore._database,
                            KGDegasAllInMemoryGraphStore._transactionCounter,
                            KGDegasAllInMemoryGraphStore._url,
                            KGDegasGraphStore._database,
                            KGDegasGraphStore._isReadOnly,
                            KGDegasGraphStore._lock,
                            KGDegasGraphStore._transactionCounter,
                            KGDegasGraphStore._url,
                            KGDirectedBinaryAdjacency._underlyingObject,
                            KGDoublePropertyValue._value,
                            KGEdgeChangeRequest._edge,
                            KGEdgeChangeRequest._properties,
                            KGElementCollection._graph,
                            KGElementCollection._identifiers,
                            KGElementFilter._includeTombstones,
                            KGElementFilter._optionalLabels,
                            KGElementFilter._properties,
                            KGElementFilter._requiredLabels,
                            KGElementIdentifierSet._bitmap,
                            KGErrorMarker._fileURL, KGGraph._entityFactory,
                            KGGraph._implementation, KGGraphChange._edgesDeleted,
                            KGGraphChange._edgesInserted,
                            KGGraphChange._edgesUpdated,
                            KGGraphChange._nodesDeleted,
                            KGGraphChange._nodesInserted,
                            KGGraphChange._nodesUpdated,
                            KGGraphChange._transactionToken,
                            KGGraphChangeRequest._edgeIdentifiersToRemove,
                            KGGraphChangeRequest._edgeUpdates,
                            KGGraphChangeRequest._edgesToInsert,
                            KGGraphChangeRequest._nodeIdentifiersToRemove,
                            KGGraphChangeRequest._nodeUpdates,
                            KGGraphChangeRequest._nodesToInsert,
                            KGGraphLockFile._fd, KGGraphLockFile._fileURL,
                            KGGraphLockFile._locked, KGGraphManager._closed,
                            KGGraphManager._entityFactory,
                            KGGraphManager._executionQueue, KGGraphManager._lock,
                            KGGraphManager._readFeederQueue,
                            KGGraphManager._readFeeding,
                            KGGraphManager._readOnlyStores,
                            KGGraphManager._readRunningCount,
                            KGGraphManager._readStoreBooking,
                            KGGraphManager._readWriteStore, KGGraphManager._url,
                            KGGraphManager._writeFeederQueue,
                            KGGraphManagerRecord._graphManager,
                            KGGraphManagerRecord._useCount,
                            KGGraphPath._numberOfPaths,
                            KGGraphPath._sourceNodeIdentifier,
                            KGGraphPath._targetNodeIdentifier,
                            KGGraphUniverse._graphManagerByURL,
                            KGGraphUniverse._lock, KGInt64PropertyValue._value,
                            KGLabelBasedEntityFactory._classByEdgeLabels,
                            KGLabelBasedEntityFactory._classByNodeLabels,
                            KGLabelBasedEntityFactory._defaultEdgeClass,
                            KGLabelBasedEntityFactory._defaultNodeClass,
                            KGMemoryEdge._identifier, KGMemoryEdge._labels,
                            KGMemoryEdge._properties, KGMemoryEdge._sourceNode,
                            KGMemoryEdge._targetNode,
                            KGMemoryGraphStore._edgeIdentifiersByLabel,
                            KGMemoryGraphStore._edgeIdentifiersBySourceNodeIdentifier,
                            KGMemoryGraphStore._edgeIdentifiersByTargetNodeIdentifier,
                            KGMemoryGraphStore._graphIdentifier,
                            KGMemoryGraphStore._graphVersion,
                            KGMemoryGraphStore._lock,
                            KGMemoryGraphStore._memoryEdgeByIdentifier,
                            KGMemoryGraphStore._memoryNodeByIdentifier,
                            KGMemoryGraphStore._nextEdgeIdentifier,
                            KGMemoryGraphStore._nextNodeIdentifier,
                            KGMemoryGraphStore._nodeIdentifiersByLabel,
                            KGMemoryGraphStore._url, KGMemoryNode._identifier,
                            KGMemoryNode._labels, KGMemoryNode._properties,
                            KGMutableGraph._transactionQueue,
                            KGNeighborRelation._edgeDirection,
                            KGNeighborRelation._edgeFilter,
                            KGNodeChangeRequest._node,
                            KGNodeChangeRequest._properties,
                            KGNodeFilter._whereNoInAndOutEdges,
                            KGNodeFilter._whereNoInEdges,
                            KGNodeFilter._whereNoOutEdges,
                            KGNodeFilterRelation._nodeFilter,
                            KGPropertyValueArray._elementIdentifiers,
                            KGPropertyValueArray._values,
                            KGRangePredicate._comparator,
                            KGRangePredicate._value1, KGRangePredicate._value2,
                            KGSetWrapper._set, KGSnapshotEdge._identifier,
                            KGSnapshotEdge._labels, KGSnapshotEdge._properties,
                            KGSnapshotEdge._sourceNode,
                            KGSnapshotEdge._targetNode,
                            KGSnapshotNode._identifier, KGSnapshotNode._labels,
                            KGSnapshotNode._properties,
                            KGStringPropertyValue._value,
                            KGTransactionToken._stringRepresentation,
                            KGTransactionToken._transactionSequenceNumber,
                            KGUInt64PropertyValue._value,
                            KnowledgeGraphTestEnvironment._graph,
                            MAAbstractEdge._isDirected, MAAbstractEdge._maximum,
                            MAAbstractEdge._minimum,
                            MAAbstractEdge._sourceAbstractNode,
                            MAAbstractEdge._targetAbstractNode,
                            MAAbstractGraph._edges, MAAbstractGraph._nodes,
                            MABaseGraph._specification,
                            MABinaryAdjacency._adjacency,
                            MABinaryAdjacency._graphReference,
                            MABinaryAdjacency._sourcesClass,
                            MABinaryAdjacency._targetsClass,
                            MAChainRelation._steps,
                            MAChildProgressReporter._offset,
                            MAChildProgressReporter._parentProgress,
                            MAChildProgressReporter._scale,
                            MAConcreteEdge._domain, MAConcreteEdge._label,
                            MAConcreteEdge._properties, MAConcreteEdge._weight,
                            MAConcreteNode._domain, MAConcreteNode._label,
                            MAConcreteNode._properties, MAConcreteNode._weight,
                            MADataFrame._columnIndexCache, MADataFrame._matrix,
                            MADataFrame._name, MADataFrame._rowIndexCache,
                            MAEdge._graphReference, MAEdge._identifier,
                            MAEdge._sourceNode, MAEdge._targetNode,
                            MAElementCollection._elementIdentifiers,
                            MAElementCollection._graphReference,
                            MAElementFilter._domains, MAElementFilter._labels,
                            MAElementFilter._properties,
                            MAExcludeSourceRelation._base,
                            MAFlattenFeatureExtractor._featureExtractors,
                            MAFlattenFeatureExtractor._featureNames,
                            MAFlattenFeatureExtractor._name,
                            MAFloatMatrix._wrapper, MAFloatVector._wrapper,
                            MAGraph._databaseStatus, MAGraph._domainByLabel,
                            MAGraph._graph, MAGraph._labelByDomain,
                            MAGraph._labelMapLock,
                            MAGraphChangeRequest._edgeIdentifiersToRemove,
                            MAGraphChangeRequest._edgesToInsert,
                            MAGraphChangeRequest._nodeIdentifiersToRemove,
                            MAGraphChangeRequest._nodesToInsert,
                            MAGraphReference._concreteGraph,
                            MAGraphReference._hash,
                            MAGraphSpecification._defaultEdgeClass,
                            MAGraphSpecification._defaultNodeClass,
                            MAGraphSpecification._persistenceOptions,
                            MAGraphSpecification._rootGraphReference,
                            MAIndexCache._cache, MAIndexCache._labels,
                            MAKGEntityFactory._specification,
                            MALearningStreamResult._underlyingObject,
                            MALearningStreamUtils._underlyingObject,
                            MALegacyProgressReporter._isCancelled,
                            MALegacyProgressReporter._lastProgressCallTime,
                            MALegacyProgressReporter._progressBlock,
                            MALogging._loggingConnection,
                            MAMemoryFootprint._allEdgesSize,
                            MAMemoryFootprint._allKeys,
                            MAMemoryFootprint._allNodesSize,
                            MAMemoryFootprint._allValues,
                            MAMemoryFootprint._arrayCount,
                            MAMemoryFootprint._basicHashCount,
                            MAMemoryFootprint._basicHashValueStoreCount,
                            MAMemoryFootprint._countOfNodesWithAtMostEightEdges,
                            MAMemoryFootprint._dictionaryCount,
                            MAMemoryFootprint._edgeCount,
                            MAMemoryFootprint._graph,
                            MAMemoryFootprint._graphSize,
                            MAMemoryFootprint._halfEdgeCount,
                            MAMemoryFootprint._maximumEdgeCountInNode,
                            MAMemoryFootprint._nodeCount,
                            MAMemoryFootprint._orderedSetCount,
                            MAMultiStepRelation._base,
                            MAMultiStepRelation._maxNumberOfSteps,
                            MAMultiStepRelation._minNumberOfSteps,
                            MANeighborRelation._edgeFilter,
                            MANeighborRelation._edgeType, MANode._graphReference,
                            MANode._identifier, MANode._implementation,
                            MANodeFilter._whereNoInAndOutEdges,
                            MANodeFilter._whereNoInEdges,
                            MANodeFilter._whereNoOutEdges,
                            MANodeFilterRelation._nodeFilter,
                            MANodeKGImplementation._node,
                            MANodeLegacyImplementation._edges,
                            MANodeLegacyImplementation._node,
                            MAOptionalStepRelation._base,
                            MAParallelProgress._lock,
                            MAParallelProgress._progressReporter,
                            MAParallelProgress._progressValues,
                            MAParallelProgressReporter._index,
                            MAParallelProgressReporter._parallelProgress,
                            MAPath._edges, MAPath._nodes, MAPaths._paths,
                            MAProgressReporterSplitter._previousCheckpoint,
                            MAProgressReporterSplitter._progressReporter,
                            MARelationCollectionFeatureExtractor._featureNameIndexCache,
                            MARelationCollectionFeatureExtractor._labelForEmptyRelation,
                            MARelationCollectionFeatureExtractor._labelForTargetBlock,
                            MARelationCollectionFeatureExtractor._name,
                            MARelationCollectionFeatureExtractor._relation,
                            MARootProgressReporter._isCancelled,
                            MARootProgressReporter._lastProgressCallTime,
                            MARootProgressReporter._progress,
                            MARootProgressReporter._progressBlock,
                            MASeries._indexCache, MASeries._name, MASeries._vector,
                            MAStatisticsElapsedTime._elapsedCounter,
                            MAStatisticsElapsedTime._elapsedStart,
                            MAStatisticsElapsedTime._elapsedTime,
                            MAStatisticsElapsedTime._lastBeginTransactionTime,
                            MAStatisticsElapsedTime._lastEndTransactionTime,
                            MASubGraph._edgesByIdentifier,
                            MASubGraph._edgesByLabel, MASubGraph._edgesByName,
                            MASubGraph._graph, MASubGraph._nodesByIdentifier,
                            MASubGraph._nodesByLabel, MASubGraph._nodesByName,
                            MASubGraph._nodesByNameGroupByNodes,
                            MATransitiveClosureRelation._base,
                            MAUnionRelation._relations ]
...
