--- !tapi-tbd-v3
archs:                 [ armv7, armv7s, arm64, arm64e ]
platform:              ios
flags:                 [ flat_namespace ]
install-name:          /System/Library/Extensions/AppleMultitouchSPI.kext/PlugIns/MultitouchHID.plugin/MultitouchHID
current-version:       0
compatibility-version: 0
objc-constraint:       retain_release
exports:
  - archs:                [ armv7, armv7s, arm64, arm64e ]
    symbols:              [ _AWDMultitouchBootEventReadFrom,
                            _AWDMultitouchHardwareStatusReadFrom,
                            _IOHIDPlugInFactory, _MTAppendAbsoluteMouseEvent,
                            _MTAppendBoundaryScrollEvent,
                            _MTAppendChordMotionCodeToCollectionEvent,
                            _MTAppendFluidSwipeEvent, _MTAppendForceGestureEvent,
                            _MTAppendGestureEndedToCollectionEvent,
                            _MTAppendGestureStartedToCollectionEvent,
                            _MTAppendKeyboardEvent, _MTAppendKeystrokeEvent,
                            _MTAppendModifierKeyEvent,
                            _MTAppendMomentumEnableEvent,
                            _MTAppendMouseButtonEvent, _MTAppendOrientationEvent,
                            _MTAppendOrientationEventWithTranslation,
                            _MTAppendRelativeMouseEvent, _MTAppendScrollEvent,
                            _MTAppendShowDefinitionEvent, _MTAppendSwipeEvent,
                            _MTAppendTranslationEvent, _MTAppendVelocityEvent,
                            _MTAppendZoomRotateTranslateEvent,
                            _MTAppendZoomToggleEvent, _MTForceConfigCreate,
                            _MTForceConfigGetActuationsForStage,
                            _MTForceConfigGetBehavior,
                            _MTForceConfigGetNumStages,
                            _MTForceConfigGetThresholdsForStage,
                            _MTForceConfigGetTypeID, _MTForceConfigIsContinuous,
                            _MTForceConfigSetActuationsForStage,
                            _MTForceConfigSetIsContinuous,
                            _MTForceConfigShouldSkipActivationForStage,
                            _MTForceConfigShouldSkipReleaseForStage,
                            _MTHIDGetFullScalePixelDistance, _MTLoggingPlugin,
                            _MultitouchHIDVersionNumber,
                            _MultitouchHIDVersionString,
                            __MTForceConfigGenerateDefaultParams,
                            __Z21invertRadiusSmoothingfff,
                            __Z30mthid_CFDictionaryGetBoolValuePK14__CFDictionaryPK10__CFString,
                            __Z31MTPreferencesGetAppBooleanValuePK10__CFStringS1_Ph,
                            __Z31MTPreferencesGetAppIntegerValuePK10__CFStringS1_Ph,
                            __Z31mthid_CFGetBoolValueWithDefaultPKvb,
                            __Z33mthid_CFGetUInt32ValueWithDefaultPKvj,
                            __Z34createVendorDefinedTouchFrameEventPhi,
                            __Z34mthid_CFDictionaryGetInt32PropertyPK14__CFDictionaryPK10__CFString,
                            __Z37mthm_ComputeFingerEllipseTipOffset_mmRK29MTHMFingerTipOffsetParametersRK19MTSurfaceDimensionsRK9MTContactS7_,
                            __Z41mthid_CFDictionaryGetBoolValueWithDefaultPK14__CFDictionaryPK10__CFStringb,
                            __Z45mthid_CFDictionaryGetInt32PropertyWithDefaultPK14__CFDictionaryPK10__CFStringj,
                            __Z49mthm_ComputeFingerEllipseTipOffsetFromPressure_mmRK29MTHMFingerTipOffsetParametersRK19MTSurfaceDimensionsRK9MTContactS7_,
                            __ZN11MTSLGLogger12createLoggerEv,
                            __ZN11MTSLGLogger12isSLGEnabledEv,
                            __ZN11MTSLGLogger21createImageDictionaryEPsP17MTImageDescriptor,
                            __ZN11MTSLGLogger21createPathsDescriptorEP9MTContactj,
                            __ZN11MTSLGLogger7prepareEv,
                            __ZN11MTSLGLogger8logPathsEP9MTContactj,
                            __ZN11MTSLGLogger9logImagesEPsP17MTImageDescriptor,
                            __ZN11MTSLGLogger9logStringEPK10__CFString,
                            __ZN11MTSLGLoggerC1Ev, __ZN11MTSLGLoggerC2Ev,
                            __ZN11MTSLGLoggerD1Ev, __ZN11MTSLGLoggerD2Ev,
                            __ZN12MTChordTable17findMatchingChordEjb,
                            __ZN12MTChordTable18copyChordIntoTableER17MTChordGestureSet,
                            __ZN12MTChordTable20getChordVectForComboEj,
                            __ZN12MTChordTable21clearAllChordsInTableEv,
                            __ZN12MTChordTable22clearChordCyclingStateEv,
                            __ZN12MTChordTable22getFingerMaskForLookupER16MTHandStatistics,
                            __ZN12MTChordTable24finger_continuityINchordE,
                            __ZN12MTChordTable25areChordFingersContiguousEi,
                            __ZN12MTChordTable27fingerComboToChordSpecifierEj,
                            __ZN12MTChordTable29hasTwoFingerOrientationEventsEv,
                            __ZN12MTChordTable30getMinThumbSpecificFingerCountEv,
                            __ZN12MTChordTableC1E14MTHandIdentityPc,
                            __ZN12MTChordTableC2E14MTHandIdentityPc,
                            __ZN12MTChordTableD0Ev, __ZN12MTChordTableD1Ev,
                            __ZN12MTChordTableD2Ev,
                            __ZN12MTHandMotion15clearHandMotionEb,
                            __ZN12MTHandMotion17extractHandMotionERK12MTPathStatesRK12MTParserPathS5_b,
                            __ZN12MTHandMotion17processHandMotionERK12MTPathStatesiiifit,
                            __ZN12MTHandMotion20computeSeparation_mmERK9MTContactS2_,
                            __ZN12MTHandMotion20printExtractedMotionEiiP9MTContact,
                            __ZN12MTHandMotion21scalingFromDotProductE7MTPointS0_S0_,
                            __ZN12MTHandMotion22computeSpeedSymmetriesERK12MTPathStatest,
                            __ZN12MTHandMotion22storeFeedbackFromMouseE7MTPoint,
                            __ZN12MTHandMotion23computeSeparationVectorERK9MTContactS2_,
                            __ZN12MTHandMotion23makeCollectionEventMaskERK12MTPathStates,
                            __ZN12MTHandMotion23storeFeedbackFromButtonEf,
                            __ZN12MTHandMotion24clipMotionToDominantAxesEdi,
                            __ZN12MTHandMotion24updateFastestFingerSpeedERK12MTPathStates,
                            __ZN12MTHandMotion25convertPixelDeltasTo_mm_sEd,
                            __ZN12MTHandMotion25rotationFromVectorProductE7MTPointS0_S0_,
                            __ZN12MTHandMotion28computeMouseDominanceWeightsERfS0_,
                            __ZN12MTHandMotion29convertPixelVelocitiesTo_mm_sEv,
                            __ZN12MTHandMotion30computeInnerOuterSpeedSymmetryERK12MTParserPathS2_,
                            __ZN12MTHandMotion31combineCentralFingerScaleRotateERK12MTPathStatesRK12MTParserPath,
                            __ZN12MTHandMotion31computeTrackpadDominanceWeightsERfS0_,
                            __ZN12MTHandMotion31extractFastestFingerTranslationERK12MTPathStates,
                            __ZN12MTHandMotion40computeThreeFingerWithThumbSpeedSymmetryERK12MTPathStates,
                            __ZN12MTHandMotion5clearEv,
                            __ZN12MTHandMotionC1ERK19MTSurfaceDimensions12MTParserType15MTParserOptions14MTHandIdentityPKc,
                            __ZN12MTHandMotionC2ERK19MTSurfaceDimensions12MTParserType15MTParserOptions14MTHandIdentityPKc,
                            __ZN12MTHandMotionD0Ev, __ZN12MTHandMotionD1Ev,
                            __ZN12MTHandMotionD2Ev,
                            __ZN12MTParserPath14flushLiftoffAtEd,
                            __ZN12MTParserPath15clearTimestampsER21MTPathStageTimestamps,
                            __ZN12MTParserPath18measureInstabilityERK12MTPathStatesRK22MTPathFilterParametersPf,
                            __ZN12MTParserPath19updateZonesAndEdgesEdRK19MTSurfaceDimensionsRK21MTTouchZoneParameters,
                            __ZN12MTParserPath20updateDampedVelocityERK12MTPathStatesRK22MTPathFilterParametersf,
                            __ZN12MTParserPath20weakenDampedVelocityEf,
                            __ZN12MTParserPath21isStuckOnDivingRegionERK12MTPathStates,
                            __ZN12MTParserPath22setPathSpeedSymmetriesEff,
                            __ZN12MTParserPath24clearPathSpeedSymmetriesEv,
                            __ZN12MTParserPath24computeZonesAndEdgesMaskE7MTPointS0_RK21MTTouchZoneParameters,
                            __ZN12MTParserPath24correctAndQuantizeRadiusERK22MTPathFilterParameters,
                            __ZN12MTParserPath24filterContactForScreenUIERK12MTPathStatesRK19MTSurfaceDimensionsRK22MTPathFilterParametersRK29MTHMFingerTipOffsetParameters,
                            __ZN12MTParserPath25computeZSignalInstabilityERK12MTPathStatesRK22MTPathFilterParametersbd,
                            __ZN12MTParserPath25updateCurPrevContactsWithER9MTContactdRK19MTSurfaceDimensionsRK21MTTouchZoneParameters,
                            __ZN12MTParserPath25updatePathStageTimestampsEd,
                            __ZN12MTParserPath26detectSustainedHoverAtEdgeERK22MTPathFilterParametersRK19MTSurfaceDimensions,
                            __ZN12MTParserPath28constructPathChangeEventMaskEv,
                            __ZN12MTParserPath29updateAngularHysteresisCenterEPfff,
                            __ZN12MTParserPath29updateHysteresisDragCenter_mmE22MTPathFilterParameters,
                            __ZN12MTParserPath30computeDebounceTimeInstabilityERK22MTPathFilterParametersd,
                            __ZN12MTParserPath33rejectRestingThumbFromRestingHandEv,
                            __ZN12MTParserPath36computeDivingButtonChangeInstabilityERK12MTPathStatesRK22MTPathFilterParameters,
                            __ZN12MTParserPath45pullHysteresisCenterCancelingEllipseTipMotionERK29MTHMFingerTipOffsetParameters7MTPointRS3_S3_S3_19MTSurfaceDimensions,
                            __ZN12MTParserPath47pullHysteresisCenterHidingUnstablePixelDeltasXYERK22MTPathFilterParameters7MTPointRS3_ff,
                            __ZN12MTParserPath57pullHysteresisCenterCancelingEllipseTipMotionFromPressureERK29MTHMFingerTipOffsetParameters7MTPointRS3_S3_S3_19MTSurfaceDimensions,
                            __ZN12MTParserPath5clearEv,
                            __ZN12MTParserPathC1E12MTParserType15MTParserOptionsP11MTSLGLogger,
                            __ZN12MTParserPathC2E12MTParserType15MTParserOptionsP11MTSLGLogger,
                            __ZN12MTParserPathD0Ev, __ZN12MTParserPathD1Ev,
                            __ZN12MTParserPathD2Ev,
                            __ZN12MTPathStates15getCosineThetasENSt3__16vectorI7MTPointNS0_9allocatorIS2_EEEE,
                            __ZN12MTPathStates16initializeParamsEv,
                            __ZN12MTPathStates19tasksPreContactCopyEP9MTContacti,
                            __ZN12MTPathStates20checkForRestingThumbEv,
                            __ZN12MTPathStates20setDivingButtonStateEb,
                            __ZN12MTPathStates22checkForFingersInZonesEv,
                            __ZN12MTPathStates23isContactOnDivingButtonERK9MTContactd,
                            __ZN12MTPathStates23updateSurfaceDimensionsEv,
                            __ZN12MTPathStates26countFingersOnDivingButtonEv,
                            __ZN12MTPathStates26tasksPrePixelatedPositionsEv,
                            __ZN12MTPathStates26updateDragDisplacements_mmEb,
                            __ZN12MTPathStates27tasksPostPixelatedPositionsEv,
                            __ZN12MTPathStates29fixupCurledUnderThumbIdentityEv,
                            __ZN12MTPathStates30compute_2F_path_speed_symmetryENSt3__16vectorIfNS0_9allocatorIfEEEES4_f,
                            __ZN12MTPathStates30compute_3F_path_speed_symmetryENSt3__16vectorIfNS0_9allocatorIfEEEES4_f,
                            __ZN12MTPathStates30updateDivingBoardDisplacementsEv,
                            __ZN12MTPathStates31tasksFilterAndPixelatePositionsEP9MTContacti,
                            __ZN12MTPathStates31updateResolutionDependentParamsEv,
                            __ZN12MTPathStates31updateSpeedSymmetriesOfAllPathsEv,
                            __ZN12MTPathStates32forwardFirmwareDistributedForcesEf,
                            __ZN12MTPathStates34setRestingThumbFromPalmRestingHandEi,
                            __ZN12MTPathStates34updateHRTDiscountedDisplacement_mmEv,
                            __ZN12MTPathStates35computePathAndFingerSpeedSymmetriesEi,
                            __ZN12MTPathStates37breakOutOfRestingThumbBasedOnSymmetryEv,
                            __ZN12MTPathStates37kALGHighRestingThumb_DistanceDiscountE,
                            __ZN12MTPathStates39checkForRestingThumbFromPalmRestingHandEv,
                            __ZN12MTPathStates44kALGRestingThumbFingerSpeedSymmetryThresholdE,
                            __ZN12MTPathStates45kALGHighRestingThumbRelease_DistanceThresholdE,
                            __ZN12MTPathStates52breakOutOfRestingThumbForLargeDiscountedDisplacementEv,
                            __ZN12MTPathStates5clearEv,
                            __ZN12MTPathStatesC1ERK19MTSurfaceDimensions12MTParserType15MTParserOptionsbj,
                            __ZN12MTPathStatesC2ERK19MTSurfaceDimensions12MTParserType15MTParserOptionsbj,
                            __ZN12MTPathStatesD0Ev, __ZN12MTPathStatesD1Ev,
                            __ZN12MTPathStatesD2Ev, __ZN13MTActionEventC1ERKS_,
                            __ZN13MTActionEventC1Etjt, __ZN13MTActionEventC1Ev,
                            __ZN13MTActionEventC2ERKS_,
                            __ZN13MTActionEventC2Etjt, __ZN13MTActionEventC2Ev,
                            __ZN13MTActionEventaSERKS_,
                            __ZN13MTForceFilter13sigmoidSquareEff,
                            __ZN13MTForceFilter15sigmoidOneSidedEfff,
                            __ZN13MTForceFilter16geometricSigmoidEf,
                            __ZN13MTForceFilter17resetSliderFilterEv,
                            __ZN13MTForceFilter17updateForceFilterEffdRK23MTForceFilterParametersi,
                            __ZN13MTForceFilter18updateSliderFilterEff,
                            __ZN13MTForceFilter21updateHystereticForceEfRK23MTForceFilterParameters,
                            __ZN13MTForceFilter5clearEv,
                            __ZN13MTForceFilter7sigmoidEf,
                            __ZN13MTForceFilterC1Ev, __ZN13MTForceFilterC2Ev,
                            __ZN13MTForceFilterD0Ev, __ZN13MTForceFilterD1Ev,
                            __ZN13MTForceFilterD2Ev,
                            __ZN13MTPowerLogger12transitionToE18MTPowerLoggerState,
                            __ZN13MTPowerLogger19transitionToDelayedE18MTPowerLoggerStatex,
                            __ZN13MTPowerLogger23scheduleOnDispatchQueueEP16dispatch_queue_s,
                            __ZN13MTPowerLogger27unscheduleFromDispatchQueueEP16dispatch_queue_s,
                            __ZN13MTPowerLogger8logPowerEv,
                            __ZN13MTPowerLogger8logStateEv,
                            __ZN13MTPowerLoggerC1EPKc, __ZN13MTPowerLoggerC2EPKc,
                            __ZN13MTPowerLoggerD0Ev, __ZN13MTPowerLoggerD1Ev,
                            __ZN13MTPowerLoggerD2Ev,
                            __ZN14MTChordCycling14selectTapChordERK16MTHandStatisticsRK12MTHandMotionP17MTChordGestureSet,
                            __ZN14MTChordCycling15chk4newTapChordER16MTHandStatisticsRK12MTHandMotionP17MTChordGestureSet,
                            __ZN14MTChordCycling15handleChordTapsERK16MTHandStatisticsRK12MTHandMotionP12__IOHIDEventbb,
                            __ZN14MTChordCycling16chk4chordCyclingER16MTHandStatisticsRK12MTHandMotionP12__IOHIDEvent,
                            __ZN14MTChordCycling16processDoubleTapERK16MTHandStatisticsRK15MT2DPlaneMotionP12__IOHIDEvent,
                            __ZN14MTChordCycling16selectSlideChordERK16MTHandStatisticsRK12MTHandMotionP12__IOHIDEventP17MTChordGestureSet,
                            __ZN14MTChordCycling17shouldBlockClicksERK16MTHandStatisticsRK12MTHandMotion,
                            __ZN14MTChordCycling18handleChordLiftoffER16MTHandStatisticsRK12MTHandMotionP12__IOHIDEvent,
                            __ZN14MTChordCycling19chk4excessTapMotionERK16MTHandStatisticsRK12MTHandMotion,
                            __ZN14MTChordCycling21hasTriggeredFluidDockEv,
                            __ZN14MTChordCycling22clearChordCyclingStateEv,
                            __ZN14MTChordCycling23getCommittedFingerCountEv,
                            __ZN14MTChordCycling25possiblyStopChordMomentumERK16MTHandStatisticsRK12MTHandMotionP12__IOHIDEvent,
                            __ZN14MTChordCycling26possiblyStartChordMomentumERK16MTHandStatisticsP12__IOHIDEvent,
                            __ZN14MTChordCycling27processMultiFingerDoubleTapERK16MTHandStatisticsRK15MT2DPlaneMotionP12__IOHIDEvent,
                            __ZN14MTChordCycling28tapHasValidTimingAndStrengthERK16MTHandStatisticsRK12MTHandMotionb,
                            __ZN14MTChordCycling32parseHandGesturesCreateHIDEventsER16MTHandStatisticsRK12MTHandMotionP12__IOHIDEvent,
                            __ZN14MTChordCyclingC1E14MTHandIdentityPcR23MTDragManagerEventQueueb12MTParserType,
                            __ZN14MTChordCyclingC2E14MTHandIdentityPcR23MTDragManagerEventQueueb12MTParserType,
                            __ZN14MTSlideGesture11fireGestureERK16MTHandStatisticsRK12MTHandMotionR23MTDragManagerEventQueueP12__IOHIDEventR18MTChordIntegratingd,
                            __ZN14MTSlideGesture13sendSlideKeysERK16MTHandStatisticsRK12MTHandMotionR23MTDragManagerEventQueueP12__IOHIDEventR18MTChordIntegratingsd,
                            __ZN14MTSlideGesture15updateFluidPeakEv,
                            __ZN14MTSlideGesture16fireFluidGestureERK16MTHandStatisticsRK12MTHandMotionR23MTDragManagerEventQueueP12__IOHIDEventR18MTChordIntegratingd,
                            __ZN14MTSlideGesture16integrateGestureERK16MTHandStatisticsRK12MTHandMotionRK23MTDragManagerEventQueueR18MTChordIntegratingd,
                            __ZN14MTSlideGesture16sendSlideMickeysERK16MTHandStatisticsRK12MTHandMotionR23MTDragManagerEventQueueP12__IOHIDEventR18MTChordIntegratingRK14MTEventMickeysd,
                            __ZN14MTSlideGesture18fireCommandGestureERK16MTHandStatisticsRK12MTHandMotionR23MTDragManagerEventQueueP12__IOHIDEventR18MTChordIntegratingd,
                            __ZN14MTSlideGesture19decayAxisIntegratorERK18MTChordIntegratingdRff,
                            __ZN14MTSlideGesture19integrateAxisMotionERK16MTHandStatisticsRK12MTHandMotionRK23MTDragManagerEventQueueRK18MTChordIntegratingdif,
                            __ZN14MTSlideGesture19thresholdAxisMotionERK16MTHandStatisticsRK12MTHandMotioni,
                            __ZN14MTSlideGesture19updateFluidMomentumERK16MTHandStatisticsR18MTChordIntegratingf,
                            __ZN14MTSlideGesture20accelerateAxisMotionEiRK16MTHandStatisticsRK12MTHandMotionfb,
                            __ZN14MTSlideGesture21clearIntegrationStateEv,
                            __ZN14MTSlideGesture21integrateFluidGestureERK16MTHandStatisticsRK12MTHandMotionR18MTChordIntegratingf,
                            __ZN14MTSlideGesture23decayRecentDisplacementERK16MTHandStatistics,
                            __ZN14MTSlideGesture23fireManipulativeGestureERK16MTHandStatisticsRK12MTHandMotionR23MTDragManagerEventQueueP12__IOHIDEventR18MTChordIntegratingd,
                            __ZN14MTSlideGesture23integrateCommandGestureERK16MTHandStatisticsRK12MTHandMotionR18MTChordIntegratingf,
                            __ZN14MTSlideGesture23kSpeedSymmetryRootPowerE,
                            __ZN14MTSlideGesture24integrateMotionWithinArcERK16MTHandStatisticsRK12MTHandMotionfb,
                            __ZN14MTSlideGesture27kSpeedSymmetryRootPower_AllE,
                            __ZN14MTSlideGesture27recordCommittedDisplacementEf,
                            __ZN14MTSlideGesture28integrateManipulativeGestureERK16MTHandStatisticsRK12MTHandMotionRK23MTDragManagerEventQueueR18MTChordIntegratingdf,
                            __ZN14MTSlideGesture28kSpeedSymmetryRootPower_1_3FE,
                            __ZN14MTSlideGesture29kMouseSuppresses_DeltaPosGainE,
                            __ZN14MTSlideGesture30cumulativeSwipeToDiscreteDeltaEv,
                            __ZN14MTSlideGesture30kMaxCumulativeMotionBacklog_mmE,
                            __ZN14MTSlideGesture31inactivityExtraCommitMultiplierEdRd,
                            __ZN14MTSlideGesture31kMotionSinceTouchdownDecayAlphaE,
                            __ZN14MTSlideGesture32kMouseSuppresses_LinearDecayGainE,
                            __ZN14MTSlideGesture32kSpeedSymmetryRootPower_Fluid_2FE,
                            __ZN14MTSlideGesture32suppressVelocityFromMouseFeebackEiRK12MTHandMotionf,
                            __ZN14MTSlideGesture44squelchCommitMultiplierForDirectionReversalsEiRfS0_,
                            __ZN14MTSlideGesture9isBlockedERK16MTHandStatisticsRK12MTHandMotionR18MTChordIntegratingb,
                            __ZN14MTSlideGestureC1E13flags4slide_tjffR21MTGestureMotionParamsRNSt3__16vectorI13MTActionEventNS3_9allocatorIS5_EEEE,
                            __ZN14MTSlideGestureC1ERKS_,
                            __ZN14MTSlideGestureC1Ev,
                            __ZN14MTSlideGestureC2E13flags4slide_tjffR21MTGestureMotionParamsRNSt3__16vectorI13MTActionEventNS3_9allocatorIS5_EEEE,
                            __ZN14MTSlideGestureC2ERKS_,
                            __ZN14MTSlideGestureC2Ev,
                            __ZN14MTSlideGestureaSERKS_,
                            __ZN15MTEmbeddedStats11handlePathsERK12MTPathStates,
                            __ZN15MTEmbeddedStats15deviceWillResetEv,
                            __ZN15MTEmbeddedStats15resetTouchStateEv,
                            __ZN15MTEmbeddedStats17handleFrameHeaderERK19MTBinaryFrameHeader,
                            __ZN15MTEmbeddedStats6createEP10__MTDevice,
                            __ZN15MTForceBehavior17resizeToNumStagesEj,
                            __ZN15MTForceBehavior21resizeThresholdLadderEj,
                            __ZN15MTForceBehavior26isThresholdLadderMonotonicERKNSt3__16vectorIfNS0_9allocatorIfEEEE,
                            __ZN15MTForceBehavior4NullE,
                            __ZN15MTForceBehavior8addStageE12MTForceStage22MTForceActuationConfig22MTForceThresholdConfig,
                            __ZN15MTForceBehavior8addStageE12MTForceStageiiff,
                            __ZN15MTForceBehaviorC1Ev, __ZN15MTForceBehaviorC2Ev,
                            __ZN15MTForceBehavioraSERKS_,
                            __ZN15MTGestureConfig14clearAllChordsEv,
                            __ZN15MTGestureConfig20getChordTableForHandE14MTHandIdentity,
                            __ZN15MTGestureConfig22copyChordIntoHandTableE14MTHandIdentityR17MTChordGestureSet,
                            __ZN15MTGestureConfigC1E12MTParserType15MTParserOptionsbR23MTDragManagerEventQueue,
                            __ZN15MTGestureConfigC2E12MTParserType15MTParserOptionsbR23MTDragManagerEventQueue,
                            __ZN15MTGestureConfigD0Ev, __ZN15MTGestureConfigD1Ev,
                            __ZN15MTGestureConfigD2Ev,
                            __ZN16MTHandStatistics16processHandStateER12MTPathStatesbb,
                            __ZN16MTHandStatistics19updateStatsWithPathERK12MTParserPathbb,
                            __ZN16MTHandStatistics22clearConsecutiveCountsEv,
                            __ZN16MTHandStatistics22rollBackSubsetBoundaryEv,
                            __ZN16MTHandStatistics23makeCollectionEventMaskEb,
                            __ZN16MTHandStatistics24updateCumulativeMaxStatsEv,
                            __ZN16MTHandStatistics25updateStatsWithFingerPathEi17MTContactIdentity7MTPointRK21MTPathStageTimestampsbbbbfbbbb,
                            __ZN16MTHandStatistics28updateStatsWithNonFingerPathERK12MTParserPathbb,
                            __ZN16MTHandStatistics29kMinClutchingSubsetSizeFrom4FE,
                            __ZN16MTHandStatistics29kMinClutchingSubsetSizeFrom5FE,
                            __ZN16MTHandStatistics31updateSubsetStatsWithFingerPathEi17MTContactIdentityRK21MTPathStageTimestampsbbb,
                            __ZN16MTHandStatistics33kMinRollbackSubsetsOnDivingChangeE,
                            __ZN16MTHandStatistics5clearEb,
                            __ZN16MTHandStatisticsC1E14MTHandIdentityPc12MTParserType15MTParserOptions,
                            __ZN16MTHandStatisticsC2E14MTHandIdentityPc12MTParserType15MTParserOptions,
                            __ZN16MTHandStatisticsD0Ev,
                            __ZN16MTHandStatisticsD1Ev,
                            __ZN16MTHandStatisticsD2Ev,
                            __ZN16MTTapDragManager10clearCycleEv,
                            __ZN16MTTapDragManager10clearStateEv,
                            __ZN16MTTapDragManager13setCycleStateE19MTTapDragCycleState,
                            __ZN16MTTapDragManager15chk4dragCyclingERK16MTHandStatisticsRK12MTHandMotionP12__IOHIDEventd,
                            __ZN16MTTapDragManager17handleTapsForDragERK16MTHandStatisticsRK12MTHandMotionP12__IOHIDEvent,
                            __ZN16MTTapDragManager21queueButtonClickEventERK16MTHandStatisticsRK15MT2DPlaneMotionP12__IOHIDEvent,
                            __ZN16MTTapDragManager21queueButtonPressEventERK16MTHandStatisticsRK15MT2DPlaneMotionP12__IOHIDEvent,
                            __ZN16MTTapDragManager22queueTapWaitingForHalfERK16MTHandStatisticsRK15MT2DPlaneMotionP12__IOHIDEvent,
                            __ZN16MTTapDragManager22sustainMultiFingerDragERK16MTHandStatisticsRK12MTHandMotionP12__IOHIDEventRK18MTChordIntegrating,
                            __ZN16MTTapDragManager23queueButtonReleaseEventERK16MTHandStatisticsRK15MT2DPlaneMotionP12__IOHIDEvent,
                            __ZN16MTTapDragManager25sendPendingMultiFingerTapEP12__IOHIDEventRK16MTHandStatisticsRK12MTHandMotiondb,
                            __ZN16MTTapDragManager28handleTapsForMultiFingerDragERK16MTHandStatisticsRK12MTHandMotionP12__IOHIDEvent,
                            __ZN16MTTapDragManager29handleImmediateTapDragReleaseERK16MTHandStatisticsRK12MTHandMotionP12__IOHIDEvent,
                            __ZN16MTTapDragManager29sendWaitingClickAtHalfTimeoutEP12__IOHIDEventdj,
                            __ZN16MTTapDragManager35queueMultiFingerTapWaitingForDoubleERK16MTHandStatisticsRK15MT2DPlaneMotionP12__IOHIDEventj,
                            __ZN16MTTapDragManagerC2Ev,
                            __ZN17MTChordGestureSet14chk4ChordPauseERK16MTHandStatisticsRK12MTHandMotiond,
                            __ZN17MTChordGestureSet15chk4ChordTimeinERK16MTHandStatistics,
                            __ZN17MTChordGestureSet16chordSlidesEqualERKS_,
                            __ZN17MTChordGestureSet18chk4MinChordMotionERK12MTHandMotion,
                            __ZN17MTChordGestureSet21chordGestureSetEqualsERKS_,
                            __ZN17MTChordGestureSet23isChordReadyToIntegrateERK16MTHandStatisticsRK12MTHandMotion,
                            __ZN17MTChordGestureSetC1E16MTChordSpecifiertjPKc,
                            __ZN17MTChordGestureSetC1ERKS_,
                            __ZN17MTChordGestureSetC1Ev,
                            __ZN17MTChordGestureSetC2E16MTChordSpecifiertjPKc,
                            __ZN17MTChordGestureSetC2ERKS_,
                            __ZN17MTChordGestureSetC2Ev,
                            __ZN17MTChordGestureSetaSERKS_,
                            __ZN17MTFingerToPathMap23clearFingerPathMappingsEv,
                            __ZN17MTFingerToPathMap23clearMaxFingersTouchingEv,
                            __ZN17MTFingerToPathMap24updateFingerPathMappingsERK12MTPathStates,
                            __ZN17MTFingerToPathMap24updateMaxFingersTouchingEv,
                            __ZN17MTFingerToPathMapC1Eb,
                            __ZN17MTFingerToPathMapC2Eb,
                            __ZN17MTFingerToPathMapD0Ev,
                            __ZN17MTFingerToPathMapD1Ev,
                            __ZN17MTFingerToPathMapD2Ev,
                            __ZN17MTForceManagement10clearStateEv,
                            __ZN17MTForceManagement15appendClickInfoE9ClickInfoP12__IOHIDEvent,
                            __ZN17MTForceManagement16appendForceEventEP12__IOHIDEvent12MTForceEvent,
                            __ZN17MTForceManagement18constructClickInfoEiiRK12MTPathStates12MTForceEvent,
                            __ZN17MTForceManagement19appendThresholdInfoE13ThresholdInfoP12__IOHIDEvent,
                            __ZN17MTForceManagement19constructForceEventEiiRK12MTPathStates,
                            __ZN17MTForceManagement19managePreActivationERK12MTPathStates,
                            __ZN17MTForceManagement19primeBasicBehaviorsEi,
                            __ZN17MTForceManagement19setOverrideBehaviorERK15MTForceBehavior,
                            __ZN17MTForceManagement20managePostActivationERK12MTPathStates,
                            __ZN17MTForceManagement20strongestForcePathIDERK12MTPathStatesb,
                            __ZN17MTForceManagement21actuateOnStageChangesERK12MTPathStatesR20MTActuatorManagement,
                            __ZN17MTForceManagement22actuateThresholderPathER20MTActuatorManagementi,
                            __ZN17MTForceManagement22constructThresholdInfoEiiRK12MTPathStates12MTForceEvent,
                            __ZN17MTForceManagement22disableAllThresholdersEv,
                            __ZN17MTForceManagement23strongestProgressPathIDERK12MTPathStatesb,
                            __ZN17MTForceManagement24actuateForceAndHIDEventsERK12MTPathStatesR20MTActuatorManagementP12__IOHIDEventb,
                            __ZN17MTForceManagement24analyzeDistributedForcesERK12MTPathStates,
                            __ZN17MTForceManagement25disableFingerThresholdersEv,
                            __ZN17MTForceManagement25setBehaviorOnThresholdersERK15MTForceBehaviorii,
                            __ZN17MTForceManagement27setForceActuationQualifiersERK26MTForceActuationQualifiers,
                            __ZN17MTForceManagement27setForceThresholdQualifiersERK26MTForceThresholdQualifiers,
                            __ZN17MTForceManagement28disableCollectiveThresholderEv,
                            __ZN17MTForceManagement28setFirstStageClickPreferenceE15MTClickStrength,
                            __ZN17MTForceManagement29setSecondStageClickPreferenceE15MTClickStrength,
                            __ZN17MTForceManagement30lockBehaviorsOnActivatedFingerEi,
                            __ZN17MTForceManagement31analyzeAndManageStrongestForcesERK12MTPathStates,
                            __ZN17MTForceManagement33setDisableClickWaveformAdaptationEb,
                            __ZN17MTForceManagement34setDisableForceThresholdAdaptationEb,
                            __ZN17MTForceManagement35updateStatusVariablesFromForceEventEi12MTForceEventRK12MTPathStates,
                            __ZN17MTForceManagement36setBehaviorOnOtherFingerThresholdersERK15MTForceBehaviori,
                            __ZN17MTForceManagementC1ERK19MTSurfaceDimensions12MTParserType15MTParserOptionsb,
                            __ZN17MTForceManagementC1Ev,
                            __ZN17MTForceManagementC2ERK19MTSurfaceDimensions12MTParserType15MTParserOptionsb,
                            __ZN17MTForceManagementC2Ev,
                            __ZN17MTMouseHIDManager10initializeEP18MultitouchHIDClassP10__MTDevice12MTParserType15MTParserOptions,
                            __ZN17MTMouseHIDManager12getUserPrefsEPPK17mt_UserPreference,
                            __ZN17MTMouseHIDManager13createManagerEP18MultitouchHIDClassP10__MTDevice12MTParserType15MTParserOptions,
                            __ZN17MTMouseHIDManager15setDeviceUsagesEv,
                            __ZN17MTMouseHIDManager16getMouseSettingsEv,
                            __ZN17MTMouseHIDManager17handleButtonStateEP10__MTDevicejjPv,
                            __ZN17MTMouseHIDManager19getTrackpadSettingsEv,
                            __ZN17MTMouseHIDManager21createEventDispatcherEv,
                            __ZN17MTMouseHIDManager23tickleMouseMotionFilterEv,
                            __ZN17MTMouseHIDManager23updateMouseMotionFilterEffb,
                            __ZN17MTMouseHIDManager24initDefaultMouseSettingsEP10__MTDeviceP24mt_StandardMouseSettings,
                            __ZN17MTMouseHIDManager24updateButtonMotionFilterEfb,
                            __ZN17MTMouseHIDManager26activateHIDManagerSettingsEv,
                            __ZN17MTMouseHIDManager27determineHIDManagerSettingsEv,
                            __ZN17MTMouseHIDManager27registerDeviceDataCallbacksEv,
                            __ZN17MTMouseHIDManager29unregisterDeviceDataCallbacksEv,
                            __ZN17MTMouseHIDManager29updateEventDispatcherSettingsEv,
                            __ZN17MTMouseHIDManager30createMouseScrollSwipeTapComboEP14__CFDictionaryPK10__CFStringbbbbbbb,
                            __ZN17MTMouseHIDManager30handleFrameProcessingEntryExitEP10__MTDeviceyjbPv,
                            __ZN17MTMouseHIDManager31forwardFrameProcessingEntryExitEP10__MTDeviceyjbPv,
                            __ZN17MTMouseHIDManager33handleTrackingDataForMotionFilterEP10__MTDeviceiijPv,
                            __ZN17MTMouseHIDManager34createDefaultGestureSetsDictionaryEv,
                            __ZN17MTMouseHIDManager34forwardTrackingDataForMotionFilterEP10__MTDeviceiijPv,
                            __ZN17MTMouseHIDManager35createDefaultActionEventsDictionaryEv,
                            __ZN17MTMouseHIDManager42createDefaultMotionSensitivitiesDictionaryEv,
                            __ZN17MTMouseHIDManager7getNameEv,
                            __ZN17MTPathStatesBasic16initializeParamsEv,
                            __ZN17MTPathStatesBasic18flushStuckContactsEv,
                            __ZN17MTPathStatesBasic18unpackContactFrameEP9MTContactid,
                            __ZN17MTPathStatesBasic19tasksPreContactCopyEP9MTContacti,
                            __ZN17MTPathStatesBasic22checkForFingersInZonesEv,
                            __ZN17MTPathStatesBasic24updateFastestFingerSpeedEv,
                            __ZN17MTPathStatesBasic26tasksPrePixelatedPositionsEv,
                            __ZN17MTPathStatesBasic27tasksPostPixelatedPositionsEv,
                            __ZN17MTPathStatesBasic29expandAndFilterPackedContactsEP9MTContacti,
                            __ZN17MTPathStatesBasic31updateResolutionDependentParamsEv,
                            __ZN17MTPathStatesBasic32forceFingerUniquenessAcrossHandsEv,
                            __ZN17MTPathStatesBasic33clearExistingPathLiftoffsAndMasksEv,
                            __ZN17MTPathStatesBasic5clearEv,
                            __ZN17MTPathStatesBasicC2ERK19MTSurfaceDimensions12MTParserType15MTParserOptionsbj,
                            __ZN17MTPathStatesBasicD0Ev,
                            __ZN17MTPathStatesBasicD1Ev,
                            __ZN17MTPathStatesBasicD2Ev,
                            __ZN18MTChordIntegrating12commit2ChordERK16MTHandStatisticsRK12MTHandMotionR23MTDragManagerEventQueueP12__IOHIDEventjd,
                            __ZN18MTChordIntegrating17markMomentumPauseERK16MTHandStatistics,
                            __ZN18MTChordIntegrating17sendSlidePreambleERK16MTHandStatisticsRK12MTHandMotionR23MTDragManagerEventQueueP12__IOHIDEventP14MTSlideGesturejd,
                            __ZN18MTChordIntegrating19endChordIntegrationERK16MTHandStatisticsRK12MTHandMotionP12__IOHIDEventR14MTChordCycling,
                            __ZN18MTChordIntegrating19momentumFilterAlphaERK16MTHandStatisticsb,
                            __ZN18MTChordIntegrating19recentMomentumPauseERK16MTHandStatisticsb,
                            __ZN18MTChordIntegrating19sendLiftSlideEventsERK16MTHandStatisticsRK12MTHandMotionRK15MT2DPlaneMotionP12__IOHIDEventR14MTChordCycling,
                            __ZN18MTChordIntegrating20clearMomentumFiltersEv,
                            __ZN18MTChordIntegrating20decayMomentumFiltersERK16MTHandStatistics,
                            __ZN18MTChordIntegrating20resetMostIntegratorsEP14MTSlideGesture,
                            __ZN18MTChordIntegrating21beginChordIntegrationERK16MTHandStatisticsRK12MTHandMotionP12__IOHIDEventR14MTChordCycling,
                            __ZN18MTChordIntegrating21clearIntegrationStateEv,
                            __ZN18MTChordIntegrating21possiblyStartMomentumERK16MTHandStatisticsP12__IOHIDEventR14MTChordCyclingd,
                            __ZN18MTChordIntegrating21updateMomentumMickeysERK14MTEventMickeysRK16MTHandStatistics,
                            __ZN18MTChordIntegrating24continueChordIntegrationERK16MTHandStatisticsRK12MTHandMotionP12__IOHIDEventR14MTChordCycling,
                            __ZN18MTChordIntegrating26kMaxPausedMomentum_mickeysE,
                            __ZN18MTChordIntegrating26possiblyStartFluidMomentumERK16MTHandStatisticsP12__IOHIDEventR14MTChordCycling,
                            __ZN18MTChordIntegrating27waitForFastShotVerificationERK16MTHandStatisticsRK12MTHandMotion,
                            __ZN18MTChordIntegrating28kMaxMotionForLockOverride_mmE,
                            __ZN18MTChordIntegrating28kMinPreMomentumSpeed_mickeysE,
                            __ZN18MTChordIntegrating28kMomentumFilterAlpha_FallingE,
                            __ZN18MTChordIntegrating29switchingVerticalToHorizontalEfb,
                            __ZN18MTChordIntegrating30clearMickeysSinceLastTouchdownEv,
                            __ZN18MTChordIntegrating30kMaxPreMomentumEventInterval_sE,
                            __ZN18MTChordIntegrating33kMaxPausedMomentumForDrag_mickeysE,
                            __ZN18MTChordIntegrating35kMinMotionToFireIfOnlySomeMoving_mmE,
                            __ZN18MTChordIntegrating35kMomentumAxisOrthogonalizationRatioE,
                            __ZN18MTChordIntegrating35kMomentumRecentTouchSensitization_sE,
                            __ZN18MTChordIntegrating36kMomentumFilterAlpha_Rising_OldTouchE,
                            __ZN18MTChordIntegrating39kMomentumFilterAlpha_Rising_RecentTouchE,
                            __ZN18MTChordIntegrating43kStabilizedDragSwipeSpeedDiscriminator_mm_sE,
                            __ZN18MTChordIntegrating7nullifyEv,
                            __ZN18MTChordIntegratingC1ERK17MTChordGestureSet,
                            __ZN18MTChordIntegratingC1Ev,
                            __ZN18MTChordIntegratingC2ERK17MTChordGestureSet,
                            __ZN18MTChordIntegratingC2Ev,
                            __ZN18MTChordIntegratingaSERK17MTChordGestureSet,
                            __ZN18MTForceManagerLite10clearStateEv,
                            __ZN18MTForceManagerLite11updatePathsERK12MTPathStates,
                            __ZN18MTForceManagerLite12updateMotionE13MTMotionTypes,
                            __ZN18MTForceManagerLiteC1ERK19MTSurfaceDimensions12MTParserType15MTParserOptionsP10__MTDevice,
                            __ZN18MTForceManagerLiteC2ERK19MTSurfaceDimensions12MTParserType15MTParserOptionsP10__MTDevice,
                            __ZN18MTParameterFactory19initTouchZoneParamsER21MTTouchZoneParameters12MTParserType15MTParserOptionsbRK19MTSurfaceDimensions,
                            __ZN18MTParameterFactory20initPathFilterParamsER22MTPathFilterParameters12MTParserType15MTParserOptionsbRK19MTSurfaceDimensionsj,
                            __ZN18MTParameterFactory21initForceFilterParamsER23MTForceFilterParameters12MTParserType15MTParserOptionsbRK19MTSurfaceDimensions,
                            __ZN18MTParameterFactory22initChordCyclingParamsER24MTChordCyclingParameters12MTParserType,
                            __ZN18MTParameterFactory23initGestureTimingParamsER25MTGestureTimingParameters,
                            __ZN18MTParameterFactory25initFingerTipOffsetParamsER29MTHMFingerTipOffsetParameters12MTParserType15MTParserOptionsb,
                            __ZN18MTParameterFactory26initMotionExtractionParamsER28MTMotionExtractionParameters12MTParserType15MTParserOptions,
                            __ZN18MTParameterFactory28initForceActuationQualifiersER26MTForceActuationQualifiers,
                            __ZN18MTParameterFactory28initForceThresholdQualifiersER26MTForceThresholdQualifiers,
                            __ZN18MTParameterFactory29initRestZoneBalanceParametersER27MTRestZoneBalanceParameters,
                            __ZN18MTParameterFactory33initBasicForceActuationQualifiersER26MTForceActuationQualifiers,
                            __ZN18MTParameterFactory46updatePathFilterParamsWithNewSurfaceDimensionsER22MTPathFilterParametersRK19MTSurfaceDimensions,
                            __ZN18MTSimpleHIDManager10initializeEP18MultitouchHIDClassP10__MTDevice12MTParserType15MTParserOptions,
                            __ZN18MTSimpleHIDManager11getMTDeviceEv,
                            __ZN18MTSimpleHIDManager11openManagerEv,
                            __ZN18MTSimpleHIDManager11resetDeviceEv,
                            __ZN18MTSimpleHIDManager11setPropertyEPK10__CFStringPKv,
                            __ZN18MTSimpleHIDManager11setPropertyEPK10__CFStringPKvb,
                            __ZN18MTSimpleHIDManager12closeManagerEv,
                            __ZN18MTSimpleHIDManager12copyPropertyEPK10__CFString,
                            __ZN18MTSimpleHIDManager12setTouchModeEtt,
                            __ZN18MTSimpleHIDManager12touchPoweredEv,
                            __ZN18MTSimpleHIDManager13deviceIsReadyEv,
                            __ZN18MTSimpleHIDManager13dispatchEventEP12__IOHIDEventj,
                            __ZN18MTSimpleHIDManager13getHIDServiceEv,
                            __ZN18MTSimpleHIDManager13setPowerStateE12MTPowerStateb,
                            __ZN18MTSimpleHIDManager13setWristStateEh,
                            __ZN18MTSimpleHIDManager14issueWakeEventEv,
                            __ZN18MTSimpleHIDManager14setOrientationEt,
                            __ZN18MTSimpleHIDManager14setOutputEventEP12__IOHIDEvent,
                            __ZN18MTSimpleHIDManager15handleFullFrameEP10__MTDevicePhj,
                            __ZN18MTSimpleHIDManager15powerStateToStrE12MTPowerState,
                            __ZN18MTSimpleHIDManager15setDeviceUsagesEv,
                            __ZN18MTSimpleHIDManager16forwardFullFrameEP10__MTDevicePhjPv,
                            __ZN18MTSimpleHIDManager16handleImageEntryEP10__MTDevicePsP17MTImageDescriptor,
                            __ZN18MTSimpleHIDManager16setDeviceIsReadyEb,
                            __ZN18MTSimpleHIDManager16setEventCallbackEPFvPvS0_S0_P12__IOHIDEventjES0_S0_,
                            __ZN18MTSimpleHIDManager17deviceDidBootloadEv,
                            __ZN18MTSimpleHIDManager17forwardImageEntryEP10__MTDevicePsP17MTImageDescriptorPv,
                            __ZN18MTSimpleHIDManager17handleFrameHeaderEP10__MTDeviceP19MTBinaryFrameHeaderPv,
                            __ZN18MTSimpleHIDManager18forwardFrameHeaderEP10__MTDevice19MTBinaryFrameHeaderPv,
                            __ZN18MTSimpleHIDManager18getEventDispatcherEv,
                            __ZN18MTSimpleHIDManager18setEventDispatcherEP23MTSimpleEventDispatcher,
                            __ZN18MTSimpleHIDManager18touchFramesAllowedEv,
                            __ZN18MTSimpleHIDManager19createGestureParserEv,
                            __ZN18MTSimpleHIDManager19forwardContactFrameEP10__MTDeviceP9MTContactidyPv,
                            __ZN18MTSimpleHIDManager19getHIDDispatchQueueEv,
                            __ZN18MTSimpleHIDManager19getSurfaceBounds_mmEv,
                            __ZN18MTSimpleHIDManager19setPropertyInternalE18_MTHIDPropertyTypePKvb,
                            __ZN18MTSimpleHIDManager20destroyGestureParserEv,
                            __ZN18MTSimpleHIDManager21createEventDispatcherEv,
                            __ZN18MTSimpleHIDManager21handleExternalMessageEP10__MTDevicePhtj,
                            __ZN18MTSimpleHIDManager22checkForParserDisabledEv,
                            __ZN18MTSimpleHIDManager22destroyEventDispatcherEv,
                            __ZN18MTSimpleHIDManager22forwardExternalMessageEP10__MTDevicePhtjPv,
                            __ZN18MTSimpleHIDManager22propertyTypeFromStringEPK10__CFString,
                            __ZN18MTSimpleHIDManager22setPowerStateWithResetE12MTPowerStateb,
                            __ZN18MTSimpleHIDManager23handleContactFrameEntryEP10__MTDeviceP9MTContactidyPv,
                            __ZN18MTSimpleHIDManager23handleNotificationEventEP10__MTDevice19MTNotificationEventPv,
                            __ZN18MTSimpleHIDManager23initializeGestureParserEv,
                            __ZN18MTSimpleHIDManager23registerSystemCallbacksEv,
                            __ZN18MTSimpleHIDManager23setFieldDetectionStatusEv,
                            __ZN18MTSimpleHIDManager23updateFieldDetectStatusE22MTFieldDetectionStatus,
                            __ZN18MTSimpleHIDManager24_setFieldDetectionStatusEv,
                            __ZN18MTSimpleHIDManager24forwardNotificationEventEP10__MTDevice19MTNotificationEventPv,
                            __ZN18MTSimpleHIDManager24registerExternalMessagesEv,
                            __ZN18MTSimpleHIDManager25getSurfacePixelDimensionsEv,
                            __ZN18MTSimpleHIDManager25handleInputDetectionStateEP10__MTDevicejssPv,
                            __ZN18MTSimpleHIDManager25unregisterSystemCallbacksEv,
                            __ZN18MTSimpleHIDManager26enableReportingOfAllInputsEv,
                            __ZN18MTSimpleHIDManager26forwardInputDetectionStateEP10__MTDevicejssPv,
                            __ZN18MTSimpleHIDManager26setDeviceDefaultPropertiesEv,
                            __ZN18MTSimpleHIDManager26setParserDefaultPropertiesEv,
                            __ZN18MTSimpleHIDManager26setPluginDefaultPropertiesEv,
                            __ZN18MTSimpleHIDManager26takeBootloadPowerAssertionEv,
                            __ZN18MTSimpleHIDManager26unregisterExternalMessagesEv,
                            __ZN18MTSimpleHIDManager27_enableReportingOfAllInputsEv,
                            __ZN18MTSimpleHIDManager27propertyIsPublishedOnDriverE18_MTHIDPropertyType,
                            __ZN18MTSimpleHIDManager27registerDeviceDataCallbacksEv,
                            __ZN18MTSimpleHIDManager27registerDeviceNotificationsEv,
                            __ZN18MTSimpleHIDManager27setupBootloadPowerAssertionEj,
                            __ZN18MTSimpleHIDManager27translateInputDetectionModeE23MTHIDInputDetectionMode,
                            __ZN18MTSimpleHIDManager27wasScheduledOnDispatchQueueEP16dispatch_queue_s,
                            __ZN18MTSimpleHIDManager29cleanupBootloadPowerAssertionEv,
                            __ZN18MTSimpleHIDManager29releaseBootloadPowerAssertionEv,
                            __ZN18MTSimpleHIDManager29unregisterDeviceDataCallbacksEv,
                            __ZN18MTSimpleHIDManager29unregisterDeviceNotificationsEv,
                            __ZN18MTSimpleHIDManager31devicePropertiesBecameAvailableEv,
                            __ZN18MTSimpleHIDManager31restoreDevicePropertiesToDeviceEv,
                            __ZN18MTSimpleHIDManager31wasUnscheduledFromDispatchQueueEP16dispatch_queue_s,
                            __ZN18MTSimpleHIDManager32startBootloadPowerAssertionTimerEjy,
                            __ZN18MTSimpleHIDManager33cancelBootloadPowerAssertionTimerEv,
                            __ZN18MTSimpleHIDManager33fieldOnNotificationCenterCallbackEP22__CFNotificationCenterPvPK10__CFStringPKvPK14__CFDictionary,
                            __ZN18MTSimpleHIDManager34fieldOffNotificationCenterCallbackEP22__CFNotificationCenterPvPK10__CFStringPKvPK14__CFDictionary,
                            __ZN18MTSimpleHIDManager35setInputDetectionModeForOrientationEtt,
                            __ZN18MTSimpleHIDManager40fieldSuspendedNotificationCenterCallbackEP22__CFNotificationCenterPvPK10__CFStringPKvPK14__CFDictionary,
                            __ZN18MTSimpleHIDManager4stopEv,
                            __ZN18MTSimpleHIDManager5startEv,
                            __ZN18MTSimpleHIDManager6retainEv,
                            __ZN18MTSimpleHIDManager7getNameEv,
                            __ZN18MTSimpleHIDManager7releaseEv,
                            __ZN18MTSimpleHIDManager8finalizeEv,
                            __ZN18MTSimpleHIDManager9copyEventEjP12__IOHIDEventj,
                            __ZN18MTSimpleHIDManagerC2Ev,
                            __ZN18MTSimpleHIDManagerD0Ev,
                            __ZN18MTSimpleHIDManagerD1Ev,
                            __ZN18MTSimpleHIDManagerD2Ev,
                            __ZN18MultitouchHIDClass10_copyEventEPvjP12__IOHIDEventj,
                            __ZN18MultitouchHIDClass11setPropertyEPK10__CFStringPKv,
                            __ZN18MultitouchHIDClass12_setPropertyEPvPK10__CFStringPKv,
                            __ZN18MultitouchHIDClass12copyPropertyEPK10__CFString,
                            __ZN18MultitouchHIDClass13_copyPropertyEPvPK10__CFString,
                            __ZN18MultitouchHIDClass13getHIDServiceEv,
                            __ZN18MultitouchHIDClass14queryInterfaceE11CFUUIDBytesPPv,
                            __ZN18MultitouchHIDClass14setOutputEventEP12__IOHIDEvent,
                            __ZN18MultitouchHIDClass15_setOutputEventEPvP12__IOHIDEvent,
                            __ZN18MultitouchHIDClass16setEventCallbackEPFvPvS0_S0_P12__IOHIDEventjES0_S0_,
                            __ZN18MultitouchHIDClass17_setEventCallbackEPvPFvS0_S0_S0_P12__IOHIDEventjES0_S0_,
                            __ZN18MultitouchHIDClass22sIOCFPlugInInterfaceV1E,
                            __ZN18MultitouchHIDClass23sIOHIDServiceInterface2E,
                            __ZN18MultitouchHIDClass25scheduleWithDispatchQueueEP16dispatch_queue_s,
                            __ZN18MultitouchHIDClass26_scheduleWithDispatchQueueEPvP16dispatch_queue_s,
                            __ZN18MultitouchHIDClass27unscheduleFromDispatchQueueEP16dispatch_queue_s,
                            __ZN18MultitouchHIDClass28_unscheduleFromDispatchQueueEPvP16dispatch_queue_s,
                            __ZN18MultitouchHIDClass4openEj,
                            __ZN18MultitouchHIDClass4stopEv,
                            __ZN18MultitouchHIDClass5_openEPvj,
                            __ZN18MultitouchHIDClass5_stopEPv,
                            __ZN18MultitouchHIDClass5allocEv,
                            __ZN18MultitouchHIDClass5closeEj,
                            __ZN18MultitouchHIDClass5probeEPK14__CFDictionaryjPi,
                            __ZN18MultitouchHIDClass5startEPK14__CFDictionaryj,
                            __ZN18MultitouchHIDClass6_closeEPvj,
                            __ZN18MultitouchHIDClass6_probeEPvPK14__CFDictionaryjPi,
                            __ZN18MultitouchHIDClass6_startEPvPK14__CFDictionaryj,
                            __ZN18MultitouchHIDClass9copyEventEjP12__IOHIDEventj,
                            __ZN18MultitouchHIDClassC1Ev,
                            __ZN18MultitouchHIDClassC2Ev,
                            __ZN18MultitouchHIDClassD0Ev,
                            __ZN18MultitouchHIDClassD1Ev,
                            __ZN18MultitouchHIDClassD2Ev,
                            __ZN19MTForceClickHistory11initHistoryEf,
                            __ZN19MTForceClickHistory12clearHistoryEv,
                            __ZN19MTForceClickHistory16updateForceArrayERNSt3__16vectorIfNS0_9allocatorIfEEEEf,
                            __ZN19MTForceClickHistory7addDragEf,
                            __ZN19MTForceClickHistory8addClickEf,
                            __ZN19MTForceClickHistoryC1Ef,
                            __ZN19MTForceClickHistoryC2Ef,
                            __ZN19MTForceClickHistoryD1Ev,
                            __ZN19MTForceClickHistoryD2Ev,
                            __ZN19MTForceThresholding11updateStageE12MTForceStageRK13MTForceFilterRK12MTParserPathfd,
                            __ZN19MTForceThresholding16setForceBehaviorERK15MTForceBehaviori,
                            __ZN19MTForceThresholding17clearPeakAndStageEv,
                            __ZN19MTForceThresholding17dumpForceAndStageERK13MTForceFilter,
                            __ZN19MTForceThresholding18classifyForceLevelERK13MTForceFilter,
                            __ZN19MTForceThresholding19updateForceBehaviorERK15MTForceBehaviori,
                            __ZN19MTForceThresholding20activationLevelAboveE12MTForceLevel,
                            __ZN19MTForceThresholding20analyzeForceAndStageERK12MTPathStatesi15MTForceBehaviorddbff,
                            __ZN19MTForceThresholding20fingersMatchBehaviorERK12MTPathStatesi,
                            __ZN19MTForceThresholding22activationLevelForHoldE12MTForceLevel,
                            __ZN19MTForceThresholding22activationLevelToStageE12MTForceLevel,
                            __ZN19MTForceThresholding22initLongtermPeakForcesEv,
                            __ZN19MTForceThresholding22stageToActivationLevelE12MTForceStage,
                            __ZN19MTForceThresholding23clearLongtermPeakForcesEv,
                            __ZN19MTForceThresholding24activationLevelBelowHoldE12MTForceLevel,
                            __ZN19MTForceThresholding24globalForceBlocksReleaseERK12MTPathStatesRK13MTForceFilter,
                            __ZN19MTForceThresholding24updateLongtermPeakForcesEv,
                            __ZN19MTForceThresholding26blocksReleaseWhileTouchingEv,
                            __ZN19MTForceThresholding27setForceActuationQualifiersERK26MTForceActuationQualifiers,
                            __ZN19MTForceThresholding27setForceThresholdQualifiersERK26MTForceThresholdQualifiers,
                            __ZN19MTForceThresholding28classifyForceLevelAdaptivelyERK13MTForceFilterRK12MTParserPath,
                            __ZN19MTForceThresholding28rescaleForceAsLadderProgressERK12MTPathStates,
                            __ZN19MTForceThresholding36updateAdaptiveThresholdingParametersE12MTForceLevelRK12MTPathStatesRK12MTParserPathd,
                            __ZN19MTForceThresholding38updateAccidentalClickPreventionOffsetsE12MTForceLevelRK13MTForceFilterRK12MTParserPathRK12MTPathStatesdff,
                            __ZN19MTForceThresholding5clearEv,
                            __ZN19MTForceThresholdingC1ERK26MTForceThresholdQualifiersRK26MTForceActuationQualifiers,
                            __ZN19MTForceThresholdingC1Ev,
                            __ZN19MTForceThresholdingC2ERK26MTForceThresholdQualifiersRK26MTForceActuationQualifiers,
                            __ZN19MTForceThresholdingC2Ev,
                            __ZN19MTForceThresholdingD0Ev,
                            __ZN19MTForceThresholdingD1Ev,
                            __ZN19MTForceThresholdingD2Ev,
                            __ZN19MTSurfaceDimensions21updateScreenBounds_mmE6MTRect,
                            __ZN19MTSurfaceDimensions24updatePixelResolution_mmE6MTSize,
                            __ZN19MTSurfaceDimensions32deriveScreenPixelsFromResolutionE6MTSize,
                            __ZN19MTSurfaceDimensionsC1E6MTRect6MTSize,
                            __ZN19MTSurfaceDimensionsC2E6MTRect6MTSize,
                            __ZN19MTSurfaceDimensionsD0Ev,
                            __ZN19MTSurfaceDimensionsD1Ev,
                            __ZN19MTSurfaceDimensionsD2Ev,
                            __ZN20MTActuatorManagement14getActuatorRefEv,
                            __ZN20MTActuatorManagement16reloadActuationsEv,
                            __ZN20MTActuatorManagement17actuateWaveformIDEiffj,
                            __ZN20MTActuatorManagement17setFirmwareClicksE15MTClickStrengthb,
                            __ZN20MTActuatorManagement19getActuationOptionsE15MTClickStrengthb,
                            __ZN20MTActuatorManagement23reclaimHostClickControlEv,
                            __ZN20MTActuatorManagement23scheduleOnDispatchQueueEP16dispatch_queue_s,
                            __ZN20MTActuatorManagement27unscheduleFromDispatchQueueEP16dispatch_queue_s,
                            __ZN20MTActuatorManagement30systemActuationsEnabledChangedEv,
                            __ZN20MTActuatorManagement34AppleActuatorDeviceMatchedCallbackEPvj,
                            __ZN20MTActuatorManagementC1EP10__MTDevice,
                            __ZN20MTActuatorManagementC2EP10__MTDevice,
                            __ZN20MTActuatorManagementD1Ev,
                            __ZN20MTActuatorManagementD2Ev,
                            __ZN20MTPListGestureConfig12parseGestureEPK14__CFDictionaryR17MTChordGestureSetR21MTGestureMotionParams,
                            __ZN20MTPListGestureConfig15parseFloatValueEPK14__CFDictionaryPK10__CFStringPfS5_,
                            __ZN20MTPListGestureConfig15parseGestureSetEPK10__CFStringPK14__CFDictionaryR17MTChordGestureSet,
                            __ZN20MTPListGestureConfig17addGestureToArrayEP9__CFArrayPK10__CFStringS4_S4_S4_S4_S4_PKv,
                            __ZN20MTPListGestureConfig17parseHandIdentityEPK10__CFString,
                            __ZN20MTPListGestureConfig19parseChordSpecifierEPK10__CFString,
                            __ZN20MTPListGestureConfig19setParseErrorStringEPK10__CFString,
                            __ZN20MTPListGestureConfig21keyCodeCFStringToCodeEPK10__CFString,
                            __ZN20MTPListGestureConfig22addChordMappingToArrayEP9__CFArrayPK10__CFStringS4_,
                            __ZN20MTPListGestureConfig22extractGestureCategoryEPK14__CFDictionary,
                            __ZN20MTPListGestureConfig22parseCreateActionEventEPK14__CFDictionaryRNSt3__16vectorI13MTActionEventNS3_9allocatorIS5_EEEE,
                            __ZN20MTPListGestureConfig22parseGestureMotionCodeEPK14__CFDictionary,
                            __ZN20MTPListGestureConfig22parseMotionSensitivityEPK14__CFDictionaryR21MTGestureMotionParams,
                            __ZN20MTPListGestureConfig23eventTypeCFStringToCodeEPK10__CFString,
                            __ZN20MTPListGestureConfig23extractChordTransitionsEPK14__CFDictionary,
                            __ZN20MTPListGestureConfig23modifiersCFStringToMaskEPK10__CFString,
                            __ZN20MTPListGestureConfig24extractMotionSensitivityEPK14__CFDictionaryR21MTGestureMotionParams,
                            __ZN20MTPListGestureConfig24parseCreateGestureConfigEPPK10__CFString,
                            __ZN20MTPListGestureConfig24setGestureSetsDictionaryEPK14__CFDictionary,
                            __ZN20MTPListGestureConfig25lookupOrParseActionEventsEPK14__CFDictionaryRNSt3__16vectorI13MTActionEventNS3_9allocatorIS5_EEEE,
                            __ZN20MTPListGestureConfig25parseChordMappingsForHandEPK10__CFStringPK14__CFDictionary,
                            __ZN20MTPListGestureConfig25releaseParsedDictionariesEv,
                            __ZN20MTPListGestureConfig25setActionEventsDictionaryEPK14__CFDictionary,
                            __ZN20MTPListGestureConfig26addActionEventToDictionaryEP14__CFDictionaryPK10__CFStringS4_S4_S4_,
                            __ZN20MTPListGestureConfig26setChordMappingsDictionaryEPK14__CFDictionary,
                            __ZN20MTPListGestureConfig28parseChordMappingPreferencesEPK14__CFDictionary,
                            __ZN20MTPListGestureConfig32setMotionSensitivitiesDictionaryEPK14__CFDictionary,
                            __ZN20MTPListGestureConfig36parseChordGestureSetAndCopyIntoTableEPK14__CFDictionaryPK10__CFString,
                            __ZN20MTPListGestureConfigC1E12MTParserType15MTParserOptionsbR23MTDragManagerEventQueue,
                            __ZN20MTPListGestureConfigC2E12MTParserType15MTParserOptionsbR23MTDragManagerEventQueue,
                            __ZN20MTPListGestureConfigD0Ev,
                            __ZN20MTPListGestureConfigD1Ev,
                            __ZN20MTPListGestureConfigD2Ev,
                            __ZN20MTRestZoneIntegrator11clearMotionEb,
                            __ZN20MTRestZoneIntegrator19decayMotionEnvelopeER15MT2DPlaneMotionR7MTPointRfS4_S4_f,
                            __ZN20MTRestZoneIntegrator19extractMotionDeltasERK12MTPathStatesRK12MTParserPathS5_b,
                            __ZN20MTRestZoneIntegrator20printExtractedMotionEiiP9MTContact,
                            __ZN20MTRestZoneIntegrator20weighDominantMotionsEd,
                            __ZN20MTRestZoneIntegrator21scalingFromDotProductE7MTPointS0_S0_,
                            __ZN20MTRestZoneIntegrator23computeSeparationVectorERK9MTContactS2_,
                            __ZN20MTRestZoneIntegrator24accumulateMotionEnvelopeER15MT2DPlaneMotionR7MTPointRfS4_S4_f,
                            __ZN20MTRestZoneIntegrator24clearThumbFingerEnvelopeEv,
                            __ZN20MTRestZoneIntegrator25convertPixelDeltasTo_mm_sEd,
                            __ZN20MTRestZoneIntegrator25rotationFromVectorProductE7MTPointS0_S0_,
                            __ZN20MTRestZoneIntegrator26integrateRestingZoneMotionERK12MTPathStatesi,
                            __ZN20MTRestZoneIntegrator31combineCentralFingerScaleRotateERK12MTPathStatesRK12MTParserPathRK7MTPoint,
                            __ZN20MTRestZoneIntegrator31translationSimilarityDotProductE7MTPointS0_,
                            __ZN20MTRestZoneIntegrator5clearEv,
                            __ZN20MTRestZoneIntegratorC1ERK19MTSurfaceDimensions12MTParserType15MTParserOptions,
                            __ZN20MTRestZoneIntegratorC2ERK19MTSurfaceDimensions12MTParserType15MTParserOptions,
                            __ZN20MTRestZoneIntegratorD0Ev,
                            __ZN20MTRestZoneIntegratorD1Ev,
                            __ZN20MTRestZoneIntegratorD2Ev,
                            __ZN20MTTrackpadHIDManager10initializeEP18MultitouchHIDClassP10__MTDevice12MTParserType15MTParserOptions,
                            __ZN20MTTrackpadHIDManager10isUserPrefEPK10__CFStringPb,
                            __ZN20MTTrackpadHIDManager11setPropertyEPK10__CFStringPKv,
                            __ZN20MTTrackpadHIDManager11setPropertyEPK10__CFStringPKvb,
                            __ZN20MTTrackpadHIDManager12copyPropertyEPK10__CFString,
                            __ZN20MTTrackpadHIDManager12getUserPrefsEPPK17mt_UserPreference,
                            __ZN20MTTrackpadHIDManager13createManagerEP18MultitouchHIDClassP10__MTDevice12MTParserType15MTParserOptions,
                            __ZN20MTTrackpadHIDManager15setDeviceUsagesEv,
                            __ZN20MTTrackpadHIDManager16getGestureParserEv,
                            __ZN20MTTrackpadHIDManager16hwSupports3FDragEv,
                            __ZN20MTTrackpadHIDManager17checkForDisablersEv,
                            __ZN20MTTrackpadHIDManager17handleButtonStateEP10__MTDevicejjPv,
                            __ZN20MTTrackpadHIDManager17updatePreferencesEPK10__CFStringPKv,
                            __ZN20MTTrackpadHIDManager18forwardButtonStateEP10__MTDevicejjPv,
                            __ZN20MTTrackpadHIDManager18handleContactFrameEP10__MTDeviceP9MTContactidyPv,
                            __ZN20MTTrackpadHIDManager18resetGestureParserEb,
                            __ZN20MTTrackpadHIDManager19createGestureParserEv,
                            __ZN20MTTrackpadHIDManager19getTrackpadSettingsEv,
                            __ZN20MTTrackpadHIDManager19setPropertyInternalE18_MTHIDPropertyTypePKvb,
                            __ZN20MTTrackpadHIDManager20destroyGestureParserEv,
                            __ZN20MTTrackpadHIDManager20shouldRecordPropertyEPK10__CFString,
                            __ZN20MTTrackpadHIDManager21createEventDispatcherEv,
                            __ZN20MTTrackpadHIDManager21createScrollZoomComboEP14__CFDictionaryPK10__CFString,
                            __ZN20MTTrackpadHIDManager21setPreferenceDefaultsEP10__MTDevice,
                            __ZN20MTTrackpadHIDManager22setTipOffsetParametersEPK29MTHMFingerTipOffsetParameters,
                            __ZN20MTTrackpadHIDManager22updateHIDManagerConfigEv,
                            __ZN20MTTrackpadHIDManager23copyTipOffsetParametersEv,
                            __ZN20MTTrackpadHIDManager23handleNotificationEventEP10__MTDevice19MTNotificationEventPv,
                            __ZN20MTTrackpadHIDManager23handlePowerNotificationEPvjjS0_,
                            __ZN20MTTrackpadHIDManager23initializeGestureParserEv,
                            __ZN20MTTrackpadHIDManager23registerSystemCallbacksEv,
                            __ZN20MTTrackpadHIDManager25getForceSourceForBehaviorEi,
                            __ZN20MTTrackpadHIDManager25handleInputDetectionStateEP10__MTDevicejssPv,
                            __ZN20MTTrackpadHIDManager25setDeviceAccelerationDataEP14__CFDictionary,
                            __ZN20MTTrackpadHIDManager25unregisterSystemCallbacksEv,
                            __ZN20MTTrackpadHIDManager26activateHIDManagerSettingsEv,
                            __ZN20MTTrackpadHIDManager26forwardRelativePointerDataEP10__MTDeviceiijyPv,
                            __ZN20MTTrackpadHIDManager26setDeviceDefaultPropertiesEv,
                            __ZN20MTTrackpadHIDManager26setPluginDefaultPropertiesEv,
                            __ZN20MTTrackpadHIDManager27determineHIDManagerSettingsEv,
                            __ZN20MTTrackpadHIDManager27initDefaultTrackpadSettingsEP10__MTDeviceP27mt_StandardTrackpadSettings,
                            __ZN20MTTrackpadHIDManager27registerDeviceDataCallbacksEv,
                            __ZN20MTTrackpadHIDManager27wasScheduledOnDispatchQueueEP16dispatch_queue_s,
                            __ZN20MTTrackpadHIDManager28cancelCurrentTapAndAHalfDragEv,
                            __ZN20MTTrackpadHIDManager28createPointClickTapDragComboEP14__CFDictionaryPK10__CFStringbbbbb,
                            __ZN20MTTrackpadHIDManager28dispatchRelativePointerEventEP10__MTDeviceiijyPv,
                            __ZN20MTTrackpadHIDManager29createRestingSwipeOrDockComboEP14__CFDictionaryPK10__CFString24MTRelaxingTransitionTypebbbbbbbbbb,
                            __ZN20MTTrackpadHIDManager29registerForPowerNotificationsEv,
                            __ZN20MTTrackpadHIDManager29unregisterDeviceDataCallbacksEv,
                            __ZN20MTTrackpadHIDManager29updateEventDispatcherSettingsEv,
                            __ZN20MTTrackpadHIDManager30cancelNotificationCenterSourceEv,
                            __ZN20MTTrackpadHIDManager31hwSupportsSecondaryClickCornersEv,
                            __ZN20MTTrackpadHIDManager31restoreDevicePropertiesToDeviceEv,
                            __ZN20MTTrackpadHIDManager31unregisterForPowerNotificationsEv,
                            __ZN20MTTrackpadHIDManager31wasUnscheduledFromDispatchQueueEP16dispatch_queue_s,
                            __ZN20MTTrackpadHIDManager32activateDeviceSurfaceOrientationEv,
                            __ZN20MTTrackpadHIDManager32scheduleTapAndAHalfCallbackTimerEdd,
                            __ZN20MTTrackpadHIDManager32stopNotificationCenterMonitoringEv,
                            __ZN20MTTrackpadHIDManager33_activateDeviceSurfaceOrientationE20MTSurfaceOrientation24MTSurfaceOrientationMode,
                            __ZN20MTTrackpadHIDManager33_tapAndAHalfTimerCallbackFunctionEP17dispatch_source_s,
                            __ZN20MTTrackpadHIDManager33cancelNotificationCenterAltSourceEv,
                            __ZN20MTTrackpadHIDManager33startNotificationCenterMonitoringEi,
                            __ZN20MTTrackpadHIDManager34createDefaultGestureSetsDictionaryEv,
                            __ZN20MTTrackpadHIDManager35createDefaultActionEventsDictionaryEv,
                            __ZN20MTTrackpadHIDManager35determineSurfaceOrientationSettingsEv,
                            __ZN20MTTrackpadHIDManager35stopNotificationCenterAltMonitoringEv,
                            __ZN20MTTrackpadHIDManager36startNotificationCenterAltMonitoringEi,
                            __ZN20MTTrackpadHIDManager37handleScreenSaverLaunchedNotificationEP22__CFNotificationCenterPvPK10__CFStringPKvPK14__CFDictionary,
                            __ZN20MTTrackpadHIDManager38forwardScreenSaverLaunchedNotificationEP22__CFNotificationCenterPvPK10__CFStringPKvPK14__CFDictionary,
                            __ZN20MTTrackpadHIDManager41cancelOutstandingTapAndAHalfCallbackTimerEv,
                            __ZN20MTTrackpadHIDManager42createDefaultMotionSensitivitiesDictionaryEv,
                            __ZN20MTTrackpadHIDManager43handleSurfaceOrientationChangedNotificationEP22__CFNotificationCenterPvPK10__CFStringPKvPK14__CFDictionary,
                            __ZN20MTTrackpadHIDManager44forwardSurfaceOrientationChangedNotificationEP22__CFNotificationCenterPvPK10__CFStringPKvPK14__CFDictionary,
                            __ZN20MTTrackpadHIDManager4stopEv,
                            __ZN20MTTrackpadHIDManager7getNameEv,
                            __ZN20MTTrackpadHIDManager8finalizeEv,
                            __ZN21MTInterferenceMonitor17hasConnectedtoUSBEv,
                            __ZN21MTInterferenceMonitor20restoreStateToDeviceEv,
                            __ZN21MTInterferenceMonitor22isUSBChargingAvailableEPKvPv,
                            __ZN21MTInterferenceMonitor23cachePowerSourceDriversEv,
                            __ZN21MTInterferenceMonitor23hasEnteredWirelessFieldEv,
                            __ZN21MTInterferenceMonitor25releaseCachedPowerDriversEv,
                            __ZN21MTInterferenceMonitor27isWirelessChargingAvailableEPKvPv,
                            __ZN21MTInterferenceMonitor29sendUSBConnectionNotificationEv,
                            __ZN21MTInterferenceMonitor29sendWirelessFieldNotificationEv,
                            __ZN21MTInterferenceMonitor30powerDriverChangedNotificationEPvjjS0_,
                            __ZN21MTInterferenceMonitor37sendWirelessFieldAgressorNotificationEv,
                            __ZN21MTInterferenceMonitor4stopEv,
                            __ZN21MTInterferenceMonitor5_stopEv,
                            __ZN21MTInterferenceMonitor5startEP16dispatch_queue_sP10__MTDevice,
                            __ZN21MTInterferenceMonitor9sendEventE11MTHostEvent,
                            __ZN21MTInterferenceMonitorC1Ev,
                            __ZN21MTInterferenceMonitorC2Ev,
                            __ZN21MTInterferenceMonitorD0Ev,
                            __ZN21MTInterferenceMonitorD1Ev,
                            __ZN21MTInterferenceMonitorD2Ev,
                            __ZN22MTChordCyclingTrackpad15chk4newTapChordER16MTHandStatisticsRK12MTHandMotionP17MTChordGestureSet,
                            __ZN22MTChordCyclingTrackpad15handleChordTapsERK16MTHandStatisticsRK12MTHandMotionP12__IOHIDEventbb,
                            __ZN22MTChordCyclingTrackpad16chk4chordCyclingER16MTHandStatisticsRK12MTHandMotionP12__IOHIDEvent,
                            __ZN22MTChordCyclingTrackpad25possiblyStopChordMomentumERK16MTHandStatisticsRK12MTHandMotionP12__IOHIDEvent,
                            __ZN22MTChordCyclingTrackpadC1E14MTHandIdentityPcR23MTDragManagerEventQueueb12MTParserType,
                            __ZN22MTChordCyclingTrackpadC2E14MTHandIdentityPcR23MTDragManagerEventQueueb12MTParserType,
                            __ZN22MTMouseEventDispatcher13dispatchEventEP12__IOHIDEventj,
                            __ZN22MTMouseEventDispatcher16createDispatcherEP17MTMouseHIDManagerP10__MTDevice,
                            __ZN22MTMouseEventDispatcher19shouldDispatchEventEP12__IOHIDEvent,
                            __ZN23MTDragManagerEventQueue12stopMomentumER14MTChordCyclingP12__IOHIDEvent17MTMomentumSubType,
                            __ZN23MTDragManagerEventQueue13dispatchFluidERK13MTActionEventP12__IOHIDEvent14MTGesturePhaseffiRK15MT2DPlaneMotion21MTMotionAxesSpecifier,
                            __ZN23MTDragManagerEventQueue13startMomentumER14MTChordCyclingP12__IOHIDEvent17MTMomentumSubType,
                            __ZN23MTDragManagerEventQueue17forceButtonChangeEP12__IOHIDEvent,
                            __ZN23MTDragManagerEventQueue17serviceEventQueueEP12__IOHIDEventR15MTGestureConfigdj,
                            __ZN23MTDragManagerEventQueue23dispatchModifierUpdatesEP12__IOHIDEventjbii,
                            __ZN23MTDragManagerEventQueue24autoInsertModifierEventsEP12__IOHIDEventPK13MTActionEventj,
                            __ZN23MTDragManagerEventQueue26ready2autoReleaseModifiersERK15MTGestureConfigdj,
                            __ZN23MTDragManagerEventQueue34enableAutoReleaseOfMultiFingerDragEv,
                            __ZN23MTDragManagerEventQueue8dispatchERK13MTActionEventP12__IOHIDEvent14MTGesturePhasePK14MTEventMickeysRK15MT2DPlaneMotion21MTMotionAxesSpecifier16MTChordSpecifierd,
                            __ZN23MTDragManagerEventQueueC1Ev,
                            __ZN23MTDragManagerEventQueueC2Ev,
                            __ZN23MTInputDeviceManagement14publishServiceEP14__CFDictionary,
                            __ZN23MTInputDeviceManagement16unpublishServiceEv,
                            __ZN23MTInputDeviceManagement23scheduleOnDispatchQueueEP16dispatch_queue_s,
                            __ZN23MTInputDeviceManagement27unscheduleFromDispatchQueueEP16dispatch_queue_s,
                            __ZN23MTInputDeviceManagement28DeviceManagerMatchedCallbackEPvj,
                            __ZN23MTInputDeviceManagementC1EP10__MTDevice,
                            __ZN23MTInputDeviceManagementC2EP10__MTDevice,
                            __ZN23MTInputDeviceManagementD0Ev,
                            __ZN23MTInputDeviceManagementD1Ev,
                            __ZN23MTInputDeviceManagementD2Ev,
                            __ZN23MTSimpleEventDispatcher10initializeEP18MTSimpleHIDManagerP10__MTDevice,
                            __ZN23MTSimpleEventDispatcher11getMTDeviceEv,
                            __ZN23MTSimpleEventDispatcher11handleEventEP12__IOHIDEventj,
                            __ZN23MTSimpleEventDispatcher13copyDebugDataEv,
                            __ZN23MTSimpleEventDispatcher13dispatchEventEP12__IOHIDEventj,
                            __ZN23MTSimpleEventDispatcher14recordHIDEventEP12__IOHIDEventi,
                            __ZN23MTSimpleEventDispatcher16createDispatcherEP18MTSimpleHIDManagerP10__MTDevice,
                            __ZN23MTSimpleEventDispatcher16setEventCallbackEPFvPvS0_S0_P12__IOHIDEventjES0_S0_,
                            __ZN23MTSimpleEventDispatcher19getHIDDispatchQueueEv,
                            __ZN23MTSimpleEventDispatcher19setHIDDispatchQueueEP16dispatch_queue_s,
                            __ZN23MTSimpleEventDispatcher19shouldDispatchEventEP12__IOHIDEvent,
                            __ZN23MTSimpleEventDispatcher23setDispatchAllHIDEventsEb,
                            __ZN23MTSimpleEventDispatcher26shouldDispatchAllHIDEventsEv,
                            __ZN23MTSimpleEventDispatcher6retainEv,
                            __ZN23MTSimpleEventDispatcher7releaseEv,
                            __ZN23MTSimpleEventDispatcher8finalizeEv,
                            __ZN23MTSimpleEventDispatcher8getOwnerEv,
                            __ZN23MTSimpleEventDispatcherC1Ev,
                            __ZN23MTSimpleEventDispatcherC2Ev,
                            __ZN23MTSimpleEventDispatcherD0Ev,
                            __ZN23MTSimpleEventDispatcherD1Ev,
                            __ZN23MTSimpleEventDispatcherD2Ev,
                            __ZN23MultitouchIOHIDIUnknown13factoryAddRefEv,
                            __ZN23MultitouchIOHIDIUnknown13genericAddRefEPv,
                            __ZN23MultitouchIOHIDIUnknown14factoryReleaseEv,
                            __ZN23MultitouchIOHIDIUnknown14genericReleaseEPv,
                            __ZN23MultitouchIOHIDIUnknown15factoryRefCountE,
                            __ZN23MultitouchIOHIDIUnknown21genericQueryInterfaceEPv11CFUUIDBytesPS0_,
                            __ZN23MultitouchIOHIDIUnknown6addRefEv,
                            __ZN23MultitouchIOHIDIUnknown7releaseEv,
                            __ZN23MultitouchIOHIDIUnknownC2EPv,
                            __ZN23MultitouchIOHIDIUnknownD0Ev,
                            __ZN23MultitouchIOHIDIUnknownD1Ev,
                            __ZN23MultitouchIOHIDIUnknownD2Ev,
                            __ZN25MTMouseEmbeddedHIDManager12getUserPrefsEPPK17mt_UserPreference,
                            __ZN25MTMouseEmbeddedHIDManager13createManagerEP18MultitouchHIDClassP10__MTDevice12MTParserType15MTParserOptions,
                            __ZN25MTMouseEmbeddedHIDManager19setPropertyInternalE18_MTHIDPropertyTypePKvb,
                            __ZN25MTMouseEmbeddedHIDManager21createEventDispatcherEv,
                            __ZN25MTMouseEmbeddedHIDManager25setDeviceAccelerationDataEP14__CFDictionary,
                            __ZN25MTMouseEmbeddedHIDManager26setDeviceDefaultPropertiesEv,
                            __ZN25MTTrackpadEventDispatcher10initializeEP18MTSimpleHIDManagerP10__MTDevice,
                            __ZN25MTTrackpadEventDispatcher11handleEventEP12__IOHIDEventj,
                            __ZN25MTTrackpadEventDispatcher12shouldRecordEj,
                            __ZN25MTTrackpadEventDispatcher13copyDebugDataEv,
                            __ZN25MTTrackpadEventDispatcher14recordHIDEventEP12__IOHIDEventi,
                            __ZN25MTTrackpadEventDispatcher16createDispatcherEP20MTTrackpadHIDManagerP10__MTDevice,
                            __ZN25MTTrackpadEventDispatcher16updateClickStateEb,
                            __ZN25MTTrackpadEventDispatcher17updateFingerStatsEv,
                            __ZN25MTTrackpadEventDispatcher18getNextScrollPhaseEjb,
                            __ZN25MTTrackpadEventDispatcher19dispatchScrollEventEiiib,
                            __ZN25MTTrackpadEventDispatcher21dispatchPointingEventEiijyb,
                            __ZN25MTTrackpadEventDispatcher21isStdScrollInProgressEj,
                            __ZN25MTTrackpadEventDispatcher21shouldRecordAsGestureEj,
                            __ZN25MTTrackpadEventDispatcher22momentumDecayRateAlphaEfff17MTMomentumSubType,
                            __ZN25MTTrackpadEventDispatcher24momentumCallbackFunctionEP17dispatch_source_s,
                            __ZN25MTTrackpadEventDispatcher26checkForMomentumInitiationEP12__IOHIDEvent,
                            __ZN25MTTrackpadEventDispatcher26getHIDPhaseFromScrollPhaseEj,
                            __ZN25MTTrackpadEventDispatcher26startMomentumTimerForEventEP12__IOHIDEvent17MTMomentumSubType,
                            __ZN25MTTrackpadEventDispatcher28checkForMomentumCancellationEP12__IOHIDEvent,
                            __ZN25MTTrackpadEventDispatcher30cancelOutstandingMomentumTimerEv,
                            __ZN25MTTrackpadEventDispatcher31wasUnscheduledFromDispatchQueueEP16dispatch_queue_s,
                            __ZN25MTTrackpadEventDispatcher36dispatchMomentumScrollStartStopEventEb,
                            __ZN25MTTrackpadEventDispatcher8finalizeEv,
                            __ZN26MTSimpleEmbeddedHIDManager10initializeEP18MultitouchHIDClassP10__MTDevice12MTParserType15MTParserOptions,
                            __ZN26MTSimpleEmbeddedHIDManager11resetDeviceEv,
                            __ZN26MTSimpleEmbeddedHIDManager12closeManagerEv,
                            __ZN26MTSimpleEmbeddedHIDManager12copyPropertyEPK10__CFString,
                            __ZN26MTSimpleEmbeddedHIDManager13createManagerEP18MultitouchHIDClassP10__MTDevice12MTParserType15MTParserOptions,
                            __ZN26MTSimpleEmbeddedHIDManager16getGestureParserEv,
                            __ZN26MTSimpleEmbeddedHIDManager16handleImageEntryEP10__MTDevicePsP17MTImageDescriptor,
                            __ZN26MTSimpleEmbeddedHIDManager17deviceDidBootloadEv,
                            __ZN26MTSimpleEmbeddedHIDManager17handleFrameHeaderEP10__MTDeviceP19MTBinaryFrameHeaderPv,
                            __ZN26MTSimpleEmbeddedHIDManager18handleContactFrameEP10__MTDeviceP9MTContactidyPv,
                            __ZN26MTSimpleEmbeddedHIDManager18resetGestureParserEb,
                            __ZN26MTSimpleEmbeddedHIDManager19createGestureParserEv,
                            __ZN26MTSimpleEmbeddedHIDManager19setPropertyInternalE18_MTHIDPropertyTypePKvb,
                            __ZN26MTSimpleEmbeddedHIDManager20destroyGestureParserEv,
                            __ZN26MTSimpleEmbeddedHIDManager21createEventDispatcherEv,
                            __ZN26MTSimpleEmbeddedHIDManager22setTipOffsetParametersEPK29MTHMFingerTipOffsetParameters,
                            __ZN26MTSimpleEmbeddedHIDManager23copyTipOffsetParametersEv,
                            __ZN26MTSimpleEmbeddedHIDManager23initializeGestureParserEv,
                            __ZN26MTSimpleEmbeddedHIDManager26setPluginDefaultPropertiesEv,
                            __ZN26MTSimpleEmbeddedHIDManager31devicePropertiesBecameAvailableEv,
                            __ZN26MTSimpleEmbeddedHIDManager4stopEv,
                            __ZN26MTSimpleEmbeddedHIDManager5startEv,
                            __ZN26MTSimpleEmbeddedHIDManager7getNameEv,
                            __ZN26MTSimpleEmbeddedHIDManager8finalizeEv,
                            __ZN28MTForceBehaviorConfiguration11popBehaviorERK15MTForceBehavior,
                            __ZN28MTForceBehaviorConfiguration12pushBehaviorERK15MTForceBehavior,
                            __ZN28MTForceBehaviorConfiguration14clearBehaviorsEv,
                            __ZN28MTForceBehaviorConfiguration18addDefaultBehaviorERK15MTForceBehavior,
                            __ZN28MTForceBehaviorConfiguration24clearNonDefaultBehaviorsEv,
                            __ZN28MTForceBehaviorConfigurationC1Ev,
                            __ZN28MTForceBehaviorConfigurationC2Ev,
                            __ZN28MTSimpleEmbeddedHIDManagerV212setTouchModeEtt,
                            __ZN28MTSimpleEmbeddedHIDManagerV213createManagerEP18MultitouchHIDClassP10__MTDevice12MTParserType15MTParserOptions,
                            __ZN28MTSimpleEmbeddedHIDManagerV213setPowerStateE12MTPowerStateb,
                            __ZN28MTSimpleEmbeddedHIDManagerV214setOrientationEt,
                            __ZN28MTSimpleEmbeddedHIDManagerV226setDeviceDefaultPropertiesEv,
                            __ZN28MTSimpleEmbeddedHIDManagerV235setInputDetectionModeForOrientationEtt,
                            __ZN28MTSimpleEmbeddedHIDManagerV27getNameEv,
                            __ZN28MTTelemetryAnalyticsReporter22processTelemetryReportEP10__MTDevicePhjPv,
                            __ZN28MTTelemetryAnalyticsReporter4stopEv,
                            __ZN28MTTelemetryAnalyticsReporter5startEP10__MTDevice,
                            __ZN28MTTelemetryAnalyticsReporterC1Ev,
                            __ZN28MTTelemetryAnalyticsReporterC2Ev,
                            __ZN28MTTelemetryAnalyticsReporterD1Ev,
                            __ZN28MTTelemetryAnalyticsReporterD2Ev,
                            __ZN28MTTrackpadEmbeddedHIDManager10initializeEP18MultitouchHIDClassP10__MTDevice12MTParserType15MTParserOptions,
                            __ZN28MTTrackpadEmbeddedHIDManager11setPropertyEPK10__CFStringPKv,
                            __ZN28MTTrackpadEmbeddedHIDManager12copyPropertyEPK10__CFString,
                            __ZN28MTTrackpadEmbeddedHIDManager12getUserPrefsEPPK17mt_UserPreference,
                            __ZN28MTTrackpadEmbeddedHIDManager12setHostStateE30MTHIDDeviceGraphicsOrientationbb,
                            __ZN28MTTrackpadEmbeddedHIDManager13createManagerEP18MultitouchHIDClassP10__MTDevice12MTParserType15MTParserOptions,
                            __ZN28MTTrackpadEmbeddedHIDManager13setPowerStateE12MTPowerStateb,
                            __ZN28MTTrackpadEmbeddedHIDManager14setOrientationEt,
                            __ZN28MTTrackpadEmbeddedHIDManager18handleContactFrameEP10__MTDeviceP9MTContactidyPv,
                            __ZN28MTTrackpadEmbeddedHIDManager19setPropertyInternalE18_MTHIDPropertyTypePKvb,
                            __ZN28MTTrackpadEmbeddedHIDManager20renameUserFacingKeysEPK10__CFString,
                            __ZN28MTTrackpadEmbeddedHIDManager21createEventDispatcherEv,
                            __ZN28MTTrackpadEmbeddedHIDManager22setPowerStateWithResetE12MTPowerStateb,
                            __ZN28MTTrackpadEmbeddedHIDManager25setDeviceAccelerationDataEP14__CFDictionary,
                            __ZN28MTTrackpadEmbeddedHIDManager26setDeviceDefaultPropertiesEv,
                            __ZN28MTTrackpadEmbeddedHIDManager26setPluginDefaultPropertiesEv,
                            __ZN28MTTrackpadEmbeddedHIDManager27wasScheduledOnDispatchQueueEP16dispatch_queue_s,
                            __ZN28MTTrackpadEmbeddedHIDManager31wasUnscheduledFromDispatchQueueEP16dispatch_queue_s,
                            __ZN28MTTrackpadEmbeddedHIDManager8finalizeEv,
                            __ZN30MTMouseEmbeddedEventDispatcher11handleEventEP12__IOHIDEventj,
                            __ZN30MTMouseEmbeddedEventDispatcher16createDispatcherEP25MTMouseEmbeddedHIDManagerP10__MTDevice,
                            __ZN30MTMouseEmbeddedEventDispatcher21dispatchPointingEventEiijyb,
                            __ZN30MTMouseEmbeddedEventDispatcher26shouldDispatchPointerEventEP12__IOHIDEventS1_S1_,
                            __ZN31MTSimpleEmbeddedEventDispatcher16createDispatcherEP26MTSimpleEmbeddedHIDManagerP10__MTDevice,
                            __ZN31MTSimpleEmbeddedEventDispatcher19shouldDispatchEventEP12__IOHIDEvent,
                            __ZN31MTSimpleEmbeddedEventDispatcher24markEventDispatchAllModeEP12__IOHIDEvent,
                            __ZN32MTSimpleEmbeddedStylusHIDManager12setTouchModeEtt,
                            __ZN32MTSimpleEmbeddedStylusHIDManager13createManagerEP18MultitouchHIDClassP10__MTDevice12MTParserType15MTParserOptions,
                            __ZN32MTSimpleEmbeddedStylusHIDManager15setDeviceUsagesEv,
                            __ZN32MTSimpleEmbeddedStylusHIDManager21createEventDispatcherEv,
                            __ZN32MTSimpleEmbeddedStylusHIDManager35setInputDetectionModeForOrientationEtt,
                            __ZN32MTSimpleEmbeddedStylusHIDManager7getNameEv,
                            __ZN33MTTrackpadEmbeddedEventDispatcher11handleEventEP12__IOHIDEventj,
                            __ZN33MTTrackpadEmbeddedEventDispatcher13dispatchEventEP12__IOHIDEventj,
                            __ZN33MTTrackpadEmbeddedEventDispatcher16createDispatcherEP28MTTrackpadEmbeddedHIDManagerP10__MTDevice,
                            __ZN33MTTrackpadEmbeddedEventDispatcher19dispatchScrollEventEiiib,
                            __ZN33MTTrackpadEmbeddedEventDispatcher21dispatchPointingEventEiijyb,
                            __ZN33MTTrackpadEmbeddedEventDispatcher26shouldDispatchPointerEventEP12__IOHIDEventS1_S1_S1_S1_S1_S1_,
                            __ZN37MTSimpleEmbeddedStylusEventDispatcher16createDispatcherEP32MTSimpleEmbeddedStylusHIDManagerP10__MTDevice,
                            __ZN37MTSimpleEmbeddedStylusEventDispatcher19shouldDispatchEventEP12__IOHIDEvent,
                            __ZN8MTParser15deviceWillResetEv,
                            __ZN8MTParser17handleFrameHeaderEP19MTBinaryFrameHeader,
                            __ZN8MTParser18handleContactFrameEP9MTContactidyPP12__IOHIDEventS4_Pd,
                            __ZN8MTParser20handleForceHIDEventsEPP12__IOHIDEventb,
                            __ZN8MTParser21processForceHIDEventsER12MTPathStatesP12__IOHIDEvent,
                            __ZN8MTParser23createParserForMTDeviceEP10__MTDevice12MTParserType15MTParserOptions,
                            __ZN8MTParser23updateSurfaceDimensionsEv,
                            __ZN8MTParser24getNonRestingFingerCountEb,
                            __ZN8MTParser24updatePixelResolution_mmEf,
                            __ZN8MTParser26autoReleaseTapAndAHalfDragEdPP12__IOHIDEvent,
                            __ZN8MTParser26getHostClickControlEnabledEv,
                            __ZN8MTParser26setHostClickControlEnabledEb,
                            __ZN8MTParser27createMotionAxisChildEventsEP12__IOHIDEventRK12MTHandMotiony,
                            __ZN8MTParser27feedbackMomentumTimerStatusE17MTMomentumSubTypeb,
                            __ZN8MTParser29createEmptyHIDCollectionEventEv,
                            __ZN8MTParser30createDigitizerPathChildEventsEP12__IOHIDEventRK12MTPathStatesjRK12MTHandMotionyPj,
                            __ZN8MTParser32createDigitizerChildEventForPathEP12__IOHIDEventRK12MTParserPathyjb,
                            __ZN8MTParser32createHIDCollectionEventsForHandERK12MTPathStatesRK16MTHandStatisticsRK12MTHandMotionjd,
                            __ZN8MTParser33systemForceResponseEnabledChangedEv,
                            __ZN8MTParser40alwaysGenerateNotificationCenterGesturesEb,
                            __ZN8MTParser43alwaysGenerateNotificationCenterAltGesturesEb,
                            __ZN8MTParser5clearEPP12__IOHIDEventS2_,
                            __ZN8MTParser6retainEv, __ZN8MTParser7releaseEv,
                            __ZN8MTParserC1EP10__MTDevice12MTParserType15MTParserOptionsP19MTSurfaceDimensions,
                            __ZN8MTParserC2EP10__MTDevice12MTParserType15MTParserOptionsP19MTSurfaceDimensions,
                            __ZN8MTParserD0Ev, __ZN8MTParserD1Ev,
                            __ZN8MTParserD2Ev,
                            __ZN9MTGesture14dispatchEventsER23MTDragManagerEventQueueP12__IOHIDEvent14MTGesturePhasePK14MTEventMickeysRK15MT2DPlaneMotion21MTMotionAxesSpecifier16MTChordSpecifierd,
                            __ZNK12MTHandMotion16getSpeedSymmetryEfj,
                            __ZNK12MTHandMotion17fastest2FpairMaskERK12MTPathStates,
                            __ZNK12MTHandMotion18fastest1FingerMaskERK12MTPathStatesRf,
                            __ZNK12MTHandMotion20computeSpeedSymmetryERK12MTPathStatestff,
                            __ZNK12MTHandMotion22getMouseMotionFeedbackEi,
                            __ZNK12MTHandMotion23getButtonMotionFeedbackEv,
                            __ZNK12MTHandMotion34outermostFingersAreWidelySeparatedEb,
                            __ZNK12MTParserPath13isEdgeContactEv,
                            __ZNK12MTParserPath13isPalmContactEv,
                            __ZNK12MTParserPath13isSideContactEv,
                            __ZNK12MTParserPath14isThumbContactEv,
                            __ZNK12MTParserPath14stableAndMovedEv,
                            __ZNK12MTParserPath15isBottomContactEv,
                            __ZNK12MTParserPath15isFingerContactEv,
                            __ZNK12MTParserPath15isStylusContactEv,
                            __ZNK12MTParserPath16wasFingerContactEv,
                            __ZNK12MTParserPath16wasStylusContactEv,
                            __ZNK12MTParserPath17isPalmHeelContactEv,
                            __ZNK12MTParserPath18getDisplacement_mmEv,
                            __ZNK12MTParserPath18isValidClickSourceEv,
                            __ZNK12MTParserPath18isValidForceSourceEi,
                            __ZNK12MTParserPath19isEdgeContactTypingEv,
                            __ZNK12MTParserPath20isBottomOrTopContactEv,
                            __ZNK12MTParserPath21fingerLiftoffNearEdgeERK19MTSurfaceDimensionsd,
                            __ZNK12MTParserPath21isUnidentifiedContactEv,
                            __ZNK12MTParserPath23getAverageVelocity_mm_sEv,
                            __ZNK12MTParserPath23isThumbAlongEdgeContactEv,
                            __ZNK12MTParserPath24isFingerOrRestingContactEv,
                            __ZNK12MTParserPath24isValidEdgeStraddleClickEv,
                            __ZNK12MTParserPath25wasFingerOrRestingContactEv,
                            __ZNK12MTParserPath26generateFlagsEventMaskBitsERK9MTContact,
                            __ZNK12MTParserPath26getQuantizedMajorRadius_mmEv,
                            __ZNK12MTParserPath26getQuantizedMinorRadius_mmEv,
                            __ZNK12MTParserPath28applyAbsoluteForceHysteresisEfRffRK22MTPathFilterParameters,
                            __ZNK12MTParserPath28applyAbsolutePixelHysteresisE7MTPointRS0_S0_f,
                            __ZNK12MTParserPath28bypassUpToHysteresisOfMotionEfRff,
                            __ZNK12MTParserPath29getQuantizedRadiusAccuracy_mmEv,
                            __ZNK12MTParserPath31applyMinimumIncrementHysteresisEfRfff,
                            __ZNK12MTPathStates21getMaxDisplacement_mmEv,
                            __ZNK12MTPathStates24getMaxThumbRestingHeightEv,
                            __ZNK12MTPathStates27restingTranslationCertaintyEv,
                            __ZNK12MTPathStates28sumOfLowpassPeakFingerSpeedsEv,
                            __ZNK12MTPathStates31getHighRestingThumbDisplacementEv,
                            __ZNK12MTPathStates31getThumbRestingZoneAdaptiveBaseEv,
                            __ZNK12MTPathStates32getThumbRestingOrPolarZoneHeightEv,
                            __ZNK12MTPathStates32hasFastestLowpassPeakFingerSpeedEi,
                            __ZNK12MTPathStates34get_3F_IncludingThumbSpeedSymmetryEv,
                            __ZNK12MTPathStates48getPrePixelatedPositionFromPostPixelatedPositionEi,
                            __ZNK13MTActionEvent22deriveGestureEndedTypeEv,
                            __ZNK13MTActionEvent24deriveGestureStartedTypeEv,
                            __ZNK13MTActionEvent25deriveFluidIOHIDEventTypeEv,
                            __ZNK13MTActionEvent26getModifierMaskFromKeyCodeEv,
                            __ZNK13MTActionEvent34deriveFlavorForFluidIOHIDEventTypeEv,
                            __ZNK13MTForceFilter24forceVelocityFilterAlphaEf,
                            __ZNK13MTForceFilter24surgeToActuationStrengthERK26MTForceActuationQualifiers,
                            __ZNK13MTForceFilter9surge_g_sEv,
                            __ZNK14MTChordCycling19slideGestureOngoingEd,
                            __ZNK14MTChordCycling28subsetSinceTapOrExcessMotionERK16MTHandStatistics,
                            __ZNK14MTChordCycling31touchdownSinceTapOrExcessMotionERK16MTHandStatistics,
                            __ZNK14MTSlideGesture17canOverrideLockOnERKS_,
                            __ZNK14MTSlideGesture17isActiveEdgeSlideERK16MTHandStatisticsRK18MTChordIntegratingb,
                            __ZNK14MTSlideGesture19canPunishSomeMovingERK16MTHandStatisticsR18MTChordIntegrating,
                            __ZNK14MTSlideGesture19peakSwipePercentageEv,
                            __ZNK14MTSlideGesture19relativeSensitivityEi,
                            __ZNK14MTSlideGesture20fluidSwipePercentageEv,
                            __ZNK14MTSlideGesture20someMovingMultiplierERK16MTHandStatisticsRK12MTHandMotionR18MTChordIntegrating,
                            __ZNK14MTSlideGesture23getDegreesOfFreedomMaskEv,
                            __ZNK14MTSlideGesture24fluidDOFPercentageDeltasEv,
                            __ZNK14MTSlideGesture25cumulativeMotionMagnitudeEv,
                            __ZNK14MTSlideGesture25fluidMomentumPercentage_sEb,
                            __ZNK14MTSlideGesture26hasSufficientFluidMomentumERK16MTHandStatisticsb,
                            __ZNK14MTSlideGesture26increasingSigmoidFromTdiffEddi,
                            __ZNK14MTSlideGesture27isLockedOutByTriggeredSlideERK16MTHandStatisticsRK18MTChordIntegratingb,
                            __ZNK15MTForceBehavior14behaviorEqualsERKS_,
                            __ZNK15MTForceBehavior19whichButtonBehaviorEv,
                            __ZNK15MTForceBehavior22forceSourceFingerCountEv,
                            __ZNK15MTForceBehavior5printEv,
                            __ZNK15MTGestureConfig18slideOrDragOngoingEdj,
                            __ZNK16MTTapDragManager17dragHandModifiersEv,
                            __ZNK16MTTapDragManager17shouldSustainDragEdj,
                            __ZNK16MTTapDragManager19halfTapDragTimedOutEd,
                            __ZNK16MTTapDragManager30shouldReleaseTapDragDueToPauseEd,
                            __ZNK17MTChordGestureSet18hasActiveEdgeSlideERK16MTHandStatisticsRK14MTChordCyclingb,
                            __ZNK17MTChordGestureSet19hasEnabledFluidDockERK12MTChordTable,
                            __ZNK17MTChordGestureSet25hasEnabledFluidNavigationERK12MTChordTable,
                            __ZNK17MTChordGestureSet27hasEnabledOrientationEventsERK12MTChordTable,
                            __ZNK17MTChordGestureSet7isEmptyEv,
                            __ZNK17MTFingerToPathMap23getInnermostInRangePathERK12MTPathStates,
                            __ZNK17MTFingerToPathMap23getOutermostInRangePathERK12MTPathStates,
                            __ZNK17MTFingerToPathMap24getInnermostTouchingPathERK12MTPathStates,
                            __ZNK17MTFingerToPathMap24getOutermostTouchingPathERK12MTPathStates,
                            __ZNK17MTFingerToPathMap24getParserPathForFingerIDEiRK12MTPathStates,
                            __ZNK17MTFingerToPathMap25getMutablePathForFingerIDEiR12MTPathStates,
                            __ZNK17MTFingerToPathMap28getNextInnermostTouchingPathERK12MTPathStates,
                            __ZNK17MTForceManagement22isForceButtonActivatedEv,
                            __ZNK17MTForceManagement25whichForceButtonActivatedEv,
                            __ZNK17MTPathStatesBasic24calculateCentroidOfPathsEP7MTPoint,
                            __ZNK17MTPathStatesBasic25numFingerSlidWhileEngagedEv,
                            __ZNK18MTChordIntegrating17markMomentumPauseERK16MTHandStatisticsfRd,
                            __ZNK18MTChordIntegrating18hasChordStabilizedERK16MTHandStatisticsRK12MTHandMotion,
                            __ZNK18MTChordIntegrating23filteredMomentumSquaredEv,
                            __ZNK18MTChordIntegrating23momentumHistoryTimedOutEd,
                            __ZNK18MTChordIntegrating26significantMomentumMickeysEf,
                            __ZNK18MTChordIntegrating29getActiveDegreesOfFreedomMaskERK16MTHandStatisticsRK14MTChordCycling,
                            __ZNK19MTForceThresholding18preReleaseProgressERK13MTForceFilterRK12MTParserPath,
                            __ZNK19MTForceThresholding19actuationWaveformIDEv,
                            __ZNK19MTForceThresholding20longtermPeakForStageE12MTForceStage,
                            __ZNK19MTForceThresholding21preActivationProgressERK13MTForceFilterRK12MTParserPath,
                            __ZNK19MTForceThresholding22basicThresholdForLevelE12MTForceLevel,
                            __ZNK19MTForceThresholding22postActivationProgressERK13MTForceFilterRK12MTParserPath,
                            __ZNK19MTForceThresholding23thresholdForNextReleaseERK13MTForceFilterRK12MTParserPath,
                            __ZNK19MTForceThresholding25adaptiveThresholdForLevelE12MTForceLevelRK13MTForceFilterRK12MTParserPath,
                            __ZNK19MTForceThresholding26thresholdForNextActivationERK13MTForceFilterRK12MTParserPath,
                            __ZNK19MTForceThresholding27getClickThresholdMultiplierE15MTClickStrength,
                            __ZNK19MTSurfaceDimensions20distanceToTopEdge_mmE7MTPoint,
                            __ZNK19MTSurfaceDimensions20minDistanceToEdge_mmE7MTPointbb,
                            __ZNK19MTSurfaceDimensions21distanceToLeftEdge_mmE7MTPoint,
                            __ZNK19MTSurfaceDimensions22distanceToRightEdge_mmE7MTPoint,
                            __ZNK19MTSurfaceDimensions23distanceToBottomEdge_mmE7MTPoint,
                            __ZNK19MTSurfaceDimensions26convertMillimetersToPixelsE7MTPoint,
                            __ZNK19MTSurfaceDimensions26convertPixelsToMillimetersE7MTPoint,
                            __ZNK19MTSurfaceDimensions30convertPixelDeltaToMillimetersEfb,
                            __ZNK19MTSurfaceDimensions30convertPixelsToSurfaceFractionE7MTPoint,
                            __ZNK19MTSurfaceDimensions30convertSurfaceFractionToPixelsE7MTPoint,
                            __ZNK19MTSurfaceDimensions35convertMillimetersToSurfaceFractionE7MTPoint,
                            __ZNK19MTSurfaceDimensions35convertSurfaceFractionToMillimetersE7MTPointb,
                            __ZNK19MTSurfaceDimensions39convertPixelDeltaToMillimetersPerSecondEfd,
                            __ZNK19MTSurfaceDimensions40convertPixelDeltasToMillimetersPerSecondE7MTPointd,
                            __ZNK19MTSurfaceDimensions42convertPixelVelocityToMillimetersPerSecondEf,
                            __ZNK19MTSurfaceDimensions47convertSurfaceFractionVelocityToPixelsPerSecondE7MTPoint,
                            __ZNK20MTRestZoneIntegrator19calcResidualBalanceEv,
                            __ZNK20MTRestZoneIntegrator19isLockedOnTranslateEv,
                            __ZNK20MTRestZoneIntegrator20adaptivePolarBalanceEv,
                            __ZNK20MTRestZoneIntegrator20translationDominanceEb,
                            __ZNK20MTRestZoneIntegrator22computeSpeedSimilarityERK12MTPathStates,
                            __ZNK20MTRestZoneIntegrator23polarTranslationBalanceEv,
                            __ZNK20MTRestZoneIntegrator24isLockedOnPolarSymmetricEv,
                            __ZNK20MTRestZoneIntegrator26shouldDoBiPolarIntegrationEb,
                            __ZNK28MTForceBehaviorConfiguration18collectiveBehaviorEi,
                            __ZNK28MTForceBehaviorConfiguration19firstFingerBehaviorEv,
                            __ZNK28MTForceBehaviorConfiguration20secondFingerBehaviorEv,
                            __ZNK28MTForceBehaviorConfiguration23matchingBehaviorInStackERKNSt3__16vectorI15MTForceBehaviorNS0_9allocatorIS2_EEEE17MTForceSourceMask,
                            __ZTI12MTChordTable, __ZTI12MTHandMotion,
                            __ZTI12MTParserPath, __ZTI12MTPathStates,
                            __ZTI13MTForceFilter, __ZTI13MTPowerLogger,
                            __ZTI14MTChordCycling, __ZTI15MTGestureConfig,
                            __ZTI16MTHandStatistics, __ZTI17MTFingerToPathMap,
                            __ZTI17MTMouseHIDManager, __ZTI17MTPathStatesBasic,
                            __ZTI18MTSimpleHIDManager, __ZTI18MultitouchHIDClass,
                            __ZTI19MTForceThresholding,
                            __ZTI19MTSurfaceDimensions,
                            __ZTI20MTPListGestureConfig,
                            __ZTI20MTRestZoneIntegrator,
                            __ZTI20MTTrackpadHIDManager,
                            __ZTI21MTInterferenceMonitor,
                            __ZTI22MTChordCyclingTrackpad,
                            __ZTI22MTMouseEventDispatcher,
                            __ZTI23MTDragManagerEventQueue,
                            __ZTI23MTInputDeviceManagement,
                            __ZTI23MTSimpleEventDispatcher,
                            __ZTI23MultitouchIOHIDIUnknown,
                            __ZTI25MTMouseEmbeddedHIDManager,
                            __ZTI25MTTrackpadEventDispatcher,
                            __ZTI26MTSimpleEmbeddedHIDManager,
                            __ZTI28MTSimpleEmbeddedHIDManagerV2,
                            __ZTI28MTTrackpadEmbeddedHIDManager,
                            __ZTI30MTMouseEmbeddedEventDispatcher,
                            __ZTI31MTSimpleEmbeddedEventDispatcher,
                            __ZTI32MTSimpleEmbeddedStylusHIDManager,
                            __ZTI33MTTrackpadEmbeddedEventDispatcher,
                            __ZTI37MTSimpleEmbeddedStylusEventDispatcher,
                            __ZTI8MTParser, __ZTS12MTChordTable,
                            __ZTS12MTHandMotion, __ZTS12MTParserPath,
                            __ZTS12MTPathStates, __ZTS13MTForceFilter,
                            __ZTS13MTPowerLogger, __ZTS14MTChordCycling,
                            __ZTS15MTGestureConfig, __ZTS16MTHandStatistics,
                            __ZTS17MTFingerToPathMap, __ZTS17MTMouseHIDManager,
                            __ZTS17MTPathStatesBasic, __ZTS18MTSimpleHIDManager,
                            __ZTS18MultitouchHIDClass,
                            __ZTS19MTForceThresholding,
                            __ZTS19MTSurfaceDimensions,
                            __ZTS20MTPListGestureConfig,
                            __ZTS20MTRestZoneIntegrator,
                            __ZTS20MTTrackpadHIDManager,
                            __ZTS21MTInterferenceMonitor,
                            __ZTS22MTChordCyclingTrackpad,
                            __ZTS22MTMouseEventDispatcher,
                            __ZTS23MTDragManagerEventQueue,
                            __ZTS23MTInputDeviceManagement,
                            __ZTS23MTSimpleEventDispatcher,
                            __ZTS23MultitouchIOHIDIUnknown,
                            __ZTS25MTMouseEmbeddedHIDManager,
                            __ZTS25MTTrackpadEventDispatcher,
                            __ZTS26MTSimpleEmbeddedHIDManager,
                            __ZTS28MTSimpleEmbeddedHIDManagerV2,
                            __ZTS28MTTrackpadEmbeddedHIDManager,
                            __ZTS30MTMouseEmbeddedEventDispatcher,
                            __ZTS31MTSimpleEmbeddedEventDispatcher,
                            __ZTS32MTSimpleEmbeddedStylusHIDManager,
                            __ZTS33MTTrackpadEmbeddedEventDispatcher,
                            __ZTS37MTSimpleEmbeddedStylusEventDispatcher,
                            __ZTS8MTParser, __ZTV12MTChordTable,
                            __ZTV12MTHandMotion, __ZTV12MTParserPath,
                            __ZTV12MTPathStates, __ZTV13MTForceFilter,
                            __ZTV13MTPowerLogger, __ZTV14MTChordCycling,
                            __ZTV15MTGestureConfig, __ZTV16MTHandStatistics,
                            __ZTV17MTFingerToPathMap, __ZTV17MTMouseHIDManager,
                            __ZTV17MTPathStatesBasic, __ZTV18MTSimpleHIDManager,
                            __ZTV18MultitouchHIDClass,
                            __ZTV19MTForceThresholding,
                            __ZTV19MTSurfaceDimensions,
                            __ZTV20MTPListGestureConfig,
                            __ZTV20MTRestZoneIntegrator,
                            __ZTV20MTTrackpadHIDManager,
                            __ZTV21MTInterferenceMonitor,
                            __ZTV22MTChordCyclingTrackpad,
                            __ZTV22MTMouseEventDispatcher,
                            __ZTV23MTDragManagerEventQueue,
                            __ZTV23MTInputDeviceManagement,
                            __ZTV23MTSimpleEventDispatcher,
                            __ZTV23MultitouchIOHIDIUnknown,
                            __ZTV25MTMouseEmbeddedHIDManager,
                            __ZTV25MTTrackpadEventDispatcher,
                            __ZTV26MTSimpleEmbeddedHIDManager,
                            __ZTV28MTSimpleEmbeddedHIDManagerV2,
                            __ZTV28MTTrackpadEmbeddedHIDManager,
                            __ZTV30MTMouseEmbeddedEventDispatcher,
                            __ZTV31MTSimpleEmbeddedEventDispatcher,
                            __ZTV32MTSimpleEmbeddedStylusHIDManager,
                            __ZTV33MTTrackpadEmbeddedEventDispatcher,
                            __ZTV37MTSimpleEmbeddedStylusEventDispatcher,
                            __ZTV8MTParser, _gHandSizeEquilibrator,
                            _gPrintHIDShowPathEvents, _gTimingPrefs, _gUSBKeyNames,
                            _mt_PrintHIDEvent, _mt_PrintRawHIDEvent,
                            _mtgp_InitUSBKeyNames ]
    objc-classes:         [ AWDMultitouchBootEvent, AWDMultitouchHardwareStatus ]
    objc-ivars:           [ AWDMultitouchBootEvent._has,
                            AWDMultitouchBootEvent._timestamp,
                            AWDMultitouchBootEvent._version,
                            AWDMultitouchHardwareStatus._has,
                            AWDMultitouchHardwareStatus._openRows,
                            AWDMultitouchHardwareStatus._timestamp ]
undefineds:
  - archs:                [ armv7, armv7s, arm64, arm64e ]
    symbols:              [ _AWDPostMetric, _CFAbsoluteTimeGetCurrent,
                            _CFArrayAppendValue, _CFArrayApplyFunction,
                            _CFArrayCreateCopy, _CFArrayCreateMutable,
                            _CFArrayGetCount, _CFArrayGetTypeID,
                            _CFArrayGetValueAtIndex, _CFArrayRemoveValueAtIndex,
                            _CFBooleanGetTypeID, _CFBooleanGetValue,
                            _CFDataGetBytePtr, _CFDataGetLength, _CFDataGetTypeID,
                            _CFDateFormatterCreate,
                            _CFDateFormatterCreateStringWithAbsoluteTime,
                            _CFDateFormatterSetProperty, _CFDictionaryAddValue,
                            _CFDictionaryCreateMutable,
                            _CFDictionaryCreateMutableCopy,
                            _CFDictionaryGetCount, _CFDictionaryGetKeysAndValues,
                            _CFDictionaryGetTypeID, _CFDictionaryGetValue,
                            _CFDictionaryGetValueIfPresent,
                            _CFDictionaryRemoveAllValues,
                            _CFDictionaryRemoveValue, _CFDictionarySetValue,
                            _CFEqual, _CFGetTypeID, _CFMakeCollectable,
                            _CFNotificationCenterAddObserver,
                            _CFNotificationCenterGetDarwinNotifyCenter,
                            _CFNotificationCenterRemoveObserver, _CFNumberCreate,
                            _CFNumberGetTypeID, _CFNumberGetValue,
                            _CFNumberIsFloatType, _CFPlugInAddInstanceForFactory,
                            _CFPlugInRemoveInstanceForFactory,
                            _CFPreferencesGetAppBooleanValue, _CFRelease,
                            _CFRetain, _CFShow, _CFStringAppend, _CFStringCompare,
                            _CFStringCreateMutableCopy,
                            _CFStringCreateWithCString,
                            _CFStringCreateWithFormat, _CFStringFind,
                            _CFStringGetCStringPtr, _CFStringGetIntValue,
                            _CFStringGetTypeID, _CFTimeZoneCopySystem,
                            _CFUUIDCreateFromUUIDBytes,
                            _CFUUIDGetConstantUUIDWithBytes, _IOAllowPowerChange,
                            _IODeregisterForSystemPower, _IOHIDEventAppendEvent,
                            _IOHIDEventConformsTo,
                            _IOHIDEventCreateBoundaryScrollEvent,
                            _IOHIDEventCreateButtonEvent, _IOHIDEventCreateCopy,
                            _IOHIDEventCreateDigitizerEvent,
                            _IOHIDEventCreateDigitizerFingerEventWithQuality,
                            _IOHIDEventCreateDigitizerStylusEventWithPolarOrientation,
                            _IOHIDEventCreateDockSwipeEvent,
                            _IOHIDEventCreateFluidTouchGestureEvent,
                            _IOHIDEventCreateForceEvent,
                            _IOHIDEventCreateKeyboardEvent,
                            _IOHIDEventCreateMouseEvent,
                            _IOHIDEventCreateNavigationSwipeEvent,
                            _IOHIDEventCreatePolarOrientationEvent,
                            _IOHIDEventCreateProximtyEvent,
                            _IOHIDEventCreateRelativePointerEvent,
                            _IOHIDEventCreateRotationEvent,
                            _IOHIDEventCreateScaleEvent,
                            _IOHIDEventCreateScrollEvent,
                            _IOHIDEventCreateSwipeEvent,
                            _IOHIDEventCreateSymbolicHotKeyEvent,
                            _IOHIDEventCreateTranslationEvent,
                            _IOHIDEventCreateVelocityEvent,
                            _IOHIDEventCreateVendorDefinedEvent,
                            _IOHIDEventCreateZoomToggleEvent,
                            _IOHIDEventGetChildren, _IOHIDEventGetEvent,
                            _IOHIDEventGetEventFlags, _IOHIDEventGetFloatValue,
                            _IOHIDEventGetIntegerValue, _IOHIDEventGetPhase,
                            _IOHIDEventGetScrollMomentum,
                            _IOHIDEventGetTimeStamp, _IOHIDEventGetType,
                            _IOHIDEventGetVendorDefinedData,
                            _IOHIDEventRemoveEvent, _IOHIDEventSetFloatValue,
                            _IOHIDEventSetIntegerValue, _IOHIDEventSetPhase,
                            _IOHIDEventSetScrollMomentum,
                            _IOHIDEventSetTimeStamp, _IOHIDEventTypeGetName,
                            _IOHIDPreferencesCopy, _IOHIDPreferencesCopyDomain,
                            _IOHIDPreferencesSet, _IOHIDPreferencesSynchronize,
                            _IOIteratorIsValid, _IOIteratorNext, _IOIteratorReset,
                            _IONotificationPortCreate,
                            _IONotificationPortDestroy,
                            _IONotificationPortSetDispatchQueue,
                            _IOObjectRelease, _IOObjectRetain,
                            _IOPMAssertionCreateWithName, _IOPMAssertionRelease,
                            _IORegisterForSystemPower,
                            _IORegistryEntryCreateCFProperties,
                            _IORegistryEntryCreateCFProperty,
                            _IORegistryEntryGetRegistryEntryID,
                            _IORegistryEntrySetCFProperty,
                            _IOReportChannelGetCategories,
                            _IOReportCopyChannelsForDriver,
                            _IOReportCreateSamples, _IOReportCreateSubscription,
                            _IOReportGetChannelCount, _IOReportPrune,
                            _IOServiceAddInterestNotification,
                            _IOServiceAddMatchingNotification, _IOServiceClose,
                            _IOServiceGetMatchingServices, _IOServiceMatching,
                            _MTAbsoluteTimeGetCurrent, _MTActuatorActuate,
                            _MTActuatorClose, _MTActuatorGetReport,
                            _MTActuatorGetService,
                            _MTActuatorGetSystemActuationsEnabled,
                            _MTActuatorIsOpen, _MTActuatorLoadActuations,
                            _MTActuatorOpen, _MTActuatorReclaimHostClickControl,
                            _MTActuatorSetFirmwareClicks, _MTActuatorSetReport,
                            _MTContact_getEllipseEccentricity,
                            _MTContact_getEllipseOrientationDegrees,
                            _MTContact_isActive, _MTDeviceCreateFromService,
                            _MTDeviceCreateMultitouchDispatchSource,
                            _MTDeviceDispatchKeyboardEvent,
                            _MTDeviceDriverIsReady, _MTDeviceEnableBinaryFilters,
                            _MTDeviceEnableWorkIntervalNotification,
                            _MTDeviceGetAccurateMaxDigitizerPressureValue,
                            _MTDeviceGetCriticalErrors, _MTDeviceGetDeviceID,
                            _MTDeviceGetDeviceTimestampOffset,
                            _MTDeviceGetExtendedMaxDigitizerPressureValue,
                            _MTDeviceGetForceThresholdForMotion,
                            _MTDeviceGetMTActuator,
                            _MTDeviceGetMinDigitizerPressureValue,
                            _MTDeviceGetOpenRows, _MTDeviceGetParserOptions,
                            _MTDeviceGetParserType, _MTDeviceGetReport,
                            _MTDeviceGetResetOnLockMs,
                            _MTDeviceGetResetOnUnlockMs,
                            _MTDeviceGetSATelemetryReportID,
                            _MTDeviceGetSensorRegionOfType,
                            _MTDeviceGetSensorSurfaceDimensions,
                            _MTDeviceGetService,
                            _MTDeviceGetSystemForceResponseEnabled,
                            _MTDeviceGetTouchSizeIdentifier, _MTDeviceGetVersion,
                            _MTDeviceHasExpectedVersion, _MTDeviceInjectFrame,
                            _MTDeviceIsBuiltIn, _MTDeviceIsRunning,
                            _MTDeviceIssueDriverRequest,
                            _MTDeviceNeedsFirstPowerOffSuppressed,
                            _MTDeviceNotifyFirstPowerOffSuppressed,
                            _MTDeviceNotifyWorkInterval,
                            _MTDevicePowerControlSupported,
                            _MTDevicePowerGetState, _MTDevicePowerSetState,
                            _MTDeviceSendExternalMessage,
                            _MTDeviceSetInputDetectionCallbackTriggerMask,
                            _MTDeviceSetInputDetectionModeForOrientation,
                            _MTDeviceSetPickButtonShouldSendSecondaryClick,
                            _MTDeviceSetReport, _MTDeviceSetSurfaceOrientation,
                            _MTDeviceSetSurfaceOrientationMode,
                            _MTDeviceSetTouchMode,
                            _MTDeviceShouldDispatchNormalizedVelocity,
                            _MTDeviceShouldResetOnButton, _MTDeviceStart,
                            _MTDeviceStop, _MTDeviceSupportsActuation,
                            _MTDeviceSupportsForce, _MTDeviceSupportsSilentClick,
                            _MTDeviceSupportsTapToWake,
                            _MTDeviceSupportsTouchReadyNotification,
                            _MTDeviceSupportsUSBChargingNotification,
                            _MTDeviceSupportsWirelessChargingNotification,
                            _MTDeviceUpdateDynamicCalibration,
                            _MTDeviceUseContextualPower, _MTGetPathStageName,
                            _MTRegisterButtonStateCallback,
                            _MTRegisterContactFrameCallbackWithRefcon,
                            _MTRegisterExternalMessageCallback,
                            _MTRegisterFrameHeaderCallback,
                            _MTRegisterFrameProcessingEntryExitCallback,
                            _MTRegisterFullFrameCallback,
                            _MTRegisterImageCallbackWithRefcon,
                            _MTRegisterInputDetectionCallback,
                            _MTRegisterNotificationEventCallback,
                            _MTRegisterRelativePointerCallback,
                            _MTRegisterTrackingCallback,
                            _MTSwapInt32HostToDevice,
                            _MTUnregisterButtonStateCallback,
                            _MTUnregisterContactFrameCallback,
                            _MTUnregisterExternalMessageCallback,
                            _MTUnregisterFrameProcessingEntryExitCallback,
                            _MTUnregisterFullFrameCallback,
                            _MTUnregisterImageCallback,
                            _MTUnregisterInputDetectionCallback,
                            _MTUnregisterNotificationEventCallback,
                            _MTUnregisterTrackingCallback, _NSClassFromString,
                            _NSRangeException, _NSSelectorFromString,
                            __Block_object_assign, __Block_object_dispose,
                            __CFRuntimeCreateInstance, __CFRuntimeRegisterClass,
                            __NSConcreteGlobalBlock, __NSConcreteStackBlock,
                            __Unwind_Resume,
                            __ZNKSt3__119__shared_weak_count13__get_deleterERKSt9type_info,
                            __ZNKSt3__120__vector_base_commonILb1EE20__throw_length_errorEv,
                            __ZNKSt3__120__vector_base_commonILb1EE20__throw_out_of_rangeEv,
                            __ZNSt11logic_errorC2EPKc, __ZNSt12length_errorD1Ev,
                            __ZNSt3__119__shared_weak_count14__release_weakEv,
                            __ZNSt3__119__shared_weak_countD2Ev,
                            __ZNSt3__16__sortIRNS_6__lessIffEEPfEEvT0_S5_T_,
                            __ZSt9terminatev, __ZTINSt3__119__shared_weak_countE,
                            __ZTVN10__cxxabiv117__class_type_infoE,
                            __ZTVN10__cxxabiv119__pointer_type_infoE,
                            __ZTVN10__cxxabiv120__si_class_type_infoE,
                            __ZTVN10__cxxabiv121__vmi_class_type_infoE,
                            __ZTVSt12length_error,
                            ___CFConstantStringClassReference, ___assert_rtn,
                            ___cxa_allocate_exception, ___cxa_atexit,
                            ___cxa_begin_catch, ___cxa_free_exception,
                            ___cxa_pure_virtual, ___cxa_throw,
                            ___gxx_personality_v0, ___sincosf_stret,
                            ___stack_chk_fail, ___stack_chk_guard, ___stdoutp,
                            __dispatch_source_type_proc,
                            __dispatch_source_type_timer, __objc_empty_cache,
                            __os_log_debug_impl, __os_log_default,
                            __os_log_error_impl, __os_log_impl, _atan2f, _bzero,
                            _cbrtf, _cos, _cosf, _dispatch_assert_queue_not$V2,
                            _dispatch_async, _dispatch_get_context,
                            _dispatch_get_global_queue, _dispatch_group_async,
                            _dispatch_group_create, _dispatch_group_wait,
                            _dispatch_once, _dispatch_queue_create,
                            _dispatch_release, _dispatch_resume, _dispatch_retain,
                            _dispatch_set_context, _dispatch_source_cancel,
                            _dispatch_source_create,
                            _dispatch_source_set_cancel_handler,
                            _dispatch_source_set_event_handler,
                            _dispatch_source_set_timer, _dispatch_suspend,
                            _dispatch_time, _dlclose, _dlerror, _dlopen, _dlsym, _exp,
                            _exp2, _expf, _fflush, _fmod, _fmodf, _free, _hypotf,
                            _kACCInfo_FirmwareVersionActive,
                            _kACCInfo_HardwareVersion, _kACCInfo_Manufacturer,
                            _kACCInfo_Model, _kACCInfo_Name,
                            _kACCInfo_SerialNumber, _kCFAllocatorDefault,
                            _kCFAllocatorSystemDefault, _kCFBooleanFalse,
                            _kCFBooleanTrue, _kCFDateFormatterTimeZone,
                            _kCFPreferencesAnyUser, _kCFPreferencesCurrentHost,
                            _kCFTypeArrayCallBacks,
                            _kCFTypeDictionaryKeyCallBacks,
                            _kCFTypeDictionaryValueCallBacks,
                            _kIOMasterPortDefault, _kdebug_trace,
                            _mach_absolute_time, _mach_timebase_info, _malloc,
                            _memcpy, _memmove, _memset, _mt_CreateSavedNameForDevice,
                            _notify_cancel, _notify_register_dispatch,
                            _objc_alloc_init, _objc_autorelease,
                            _objc_autoreleasePoolPop, _objc_autoreleasePoolPush,
                            _objc_enumerationMutation, _objc_msgSend,
                            _objc_msgSendSuper2, _objc_opt_class,
                            _objc_opt_isKindOfClass, _objc_opt_new,
                            _objc_opt_respondsToSelector, _objc_release,
                            _os_log_create, _os_log_type_enabled,
                            _os_variant_allows_internal_security_policies, _pow,
                            _powf, _printf, _pthread_once, _putchar, _puts, _rand,
                            _snprintf, _srand, _strcmp, _strncpy, _syslog, _time, _usleep,
                            dyld_stub_binder ]
    objc-classes:         [ ACCTransportClient, NSArray, NSConstantArray, NSData,
                            NSDecimalNumber, NSDictionary, NSException,
                            NSMutableDictionary, NSMutableString, NSNumber, NSObject,
                            NSString ]
...
