--- !tapi-tbd-v2
archs:                 [ armv7, armv7s, arm64, arm64e ]
platform:              ios
flags:                 [ flat_namespace ]
install-name:          /usr/lib/AppleConvergedTransport.dylib
current-version:       1
compatibility-version: 1
exports:
  - archs:                [ armv7, armv7s, arm64, arm64e ]
    symbols:              [ _AppleConvergedTransportCreate,
                            _AppleConvergedTransportFree,
                            _AppleConvergedTransportInitParameters,
                            _AppleConvergedTransportIsValid,
                            _AppleConvergedTransportRead,
                            _AppleConvergedTransportReadRegister,
                            _AppleConvergedTransportRegisterEventBlock,
                            _AppleConvergedTransportRegisterEventBlockQ,
                            _AppleConvergedTransportRegisterTimeSyncEventBlock,
                            _AppleConvergedTransportRegisterTimeSyncEventBlockQ,
                            _AppleConvergedTransportSendImage,
                            _AppleConvergedTransportUnregisterEventBlock,
                            _AppleConvergedTransportUnregisterTimeSyncEventBlock,
                            _AppleConvergedTransportWrite, __ZN3pci3log3getEv,
                            __ZN3pci5event8Listener4initEv,
                            __ZN3pci5event8Listener6createEN10applesauce8dispatch2v15blockIFvNS0_4typeEONSt3__112basic_stringIcNS7_11char_traitsIcEENS7_9allocatorIcEEEEjEEEP11__CFRunLoop,
                            __ZN3pci5event8Listener6createEN10applesauce8dispatch2v15blockIFvNS0_4typeEONSt3__112basic_stringIcNS7_11char_traitsIcEENS7_9allocatorIcEEEEjEEEP16dispatch_queue_s,
                            __ZN3pci5event8Listener6notifyE14acipcErrorTypePvS3_,
                            __ZN3pci5event8ListenerC1EN10applesauce8dispatch2v15blockIFvNS0_4typeEONSt3__112basic_stringIcNS7_11char_traitsIcEENS7_9allocatorIcEEEEjEEEP11__CFRunLoopP16dispatch_queue_s,
                            __ZN3pci5event8ListenerC2EN10applesauce8dispatch2v15blockIFvNS0_4typeEONSt3__112basic_stringIcNS7_11char_traitsIcEENS7_9allocatorIcEEEEjEEEP11__CFRunLoopP16dispatch_queue_s,
                            __ZN3pci5event8ListenerD1Ev,
                            __ZN3pci5event8ListenerD2Ev,
                            __ZN3pci6system4info3getEv,
                            __ZN3pci6system4info4lockEv,
                            __ZN3pci6system4info5getTHEPKv,
                            __ZN3pci6system4info6unlockEv,
                            __ZN3pci6system4info7eraseTHEPKv,
                            __ZN3pci6system4info8insertBHEiNSt3__18weak_ptrINS_9transport2bhEEEj,
                            __ZN3pci6system4info8insertTHENSt3__110shared_ptrINS_9transport2thEEE,
                            __ZN3pci6system4info8removeBHEi,
                            __ZN3pci6system4infoC1Ev, __ZN3pci6system4infoC2Ev,
                            __ZN3pci6system4infoD1Ev, __ZN3pci6system4infoD2Ev,
                            __ZN3pci9transport2bh12ioCompletionEPviS2_,
                            __ZN3pci9transport2bh12readRegisterENSt3__110shared_ptrINS0_4taskEEE20PCITransportRegister,
                            __ZN3pci9transport2bh13cmdCompletionEPvi,
                            __ZN3pci9transport2bh15imageCompletionEPviS2_S2_,
                            __ZN3pci9transport2bh16generateCallbackENSt3__110shared_ptrINS0_4taskEEEPKcb,
                            __ZN3pci9transport2bh19invokeCallbackAsyncEN10applesauce8dispatch2v15blockIFvijjEEEijj,
                            __ZN3pci9transport2bh4initERKNS1_10parametersE,
                            __ZN3pci9transport2bh4openENSt3__110shared_ptrINS0_4taskEEE21PCITransportDirection,
                            __ZN3pci9transport2bh4readENSt3__110shared_ptrINS0_4taskEEEb,
                            __ZN3pci9transport2bh5closeENSt3__110shared_ptrINS0_4taskEEE21PCITransportDirection,
                            __ZN3pci9transport2bh5writeENSt3__110shared_ptrINS0_4taskEEE,
                            __ZN3pci9transport2bh6createERKNS1_10parametersE,
                            __ZN3pci9transport2bh9sendImageENSt3__110shared_ptrINS0_4taskEEE,
                            __ZN3pci9transport2bh9setNotifyENSt3__110shared_ptrINS0_4taskEEE,
                            __ZN3pci9transport2bhC1ERKNS1_10parametersE,
                            __ZN3pci9transport2bhC2ERKNS1_10parametersE,
                            __ZN3pci9transport2bhD1Ev, __ZN3pci9transport2bhD2Ev,
                            __ZN3pci9transport2th10initParamsEP22PCITransportParameters,
                            __ZN3pci9transport2th10writeAsyncEPKhjPFvPvE,
                            __ZN3pci9transport2th11unblockReadEv,
                            __ZN3pci9transport2th12readInternalEPKhjPFvPvEN10applesauce8dispatch2v15blockIFviS4_jjEEE,
                            __ZN3pci9transport2th12readRegisterEjPKhRjj,
                            __ZN3pci9transport2th13writeInternalEPKhjPFvPvEN10applesauce8dispatch2v15blockIFviS4_jjEEE,
                            __ZN3pci9transport2th14sendImageAsyncEPKhjPFvPvE,
                            __ZN3pci9transport2th14validateParamsEPK22PCITransportParameters,
                            __ZN3pci9transport2th17sendImageInternalEPKhjPFvPvEN10applesauce8dispatch2v15blockIFviS4_jjEEE,
                            __ZN3pci9transport2th20readRegisterInternalEjPKhjN10applesauce8dispatch2v15blockIFviPvjjEEE,
                            __ZN3pci9transport2th4initEv,
                            __ZN3pci9transport2th4lockEv,
                            __ZN3pci9transport2th4readEPKhRjPFvPvEj,
                            __ZN3pci9transport2th5writeEPKhjPFvPvEj,
                            __ZN3pci9transport2th6createEPK22PCITransportParameters,
                            __ZN3pci9transport2th6notifyEv,
                            __ZN3pci9transport2th6unlockEv,
                            __ZN3pci9transport2th9flushReadEv,
                            __ZN3pci9transport2th9readAsyncEv,
                            __ZN3pci9transport2th9sendImageEPKhjRjPFvPvEj,
                            __ZN3pci9transport2thC1EPK22PCITransportParameters,
                            __ZN3pci9transport2thC2EPK22PCITransportParameters,
                            __ZN3pci9transport2thD1Ev, __ZN3pci9transport2thD2Ev,
                            __ZN3pci9transport4bind13setCompletionEN10applesauce8dispatch2v15blockIFviPvjjEEE,
                            __ZN3pci9transport4bind6setCIOEPv,
                            __ZN3pci9transport4bind9setStatusEijjb20PCITransportTaskType,
                            __ZN3pci9transport4bindC1ERKNS1_10parametersERNSt3__14listINS5_10shared_ptrINS0_4taskEEENS5_9allocatorIS9_EEEE,
                            __ZN3pci9transport4bindC2ERKNS1_10parametersERNSt3__14listINS5_10shared_ptrINS0_4taskEEENS5_9allocatorIS9_EEEE,
                            __ZN3pci9transport4bindD1Ev,
                            __ZN3pci9transport4bindD2Ev,
                            __ZN3pci9transport4task4initERKNS1_10parametersERNSt3__14listINS5_10shared_ptrIS1_EENS5_9allocatorIS8_EEEE,
                            __ZN3pci9transport4task6createERKNS1_10parametersERNSt3__14listINS5_10shared_ptrIS1_EENS5_9allocatorIS8_EEEE,
                            __ZN3pci9transport4task6poisonEi,
                            __ZN3pci9transport4task8completeEijj,
                            __ZN3pci9transport4taskC1ERKNS1_10parametersE,
                            __ZN3pci9transport4taskC2ERKNS1_10parametersE,
                            __ZN3pci9transport4taskD1Ev,
                            __ZN3pci9transport4taskD2Ev,
                            __ZNK3pci9transport4bind6getCIOEv,
                            __ZNK3pci9transport4bind7getSizeEv,
                            __ZNK3pci9transport4task7getDataEv,
                            __ZNK3pci9transport4task7getSizeEv,
                            __ZNK3pci9transport4task7getTypeEv ]
undefineds:
  - archs:                [ armv7, armv7s, arm64, arm64e ]
    symbols:              [ _CFRelease, _CFRetain, __Block_copy,
                            __Block_object_assign, __Block_object_dispose,
                            __Block_release, __NSConcreteGlobalBlock,
                            __NSConcreteStackBlock, __Unwind_Resume,
                            __Z23getACIPCErrorTypeString14acipcErrorType,
                            __Z23getACIPCLinkStateString14acipcLinkState,
                            __Z26getACIPCAERErrorTypeString17acipcAERErrorType,
                            __ZN12ACIPCBTClass10writeAsyncEPKvjPFvPviS2_ES2_,
                            __ZN12ACIPCBTClass12readRegisterEjPvPj,
                            __ZN12ACIPCBTClass14sendImageAsyncEPKvjPFvPviS2_S2_ES2_,
                            __ZN12ACIPCBTClass17abortChannelAsyncE14acipcDirectionPFvPviES1_,
                            __ZN12ACIPCBTClass17startChannelAsyncE14acipcDirectionPFvPviES1_,
                            __ZN12ACIPCBTClass4openEj,
                            __ZN12ACIPCBTClass4stopEP16dispatch_group_s,
                            __ZN12ACIPCBTClass5startEPKcP16dispatch_queue_sU13block_pointerFvjES5_U13block_pointerFv14acipcErrorTypejiE,
                            __ZN12ACIPCBTClass9readAsyncEPvjPFvS0_iS0_ES0_,
                            __ZN12ACIPCBTClassC1Ev, __ZN12ACIPCBTClassD1Ev,
                            __ZN19ACIPCBTControlClass25registerEventNotificationEP11__CFRunLoopP17ACIPCControlEvent,
                            __ZN19ACIPCBTControlClass25registerEventNotificationEP16dispatch_queue_sP17ACIPCControlEvent,
                            __ZN19ACIPCBTControlClass27deregisterEventNotificationEP16dispatch_group_s,
                            __ZN19ACIPCBTControlClass4stopEv,
                            __ZN19ACIPCBTControlClass5startEv,
                            __ZN19ACIPCBTControlClassC1Ev,
                            __ZN19ACIPCBTControlClassD1Ev,
                            __ZNKSt3__119__shared_weak_count13__get_deleterERKSt9type_info,
                            __ZNKSt3__121__basic_string_commonILb1EE20__throw_length_errorEv,
                            __ZNKSt3__16locale9use_facetERNS0_2idE,
                            __ZNKSt3__18ios_base6getlocEv,
                            __ZNSt11logic_errorC2EPKc, __ZNSt12out_of_rangeD1Ev,
                            __ZNSt3__112bad_weak_ptrD1Ev,
                            __ZNSt3__112basic_stringIcNS_11char_traitsIcEENS_9allocatorIcEEE6resizeEmc,
                            __ZNSt3__112basic_stringIcNS_11char_traitsIcEENS_9allocatorIcEEE9push_backEc,
                            __ZNSt3__112basic_stringIcNS_11char_traitsIcEENS_9allocatorIcEEEC1ERKS5_,
                            __ZNSt3__113basic_ostreamIcNS_11char_traitsIcEEE6sentryC1ERS3_,
                            __ZNSt3__113basic_ostreamIcNS_11char_traitsIcEEE6sentryD1Ev,
                            __ZNSt3__113basic_ostreamIcNS_11char_traitsIcEEED0Ev,
                            __ZNSt3__113basic_ostreamIcNS_11char_traitsIcEEED1Ev,
                            __ZNSt3__113basic_ostreamIcNS_11char_traitsIcEEED2Ev,
                            __ZNSt3__113basic_ostreamIcNS_11char_traitsIcEEElsEPKv,
                            __ZNSt3__113basic_ostreamIcNS_11char_traitsIcEEElsEi,
                            __ZNSt3__115basic_streambufIcNS_11char_traitsIcEEE4syncEv,
                            __ZNSt3__115basic_streambufIcNS_11char_traitsIcEEE5imbueERKNS_6localeE,
                            __ZNSt3__115basic_streambufIcNS_11char_traitsIcEEE5uflowEv,
                            __ZNSt3__115basic_streambufIcNS_11char_traitsIcEEE6setbufEPcl,
                            __ZNSt3__115basic_streambufIcNS_11char_traitsIcEEE6xsgetnEPcl,
                            __ZNSt3__115basic_streambufIcNS_11char_traitsIcEEE6xsputnEPKcl,
                            __ZNSt3__115basic_streambufIcNS_11char_traitsIcEEE9showmanycEv,
                            __ZNSt3__115basic_streambufIcNS_11char_traitsIcEEEC2Ev,
                            __ZNSt3__115basic_streambufIcNS_11char_traitsIcEEED2Ev,
                            __ZNSt3__119__shared_weak_count14__release_weakEv,
                            __ZNSt3__119__shared_weak_count4lockEv,
                            __ZNSt3__119__shared_weak_countD2Ev,
                            __ZNSt3__15ctypeIcE2idE, __ZNSt3__15mutex4lockEv,
                            __ZNSt3__15mutex6unlockEv, __ZNSt3__15mutexD1Ev,
                            __ZNSt3__16localeD1Ev,
                            __ZNSt3__18ios_base33__set_badbit_and_consider_rethrowEv,
                            __ZNSt3__18ios_base4initEPv,
                            __ZNSt3__18ios_base5clearEj,
                            __ZNSt3__19basic_iosIcNS_11char_traitsIcEEED2Ev,
                            __ZSt9terminatev, __ZTINSt3__112bad_weak_ptrE,
                            __ZTINSt3__113basic_ostreamIcNS_11char_traitsIcEEEE,
                            __ZTINSt3__115basic_streambufIcNS_11char_traitsIcEEEE,
                            __ZTINSt3__119__shared_weak_countE,
                            __ZTVN10__cxxabiv117__class_type_infoE,
                            __ZTVN10__cxxabiv120__si_class_type_infoE,
                            __ZTVNSt3__112bad_weak_ptrE, __ZTVSt12out_of_range,
                            __ZTv0_n24_NSt3__113basic_ostreamIcNS_11char_traitsIcEEED0Ev,
                            __ZTv0_n24_NSt3__113basic_ostreamIcNS_11char_traitsIcEEED1Ev,
                            ___assert_rtn, ___cxa_allocate_exception,
                            ___cxa_atexit, ___cxa_begin_catch, ___cxa_end_catch,
                            ___cxa_free_exception, ___cxa_guard_abort,
                            ___cxa_guard_acquire, ___cxa_guard_release,
                            ___cxa_throw, ___gxx_personality_v0, ___stack_chk_fail,
                            ___stack_chk_guard, __os_log_debug_impl, __os_log_impl,
                            _clock_gettime_nsec_np, _dispatch_activate,
                            _dispatch_assert_queue$V2, _dispatch_async,
                            _dispatch_group_create, _dispatch_group_enter,
                            _dispatch_group_leave, _dispatch_group_wait,
                            _dispatch_once,
                            _dispatch_queue_attr_make_initially_inactive,
                            _dispatch_queue_attr_make_with_qos_class,
                            _dispatch_queue_create, _dispatch_release,
                            _dispatch_retain, _dispatch_semaphore_create,
                            _dispatch_semaphore_signal, _dispatch_semaphore_wait,
                            _dispatch_set_target_queue, _dispatch_time,
                            _dispatch_workloop_create, _free, _malloc, _memcpy,
                            _memset, _os_log_create, _os_log_type_enabled,
                            _os_unfair_lock_assert_owner, _os_unfair_lock_lock,
                            _os_unfair_lock_unlock, _strcmp, _strlen, _usleep ]
    weak-def-symbols:     [ __ZTISt12out_of_range, __ZdlPv, __Znwm ]
...
