--- !tapi-tbd
tbd-version:           4
targets:               [ armv7-ios, armv7s-ios, arm64-ios, arm64e-ios ]
flags:                 [ flat_namespace ]
install-name:          /System/DriverKit/System/Library/Frameworks/NetworkingDriverKit.framework/NetworkingDriverKit_development
current-version:       1
compatibility-version: 1
exports:
  - targets:              [ armv7-ios, armv7s-ios, arm64-ios, arm64e-ios ]
    symbols:              [ _IOUserNetworkEthernet_Class,
                            _IOUserNetworkLogicalLink_Class,
                            _IOUserNetworkPacketBufferPool_Class,
                            _IOUserNetworkPacketPoller_Class,
                            _IOUserNetworkPacketQueue_Class,
                            _IOUserNetworkPacket_Class,
                            _IOUserNetworkQueueSet_Class,
                            _IOUserNetworkRxCompletionQueue_Class,
                            _IOUserNetworkRxSubmissionQueue_Class,
                            _IOUserNetworkTxCompletionQueue_Class,
                            _IOUserNetworkTxSubmissionQueue_Class,
                            _IOUserNetworkWLAN_Class,
                            _OSAction_IOUserNetworkEthernet__DataAvailable_Class,
                            _OSAction_IOUserNetworkEthernet__RxSQDataAvailable_Class,
                            _OSAction_IOUserNetworkEthernet__TxSQDataAvailable_Class,
                            _OSAction_IOUserNetworkPacketPoller_TimerOccurred_Class,
                            __ZN17IOUserNetworkWLAN13getLocalPortsEjjPh,
                            __ZN17IOUserNetworkWLAN14_GetLocalPortsEjjP24IOBufferMemoryDescriptorPFiP15OSMetaClassBase5IORPCE,
                            __ZN17IOUserNetworkWLAN14deferBSDAttachEb,
                            __ZN17IOUserNetworkWLAN15_DeferBSDAttachEbPFiP15OSMetaClassBase5IORPCE,
                            __ZN17IOUserNetworkWLAN17classNameOverrideEv,
                            __ZN17IOUserNetworkWLAN18_ClassNameOverrideEPcPmPFiP15OSMetaClassBase5IORPCE,
                            __ZN17IOUserNetworkWLAN18setFastlaneCapableEb,
                            __ZN17IOUserNetworkWLAN19_SetFastlaneCapableEbPFiP15OSMetaClassBase5IORPCE,
                            __ZN17IOUserNetworkWLAN19setLinkLayerAddressEP10ether_addr,
                            __ZN17IOUserNetworkWLAN20_SetLinkLayerAddressE10ether_addrPFiP15OSMetaClassBase5IORPCE,
                            __ZN17IOUserNetworkWLAN21_GetLocalPorts_InvokeE5IORPCP15OSMetaClassBasePFiS2_jjP24IOBufferMemoryDescriptorE,
                            __ZN17IOUserNetworkWLAN22_DeferBSDAttach_InvokeE5IORPCP15OSMetaClassBasePFiS2_bE,
                            __ZN17IOUserNetworkWLAN22getInterfaceStatisticsEP23IOUserNetworkStatistics,
                            __ZN17IOUserNetworkWLAN23_ClassNameOverride_ImplEPcPm,
                            __ZN17IOUserNetworkWLAN23_GetInterfaceStatisticsEP23IOUserNetworkStatisticsPFiP15OSMetaClassBase5IORPCE,
                            __ZN17IOUserNetworkWLAN23interfaceAdvisoryEnableEb,
                            __ZN17IOUserNetworkWLAN23reportInterfaceAdvisoryEPK24ifnet_interface_advisory,
                            __ZN17IOUserNetworkWLAN24_InterfaceAdvisoryEnableEbPFiP15OSMetaClassBase5IORPCE,
                            __ZN17IOUserNetworkWLAN24_ReportInterfaceAdvisoryEPK24ifnet_interface_advisoryPFiP15OSMetaClassBase5IORPCE,
                            __ZN17IOUserNetworkWLAN24reportDetailedLinkStatusEPK14if_link_status,
                            __ZN17IOUserNetworkWLAN25_ClassNameOverride_InvokeE5IORPCP15OSMetaClassBasePFiS2_PcPmE,
                            __ZN17IOUserNetworkWLAN25_ReportDetailedLinkStatusEPK14if_link_statusPFiP15OSMetaClassBase5IORPCE,
                            __ZN17IOUserNetworkWLAN25getKeepAliveOffloadFramesEP34IOUserNetworkKeepAliveOffloadFramejmPj,
                            __ZN17IOUserNetworkWLAN26_GetKeepAliveOffloadFramesEP24IOBufferMemoryDescriptorjmPjPFiP15OSMetaClassBase5IORPCE,
                            __ZN17IOUserNetworkWLAN26_SetFastlaneCapable_InvokeE5IORPCP15OSMetaClassBasePFvS2_bE,
                            __ZN17IOUserNetworkWLAN27_SetLinkLayerAddress_InvokeE5IORPCP15OSMetaClassBasePFiS2_10ether_addrE,
                            __ZN17IOUserNetworkWLAN28isLinkLocalAddressConfiguredEv,
                            __ZN17IOUserNetworkWLAN29_InterfaceAdvisoryEnable_ImplEb,
                            __ZN17IOUserNetworkWLAN29_IsLinkLocalAddressConfiguredEPbPFiP15OSMetaClassBase5IORPCE,
                            __ZN17IOUserNetworkWLAN30_GetInterfaceStatistics_InvokeE5IORPCP15OSMetaClassBasePFiS2_P23IOUserNetworkStatisticsE,
                            __ZN17IOUserNetworkWLAN31_InterfaceAdvisoryEnable_InvokeE5IORPCP15OSMetaClassBasePFiS2_bE,
                            __ZN17IOUserNetworkWLAN31_ReportInterfaceAdvisory_InvokeE5IORPCP15OSMetaClassBasePFiS2_PK24ifnet_interface_advisoryE,
                            __ZN17IOUserNetworkWLAN32_ReportDetailedLinkStatus_InvokeE5IORPCP15OSMetaClassBasePFiS2_PK14if_link_statusE,
                            __ZN17IOUserNetworkWLAN33_GetKeepAliveOffloadFrames_InvokeE5IORPCP15OSMetaClassBasePFiS2_P24IOBufferMemoryDescriptorjmPjE,
                            __ZN17IOUserNetworkWLAN36_IsLinkLocalAddressConfigured_InvokeE5IORPCP15OSMetaClassBasePFiS2_PbE,
                            __ZN17IOUserNetworkWLAN45getIPv4DefaultRouterLinkLayerReachabilityInfoEP38IOUserNetworkLinkLayerReachabilityInfo,
                            __ZN17IOUserNetworkWLAN45getIPv6DefaultRouterLinkLayerReachabilityInfoEP38IOUserNetworkLinkLayerReachabilityInfo,
                            __ZN17IOUserNetworkWLAN46_GetIPv4DefaultRouterLinkLayerReachabilityInfoEP38IOUserNetworkLinkLayerReachabilityInfoPFiP15OSMetaClassBase5IORPCE,
                            __ZN17IOUserNetworkWLAN46_GetIPv6DefaultRouterLinkLayerReachabilityInfoEP38IOUserNetworkLinkLayerReachabilityInfoPFiP15OSMetaClassBase5IORPCE,
                            __ZN17IOUserNetworkWLAN4freeEv,
                            __ZN17IOUserNetworkWLAN4initEv,
                            __ZN17IOUserNetworkWLAN53_GetIPv4DefaultRouterLinkLayerReachabilityInfo_InvokeE5IORPCP15OSMetaClassBasePFiS2_P38IOUserNetworkLinkLayerReachabilityInfoE,
                            __ZN17IOUserNetworkWLAN53_GetIPv6DefaultRouterLinkLayerReachabilityInfo_InvokeE5IORPCP15OSMetaClassBasePFiS2_P38IOUserNetworkLinkLayerReachabilityInfoE,
                            __ZN17IOUserNetworkWLAN8DispatchE5IORPC,
                            __ZN17IOUserNetworkWLAN9_DispatchEPS_5IORPC,
                            __ZN19IOUserNetworkPacket10setLROInfoEjh,
                            __ZN19IOUserNetworkPacket11SetHeadroomEh,
                            __ZN19IOUserNetworkPacket11setWakeFlagEv,
                            __ZN19IOUserNetworkPacket12initWithPoolEP29IOUserNetworkPacketBufferPoolP29IOUserNetworkPacketDescriptorj,
                            __ZN19IOUserNetworkPacket12setTimestampEy,
                            __ZN19IOUserNetworkPacket13SetDataLengthEj,
                            __ZN19IOUserNetworkPacket13SetDataOffsetEt,
                            __ZN19IOUserNetworkPacket13setDataLengthEj,
                            __ZN19IOUserNetworkPacket13setDataOffsetEt,
                            __ZN19IOUserNetworkPacket14clearTimestampEv,
                            __ZN19IOUserNetworkPacket15_GetPacketStateEP24IOUserNetworkPacketState,
                            __ZN19IOUserNetworkPacket15_SetPacketIndexEj,
                            __ZN19IOUserNetworkPacket15_SetPacketStateEPK24IOUserNetworkPacketState,
                            __ZN19IOUserNetworkPacket16prepareWithQueueEP24IOUserNetworkPacketQueuej,
                            __ZN19IOUserNetworkPacket17setRxChecksumInfoEjt,
                            __ZN19IOUserNetworkPacket18_CompleteWithQueueEP24IOUserNetworkPacketQueuej,
                            __ZN19IOUserNetworkPacket18setIsLinkMulticastEb,
                            __ZN19IOUserNetworkPacket19SetLinkHeaderLengthEh,
                            __ZN19IOUserNetworkPacket19setCompletionStatusEi,
                            __ZN19IOUserNetworkPacket19setLinkHeaderLengthEh,
                            __ZN19IOUserNetworkPacket20_SetPacketBufferPoolEP29IOUserNetworkPacketBufferPool,
                            __ZN19IOUserNetworkPacket22setDataOffsetAndLengthEtj,
                            __ZN19IOUserNetworkPacket4freeEv,
                            __ZN19IOUserNetworkPacket4initEv,
                            __ZN19IOUserNetworkPacket8DispatchE5IORPC,
                            __ZN19IOUserNetworkPacket8withPoolEP29IOUserNetworkPacketBufferPoolP29IOUserNetworkPacketDescriptorj,
                            __ZN19IOUserNetworkPacket9_DispatchEPS_5IORPC,
                            __ZN21IOUserNetworkEthernet10Start_ImplEP9IOService,
                            __ZN21IOUserNetworkEthernet10_ShareTaskEPFiP15OSMetaClassBase5IORPCE,
                            __ZN21IOUserNetworkEthernet10_bpfAttachEjjPFiP15OSMetaClassBase5IORPCE,
                            __ZN21IOUserNetworkEthernet11_SetBSDNameEPKcmPFiP15OSMetaClassBase5IORPCE,
                            __ZN21IOUserNetworkEthernet12_bpfTap_ImplEjj,
                            __ZN21IOUserNetworkEthernet13SetMTU_InvokeE5IORPCP15OSMetaClassBasePFiS2_jE,
                            __ZN21IOUserNetworkEthernet13_bpfTapPacketEbjP29IOUserNetworkPacketBufferPool24IOUserNetworkPacketStateymPFiP15OSMetaClassBase5IORPCE,
                            __ZN21IOUserNetworkEthernet13getTSOOptionsEP23IOUserNetworkTSOOptions,
                            __ZN21IOUserNetworkEthernet13setPowerStateEmP9IOService,
                            __ZN21IOUserNetworkEthernet14_GetTSOOptionsEP23IOUserNetworkTSOOptionsPFiP15OSMetaClassBase5IORPCE,
                            __ZN21IOUserNetworkEthernet14_bpfTap_InvokeE5IORPCP15OSMetaClassBasePFiS2_jjE,
                            __ZN21IOUserNetworkEthernet15SelectMediaTypeEjPFiP15OSMetaClassBase5IORPCE,
                            __ZN21IOUserNetworkEthernet15getFeatureFlagsEv,
                            __ZN21IOUserNetworkEthernet15getInitialMediaEv,
                            __ZN21IOUserNetworkEthernet15getTxDataOffsetEv,
                            __ZN21IOUserNetworkEthernet16ReportLinkStatusEjjPFiP15OSMetaClassBase5IORPCE,
                            __ZN21IOUserNetworkEthernet16_GetFeatureFlagsEPjPFiP15OSMetaClassBase5IORPCE,
                            __ZN21IOUserNetworkEthernet16_SelectMediaTypeEjPFiP15OSMetaClassBase5IORPCE,
                            __ZN21IOUserNetworkEthernet16_SetBSDName_ImplEPKcm,
                            __ZN21IOUserNetworkEthernet16getBSDNamePrefixEv,
                            __ZN21IOUserNetworkEthernet16getBSDUnitNumberEv,
                            __ZN21IOUserNetworkEthernet16reportLinkStatusEjj,
                            __ZN21IOUserNetworkEthernet17ReportLinkQualityEjPFiP15OSMetaClassBase5IORPCE,
                            __ZN21IOUserNetworkEthernet17_ReportLinkStatusEjjPFiP15OSMetaClassBase5IORPCE,
                            __ZN21IOUserNetworkEthernet17_ShareTask_InvokeE5IORPCP15OSMetaClassBasePFiS2_E,
                            __ZN21IOUserNetworkEthernet17_bpfAttach_InvokeE5IORPCP15OSMetaClassBasePFiS2_jjE,
                            __ZN21IOUserNetworkEthernet17bpfTapInputPacketEjP19IOUserNetworkPacketPvm,
                            __ZN21IOUserNetworkEthernet17handleChosenMediaEj,
                            __ZN21IOUserNetworkEthernet17reportLinkQualityEj,
                            __ZN21IOUserNetworkEthernet18GetHardwareAssistsEPjPFiP15OSMetaClassBase5IORPCE,
                            __ZN21IOUserNetworkEthernet18GetMaxTransferUnitEPjPFiP15OSMetaClassBase5IORPCE,
                            __ZN21IOUserNetworkEthernet18RetainNicProxyDataEPyPFiP15OSMetaClassBase5IORPCE,
                            __ZN21IOUserNetworkEthernet18SetHardwareAssistsEjPFiP15OSMetaClassBase5IORPCE,
                            __ZN21IOUserNetworkEthernet18SetInterfaceEnableEbPFiP15OSMetaClassBase5IORPCE,
                            __ZN21IOUserNetworkEthernet18SetPowerState_ImplEj,
                            __ZN21IOUserNetworkEthernet18_ReportLinkQualityEjPFiP15OSMetaClassBase5IORPCE,
                            __ZN21IOUserNetworkEthernet18_SetBSDName_InvokeE5IORPCP15OSMetaClassBasePFiS2_PKcmE,
                            __ZN21IOUserNetworkEthernet18bpfTapOutputPacketEjP19IOUserNetworkPacketPvm,
                            __ZN21IOUserNetworkEthernet18getHardwareAddressEP10ether_addr,
                            __ZN21IOUserNetworkEthernet18getHardwareAssistsEv,
                            __ZN21IOUserNetworkEthernet18getMaxTransferUnitEv,
                            __ZN21IOUserNetworkEthernet18setHardwareAddressEP10ether_addr,
                            __ZN21IOUserNetworkEthernet18setHardwareAssistsEj,
                            __ZN21IOUserNetworkEthernet18setHardwareAssistsEjj,
                            __ZN21IOUserNetworkEthernet18setInterfaceEnableEb,
                            __ZN21IOUserNetworkEthernet18setMaxTransferUnitEj,
                            __ZN21IOUserNetworkEthernet19ReleaseNicProxyDataEPFiP15OSMetaClassBase5IORPCE,
                            __ZN21IOUserNetworkEthernet19SetTxPacketHeadroomEt,
                            __ZN21IOUserNetworkEthernet19SetTxPacketTailroomEt,
                            __ZN21IOUserNetworkEthernet19_GetHardwareAddressEP10ether_addrPFiP15OSMetaClassBase5IORPCE,
                            __ZN21IOUserNetworkEthernet19_GetHardwareAssistsEPjPFiP15OSMetaClassBase5IORPCE,
                            __ZN21IOUserNetworkEthernet19_GetMaxTransferUnitEPjPFiP15OSMetaClassBase5IORPCE,
                            __ZN21IOUserNetworkEthernet19_GetTSOOptions_ImplEP23IOUserNetworkTSOOptions,
                            __ZN21IOUserNetworkEthernet19_SetHardwareAddressE10ether_addrPFiP15OSMetaClassBase5IORPCE,
                            __ZN21IOUserNetworkEthernet19_SetHardwareAssistsEjjPFiP15OSMetaClassBase5IORPCE,
                            __ZN21IOUserNetworkEthernet19_SetInterfaceEnableEbPFiP15OSMetaClassBase5IORPCE,
                            __ZN21IOUserNetworkEthernet19_SetMaxTransferUnitEjPFiP15OSMetaClassBase5IORPCE,
                            __ZN21IOUserNetworkEthernet20ReportDataBandwidthsEyyyyPFiP15OSMetaClassBase5IORPCE,
                            __ZN21IOUserNetworkEthernet20ReportNicProxyLimitsE22nicproxy_limits_info_sPFiP15OSMetaClassBase5IORPCE,
                            __ZN21IOUserNetworkEthernet20_bpfTapPacket_InvokeE5IORPCP15OSMetaClassBasePFiS2_bjP29IOUserNetworkPacketBufferPool24IOUserNetworkPacketStateymE,
                            __ZN21IOUserNetworkEthernet20hwConfigNicProxyDataEP14offload_info_s,
                            __ZN21IOUserNetworkEthernet20hwConfigNicProxyDataEP15nicproxy_info_s,
                            __ZN21IOUserNetworkEthernet20reportDataBandwidthsEyyyy,
                            __ZN21IOUserNetworkEthernet20reportNicProxyLimitsE22nicproxy_limits_info_s,
                            __ZN21IOUserNetworkEthernet21SetMulticastAddressesEPK23IOUserNetworkMACAddressjPFiP15OSMetaClassBase5IORPCE,
                            __ZN21IOUserNetworkEthernet21_GetFeatureFlags_ImplEPj,
                            __ZN21IOUserNetworkEthernet21_GetTSOOptions_InvokeE5IORPCP15OSMetaClassBasePFiS2_P23IOUserNetworkTSOOptionsE,
                            __ZN21IOUserNetworkEthernet21_ReportDataBandwidthsEyyyyPFiP15OSMetaClassBase5IORPCE,
                            __ZN21IOUserNetworkEthernet21_ReportNicProxyLimitsE22nicproxy_limits_info_sPFiP15OSMetaClassBase5IORPCE,
                            __ZN21IOUserNetworkEthernet21_SelectMediaType_ImplEj,
                            __ZN21IOUserNetworkEthernet21getInterfaceSubFamilyEv,
                            __ZN21IOUserNetworkEthernet21setMulticastAddressesEPK10ether_addrj,
                            __ZN21IOUserNetworkEthernet22SelectMediaType_InvokeE5IORPCP15OSMetaClassBasePFiS2_jE,
                            __ZN21IOUserNetworkEthernet22SetSoftwareVlanSupportEb,
                            __ZN21IOUserNetworkEthernet22_GetInterfaceSubFamilyEPjPFiP15OSMetaClassBase5IORPCE,
                            __ZN21IOUserNetworkEthernet22_SetMulticastAddressesEyjPFiP15OSMetaClassBase5IORPCE,
                            __ZN21IOUserNetworkEthernet22getSupportedMediaArrayEPjS0_,
                            __ZN21IOUserNetworkEthernet23ReportLinkStatus_InvokeE5IORPCP15OSMetaClassBasePFiS2_jjE,
                            __ZN21IOUserNetworkEthernet23_GetFeatureFlags_InvokeE5IORPCP15OSMetaClassBasePFiS2_PjE,
                            __ZN21IOUserNetworkEthernet23_GetSupportedMediaArrayEyPjPFiP15OSMetaClassBase5IORPCE,
                            __ZN21IOUserNetworkEthernet23_RxSQDataAvailable_ImplEP8OSAction,
                            __ZN21IOUserNetworkEthernet23_SelectMediaType_InvokeE5IORPCP15OSMetaClassBasePFiS2_jE,
                            __ZN21IOUserNetworkEthernet23_TxSQDataAvailable_ImplEP8OSAction,
                            __ZN21IOUserNetworkEthernet23processInterfaceCommandEP5ifdrv,
                            __ZN21IOUserNetworkEthernet24ReportLinkQuality_InvokeE5IORPCP15OSMetaClassBasePFiS2_jE,
                            __ZN21IOUserNetworkEthernet24SetPromiscuousModeEnableEbPFiP15OSMetaClassBase5IORPCE,
                            __ZN21IOUserNetworkEthernet24_GetHardwareAddress_ImplEP10ether_addr,
                            __ZN21IOUserNetworkEthernet24_GetHardwareAssists_ImplEPj,
                            __ZN21IOUserNetworkEthernet24_GetMaxTransferUnit_ImplEPj,
                            __ZN21IOUserNetworkEthernet24_ProcessInterfaceCommandEP5ifdrvPFiP15OSMetaClassBase5IORPCE,
                            __ZN21IOUserNetworkEthernet24_ReportLinkStatus_InvokeE5IORPCP15OSMetaClassBasePFvS2_jjE,
                            __ZN21IOUserNetworkEthernet24_SetHardwareAddress_ImplE10ether_addr,
                            __ZN21IOUserNetworkEthernet24_SetHardwareAssists_ImplEjj,
                            __ZN21IOUserNetworkEthernet24_SetInterfaceEnable_ImplEb,
                            __ZN21IOUserNetworkEthernet24_SetMaxTransferUnit_ImplEj,
                            __ZN21IOUserNetworkEthernet24setPromiscuousModeEnableEb,
                            __ZN21IOUserNetworkEthernet25GetHardwareAssists_InvokeE5IORPCP15OSMetaClassBasePFiS2_PjE,
                            __ZN21IOUserNetworkEthernet25GetMaxTransferUnit_InvokeE5IORPCP15OSMetaClassBasePFiS2_PjE,
                            __ZN21IOUserNetworkEthernet25RegisterEthernetInterfaceE10ether_addrP29IOUserNetworkPacketBufferPoolPP24IOUserNetworkPacketQueuej,
                            __ZN21IOUserNetworkEthernet25RegisterEthernetInterfaceE23IOUserNetworkMACAddressP29IOUserNetworkPacketBufferPoolPP24IOUserNetworkPacketQueuej,
                            __ZN21IOUserNetworkEthernet25ReportAvailableMediaTypesEPKjj,
                            __ZN21IOUserNetworkEthernet25RetainNicProxyData_InvokeE5IORPCP15OSMetaClassBasePFiS2_PyE,
                            __ZN21IOUserNetworkEthernet25SetAllMulticastModeEnableEbPFiP15OSMetaClassBase5IORPCE,
                            __ZN21IOUserNetworkEthernet25SetHardwareAssists_InvokeE5IORPCP15OSMetaClassBasePFiS2_jE,
                            __ZN21IOUserNetworkEthernet25SetInterfaceEnable_InvokeE5IORPCP15OSMetaClassBasePFiS2_bE,
                            __ZN21IOUserNetworkEthernet25_ReportLinkQuality_InvokeE5IORPCP15OSMetaClassBasePFvS2_jE,
                            __ZN21IOUserNetworkEthernet25_SetPromiscuousModeEnableEbPFiP15OSMetaClassBase5IORPCE,
                            __ZN21IOUserNetworkEthernet25registerEthernetInterfaceEPP24IOUserNetworkPacketQueuejP29IOUserNetworkPacketBufferPoolS4_,
                            __ZN21IOUserNetworkEthernet25setAllMulticastModeEnableEb,
                            __ZN21IOUserNetworkEthernet26CreateAction_DataAvailableEmPP8OSAction,
                            __ZN21IOUserNetworkEthernet26ReleaseNicProxyData_InvokeE5IORPCP15OSMetaClassBasePFiS2_E,
                            __ZN21IOUserNetworkEthernet26SetWakeOnMagicPacketEnableEbPFiP15OSMetaClassBase5IORPCE,
                            __ZN21IOUserNetworkEthernet26_GetHardwareAddress_InvokeE5IORPCP15OSMetaClassBasePFiS2_P10ether_addrE,
                            __ZN21IOUserNetworkEthernet26_GetHardwareAssists_InvokeE5IORPCP15OSMetaClassBasePFiS2_PjE,
                            __ZN21IOUserNetworkEthernet26_GetMaxTransferUnit_InvokeE5IORPCP15OSMetaClassBasePFiS2_PjE,
                            __ZN21IOUserNetworkEthernet26_RegisterEthernetInterfaceE41_IOUserNetworkEthernetInterfaceDescriptorPP24IOUserNetworkPacketQueuejP29IOUserNetworkPacketBufferPoolS5_PFiP15OSMetaClassBase5IORPCE,
                            __ZN21IOUserNetworkEthernet26_ReportAvailableMediaTypesEPKjjPFiP15OSMetaClassBase5IORPCE,
                            __ZN21IOUserNetworkEthernet26_SetAllMulticastModeEnableEbPFiP15OSMetaClassBase5IORPCE,
                            __ZN21IOUserNetworkEthernet26_SetHardwareAddress_InvokeE5IORPCP15OSMetaClassBasePFiS2_10ether_addrE,
                            __ZN21IOUserNetworkEthernet26_SetHardwareAssists_InvokeE5IORPCP15OSMetaClassBasePFiS2_jjE,
                            __ZN21IOUserNetworkEthernet26_SetInterfaceEnable_InvokeE5IORPCP15OSMetaClassBasePFiS2_bE,
                            __ZN21IOUserNetworkEthernet26_SetMaxTransferUnit_InvokeE5IORPCP15OSMetaClassBasePFiS2_jE,
                            __ZN21IOUserNetworkEthernet27ReportDataBandwidths_InvokeE5IORPCP15OSMetaClassBasePFiS2_yyyyE,
                            __ZN21IOUserNetworkEthernet27ReportNicProxyLimits_InvokeE5IORPCP15OSMetaClassBasePFiS2_22nicproxy_limits_info_sE,
                            __ZN21IOUserNetworkEthernet27SetWakeOnMagicPacketSupportEb,
                            __ZN21IOUserNetworkEthernet27_GetInterfaceSubFamily_ImplEPj,
                            __ZN21IOUserNetworkEthernet27_SetMulticastAddresses_ImplEyj,
                            __ZN21IOUserNetworkEthernet28SetMulticastAddresses_InvokeE5IORPCP15OSMetaClassBasePFiS2_PK23IOUserNetworkMACAddressjE,
                            __ZN21IOUserNetworkEthernet28_GetSupportedMediaArray_ImplEyPj,
                            __ZN21IOUserNetworkEthernet28_ReportDataBandwidths_InvokeE5IORPCP15OSMetaClassBasePFvS2_yyyyE,
                            __ZN21IOUserNetworkEthernet28_ReportNicProxyLimits_InvokeE5IORPCP15OSMetaClassBasePFiS2_22nicproxy_limits_info_sE,
                            __ZN21IOUserNetworkEthernet29_GetInterfaceSubFamily_InvokeE5IORPCP15OSMetaClassBasePFiS2_PjE,
                            __ZN21IOUserNetworkEthernet29_ProcessInterfaceCommand_ImplEP5ifdrv,
                            __ZN21IOUserNetworkEthernet29_SetMulticastAddresses_InvokeE5IORPCP15OSMetaClassBasePFiS2_yjE,
                            __ZN21IOUserNetworkEthernet30CreateAction_RxSQDataAvailableEmPP8OSAction,
                            __ZN21IOUserNetworkEthernet30CreateAction_TxSQDataAvailableEmPP8OSAction,
                            __ZN21IOUserNetworkEthernet30_GetSupportedMediaArray_InvokeE5IORPCP15OSMetaClassBasePFiS2_yPjE,
                            __ZN21IOUserNetworkEthernet30_SetPromiscuousModeEnable_ImplEb,
                            __ZN21IOUserNetworkEthernet31SetPromiscuousModeEnable_InvokeE5IORPCP15OSMetaClassBasePFiS2_bE,
                            __ZN21IOUserNetworkEthernet31_ProcessInterfaceCommand_InvokeE5IORPCP15OSMetaClassBasePFiS2_P5ifdrvE,
                            __ZN21IOUserNetworkEthernet31_SetAllMulticastModeEnable_ImplEb,
                            __ZN21IOUserNetworkEthernet32SetAllMulticastModeEnable_InvokeE5IORPCP15OSMetaClassBasePFiS2_bE,
                            __ZN21IOUserNetworkEthernet32_SetPromiscuousModeEnable_InvokeE5IORPCP15OSMetaClassBasePFiS2_bE,
                            __ZN21IOUserNetworkEthernet33SetWakeOnMagicPacketEnable_InvokeE5IORPCP15OSMetaClassBasePFiS2_bE,
                            __ZN21IOUserNetworkEthernet33_RegisterEthernetInterface_InvokeE5IORPCP15OSMetaClassBasePFiS2_41_IOUserNetworkEthernetInterfaceDescriptorPP24IOUserNetworkPacketQueuejP29IOUserNetworkPacketBufferPoolS8_E,
                            __ZN21IOUserNetworkEthernet33_ReportAvailableMediaTypes_InvokeE5IORPCP15OSMetaClassBasePFiS2_PKjjE,
                            __ZN21IOUserNetworkEthernet33_SetAllMulticastModeEnable_InvokeE5IORPCP15OSMetaClassBasePFiS2_bE,
                            __ZN21IOUserNetworkEthernet4freeEv,
                            __ZN21IOUserNetworkEthernet4initEv,
                            __ZN21IOUserNetworkEthernet4stopEP9IOService,
                            __ZN21IOUserNetworkEthernet5startEP9IOService,
                            __ZN21IOUserNetworkEthernet6SetMTUEjPFiP15OSMetaClassBase5IORPCE,
                            __ZN21IOUserNetworkEthernet6bpfTapEjj,
                            __ZN21IOUserNetworkEthernet7_bpfTapEjjPFiP15OSMetaClassBase5IORPCE,
                            __ZN21IOUserNetworkEthernet8DispatchE5IORPC,
                            __ZN21IOUserNetworkEthernet9Stop_ImplEP9IOService,
                            __ZN21IOUserNetworkEthernet9_DispatchEPS_5IORPC,
                            __ZN21IOUserNetworkEthernet9bpfAttachEjj,
                            __ZN21IOUserNetworkQueueSet10_SetEnableEbPFiP15OSMetaClassBase5IORPCE,
                            __ZN21IOUserNetworkQueueSet12_Free_InvokeE5IORPCP15OSMetaClassBasePFvS2_E,
                            __ZN21IOUserNetworkQueueSet16createWithQueuesEPP24IOUserNetworkPacketQueuejP14QueueSetInfo_s,
                            __ZN21IOUserNetworkQueueSet17_CreateWithQueuesEPP24IOUserNetworkPacketQueuejP14QueueSetInfo_sPPS_PFiP15OSMetaClassBase5IORPCE,
                            __ZN21IOUserNetworkQueueSet17_SetEnable_InvokeE5IORPCP15OSMetaClassBasePFiS2_bE,
                            __ZN21IOUserNetworkQueueSet24_CreateWithQueues_InvokeE5IORPCP15OSMetaClassBasePFiS2_PP24IOUserNetworkPacketQueuejP14QueueSetInfo_sPPS_E,
                            __ZN21IOUserNetworkQueueSet4freeEv,
                            __ZN21IOUserNetworkQueueSet5_FreeEPFiP15OSMetaClassBase5IORPCE,
                            __ZN21IOUserNetworkQueueSet8DispatchE5IORPC,
                            __ZN21IOUserNetworkQueueSet9_DispatchEPS_5IORPC,
                            __ZN21IOUserNetworkQueueSet9setEnableEb,
                            __ZN24IOUserNetworkLogicalLink12_Free_InvokeE5IORPCP15OSMetaClassBasePFvS2_E,
                            __ZN24IOUserNetworkLogicalLink18createWithQueueSetEPP21IOUserNetworkQueueSetjP17LogicalLinkInfo_s,
                            __ZN24IOUserNetworkLogicalLink19_CreateWithQueueSetEPKyjP17LogicalLinkInfo_sPPS_PFiP15OSMetaClassBase5IORPCE,
                            __ZN24IOUserNetworkLogicalLink26_CreateWithQueueSet_InvokeE5IORPCP15OSMetaClassBasePFiS2_PKyjP17LogicalLinkInfo_sPPS_E,
                            __ZN24IOUserNetworkLogicalLink4freeEv,
                            __ZN24IOUserNetworkLogicalLink5_FreeEPFiP15OSMetaClassBase5IORPCE,
                            __ZN24IOUserNetworkLogicalLink8DispatchE5IORPC,
                            __ZN24IOUserNetworkLogicalLink9_DispatchEPS_5IORPC,
                            __ZN24IOUserNetworkPacketQueue10_SetEnableEbPFiP15OSMetaClassBase5IORPCE,
                            __ZN24IOUserNetworkPacketQueue12SetDataQueueEP25IODataQueueDispatchSourcePFiP15OSMetaClassBase5IORPCE,
                            __ZN24IOUserNetworkPacketQueue13CopyDataQueueEPP25IODataQueueDispatchSource,
                            __ZN24IOUserNetworkPacketQueue13DequeuePacketEPP19IOUserNetworkPacket,
                            __ZN24IOUserNetworkPacketQueue13EnqueuePacketEP19IOUserNetworkPacket,
                            __ZN24IOUserNetworkPacketQueue14DequeuePacketsEPP19IOUserNetworkPacketj,
                            __ZN24IOUserNetworkPacketQueue14EnqueuePacketsEPP19IOUserNetworkPacketj,
                            __ZN24IOUserNetworkPacketQueue14SetEnable_ImplEb,
                            __ZN24IOUserNetworkPacketQueue14enqueuePacketsEPP19IOUserNetworkPacketjj,
                            __ZN24IOUserNetworkPacketQueue14requestDequeueEPvj,
                            __ZN24IOUserNetworkPacketQueue14requestEnqueueEPvj,
                            __ZN24IOUserNetworkPacketQueue15_SetEnable_ImplEb,
                            __ZN24IOUserNetworkPacketQueue15setPacketPollerEP25IOUserNetworkPacketPoller,
                            __ZN24IOUserNetworkPacketQueue16SetEnable_InvokeE5IORPCP15OSMetaClassBasePFiS2_bE,
                            __ZN24IOUserNetworkPacketQueue17SetDataQueue_ImplEP25IODataQueueDispatchSource,
                            __ZN24IOUserNetworkPacketQueue17_SetEnable_InvokeE5IORPCP15OSMetaClassBasePFiS2_bE,
                            __ZN24IOUserNetworkPacketQueue18SetPacketDirectionEj,
                            __ZN24IOUserNetworkPacketQueue19SetDataQueue_InvokeE5IORPCP15OSMetaClassBasePFiS2_P25IODataQueueDispatchSourceE,
                            __ZN24IOUserNetworkPacketQueue19SetPacketBufferPoolEP29IOUserNetworkPacketBufferPool,
                            __ZN24IOUserNetworkPacketQueue4freeEv,
                            __ZN24IOUserNetworkPacketQueue4initEv,
                            __ZN24IOUserNetworkPacketQueue8DispatchE5IORPC,
                            __ZN24IOUserNetworkPacketQueue9SetEnableEbPFiP15OSMetaClassBase5IORPCE,
                            __ZN24IOUserNetworkPacketQueue9_DispatchEPS_5IORPC,
                            __ZN24IOUserNetworkPacketQueue9setEnableEb,
                            __ZN25IOUserNetworkPacketPoller10initPollerEP8OSObjectP15IODispatchQueuePFiS1_PS_PvEPFiS1_S4_jS5_EjS5_,
                            __ZN25IOUserNetworkPacketPoller12pollerEngineEby,
                            __ZN25IOUserNetworkPacketPoller18TimerOccurred_ImplEP8OSActiony,
                            __ZN25IOUserNetworkPacketPoller19setPollerParametersEPK35IOUserNetworkPacketPollerParameters,
                            __ZN25IOUserNetworkPacketPoller20updatePacketCountersEjj,
                            __ZN25IOUserNetworkPacketPoller21applyPollerParametersEPK36_IOUserNetworkPacketPollerParameters,
                            __ZN25IOUserNetworkPacketPoller25CreateActionTimerOccurredEmPP8OSAction,
                            __ZN25IOUserNetworkPacketPoller4freeEv,
                            __ZN25IOUserNetworkPacketPoller4initEv,
                            __ZN25IOUserNetworkPacketPoller6enableEv,
                            __ZN25IOUserNetworkPacketPoller6pollerEP8OSObjectP15IODispatchQueuePFiS1_PS_PvEPFiS1_S4_jS5_EjS5_,
                            __ZN25IOUserNetworkPacketPoller7disableEv,
                            __ZN25IOUserNetworkPacketPoller8DispatchE5IORPC,
                            __ZN25IOUserNetworkPacketPoller9_DispatchEPS_5IORPC,
                            __ZN26IOUserNetworkWLANMetaClass3NewEP8OSObject,
                            __ZN26IOUserNetworkWLANMetaClass8DispatchE5IORPC,
                            __ZN28IOUserNetworkPacketMetaClass3NewEP8OSObject,
                            __ZN28IOUserNetworkPacketMetaClass8DispatchE5IORPC,
                            __ZN29IOUserNetworkPacketBufferPool11_GetNDKPoolEPS_,
                            __ZN29IOUserNetworkPacketBufferPool12_Create_CallEP9IOServicePKcjPK36IOUserNetworkPacketBufferPoolOptionsPPS_,
                            __ZN29IOUserNetworkPacketBufferPool12initWithNameEPKcP8OSObjectjPK36IOUserNetworkPacketBufferPoolOptions,
                            __ZN29IOUserNetworkPacketBufferPool14GetBufferCountEPjPFiP15OSMetaClassBase5IORPCE,
                            __ZN29IOUserNetworkPacketBufferPool14GetPacketCountEPjPFiP15OSMetaClassBase5IORPCE,
                            __ZN29IOUserNetworkPacketBufferPool14_Create_InvokeE5IORPCPFiP9IOServicePKcjPK36IOUserNetworkPacketBufferPoolOptionsPPS_E,
                            __ZN29IOUserNetworkPacketBufferPool14allocatePacketEPP19IOUserNetworkPacketj,
                            __ZN29IOUserNetworkPacketBufferPool15_AllocatePacketEP24IOUserNetworkPacketStatejPFiP15OSMetaClassBase5IORPCE,
                            __ZN29IOUserNetworkPacketBufferPool16DeallocatePacketEP19IOUserNetworkPacket,
                            __ZN29IOUserNetworkPacketBufferPool16deallocatePacketEP19IOUserNetworkPacket,
                            __ZN29IOUserNetworkPacketBufferPool17CreateWithOptionsEP9IOServicePKcPK36IOUserNetworkPacketBufferPoolOptionsPPS_,
                            __ZN29IOUserNetworkPacketBufferPool17DeallocatePacketsEPP19IOUserNetworkPacketj,
                            __ZN29IOUserNetworkPacketBufferPool17_DeallocatePacketEjPFiP15OSMetaClassBase5IORPCE,
                            __ZN29IOUserNetworkPacketBufferPool17deallocatePacketsEPP19IOUserNetworkPacketj,
                            __ZN29IOUserNetworkPacketBufferPool18getPoolOwnerDeviceEv,
                            __ZN29IOUserNetworkPacketBufferPool19GetBufferCount_ImplEPj,
                            __ZN29IOUserNetworkPacketBufferPool19GetPacketCount_ImplEPj,
                            __ZN29IOUserNetworkPacketBufferPool19_GetPacketWithIndexEj,
                            __ZN29IOUserNetworkPacketBufferPool20CopyMemoryDescriptorEPP18IOMemoryDescriptorPFiP15OSMetaClassBase5IORPCE,
                            __ZN29IOUserNetworkPacketBufferPool21GetBufferCount_InvokeE5IORPCP15OSMetaClassBasePFiS2_PjE,
                            __ZN29IOUserNetworkPacketBufferPool21GetPacketCount_InvokeE5IORPCP15OSMetaClassBasePFiS2_PjE,
                            __ZN29IOUserNetworkPacketBufferPool22_AllocatePacket_InvokeE5IORPCP15OSMetaClassBasePFiS2_P24IOUserNetworkPacketStatejE,
                            __ZN29IOUserNetworkPacketBufferPool24_DeallocatePacket_InvokeE5IORPCP15OSMetaClassBasePFiS2_jE,
                            __ZN29IOUserNetworkPacketBufferPool27CopyMemoryDescriptor_InvokeE5IORPCP15OSMetaClassBasePFiS2_PP18IOMemoryDescriptorE,
                            __ZN29IOUserNetworkPacketBufferPool4freeEv,
                            __ZN29IOUserNetworkPacketBufferPool4initEv,
                            __ZN29IOUserNetworkPacketBufferPool6CreateEP8OSObjectPKcjjjPPS_,
                            __ZN29IOUserNetworkPacketBufferPool7_CreateEP9IOServicePKcjPK36IOUserNetworkPacketBufferPoolOptionsPPS_,
                            __ZN29IOUserNetworkPacketBufferPool8DispatchE5IORPC,
                            __ZN29IOUserNetworkPacketBufferPool8withNameEPKcP8OSObjectjPK36IOUserNetworkPacketBufferPoolOptions,
                            __ZN29IOUserNetworkPacketBufferPool9_DispatchEPS_5IORPC,
                            __ZN29IOUserNetworkPacketBufferPool9newPacketEP29IOUserNetworkPacketDescriptorPP19IOUserNetworkPacket,
                            __ZN30IOUserNetworkEthernetMetaClass3NewEP8OSObject,
                            __ZN30IOUserNetworkEthernetMetaClass8DispatchE5IORPC,
                            __ZN30IOUserNetworkQueueSetMetaClass3NewEP8OSObject,
                            __ZN30IOUserNetworkQueueSetMetaClass8DispatchE5IORPC,
                            __ZN30IOUserNetworkRxCompletionQueue11Create_CallEP29IOUserNetworkPacketBufferPoolP8OSObjectjjP15IODispatchQueuePPS_,
                            __ZN30IOUserNetworkRxCompletionQueue12initWithPoolEP29IOUserNetworkPacketBufferPooljjP8OSObjectPFjS3_P24IOUserNetworkPacketQueuePP19IOUserNetworkPacketjPvES9_j,
                            __ZN30IOUserNetworkRxCompletionQueue13Create_InvokeE5IORPCPFiP29IOUserNetworkPacketBufferPoolP8OSObjectjjP15IODispatchQueuePPS_E,
                            __ZN30IOUserNetworkRxCompletionQueue15setPacketPollerEP25IOUserNetworkPacketPoller,
                            __ZN30IOUserNetworkRxCompletionQueue4freeEv,
                            __ZN30IOUserNetworkRxCompletionQueue4initEv,
                            __ZN30IOUserNetworkRxCompletionQueue6CreateEP29IOUserNetworkPacketBufferPoolP8OSObjectjjP15IODispatchQueuePPS_,
                            __ZN30IOUserNetworkRxCompletionQueue8DispatchE5IORPC,
                            __ZN30IOUserNetworkRxCompletionQueue8withPoolEP29IOUserNetworkPacketBufferPooljjP8OSObjectPFjS3_P24IOUserNetworkPacketQueuePP19IOUserNetworkPacketjPvES9_j,
                            __ZN30IOUserNetworkRxCompletionQueue9_DispatchEPS_5IORPC,
                            __ZN30IOUserNetworkRxSubmissionQueue11Create_CallEP29IOUserNetworkPacketBufferPoolP8OSObjectjjP15IODispatchQueuePPS_,
                            __ZN30IOUserNetworkRxSubmissionQueue12initWithPoolEP29IOUserNetworkPacketBufferPooljjjP8OSObjectPFjS3_P24IOUserNetworkPacketQueuePP19IOUserNetworkPacketjPvES9_j,
                            __ZN30IOUserNetworkRxSubmissionQueue13Create_InvokeE5IORPCPFiP29IOUserNetworkPacketBufferPoolP8OSObjectjjP15IODispatchQueuePPS_E,
                            __ZN30IOUserNetworkRxSubmissionQueue15_SetEnable_ImplEb,
                            __ZN30IOUserNetworkRxSubmissionQueue16_SetSignalOnFullEPFiP15OSMetaClassBase5IORPCE,
                            __ZN30IOUserNetworkRxSubmissionQueue23_SetSignalOnFull_InvokeE5IORPCP15OSMetaClassBasePFiS2_E,
                            __ZN30IOUserNetworkRxSubmissionQueue4freeEv,
                            __ZN30IOUserNetworkRxSubmissionQueue4initEv,
                            __ZN30IOUserNetworkRxSubmissionQueue6CreateEP29IOUserNetworkPacketBufferPoolP8OSObjectjjP15IODispatchQueuePPS_,
                            __ZN30IOUserNetworkRxSubmissionQueue8DispatchE5IORPC,
                            __ZN30IOUserNetworkRxSubmissionQueue8withPoolEP29IOUserNetworkPacketBufferPooljjjP8OSObjectPFjS3_P24IOUserNetworkPacketQueuePP19IOUserNetworkPacketjPvES9_j,
                            __ZN30IOUserNetworkRxSubmissionQueue9_DispatchEPS_5IORPC,
                            __ZN30IOUserNetworkTxCompletionQueue11Create_CallEP29IOUserNetworkPacketBufferPoolP8OSObjectjjP15IODispatchQueuePPS_,
                            __ZN30IOUserNetworkTxCompletionQueue12initWithPoolEP29IOUserNetworkPacketBufferPooljjP8OSObjectPFjS3_P24IOUserNetworkPacketQueuePP19IOUserNetworkPacketjPvES9_j,
                            __ZN30IOUserNetworkTxCompletionQueue13Create_InvokeE5IORPCPFiP29IOUserNetworkPacketBufferPoolP8OSObjectjjP15IODispatchQueuePPS_E,
                            __ZN30IOUserNetworkTxCompletionQueue15setPacketPollerEP25IOUserNetworkPacketPoller,
                            __ZN30IOUserNetworkTxCompletionQueue4freeEv,
                            __ZN30IOUserNetworkTxCompletionQueue4initEv,
                            __ZN30IOUserNetworkTxCompletionQueue6CreateEP29IOUserNetworkPacketBufferPoolP8OSObjectjjP15IODispatchQueuePPS_,
                            __ZN30IOUserNetworkTxCompletionQueue8DispatchE5IORPC,
                            __ZN30IOUserNetworkTxCompletionQueue8withPoolEP29IOUserNetworkPacketBufferPooljjP8OSObjectPFjS3_P24IOUserNetworkPacketQueuePP19IOUserNetworkPacketjPvES9_j,
                            __ZN30IOUserNetworkTxCompletionQueue9_DispatchEPS_5IORPC,
                            __ZN30IOUserNetworkTxSubmissionQueue12_Create_CallEP29IOUserNetworkPacketBufferPoolP8OSObjectjjjP15IODispatchQueuePPS_,
                            __ZN30IOUserNetworkTxSubmissionQueue12initWithPoolEP29IOUserNetworkPacketBufferPooljjjP8OSObjectPFjS3_P24IOUserNetworkPacketQueuePjEPFjS3_S5_PP19IOUserNetworkPacketjPvESC_j,
                            __ZN30IOUserNetworkTxSubmissionQueue12purgePacketsEv,
                            __ZN30IOUserNetworkTxSubmissionQueue13_PurgePacketsEPFiP15OSMetaClassBase5IORPCE,
                            __ZN30IOUserNetworkTxSubmissionQueue14_Create_InvokeE5IORPCPFiP29IOUserNetworkPacketBufferPoolP8OSObjectjjjP15IODispatchQueuePPS_E,
                            __ZN30IOUserNetworkTxSubmissionQueue16_SetServiceClassEjPFiP15OSMetaClassBase5IORPCE,
                            __ZN30IOUserNetworkTxSubmissionQueue20_PurgePackets_InvokeE5IORPCP15OSMetaClassBasePFvS2_E,
                            __ZN30IOUserNetworkTxSubmissionQueue23_SetServiceClass_InvokeE5IORPCP15OSMetaClassBasePFiS2_jE,
                            __ZN30IOUserNetworkTxSubmissionQueue23_SetSignalOnFirstPacketEPFiP15OSMetaClassBase5IORPCE,
                            __ZN30IOUserNetworkTxSubmissionQueue23withPoolAndServiceClassEP29IOUserNetworkPacketBufferPooljjjP8OSObjectPFjS3_P24IOUserNetworkPacketQueuePjEPFjS3_S5_PP19IOUserNetworkPacketjPvESC_j,
                            __ZN30IOUserNetworkTxSubmissionQueue30_SetSignalOnFirstPacket_InvokeE5IORPCP15OSMetaClassBasePFiS2_E,
                            __ZN30IOUserNetworkTxSubmissionQueue4freeEv,
                            __ZN30IOUserNetworkTxSubmissionQueue4initEv,
                            __ZN30IOUserNetworkTxSubmissionQueue6CreateEP29IOUserNetworkPacketBufferPoolP8OSObjectjjP15IODispatchQueuePPS_,
                            __ZN30IOUserNetworkTxSubmissionQueue7_CreateEP29IOUserNetworkPacketBufferPoolP8OSObjectjjjP15IODispatchQueuePPS_,
                            __ZN30IOUserNetworkTxSubmissionQueue8DispatchE5IORPC,
                            __ZN30IOUserNetworkTxSubmissionQueue8withPoolEP29IOUserNetworkPacketBufferPooljjP8OSObjectPFjS3_P24IOUserNetworkPacketQueuePjEPFjS3_S5_PP19IOUserNetworkPacketjPvESC_j,
                            __ZN30IOUserNetworkTxSubmissionQueue9_DispatchEPS_5IORPC,
                            __ZN33IOUserNetworkLogicalLinkMetaClass3NewEP8OSObject,
                            __ZN33IOUserNetworkLogicalLinkMetaClass8DispatchE5IORPC,
                            __ZN33IOUserNetworkPacketQueueMetaClass3NewEP8OSObject,
                            __ZN33IOUserNetworkPacketQueueMetaClass8DispatchE5IORPC,
                            __ZN34IOUserNetworkPacketPollerMetaClass3NewEP8OSObject,
                            __ZN34IOUserNetworkPacketPollerMetaClass8DispatchE5IORPC,
                            __ZN38IOUserNetworkPacketBufferPoolMetaClass3NewEP8OSObject,
                            __ZN38IOUserNetworkPacketBufferPoolMetaClass8DispatchE5IORPC,
                            __ZN39IOUserNetworkRxCompletionQueueMetaClass3NewEP8OSObject,
                            __ZN39IOUserNetworkRxCompletionQueueMetaClass8DispatchE5IORPC,
                            __ZN39IOUserNetworkRxSubmissionQueueMetaClass3NewEP8OSObject,
                            __ZN39IOUserNetworkRxSubmissionQueueMetaClass8DispatchE5IORPC,
                            __ZN39IOUserNetworkTxCompletionQueueMetaClass3NewEP8OSObject,
                            __ZN39IOUserNetworkTxCompletionQueueMetaClass8DispatchE5IORPC,
                            __ZN39IOUserNetworkTxSubmissionQueueMetaClass3NewEP8OSObject,
                            __ZN39IOUserNetworkTxSubmissionQueueMetaClass8DispatchE5IORPC,
                            __ZN45OSAction_IOUserNetworkEthernet__DataAvailable8DispatchE5IORPC,
                            __ZN45OSAction_IOUserNetworkEthernet__DataAvailable9_DispatchEPS_5IORPC,
                            __ZN48OSAction_IOUserNetworkPacketPoller_TimerOccurred8DispatchE5IORPC,
                            __ZN48OSAction_IOUserNetworkPacketPoller_TimerOccurred9_DispatchEPS_5IORPC,
                            __ZN49OSAction_IOUserNetworkEthernet__RxSQDataAvailable8DispatchE5IORPC,
                            __ZN49OSAction_IOUserNetworkEthernet__RxSQDataAvailable9_DispatchEPS_5IORPC,
                            __ZN49OSAction_IOUserNetworkEthernet__TxSQDataAvailable8DispatchE5IORPC,
                            __ZN49OSAction_IOUserNetworkEthernet__TxSQDataAvailable9_DispatchEPS_5IORPC,
                            __ZN54OSAction_IOUserNetworkEthernet__DataAvailableMetaClass3NewEP8OSObject,
                            __ZN54OSAction_IOUserNetworkEthernet__DataAvailableMetaClass8DispatchE5IORPC,
                            __ZN57OSAction_IOUserNetworkPacketPoller_TimerOccurredMetaClass3NewEP8OSObject,
                            __ZN57OSAction_IOUserNetworkPacketPoller_TimerOccurredMetaClass8DispatchE5IORPC,
                            __ZN58OSAction_IOUserNetworkEthernet__RxSQDataAvailableMetaClass3NewEP8OSObject,
                            __ZN58OSAction_IOUserNetworkEthernet__RxSQDataAvailableMetaClass8DispatchE5IORPC,
                            __ZN58OSAction_IOUserNetworkEthernet__TxSQDataAvailableMetaClass3NewEP8OSObject,
                            __ZN58OSAction_IOUserNetworkEthernet__TxSQDataAvailableMetaClass8DispatchE5IORPC,
                            __ZNK19IOUserNetworkPacket10getTSOInfoEPtPj,
                            __ZNK19IOUserNetworkPacket10getTraceIDEv,
                            __ZNK19IOUserNetworkPacket10traceEventEj,
                            __ZNK19IOUserNetworkPacket11GetHeadroomEPh,
                            __ZNK19IOUserNetworkPacket12getTimestampEPy,
                            __ZNK19IOUserNetworkPacket13GetDataLengthEPj,
                            __ZNK19IOUserNetworkPacket13GetDataOffsetEPt,
                            __ZNK19IOUserNetworkPacket13getDataLengthEv,
                            __ZNK19IOUserNetworkPacket13getDataOffsetEv,
                            __ZNK19IOUserNetworkPacket13getExpiryTimeEPy,
                            __ZNK19IOUserNetworkPacket15_GetPacketIndexEPj,
                            __ZNK19IOUserNetworkPacket15getServiceClassEv,
                            __ZNK19IOUserNetworkPacket15isLinkBroadcastEv,
                            __ZNK19IOUserNetworkPacket15isLinkMulticastEv,
                            __ZNK19IOUserNetworkPacket17getRxChecksumInfoEPjPt,
                            __ZNK19IOUserNetworkPacket17getTxChecksumInfoEPjPtS1_,
                            __ZNK19IOUserNetworkPacket19GetLinkHeaderLengthEPh,
                            __ZNK19IOUserNetworkPacket19GetPacketBufferPoolEPP29IOUserNetworkPacketBufferPool,
                            __ZNK19IOUserNetworkPacket19getLinkHeaderLengthEv,
                            __ZNK19IOUserNetworkPacket19getPacketBufferPoolEv,
                            __ZNK19IOUserNetworkPacket20isTimestampRequestedEv,
                            __ZNK19IOUserNetworkPacket21getDataVirtualAddressEv,
                            __ZNK19IOUserNetworkPacket22GetMemorySegmentOffsetEPy,
                            __ZNK19IOUserNetworkPacket22getMemorySegmentOffsetEv,
                            __ZNK19IOUserNetworkPacket23getDataIOVirtualAddressEv,
                            __ZNK19IOUserNetworkPacket26isTransportTrafficRealtimeEv,
                            __ZNK19IOUserNetworkPacket28isTransportTrafficBackgroundEv,
                            __ZNK19IOUserNetworkPacket6_PrintEv,
                            __ZNK21IOUserNetworkEthernet10getBSDNameEv,
                            __ZNK29IOUserNetworkPacketBufferPool7releaseEv,
                            __ZTV17IOUserNetworkWLAN, __ZTV19IOUserNetworkPacket,
                            __ZTV21IOUserNetworkEthernet,
                            __ZTV21IOUserNetworkQueueSet,
                            __ZTV24IOUserNetworkLogicalLink,
                            __ZTV24IOUserNetworkPacketQueue,
                            __ZTV25IOUserNetworkPacketPoller,
                            __ZTV26IOUserNetworkWLANMetaClass,
                            __ZTV28IOUserNetworkPacketMetaClass,
                            __ZTV29IOUserNetworkPacketBufferPool,
                            __ZTV30IOUserNetworkEthernetMetaClass,
                            __ZTV30IOUserNetworkQueueSetMetaClass,
                            __ZTV30IOUserNetworkRxCompletionQueue,
                            __ZTV30IOUserNetworkRxSubmissionQueue,
                            __ZTV30IOUserNetworkTxCompletionQueue,
                            __ZTV30IOUserNetworkTxSubmissionQueue,
                            __ZTV33IOUserNetworkLogicalLinkMetaClass,
                            __ZTV33IOUserNetworkPacketQueueMetaClass,
                            __ZTV34IOUserNetworkPacketPollerMetaClass,
                            __ZTV38IOUserNetworkPacketBufferPoolMetaClass,
                            __ZTV39IOUserNetworkRxCompletionQueueMetaClass,
                            __ZTV39IOUserNetworkRxSubmissionQueueMetaClass,
                            __ZTV39IOUserNetworkTxCompletionQueueMetaClass,
                            __ZTV39IOUserNetworkTxSubmissionQueueMetaClass,
                            __ZTV45OSAction_IOUserNetworkEthernet__DataAvailable,
                            __ZTV48OSAction_IOUserNetworkPacketPoller_TimerOccurred,
                            __ZTV49OSAction_IOUserNetworkEthernet__RxSQDataAvailable,
                            __ZTV49OSAction_IOUserNetworkEthernet__TxSQDataAvailable,
                            __ZTV54OSAction_IOUserNetworkEthernet__DataAvailableMetaClass,
                            __ZTV57OSAction_IOUserNetworkPacketPoller_TimerOccurredMetaClass,
                            __ZTV58OSAction_IOUserNetworkEthernet__RxSQDataAvailableMetaClass,
                            __ZTV58OSAction_IOUserNetworkEthernet__TxSQDataAvailableMetaClass,
                            __ZThn24_N17IOUserNetworkWLAN4freeEv,
                            __ZThn24_N17IOUserNetworkWLAN4initEv,
                            __ZThn24_N19IOUserNetworkPacket4freeEv,
                            __ZThn24_N19IOUserNetworkPacket4initEv,
                            __ZThn24_N21IOUserNetworkEthernet4freeEv,
                            __ZThn24_N21IOUserNetworkEthernet4initEv,
                            __ZThn24_N21IOUserNetworkQueueSet4freeEv,
                            __ZThn24_N24IOUserNetworkLogicalLink4freeEv,
                            __ZThn24_N24IOUserNetworkPacketQueue4freeEv,
                            __ZThn24_N24IOUserNetworkPacketQueue4initEv,
                            __ZThn24_N25IOUserNetworkPacketPoller4freeEv,
                            __ZThn24_N25IOUserNetworkPacketPoller4initEv,
                            __ZThn24_N29IOUserNetworkPacketBufferPool4freeEv,
                            __ZThn24_N29IOUserNetworkPacketBufferPool4initEv,
                            __ZThn24_N30IOUserNetworkRxCompletionQueue4freeEv,
                            __ZThn24_N30IOUserNetworkRxCompletionQueue4initEv,
                            __ZThn24_N30IOUserNetworkRxSubmissionQueue4freeEv,
                            __ZThn24_N30IOUserNetworkRxSubmissionQueue4initEv,
                            __ZThn24_N30IOUserNetworkTxCompletionQueue4freeEv,
                            __ZThn24_N30IOUserNetworkTxCompletionQueue4initEv,
                            __ZThn24_N30IOUserNetworkTxSubmissionQueue4freeEv,
                            __ZThn24_N30IOUserNetworkTxSubmissionQueue4initEv,
                            __ZThn40_N19IOUserNetworkPacket10setLROInfoEjh,
                            __ZThn40_N19IOUserNetworkPacket11SetHeadroomEh,
                            __ZThn40_N19IOUserNetworkPacket11setWakeFlagEv,
                            __ZThn40_N19IOUserNetworkPacket12initWithPoolEP29IOUserNetworkPacketBufferPoolP29IOUserNetworkPacketDescriptorj,
                            __ZThn40_N19IOUserNetworkPacket12setTimestampEy,
                            __ZThn40_N19IOUserNetworkPacket13SetDataLengthEj,
                            __ZThn40_N19IOUserNetworkPacket13SetDataOffsetEt,
                            __ZThn40_N19IOUserNetworkPacket13setDataLengthEj,
                            __ZThn40_N19IOUserNetworkPacket13setDataOffsetEt,
                            __ZThn40_N19IOUserNetworkPacket14clearTimestampEv,
                            __ZThn40_N19IOUserNetworkPacket15_GetPacketStateEP24IOUserNetworkPacketState,
                            __ZThn40_N19IOUserNetworkPacket15_SetPacketIndexEj,
                            __ZThn40_N19IOUserNetworkPacket15_SetPacketStateEPK24IOUserNetworkPacketState,
                            __ZThn40_N19IOUserNetworkPacket16prepareWithQueueEP24IOUserNetworkPacketQueuej,
                            __ZThn40_N19IOUserNetworkPacket17setRxChecksumInfoEjt,
                            __ZThn40_N19IOUserNetworkPacket18_CompleteWithQueueEP24IOUserNetworkPacketQueuej,
                            __ZThn40_N19IOUserNetworkPacket19SetLinkHeaderLengthEh,
                            __ZThn40_N19IOUserNetworkPacket19setCompletionStatusEi,
                            __ZThn40_N19IOUserNetworkPacket19setLinkHeaderLengthEh,
                            __ZThn40_N19IOUserNetworkPacket20_SetPacketBufferPoolEP29IOUserNetworkPacketBufferPool,
                            __ZThn40_N19IOUserNetworkPacket22setDataOffsetAndLengthEtj,
                            __ZThn40_N21IOUserNetworkQueueSet9setEnableEb,
                            __ZThn40_N24IOUserNetworkPacketQueue13CopyDataQueueEPP25IODataQueueDispatchSource,
                            __ZThn40_N24IOUserNetworkPacketQueue13DequeuePacketEPP19IOUserNetworkPacket,
                            __ZThn40_N24IOUserNetworkPacketQueue13EnqueuePacketEP19IOUserNetworkPacket,
                            __ZThn40_N24IOUserNetworkPacketQueue14DequeuePacketsEPP19IOUserNetworkPacketj,
                            __ZThn40_N24IOUserNetworkPacketQueue14EnqueuePacketsEPP19IOUserNetworkPacketj,
                            __ZThn40_N24IOUserNetworkPacketQueue14enqueuePacketsEPP19IOUserNetworkPacketjj,
                            __ZThn40_N24IOUserNetworkPacketQueue14requestDequeueEPvj,
                            __ZThn40_N24IOUserNetworkPacketQueue14requestEnqueueEPvj,
                            __ZThn40_N24IOUserNetworkPacketQueue15setPacketPollerEP25IOUserNetworkPacketPoller,
                            __ZThn40_N24IOUserNetworkPacketQueue18SetPacketDirectionEj,
                            __ZThn40_N24IOUserNetworkPacketQueue19SetPacketBufferPoolEP29IOUserNetworkPacketBufferPool,
                            __ZThn40_N24IOUserNetworkPacketQueue9setEnableEb,
                            __ZThn40_N29IOUserNetworkPacketBufferPool12initWithNameEPKcP8OSObjectjPK36IOUserNetworkPacketBufferPoolOptions,
                            __ZThn40_N29IOUserNetworkPacketBufferPool14allocatePacketEPP19IOUserNetworkPacketj,
                            __ZThn40_N29IOUserNetworkPacketBufferPool16DeallocatePacketEP19IOUserNetworkPacket,
                            __ZThn40_N29IOUserNetworkPacketBufferPool16deallocatePacketEP19IOUserNetworkPacket,
                            __ZThn40_N29IOUserNetworkPacketBufferPool17DeallocatePacketsEPP19IOUserNetworkPacketj,
                            __ZThn40_N29IOUserNetworkPacketBufferPool17deallocatePacketsEPP19IOUserNetworkPacketj,
                            __ZThn40_N29IOUserNetworkPacketBufferPool18getPoolOwnerDeviceEv,
                            __ZThn40_N29IOUserNetworkPacketBufferPool19_GetPacketWithIndexEj,
                            __ZThn40_N29IOUserNetworkPacketBufferPool9newPacketEP29IOUserNetworkPacketDescriptorPP19IOUserNetworkPacket,
                            __ZThn40_N30IOUserNetworkRxCompletionQueue15setPacketPollerEP25IOUserNetworkPacketPoller,
                            __ZThn40_N30IOUserNetworkTxCompletionQueue15setPacketPollerEP25IOUserNetworkPacketPoller,
                            __ZThn40_NK19IOUserNetworkPacket10getTSOInfoEPtPj,
                            __ZThn40_NK19IOUserNetworkPacket10getTraceIDEv,
                            __ZThn40_NK19IOUserNetworkPacket10traceEventEj,
                            __ZThn40_NK19IOUserNetworkPacket11GetHeadroomEPh,
                            __ZThn40_NK19IOUserNetworkPacket12getTimestampEPy,
                            __ZThn40_NK19IOUserNetworkPacket13GetDataLengthEPj,
                            __ZThn40_NK19IOUserNetworkPacket13GetDataOffsetEPt,
                            __ZThn40_NK19IOUserNetworkPacket13getDataLengthEv,
                            __ZThn40_NK19IOUserNetworkPacket13getDataOffsetEv,
                            __ZThn40_NK19IOUserNetworkPacket13getExpiryTimeEPy,
                            __ZThn40_NK19IOUserNetworkPacket15_GetPacketIndexEPj,
                            __ZThn40_NK19IOUserNetworkPacket15getServiceClassEv,
                            __ZThn40_NK19IOUserNetworkPacket15isLinkBroadcastEv,
                            __ZThn40_NK19IOUserNetworkPacket15isLinkMulticastEv,
                            __ZThn40_NK19IOUserNetworkPacket17getRxChecksumInfoEPjPt,
                            __ZThn40_NK19IOUserNetworkPacket17getTxChecksumInfoEPjPtS1_,
                            __ZThn40_NK19IOUserNetworkPacket19GetLinkHeaderLengthEPh,
                            __ZThn40_NK19IOUserNetworkPacket19GetPacketBufferPoolEPP29IOUserNetworkPacketBufferPool,
                            __ZThn40_NK19IOUserNetworkPacket19getLinkHeaderLengthEv,
                            __ZThn40_NK19IOUserNetworkPacket19getPacketBufferPoolEv,
                            __ZThn40_NK19IOUserNetworkPacket20isTimestampRequestedEv,
                            __ZThn40_NK19IOUserNetworkPacket21getDataVirtualAddressEv,
                            __ZThn40_NK19IOUserNetworkPacket22GetMemorySegmentOffsetEPy,
                            __ZThn40_NK19IOUserNetworkPacket22getMemorySegmentOffsetEv,
                            __ZThn40_NK19IOUserNetworkPacket23getDataIOVirtualAddressEv,
                            __ZThn40_NK19IOUserNetworkPacket26isTransportTrafficRealtimeEv,
                            __ZThn40_NK19IOUserNetworkPacket28isTransportTrafficBackgroundEv,
                            __ZThn48_N21IOUserNetworkEthernet13getTSOOptionsEP23IOUserNetworkTSOOptions,
                            __ZThn48_N21IOUserNetworkEthernet13setPowerStateEmP9IOService,
                            __ZThn48_N21IOUserNetworkEthernet15getFeatureFlagsEv,
                            __ZThn48_N21IOUserNetworkEthernet15getInitialMediaEv,
                            __ZThn48_N21IOUserNetworkEthernet15getTxDataOffsetEv,
                            __ZThn48_N21IOUserNetworkEthernet16getBSDNamePrefixEv,
                            __ZThn48_N21IOUserNetworkEthernet16getBSDUnitNumberEv,
                            __ZThn48_N21IOUserNetworkEthernet16reportLinkStatusEjj,
                            __ZThn48_N21IOUserNetworkEthernet17bpfTapInputPacketEjP19IOUserNetworkPacketPvm,
                            __ZThn48_N21IOUserNetworkEthernet17handleChosenMediaEj,
                            __ZThn48_N21IOUserNetworkEthernet17reportLinkQualityEj,
                            __ZThn48_N21IOUserNetworkEthernet18bpfTapOutputPacketEjP19IOUserNetworkPacketPvm,
                            __ZThn48_N21IOUserNetworkEthernet18getHardwareAddressEP10ether_addr,
                            __ZThn48_N21IOUserNetworkEthernet18getHardwareAssistsEv,
                            __ZThn48_N21IOUserNetworkEthernet18getMaxTransferUnitEv,
                            __ZThn48_N21IOUserNetworkEthernet18setHardwareAddressEP10ether_addr,
                            __ZThn48_N21IOUserNetworkEthernet18setHardwareAssistsEj,
                            __ZThn48_N21IOUserNetworkEthernet18setHardwareAssistsEjj,
                            __ZThn48_N21IOUserNetworkEthernet18setInterfaceEnableEb,
                            __ZThn48_N21IOUserNetworkEthernet18setMaxTransferUnitEj,
                            __ZThn48_N21IOUserNetworkEthernet20hwConfigNicProxyDataEP14offload_info_s,
                            __ZThn48_N21IOUserNetworkEthernet20hwConfigNicProxyDataEP15nicproxy_info_s,
                            __ZThn48_N21IOUserNetworkEthernet20reportDataBandwidthsEyyyy,
                            __ZThn48_N21IOUserNetworkEthernet20reportNicProxyLimitsE22nicproxy_limits_info_s,
                            __ZThn48_N21IOUserNetworkEthernet21getInterfaceSubFamilyEv,
                            __ZThn48_N21IOUserNetworkEthernet21setMulticastAddressesEPK10ether_addrj,
                            __ZThn48_N21IOUserNetworkEthernet22getSupportedMediaArrayEPjS0_,
                            __ZThn48_N21IOUserNetworkEthernet23processInterfaceCommandEP5ifdrv,
                            __ZThn48_N21IOUserNetworkEthernet24setPromiscuousModeEnableEb,
                            __ZThn48_N21IOUserNetworkEthernet25RegisterEthernetInterfaceE10ether_addrP29IOUserNetworkPacketBufferPoolPP24IOUserNetworkPacketQueuej,
                            __ZThn48_N21IOUserNetworkEthernet25RegisterEthernetInterfaceE23IOUserNetworkMACAddressP29IOUserNetworkPacketBufferPoolPP24IOUserNetworkPacketQueuej,
                            __ZThn48_N21IOUserNetworkEthernet25ReportAvailableMediaTypesEPKjj,
                            __ZThn48_N21IOUserNetworkEthernet25registerEthernetInterfaceEPP24IOUserNetworkPacketQueuejP29IOUserNetworkPacketBufferPoolS4_,
                            __ZThn48_N21IOUserNetworkEthernet25setAllMulticastModeEnableEb,
                            __ZThn48_N21IOUserNetworkEthernet4stopEP9IOService,
                            __ZThn48_N21IOUserNetworkEthernet5startEP9IOService,
                            __ZThn48_N21IOUserNetworkEthernet6bpfTapEjj,
                            __ZThn48_N21IOUserNetworkEthernet9bpfAttachEjj,
                            __ZThn48_NK21IOUserNetworkEthernet10getBSDNameEv,
                            __ZThn56_N30IOUserNetworkRxCompletionQueue12initWithPoolEP29IOUserNetworkPacketBufferPooljjP8OSObjectPFjS3_P24IOUserNetworkPacketQueuePP19IOUserNetworkPacketjPvES9_j,
                            __ZThn56_N30IOUserNetworkRxSubmissionQueue12initWithPoolEP29IOUserNetworkPacketBufferPooljjjP8OSObjectPFjS3_P24IOUserNetworkPacketQueuePP19IOUserNetworkPacketjPvES9_j,
                            __ZThn56_N30IOUserNetworkTxCompletionQueue12initWithPoolEP29IOUserNetworkPacketBufferPooljjP8OSObjectPFjS3_P24IOUserNetworkPacketQueuePP19IOUserNetworkPacketjPvES9_j,
                            __ZThn56_N30IOUserNetworkTxSubmissionQueue12initWithPoolEP29IOUserNetworkPacketBufferPooljjjP8OSObjectPFjS3_P24IOUserNetworkPacketQueuePjEPFjS3_S5_PP19IOUserNetworkPacketjPvESC_j,
                            __ZThn56_N30IOUserNetworkTxSubmissionQueue12purgePacketsEv,
                            __ZThn64_N17IOUserNetworkWLAN13getLocalPortsEjjPh,
                            __ZThn64_N17IOUserNetworkWLAN14deferBSDAttachEb,
                            __ZThn64_N17IOUserNetworkWLAN17classNameOverrideEv,
                            __ZThn64_N17IOUserNetworkWLAN18setFastlaneCapableEb,
                            __ZThn64_N17IOUserNetworkWLAN19setLinkLayerAddressEP10ether_addr,
                            __ZThn64_N17IOUserNetworkWLAN22getInterfaceStatisticsEP23IOUserNetworkStatistics,
                            __ZThn64_N17IOUserNetworkWLAN23interfaceAdvisoryEnableEb,
                            __ZThn64_N17IOUserNetworkWLAN23reportInterfaceAdvisoryEPK24ifnet_interface_advisory,
                            __ZThn64_N17IOUserNetworkWLAN24reportDetailedLinkStatusEPK14if_link_status,
                            __ZThn64_N17IOUserNetworkWLAN25getKeepAliveOffloadFramesEP34IOUserNetworkKeepAliveOffloadFramejmPj,
                            __ZThn64_N17IOUserNetworkWLAN28isLinkLocalAddressConfiguredEv,
                            __ZThn64_N17IOUserNetworkWLAN45getIPv4DefaultRouterLinkLayerReachabilityInfoEP38IOUserNetworkLinkLayerReachabilityInfo,
                            __ZThn64_N17IOUserNetworkWLAN45getIPv6DefaultRouterLinkLayerReachabilityInfoEP38IOUserNetworkLinkLayerReachabilityInfo,
                            _gIOSkywalkDebugFlags,
                            _gIOUserNetworkEthernetMetaClass,
                            _gIOUserNetworkLogicalLinkMetaClass,
                            _gIOUserNetworkPacketBufferPoolMetaClass,
                            _gIOUserNetworkPacketMetaClass,
                            _gIOUserNetworkPacketPollerMetaClass,
                            _gIOUserNetworkPacketQueueMetaClass,
                            _gIOUserNetworkQueueSetMetaClass,
                            _gIOUserNetworkRxCompletionQueueMetaClass,
                            _gIOUserNetworkRxSubmissionQueueMetaClass,
                            _gIOUserNetworkTxCompletionQueueMetaClass,
                            _gIOUserNetworkTxSubmissionQueueMetaClass,
                            _gIOUserNetworkWLANMetaClass,
                            _gOSAction_IOUserNetworkEthernet__DataAvailableMetaClass,
                            _gOSAction_IOUserNetworkEthernet__RxSQDataAvailableMetaClass,
                            _gOSAction_IOUserNetworkEthernet__TxSQDataAvailableMetaClass,
                            _gOSAction_IOUserNetworkPacketPoller_TimerOccurredMetaClass ]
...
