--- !tapi-tbd
tbd-version:     4
targets:         [ armv7-ios, armv7s-ios, arm64-ios, arm64e-ios ]
install-name:    '/usr/lib/libskit.dylib'
exports:
  - targets:         [ armv7-ios, armv7s-ios, arm64-ios, arm64e-ios ]
    symbols:         [ _skitRemoveBidiCharacters ]
  - targets:         [ arm64-ios, arm64e-ios ]
    symbols:         [ __ZN4skit10strip_bidiENSt3__117basic_string_viewIDsNS0_11char_traitsIDsEEEE, 
                       __ZN4skit10strip_bidiEPDsPKDsmb, __ZN4skit10strip_bidiEPDsmb, 
                       __ZN4skit10strip_bidiERNSt3__112basic_stringIDsNS0_11char_traitsIDsEENS0_9allocatorIDsEEEE, 
                       __ZN4skit11FieldBundle3addEtNS_9BufferRefIKSt4byteEEb, __ZN4skit11FieldBundle3addEtRKNS_11TokenStreamE, 
                       __ZN4skit11FieldBundle5clearEv, __ZN4skit11IndexReader4openEv, 
                       __ZN4skit11IndexReader5closeEv, __ZN4skit11IndexReaderC1ENSt3__14__fs10filesystem4pathE, 
                       __ZN4skit11IndexReaderC1EOS0_, __ZN4skit11IndexReaderC1ERKS0_, 
                       __ZN4skit11IndexReaderC1Ev, __ZN4skit11IndexReaderC2ENSt3__14__fs10filesystem4pathE, 
                       __ZN4skit11IndexReaderC2EOS0_, __ZN4skit11IndexReaderC2ERKS0_, 
                       __ZN4skit11IndexReaderC2Ev, __ZN4skit11IndexReaderD1Ev, __ZN4skit11IndexReaderD2Ev, 
                       __ZN4skit11IndexReaderaSEOS0_, __ZN4skit11IndexReaderaSERKS0_, 
                       __ZN4skit11IndexWriter11set_doc_wgtERKNS_4UuidEf, __ZN4skit11IndexWriter12set_dp_classEi, 
                       __ZN4skit11IndexWriter15flush_thresholdEm, __ZN4skit11IndexWriter25set_doc_store_write_cacheEm, 
                       __ZN4skit11IndexWriter26set_term_index_write_cacheEm, __ZN4skit11IndexWriter5clearEv, 
                       __ZN4skit11IndexWriter5eraseERKNS_4UuidE, __ZN4skit11IndexWriter5flushEv, 
                       __ZN4skit11IndexWriter6appendERKNS_11TokenStreamEfNS_4UuidEPK5ioveci, 
                       __ZN4skit11IndexWriter6appendERKNS_8internal19IndexAppendParamsV1ERKNS_11TokenStreamEfNS_4UuidEPK5ioveci, 
                       __ZN4skit11IndexWriter7end_txnEv, __ZN4skit11IndexWriter8set_modeEt, 
                       __ZN4skit11IndexWriter9abort_txnEv, __ZN4skit11IndexWriter9start_txnEv, 
                       __ZN4skit11IndexWriterC1ENS_4UuidENSt3__14__fs10filesystem4pathES5_, 
                       __ZN4skit11IndexWriterC1EOS0_, __ZN4skit11IndexWriterC1Ev, 
                       __ZN4skit11IndexWriterC2ENS_4UuidENSt3__14__fs10filesystem4pathES5_, 
                       __ZN4skit11IndexWriterC2EOS0_, __ZN4skit11IndexWriterC2Ev, 
                       __ZN4skit11IndexWriterD1Ev, __ZN4skit11IndexWriterD2Ev, __ZN4skit11IndexWriteraSEOS0_, 
                       __ZN4skit11SpanMatchV313stop_word_cntEj, __ZN4skit11SpanMatchV315alias_token_cntEj, 
                       __ZN4skit11SpanMatchV315append_alias_idENS_7GroupIdEj, __ZN4skit11SpanMatchV34spanERKNS_4SpanE, 
                       __ZN4skit11SpanMatchV35mergeERKS0_, __ZN4skit11SpanMatchV35scoreEf, 
                       __ZN4skit11SpanMatchV39edit_distEj, __ZN4skit11SpanMatchV39token_cntEj, 
                       __ZN4skit11TokenStream11deserializeEPKSt4bytel, __ZN4skit11levenshteinEPKcS1_, 
                       __ZN4skit12to_u16stringERNSt3__112basic_stringIDsNS0_11char_traitsIDsEENS0_9allocatorIDsEEEENS0_17basic_string_viewIcNS2_IcEEEE, 
                       __ZN4skit13codepoint_cntENSt3__117basic_string_viewIDsNS0_11char_traitsIDsEEEE, 
                       __ZN4skit13codepoint_cntENSt3__117basic_string_viewIcNS0_11char_traitsIcEEEE, 
                       __ZN4skit14is_significantERKNSt3__117basic_string_viewIDsNS0_11char_traitsIDsEEEE, 
                       __ZN4skit16MorphunTokenizerC1ERKN7morphun4util7ULocaleE, __ZN4skit16MorphunTokenizerC2ERKN7morphun4util7ULocaleE, 
                       __ZN4skit16entity_token_wgtEf, __ZN4skit16entity_token_wgtEj, 
                       __ZN4skit17MphStopWordFilterC1Ev, __ZN4skit17MphStopWordFilterC2Ev, 
                       __ZN4skit18FieldSpanMatcherV211merge_fieldERNS_12MergeStateV2ERKNS_14FieldMatchesV2Eb, 
                       __ZN4skit18FieldSpanMatcherV213alias_filtersEhRKNS_11SmallVectorIhLj8ELb0EEE, 
                       __ZN4skit18FieldSpanMatcherV218alias_span_matcherENS_5AliasEhRKNS_11SmallVectorIhLj8ELb0EEE, 
                       __ZN4skit18FieldSpanMatcherV222query_token_stream_endEv, __ZN4skit18FieldSpanMatcherV224clear_alias_span_matcherEv, 
                       __ZN4skit18FieldSpanMatcherV224query_token_stream_beginEv, 
                       __ZN4skit18FieldSpanMatcherV25matchERNS_14FieldMatchesV2ERKNS_11TokenStreamERKNS_11SmallVectorINS_10AliasMatchELj2ELb1EEEtj, 
                       __ZN4skit18FieldSpanMatcherV25matchERNS_14FieldMatchesV2ERKNS_11TokenStreamEt, 
                       __ZN4skit18FieldSpanMatcherV25matchERNS_14FieldMatchesV2ERKNS_11TokenStreamEtj, 
                       __ZN4skit18FieldSpanMatcherV2C1ENSt3__112basic_stringIDsNS1_11char_traitsIDsEENS1_9allocatorIDsEEEENS_11TokenStreamEb, 
                       __ZN4skit18FieldSpanMatcherV2C2ENSt3__112basic_stringIDsNS1_11char_traitsIDsEENS1_9allocatorIDsEEEENS_11TokenStreamEb, 
                       __ZN4skit18FieldSpanMatcherV313alias_filtersEhRKNS_11SmallVectorIhLj8ELb0EEE, 
                       __ZN4skit18FieldSpanMatcherV318alias_span_matcherENS_5AliasEhRKNS_11SmallVectorIhLj8ELb0EEE, 
                       __ZN4skit18FieldSpanMatcherV318alias_span_matcherENS_5AliasEhRKNS_11SmallVectorIhLj8ELb0EEERKNS2_INS_10AliasMatchELj2ELb1EEENS_13ExternalAliasE, 
                       __ZN4skit18FieldSpanMatcherV322query_token_stream_endEv, __ZN4skit18FieldSpanMatcherV324clear_alias_span_matcherEv, 
                       __ZN4skit18FieldSpanMatcherV324query_token_stream_beginEv, 
                       __ZN4skit18FieldSpanMatcherV3C1ENSt3__112basic_stringIDsNS1_11char_traitsIDsEENS1_9allocatorIDsEEEENS_11TokenStreamEb, 
                       __ZN4skit18FieldSpanMatcherV3C2ENSt3__112basic_stringIDsNS1_11char_traitsIDsEENS1_9allocatorIDsEEEENS_11TokenStreamEb, 
                       __ZN4skit21AliasSpanMatchCompare14compare_localeEhh, __ZN4skit21AliasSpanMatchCompare16compare_group_idENS_7GroupIdES1_, 
                       __ZN4skit21AliasSpanMatchCompare19compare_entity_typeEhh, 
                       __ZN4skit23default_kv_store_configE, __ZN4skit5Alias4initEv, 
                       __ZN4skit5Alias5closeEv, __ZN4skit5AliasC1ENSt3__14__fs10filesystem4pathES4_, 
                       __ZN4skit5AliasC2ENSt3__14__fs10filesystem4pathES4_, __ZN4skit5Token11deserializeEPKSt4bytel, 
                       __ZN4skit6isimilEPKcS1_, __ZN4skit8Analyzer5dedupENS_11TokenStreamE, 
                       __ZN4skit8DocumentC1ERKNS_9BufferRefIKSt4byteEE, __ZN4skit8DocumentC2ERKNS_9BufferRefIKSt4byteEE, 
                       __ZN4skit8internal10murmur3_32EPKhmj, __ZN4skit8internal18murmur_32_scrambleEj, 
                       __ZN4skit8internal19get_logging_contextEv, __ZN4skit8internal8MmapFile4openEPKciiitiiimm, 
                       __ZN4skit8internal8MmapFile4openEiiiimm, __ZN4skit8internal8MmapFile6createEPKcmmiiitiii, 
                       __ZN4skit9ContextV212index_removeENSt3__117basic_string_viewIDsNS1_11char_traitsIDsEEEE, 
                       __ZN4skit9ContextV212index_renameENSt3__117basic_string_viewIDsNS1_11char_traitsIDsEEEES5_, 
                       __ZN4skit9ContextV212index_writerENSt3__117basic_string_viewIDsNS1_11char_traitsIDsEEEE, 
                       __ZN4skit9ContextV27cleanupEv, __ZN4skit9ContextV2C1ERKNSt3__14__fs10filesystem4pathENS1_12basic_stringIDsNS1_11char_traitsIDsEENS1_9allocatorIDsEEEE, 
                       __ZN4skit9ContextV2C2ERKNSt3__14__fs10filesystem4pathENS1_12basic_stringIDsNS1_11char_traitsIDsEENS1_9allocatorIDsEEEE, 
                       __ZN4skit9ContextV2D1Ev, __ZN4skit9ContextV2D2Ev, __ZN4skit9to_stringERNSt3__112basic_stringIcNS0_11char_traitsIcEENS0_9allocatorIcEEEENS0_17basic_string_viewIDsNS2_IDsEEEE, 
                       __ZN4skitlsERNSt3__113basic_ostreamIcNS0_11char_traitsIcEEEERKNS_11SpanMatchV3E, 
                       __ZN4skitltERKNS_11SpanMatchV3ES2_, __ZNK4skit10MultiNGram12tokenize_strERNS_11TokenStreamENSt3__117basic_string_viewIDsNS3_11char_traitsIDsEEEE, 
                       __ZNK4skit11EmojiFilter6filterENSt3__117basic_string_viewIDsNS1_11char_traitsIDsEEEE, 
                       __ZNK4skit11EmojiFilter6filterERNS_11TokenStreamEm, __ZNK4skit11EmojiFilter6filterERNS_5TokenE, 
                       __ZNK4skit11FieldBundle8to_iovecEv, __ZNK4skit11IndexReader10record_cntEv, 
                       __ZNK4skit11IndexReader10size_bytesEv, __ZNK4skit11IndexReader11segment_cntEv, 
                       __ZNK4skit11IndexReader12should_mergeEm, __ZNK4skit11IndexReader13populate_docsERNSt3__16vectorINS_3HitENS1_9allocatorIS3_EEEE, 
                       __ZNK4skit11IndexReader21index_count_thresholdEm, __ZNK4skit11IndexReader4sizeEv, 
                       __ZNK4skit11IndexReader6existsEv, __ZNK4skit11IndexReader6searchERNSt3__16vectorINS_3HitENS1_9allocatorIS3_EEEERKNS_11TokenStreamERKNS_8internal19IndexSearchParamsV1E, 
                       __ZNK4skit11IndexReader7get_docERKNS_4UuidE, __ZNK4skit11IndexReader7get_docEx, 
                       __ZNK4skit11IndexReader7is_openEv, __ZNK4skit11IndexReader7last_tsEv, 
                       __ZNK4skit11IndexWriter10record_cntEv, __ZNK4skit11IndexWriter10size_bytesEv, 
                       __ZNK4skit11IndexWriter11segment_cntEv, __ZNK4skit11IndexWriter12should_mergeEv, 
                       __ZNK4skit11IndexWriter13merge_indexesEv, __ZNK4skit11IndexWriter15flush_thresholdEv, 
                       __ZNK4skit11IndexWriter21index_count_thresholdEm, __ZNK4skit11IndexWriter2idEv, 
                       __ZNK4skit11IndexWriter4sizeEv, __ZNK4skit11IndexWriter7get_docERKNS_4UuidE, 
                       __ZNK4skit11IndexWriter7get_docEx, __ZNK4skit11IndexWriter7last_tsEv, 
                       __ZNK4skit11IndexWriter9is_activeEv, __ZNK4skit11SpanMatchV313is_subspan_ofERKS0_, 
                       __ZNK4skit11SpanMatchV313is_subspan_ofEjj, __ZNK4skit11SpanMatchV313stop_word_cntEv, 
                       __ZNK4skit11SpanMatchV315alias_token_cntEv, __ZNK4skit11SpanMatchV34spanEv, 
                       __ZNK4skit11SpanMatchV35scoreEv, __ZNK4skit11SpanMatchV39alias_idsEv, 
                       __ZNK4skit11SpanMatchV39edit_distEv, __ZNK4skit11SpanMatchV39token_cntEv, 
                       __ZNK4skit11SpanMatchV3cvNS_11SpanMatchV2EEv, __ZNK4skit11TokenStream9serializeEPSt4bytel, 
                       __ZNK4skit12NumberFilter6filterENSt3__117basic_string_viewIDsNS1_11char_traitsIDsEEEE, 
                       __ZNK4skit12NumberFilter6filterERNS_11TokenStreamEm, __ZNK4skit12NumberFilter6filterERNS_5TokenE, 
                       __ZNK4skit18FieldSpanMatcherV214is_initializedEv, __ZNK4skit18FieldSpanMatcherV222query_token_stream_endEv, 
                       __ZNK4skit18FieldSpanMatcherV223query_alias_matches_endEv, 
                       __ZNK4skit18FieldSpanMatcherV224query_token_stream_beginEv, 
                       __ZNK4skit18FieldSpanMatcherV225query_alias_matches_beginEv, 
                       __ZNK4skit18FieldSpanMatcherV28finalizeERNS_12MergeStateV2E, 
                       __ZNK4skit18FieldSpanMatcherV28finalizeERNS_14FieldMatchesV2E, 
                       __ZNK4skit18FieldSpanMatcherV311merge_fieldERNS_8internal14MergeStateImplINS1_20MergedFieldMatchImplINS1_14FieldMatchImplINS1_16FieldMatchesImplINS_11SpanMatchV3EEEEEEEEERKS7_b, 
                       __ZNK4skit18FieldSpanMatcherV314is_initializedEv, __ZNK4skit18FieldSpanMatcherV322query_token_stream_endEv, 
                       __ZNK4skit18FieldSpanMatcherV323query_alias_matches_endEv, 
                       __ZNK4skit18FieldSpanMatcherV324query_token_stream_beginEv, 
                       __ZNK4skit18FieldSpanMatcherV325query_alias_matches_beginEv, 
                       __ZNK4skit18FieldSpanMatcherV35matchERNS_8internal16FieldMatchesImplINS_11SpanMatchV3EEERKNS_11TokenStreamERKNS_11SmallVectorINS_10AliasMatchELj2ELb1EEENS_13ExternalAliasEtj, 
                       __ZNK4skit18FieldSpanMatcherV35matchERNS_8internal16FieldMatchesImplINS_11SpanMatchV3EEERKNS_11TokenStreamEtj, 
                       __ZNK4skit18FieldSpanMatcherV38finalizeERNS_8internal14MergeStateImplINS1_20MergedFieldMatchImplINS1_14FieldMatchImplINS1_16FieldMatchesImplINS_11SpanMatchV3EEEEEEEEE, 
                       __ZNK4skit18FieldSpanMatcherV38finalizeERNS_8internal16FieldMatchesImplINS_11SpanMatchV3EEE, 
                       __ZNK4skit18WordDelimTokenizer12tokenize_strERNS_11TokenStreamENSt3__117basic_string_viewIDsNS3_11char_traitsIDsEEEE, 
                       __ZNK4skit21AliasSpanMatchCompareclERKNS_10AliasMatchES3_, 
                       __ZNK4skit5Alias14is_initializedEv, __ZNK4skit5Alias4findENSt3__117basic_string_viewIDsNS1_11char_traitsIDsEEEERNS_11SmallVectorINS1_5tupleIJNS1_12basic_stringIDsS4_NS1_9allocatorIDsEEEENS_7GroupIdEEEELj2ELb1EEE, 
                       __ZNK4skit5Alias5matchERNS_11SmallVectorINS_10AliasMatchELj2ELb1EEERKNS_11TokenStreamE, 
                       __ZNK4skit5Alias5matchERNS_11SmallVectorINS_10AliasMatchELj2ELb1EEERKNS_11TokenStreamEj, 
                       __ZNK4skit5Token9serializeEPSt4bytel, __ZNK4skit9ContextV212index_existsENSt3__117basic_string_viewIDsNS1_11char_traitsIDsEEEE, 
                       __ZNK4skit9ContextV212index_readerENSt3__117basic_string_viewIDsNS1_11char_traitsIDsEEEE, 
                       __ZNK4skit9ContextV214is_initializedEv, __ZTIN4skit10MultiNGramE, 
                       __ZTIN4skit11EmojiFilterE, __ZTIN4skit12NumberFilterE, __ZTIN4skit18WordDelimTokenizerE, 
                       __ZTSN4skit10MultiNGramE, __ZTSN4skit11EmojiFilterE, __ZTSN4skit12NumberFilterE, 
                       __ZTSN4skit18WordDelimTokenizerE, __ZTVN4skit10MultiNGramE, 
                       __ZTVN4skit11EmojiFilterE, __ZTVN4skit12NumberFilterE, __ZTVN4skit18WordDelimTokenizerE, 
                       __ZThn8_NK4skit11EmojiFilter6filterENSt3__117basic_string_viewIDsNS1_11char_traitsIDsEEEE, 
                       __ZThn8_NK4skit12NumberFilter6filterENSt3__117basic_string_viewIDsNS1_11char_traitsIDsEEEE ]
    weak-symbols:    [ __ZN4skit8internal14FieldMatchImplINS0_16FieldMatchesImplINS_11SpanMatchV3EEEEC1ERKS4_RKS3_, 
                       __ZN4skit8internal14FieldMatchImplINS0_16FieldMatchesImplINS_11SpanMatchV3EEEEC2ERKS4_RKS3_, 
                       __ZN4skit8internal14MergeStateImplINS0_20MergedFieldMatchImplINS0_14FieldMatchImplINS0_16FieldMatchesImplINS_11SpanMatchV3EEEEEEEE5clearEv, 
                       __ZN4skit8internal16FieldMatchesImplINS_11SpanMatchV3EE5clearEv, 
                       __ZN4skit8internal18AliasSpanMatchImplINS_10AliasMatchENS_11SpanMatchV3EEC1ES2_S3_, 
                       __ZN4skit8internal18AliasSpanMatchImplINS_10AliasMatchENS_11SpanMatchV3EEC2ES2_S3_, 
                       __ZN4skit8internal20MergedFieldMatchImplINS0_14FieldMatchImplINS0_16FieldMatchesImplINS_11SpanMatchV3EEEEEE5mergeERKS7_, 
                       __ZN4skit8internal20MergedFieldMatchImplINS0_14FieldMatchImplINS0_16FieldMatchesImplINS_11SpanMatchV3EEEEEEC1ERKS5_RKS4_, 
                       __ZN4skit8internal20MergedFieldMatchImplINS0_14FieldMatchImplINS0_16FieldMatchesImplINS_11SpanMatchV3EEEEEEC2ERKS5_RKS4_, 
                       __ZNK4skit8internal16FieldMatchesImplINS_11SpanMatchV3EE14max_span_matchEv, 
                       __ZNK4skit8internal20MergedFieldMatchImplINS0_14FieldMatchImplINS0_16FieldMatchesImplINS_11SpanMatchV3EEEEEE13max_token_cntEv, 
                       __ZNK4skit8internal20MergedFieldMatchImplINS0_14FieldMatchImplINS0_16FieldMatchesImplINS_11SpanMatchV3EEEEEE17max_code_unit_cntEv, 
                       __ZNK4skit8internal20MergedFieldMatchImplINS0_14FieldMatchImplINS0_16FieldMatchesImplINS_11SpanMatchV3EEEEEE17max_stop_word_cntEv, 
                       __ZNK4skit8internal20MergedFieldMatchImplINS0_14FieldMatchImplINS0_16FieldMatchesImplINS_11SpanMatchV3EEEEEE19max_alias_token_cntEv, 
                       __ZNK4skit8internal20MergedFieldMatchImplINS0_14FieldMatchImplINS0_16FieldMatchesImplINS_11SpanMatchV3EEEEEE4spanEv, 
                       __ZNK4skit8internal20MergedFieldMatchImplINS0_14FieldMatchImplINS0_16FieldMatchesImplINS_11SpanMatchV3EEEEEE5scoreEv, 
                       __ZNK4skit8internal20MergedFieldMatchImplINS0_14FieldMatchImplINS0_16FieldMatchesImplINS_11SpanMatchV3EEEEEE9edit_distEv ]
...
