--- !tapi-tbd-v3
archs:                 [ armv7, armv7s, arm64, arm64e ]
platform:              ios
flags:                 [ flat_namespace ]
install-name:          /System/Library/PrivateFrameworks/AfibBurden.framework/AfibBurden
current-version:       1
compatibility-version: 1
objc-constraint:       retain_release
exports:
  - archs:                [ armv7, armv7s, arm64, arm64e ]
    symbols:              [ _ABMinimumNumberOfDaysWithMinimumNumberOfTachogramsPerDay,
                            _ABMinimumNumberOfTachogramsPerDay,
                            _ABMinimumReportedBurdenPercentage,
                            _ABMinimumTotalNumberOfTachogramsForSevenDayBurden,
                            _AfibBurdenVersionNumber, _AfibBurdenVersionString,
                            __ZN9Tellurium18PredictorWrapper_t7predictERNSt3__16vectorIdNS1_9allocatorIdEEEERNS2_IfNS3_IfEEEERbSA_,
                            __ZN9Tellurium18PredictorWrapper_tC1Ev,
                            __ZN9Tellurium18PredictorWrapper_tC2Ev,
                            __ZN9Tellurium18PredictorWrapper_tD1Ev,
                            __ZN9Tellurium18PredictorWrapper_tD2Ev,
                            __ZN9Tellurium22tellurium_classifier_t21tellurium_get_outputsEv,
                            __ZN9Tellurium22tellurium_classifier_t28tellurium_classifier_processERKNSt3__16vectorINS_17tellurium_input_tENS1_9allocatorIS3_EEEE,
                            __ZN9Tellurium22tellurium_classifier_tC1Ejjb,
                            __ZN9Tellurium22tellurium_classifier_tC2Ejjb,
                            __ZN9beryllium18BerylliumProcessor13TachAFdensityERKNS_7input_tERKNS_8output_tE,
                            __ZN9beryllium18BerylliumProcessor17beryllium_processERKNS_7input_tERNS_16core_analytics_tE,
                            __ZN9beryllium18BerylliumProcessor18calculateAFdensityERNSt3__16vectorIdNS1_9allocatorIdEEEENS2_IbNS3_IbEEEE,
                            __ZN9beryllium18BerylliumProcessor19calc_timezone_shiftERKNS_7input_tERNS_16core_analytics_tE,
                            __ZN9beryllium18BerylliumProcessor20check_input_validityERKNS_7input_tE,
                            __ZN9beryllium18BerylliumProcessor25check_min_tacho_conditionERKNS_7input_tE,
                            __ZN9beryllium18BerylliumProcessor28calc_tacho_times_diff_medianERKNS_7input_tE,
                            __ZN9beryllium18BerylliumProcessor42interpolate_Tachograms_and_calc_AFibBurdenERKNS_7input_tERNS_8output_tE,
                            __ZN9beryllium18BerylliumProcessor6medianEPKdi,
                            __ZN9beryllium18BerylliumProcessorC1Ev,
                            __ZN9beryllium18BerylliumProcessorC2Ev,
                            __ZN9beryllium7processERKNS_7input_tERNS_16core_analytics_tE,
                            __ZNK9Tellurium22tellurium_classifier_t18get_core_analyticsEv,
                            _ab_get_framework_log, _algs_get_log ]
    objc-classes:         [ ABAfibBurdenAnalyzer, ABBurdenResult,
                            ABTachogramClassification, ABTachogramClassifier,
                            Predictor, Te_c3seuakuh8, Te_c3seuakuh8Input,
                            Te_c3seuakuh8Output, Te_tjejjxf8q3, Te_tjejjxf8q3Input,
                            Te_tjejjxf8q3Output ]
    objc-ivars:           [ ABAfibBurdenAnalyzer._rawBurdenValue,
                            ABAfibBurdenAnalyzer._segmentsCount,
                            ABAfibBurdenAnalyzer._segmentsWith5TachCount,
                            ABBurdenResult._burdenPercentage,
                            ABBurdenResult._metricsForCoreAnalytics,
                            ABBurdenResult._unavailabilityReason,
                            ABTachogramClassification._aFibDetected,
                            ABTachogramClassification._date,
                            ABTachogramClassification._uuid,
                            ABTachogramClassifier._classifier,
                            Predictor._TeModelInput,
                            Predictor._TeModelInput_c3seuakuh8,
                            Predictor._TeModelInput_tjejjxf8q3,
                            Predictor._TeModelOutput_c3seuakuh8,
                            Predictor._TeModelOutput_tjejjxf8q3,
                            Predictor._mTe_c3seuakuh8, Predictor._mTe_tjejjxf8q3,
                            Predictor._modelOptions, Te_c3seuakuh8._model,
                            Te_c3seuakuh8Input._Placeholder,
                            Te_c3seuakuh8Output._RHYTHM_TYPE_HEAD_FC_1_fully_connected_BiasAdd,
                            Te_tjejjxf8q3._model,
                            Te_tjejjxf8q3Input._Placeholder,
                            Te_tjejjxf8q3Output._RHYTHM_TYPE_HEAD_FC_1_fully_connected_BiasAdd ]
...
