--- !tapi-tbd
tbd-version:           4
targets:               [ armv7-ios, armv7s-ios, arm64-ios, arm64e-ios ]
flags:                 [ flat_namespace ]
install-name:          /System/DriverKit/System/Library/Frameworks/DriverKit.framework/DriverKit
current-version:       1
compatibility-version: 1
exports:
  - targets:              [ armv7-ios, armv7s-ios, arm64-ios, arm64e-ios ]
    symbols:              [ _Block_size, _CCEC_FAULT_CANARY,
                            _CCRSA_PKCS1_FAULT_CANARY, _CCRSA_PSS_FAULT_CANARY,
                            _CCSS_PRIME_P192, _CCSS_PRIME_P224, _CCSS_PRIME_P256,
                            _CCSS_PRIME_P384, _CCSS_PRIME_P521,
                            _IOBufferMemoryDescriptor_Class,
                            _IOCommandPool_Class, _IOCommand_Class,
                            _IODMACommand_Class,
                            _IODataQueueDispatchSource_Class, _IODelay,
                            _IODispatchQueue_Class, _IODispatchSource_Class,
                            _IODriverKitTest, _IOEventLink_Class, _IOFree,
                            _IOFreeData, _IOGetExecutableSDKVersion,
                            _IOHistogramReporter_Class,
                            _IOInterruptDispatchSource_Class, _IOLockAlloc,
                            _IOLockAssert, _IOLockFree, _IOLockLock, _IOLockTryLock,
                            _IOLockUnlock, _IOLog, _IOLogBuffer, _IOLogv, _IOMalloc,
                            _IOMallocData, _IOMallocZero, _IOMallocZeroData,
                            _IOMemoryDescriptor_Class, _IOMemoryMap_Class,
                            _IOParseBootArgNumber, _IOParseBootArgString,
                            _IORPCMessageFromMach, _IORWLockAlloc, _IORWLockFree,
                            _IORWLockRead, _IORWLockUnlock, _IORWLockWrite,
                            _IORecursiveConditionLockAlloc,
                            _IORecursiveConditionLockFree,
                            _IORecursiveConditionLockHaveLock,
                            _IORecursiveConditionLockLock,
                            _IORecursiveConditionLockTryLock,
                            _IORecursiveConditionLockUnlock,
                            _IORecursiveLockAlloc, _IORecursiveLockFree,
                            _IORecursiveLockHaveLock, _IORecursiveLockLock,
                            _IORecursiveLockTryLock, _IORecursiveLockUnlock,
                            _IOReportLegend_Class, _IOReporter_Class,
                            _IOServiceNotificationDispatchSource_Class,
                            _IOServiceStateNotificationDispatchSource_Class,
                            _IOService_Class, _IOSimpleReporter_Class, _IOSleep,
                            _IOStateReporter_Class, _IOThreadLocalStorageGet,
                            _IOThreadLocalStorageKeyCreate,
                            _IOThreadLocalStorageKeyDelete,
                            _IOThreadLocalStorageSet, _IOThread_Class,
                            _IOTimerDispatchSource_Class, _IOUserClient_Class,
                            _IOUserServer_Class, _IOVMPageSize, _IOWorkGroup_Class,
                            _MD5Final, _MD5Init, _MD5Update, _OSAction_Class,
                            _OSAction_IOUserClient_KernelCompletion_Class,
                            _OSAction__IOBlockStorageDevice_KernelCompletion_Class,
                            _OSArrayAppendValue, _OSArrayApply, _OSArrayCreate,
                            _OSArrayGetCount, _OSArrayGetStringValue,
                            _OSArrayGetUInt64Value, _OSArrayGetValue,
                            _OSArrayReplaceValue, _OSArraySetStringValue,
                            _OSArraySetUInt64Value, _OSArraySetValue,
                            _OSArray_Class, _OSBoolean_Class, _OSBundle_Class,
                            _OSCollectionTypeID, _OSCollectionTypeName,
                            _OSCollection_Class, _OSCollectionsInitialize,
                            _OSContainer_Class, _OSCreateObjectFromSerialization,
                            _OSCreateSerializationFromBytes,
                            _OSCreateSerializationFromObject, _OSDataAppendBytes,
                            _OSDataCreate, _OSDataGetBytes, _OSDataGetBytesPtr,
                            _OSDataGetLength, _OSData_Class, _OSDictionaryApply,
                            _OSDictionaryCreate, _OSDictionaryGetCount,
                            _OSDictionaryGetStringValue,
                            _OSDictionaryGetUInt64Value, _OSDictionaryGetValue,
                            _OSDictionarySetStringValue,
                            _OSDictionarySetUInt64Value, _OSDictionarySetValue,
                            _OSDictionary_Class, _OSMappedFile_Class,
                            _OSNumberCreateWithUInt64Value,
                            _OSNumberGetUInt64Value, _OSNumber_Class, _OSObjectLog,
                            _OSObjectRelease, _OSObjectRetain, _OSObject_Class,
                            _OSOrderedSet_Class, _OSReportWithBacktrace,
                            _OSSerializationGetBytes, _OSSerialization_Class,
                            _OSSet_Class, _OSStringCreate, _OSStringGetLength,
                            _OSStringGetStringPtr, _OSString_Class,
                            _OSSynchronizeIO, _PE_i_can_has_debugger, _SHA1Final,
                            _SHA1Init, _SHA1Update, _SHA256_Final, _SHA256_Init,
                            _SHA256_Update, _SHA384_Final, _SHA384_Init,
                            _SHA384_Update, _SHA512_Final, _SHA512_Init,
                            _SHA512_Update, __Block_copy, __Block_extended_layout,
                            __Block_has_signature, __Block_isDeallocating,
                            __Block_layout, __Block_object_assign,
                            __Block_object_dispose, __Block_release,
                            __Block_signature, __Block_tryRetain, __Block_use_RR2,
                            __Block_use_stret, __CurrentRuneLocale,
                            __DefaultRuneLocale, __FE_DFL_DISABLE_DENORMS_ENV,
                            __FE_DFL_ENV, __IOBlockStorageDevice_Class,
                            __NSConcreteAutoBlock, __NSConcreteFinalizingBlock,
                            __NSConcreteGlobalBlock, __NSConcreteMallocBlock,
                            __NSConcreteStackBlock,
                            __NSConcreteWeakBlockVariable,
                            __Z16OSObjectAllocateP11OSMetaClassPP8OSObject,
                            __Z16OSUnserializeXMLPKcPP8OSString,
                            __Z16OSUnserializeXMLPKcmPP8OSString,
                            __Z17OSObjectTryRetainP8OSObject,
                            __ZN10IOReporter10addChannelEyPKc,
                            __ZN10IOReporter12createLegendEv,
                            __ZN10IOReporter12updateReportEP19IOReportChannelListjRjRPhRm,
                            __ZN10IOReporter15configureReportEP19IOReportChannelListjRj,
                            __ZN10IOReporter16updateAllReportsEP12OSCollectionP6OSDatajPjyyP18IOMemoryDescriptor,
                            __ZN10IOReporter19configureAllReportsEP12OSCollectionP6OSDatajPj,
                            __ZN10IOReporter4freeEv,
                            __ZN11IOEventLink10InvalidateEv,
                            __ZN11IOEventLink11Create_CallEP8OSStringP12IOUserClientPPS_,
                            __ZN11IOEventLink12DisassociateEv,
                            __ZN11IOEventLink13Create_InvokeE5IORPCPFiP8OSStringP12IOUserClientPPS_E,
                            __ZN11IOEventLink13SignalAndWaitEPy,
                            __ZN11IOEventLink16InvalidateKernelEP12IOUserClientPFiP15OSMetaClassBase5IORPCE,
                            __ZN11IOEventLink16SetEventlinkPortEjPFiP15OSMetaClassBase5IORPCE,
                            __ZN11IOEventLink18SignalAndWaitUntilEyyPy,
                            __ZN11IOEventLink21SetEventlinkPort_ImplEj,
                            __ZN11IOEventLink23InvalidateKernel_InvokeE5IORPCP15OSMetaClassBasePFiS2_P12IOUserClientE,
                            __ZN11IOEventLink23SetEventlinkPort_InvokeE5IORPCP15OSMetaClassBasePFiS2_jE,
                            __ZN11IOEventLink4WaitEPy, __ZN11IOEventLink4freeEv,
                            __ZN11IOEventLink4initEv, __ZN11IOEventLink6CancelEv,
                            __ZN11IOEventLink6CreateEP8OSStringP12IOUserClientPPS_,
                            __ZN11IOEventLink6SignalEv,
                            __ZN11IOEventLink8ActivateEv,
                            __ZN11IOEventLink8DispatchE5IORPC,
                            __ZN11IOEventLink9AssociateEy,
                            __ZN11IOEventLink9WaitUntilEyyPy,
                            __ZN11IOEventLink9_DispatchEPS_5IORPC,
                            __ZN11IOMemoryMap10GetAddressEv,
                            __ZN11IOMemoryMap10_CopyStateEP24_IOMemoryMapPrivateStatePFiP15OSMetaClassBase5IORPCE,
                            __ZN11IOMemoryMap17_CopyState_InvokeE5IORPCP15OSMetaClassBasePFiS2_P24_IOMemoryMapPrivateStateE,
                            __ZN11IOMemoryMap4freeEv, __ZN11IOMemoryMap4initEv,
                            __ZN11IOMemoryMap8DispatchE5IORPC,
                            __ZN11IOMemoryMap9GetLengthEv,
                            __ZN11IOMemoryMap9GetOffsetEv,
                            __ZN11IOMemoryMap9_DispatchEPS_5IORPC,
                            __ZN11IOWorkGroup10InvalidateEv,
                            __ZN11IOWorkGroup11Create_CallEP8OSStringP12IOUserClientPPS_,
                            __ZN11IOWorkGroup12GetTokenSizeEv,
                            __ZN11IOWorkGroup13Create_InvokeE5IORPCPFiP8OSStringP12IOUserClientPPS_E,
                            __ZN11IOWorkGroup16InvalidateKernelEP12IOUserClientPFiP15OSMetaClassBase5IORPCE,
                            __ZN11IOWorkGroup16SetWorkGroupPortEjPFiP15OSMetaClassBase5IORPCE,
                            __ZN11IOWorkGroup21SetWorkGroupPort_ImplEj,
                            __ZN11IOWorkGroup23InvalidateKernel_InvokeE5IORPCP15OSMetaClassBasePFiS2_P12IOUserClientE,
                            __ZN11IOWorkGroup23SetWorkGroupPort_InvokeE5IORPCP15OSMetaClassBasePFiS2_jE,
                            __ZN11IOWorkGroup4JoinEPv, __ZN11IOWorkGroup4freeEv,
                            __ZN11IOWorkGroup4initEv, __ZN11IOWorkGroup5LeaveEPv,
                            __ZN11IOWorkGroup6CreateEP8OSStringP12IOUserClientPPS_,
                            __ZN11IOWorkGroup8DispatchE5IORPC,
                            __ZN11IOWorkGroup9_DispatchEPS_5IORPC,
                            __ZN12IODMACommand11CompleteDMAEyPFiP15OSMetaClassBase5IORPCE,
                            __ZN12IODMACommand13Create_InvokeE5IORPCPFiP9IOServiceyPK25IODMACommandSpecificationPPS_E,
                            __ZN12IODMACommand13PrepareForDMAEyP18IOMemoryDescriptoryyPyPjP16IOAddressSegmentPFiP15OSMetaClassBase5IORPCE,
                            __ZN12IODMACommand14GetPreparationEPyS0_PP18IOMemoryDescriptorPFiP15OSMetaClassBase5IORPCE,
                            __ZN12IODMACommand16PerformOperationEyyyyP18IOMemoryDescriptorPFiP15OSMetaClassBase5IORPCE,
                            __ZN12IODMACommand18CompleteDMA_InvokeE5IORPCP15OSMetaClassBasePFiS2_yE,
                            __ZN12IODMACommand20PrepareForDMA_InvokeE5IORPCP15OSMetaClassBasePFiS2_yP18IOMemoryDescriptoryyPyPjP16IOAddressSegmentE,
                            __ZN12IODMACommand21GetPreparation_InvokeE5IORPCP15OSMetaClassBasePFiS2_PyS3_PP18IOMemoryDescriptorE,
                            __ZN12IODMACommand23PerformOperation_InvokeE5IORPCP15OSMetaClassBasePFiS2_yyyyP18IOMemoryDescriptorE,
                            __ZN12IODMACommand4freeEv, __ZN12IODMACommand4initEv,
                            __ZN12IODMACommand6CreateEP9IOServiceyPK25IODMACommandSpecificationPPS_,
                            __ZN12IODMACommand8DispatchE5IORPC,
                            __ZN12IODMACommand9_DispatchEPS_5IORPC,
                            __ZN12IOUserClient14ExternalMethodEyP27IOUserClientMethodArgumentsPK26IOUserClientMethodDispatchP8OSObjectPv,
                            __ZN12IOUserClient15AsyncCompletionEP8OSActioniPKyjPFiP15OSMetaClassBase5IORPCE,
                            __ZN12IOUserClient15_ExternalMethodEyPKyjP6OSDataP18IOMemoryDescriptorPyPjyPS3_S5_P8OSActionPFiP15OSMetaClassBase5IORPCE,
                            __ZN12IOUserClient20_ExternalMethod_ImplEyPKyjP6OSDataP18IOMemoryDescriptorPyPjyPS3_S5_P8OSAction,
                            __ZN12IOUserClient22AsyncCompletion_InvokeE5IORPCP15OSMetaClassBasePFvS2_P8OSActioniPKyjE,
                            __ZN12IOUserClient22AsyncCompletion_InvokeE5IORPCP15OSMetaClassBasePFvS2_P8OSActioniPKyjEPK11OSMetaClass,
                            __ZN12IOUserClient22CopyClientEntitlementsEPP12OSDictionaryPFiP15OSMetaClassBase5IORPCE,
                            __ZN12IOUserClient22_ExternalMethod_InvokeE5IORPCP15OSMetaClassBasePFiS2_yPKyjP6OSDataP18IOMemoryDescriptorPyPjyPS6_S8_P8OSActionE,
                            __ZN12IOUserClient23CopyClientMemoryForTypeEyPyPP18IOMemoryDescriptorPFiP15OSMetaClassBase5IORPCE,
                            __ZN12IOUserClient27CopyClientEntitlements_ImplEPP12OSDictionary,
                            __ZN12IOUserClient28CreateActionKernelCompletionEmPP8OSAction,
                            __ZN12IOUserClient29CopyClientEntitlements_InvokeE5IORPCP15OSMetaClassBasePFiS2_PP12OSDictionaryE,
                            __ZN12IOUserClient30CopyClientMemoryForType_InvokeE5IORPCP15OSMetaClassBasePFiS2_yPyPP18IOMemoryDescriptorE,
                            __ZN12IOUserClient32CreateMemoryDescriptorFromClientEyjPK16IOAddressSegmentPP18IOMemoryDescriptorPFiP15OSMetaClassBase5IORPCE,
                            __ZN12IOUserClient39CreateMemoryDescriptorFromClient_InvokeE5IORPCP15OSMetaClassBasePFiS2_yjPK16IOAddressSegmentPP18IOMemoryDescriptorE,
                            __ZN12IOUserClient4freeEv, __ZN12IOUserClient4initEv,
                            __ZN12IOUserClient8DispatchE5IORPC,
                            __ZN12IOUserClient9_DispatchEPS_5IORPC,
                            __ZN12IOUserServer10LoadModuleEPKcPFiP15OSMetaClassBase5IORPCE,
                            __ZN12IOUserServer11Exit_InvokeE5IORPCP15OSMetaClassBasePFiS2_PKcE,
                            __ZN12IOUserServer13Create_InvokeE5IORPCPFiPKcyyP8OSStringPPS_E,
                            __ZN12IOUserServer15LoadModule_ImplEPKc,
                            __ZN12IOUserServer17LoadModule_InvokeE5IORPCP15OSMetaClassBasePFiS2_PKcE,
                            __ZN12IOUserServer4ExitEPKcPFiP15OSMetaClassBase5IORPCE,
                            __ZN12IOUserServer4freeEv, __ZN12IOUserServer4initEv,
                            __ZN12IOUserServer6CreateEPKcyyP8OSStringPPS_,
                            __ZN12IOUserServer8DispatchE5IORPC,
                            __ZN12IOUserServer9Exit_ImplEPKc,
                            __ZN12IOUserServer9_DispatchEPS_5IORPC,
                            __ZN12OSDictionary11withObjectsEPPK8OSObjectS3_jj,
                            __ZN12OSDictionary12removeObjectEPK8OSObject,
                            __ZN12OSDictionary12removeObjectEPKc,
                            __ZN12OSDictionary12withCapacityEj,
                            __ZN12OSDictionary14ensureCapacityEj,
                            __ZN12OSDictionary14withDictionaryEPKS_j,
                            __ZN12OSDictionary15flushCollectionEv,
                            __ZN12OSDictionary4freeEv,
                            __ZN12OSDictionary5mergeEPKS_,
                            __ZN12OSDictionary9setObjectEPK8OSObjectPK15OSMetaClassBase,
                            __ZN12OSDictionary9setObjectEPKcPK15OSMetaClassBase,
                            __ZN12OSMappedFile14createFromPathEPKcymPPS_,
                            __ZN12OSMappedFile4freeEv, __ZN12OSMappedFile4initEv,
                            __ZN12OSOrderedSet11orderObjectEPK15OSMetaClassBase,
                            __ZN12OSOrderedSet12withCapacityEjU13block_pointerFiPK15OSMetaClassBaseS2_E,
                            __ZN12OSOrderedSet13setLastObjectEPK15OSMetaClassBase,
                            __ZN12OSOrderedSet14setFirstObjectEPK15OSMetaClassBase,
                            __ZN12OSOrderedSet4freeEv, __ZN12OSOrderedSet4initEv,
                            __ZN12OSOrderedSet9setObjectEPK15OSMetaClassBase,
                            __ZN13IOCommandPool10getCommandEb,
                            __ZN13IOCommandPool13initWithQueueEP15IODispatchQueue,
                            __ZN13IOCommandPool13returnCommandEP9IOCommand,
                            __ZN13IOCommandPool15gatedGetCommandEPP9IOCommandb,
                            __ZN13IOCommandPool18gatedReturnCommandEP9IOCommand,
                            __ZN13IOCommandPool4freeEv,
                            __ZN13IOCommandPool4initEv,
                            __ZN13IOCommandPool9withQueueEP15IODispatchQueue,
                            __ZN14IOReportLegend14addLegendEntryEP12OSDictionaryPKcS3_,
                            __ZN14IOReportLegend17addReporterLegendEP10IOReporterPKcS3_,
                            __ZN14IOReportLegend17addReporterLegendEP9IOServiceP10IOReporterPKcS5_,
                            __ZN14IOReportLegend4freeEv,
                            __ZN14IOReportLegend4withEP7OSArray,
                            __ZN14IOReportLegend9getLegendEv,
                            __ZN14OSSetMetaClass3NewEP8OSObject,
                            __ZN15IODispatchQueue11Create_CallEPKcyyPPS_,
                            __ZN15IODispatchQueue12DispatchSyncEU13block_pointerFvvE,
                            __ZN15IODispatchQueue13Create_InvokeE5IORPCPFiPKcyyPPS_E,
                            __ZN15IODispatchQueue13DispatchAsyncEU13block_pointerFvvE,
                            __ZN15IODispatchQueue14DispatchSync_fEPvPFvS0_E,
                            __ZN15IODispatchQueue14SetPort_InvokeE5IORPCP15OSMetaClassBasePFiS2_jE,
                            __ZN15IODispatchQueue15DispatchAsync_fEPvPFvS0_E,
                            __ZN15IODispatchQueue16SleepWithTimeoutEPvy,
                            __ZN15IODispatchQueue17SleepWithDeadlineEPvyy,
                            __ZN15IODispatchQueue17WakeupWithOptionsEPvy,
                            __ZN15IODispatchQueue18DispatchConcurrentEU13block_pointerFvvE,
                            __ZN15IODispatchQueue20DispatchConcurrent_fEPvPFvS0_E,
                            __ZN15IODispatchQueue3LogEPKcPFiS1_zE,
                            __ZN15IODispatchQueue4freeEv,
                            __ZN15IODispatchQueue4initEv,
                            __ZN15IODispatchQueue5SleepEPvy,
                            __ZN15IODispatchQueue6CancelEU13block_pointerFvvE,
                            __ZN15IODispatchQueue6CreateEPKcyyPPS_,
                            __ZN15IODispatchQueue6WakeupEPv,
                            __ZN15IODispatchQueue7GetNameEv,
                            __ZN15IODispatchQueue7OnQueueEv,
                            __ZN15IODispatchQueue7SetPortEjPFiP15OSMetaClassBase5IORPCE,
                            __ZN15IODispatchQueue8DispatchE5IORPC,
                            __ZN15IODispatchQueue9RunActionEU13block_pointerFivE,
                            __ZN15IODispatchQueue9_DispatchEPS_5IORPC,
                            __ZN15IOStateReporter10setStateIDEyiy,
                            __ZN15IOStateReporter15setChannelStateEyy,
                            __ZN15IOStateReporter15setChannelStateEyyyy,
                            __ZN15IOStateReporter17setStateByIndicesEii,
                            __ZN15IOStateReporter17setStateByIndicesEiiyy,
                            __ZN15IOStateReporter20overrideChannelStateEyyyyy,
                            __ZN15IOStateReporter21getStateInTransitionsEyy,
                            __ZN15IOStateReporter21getStateResidencyTimeEyy,
                            __ZN15IOStateReporter21incrementChannelStateEyyyyy,
                            __ZN15IOStateReporter26getStateLastTransitionTimeEyy,
                            __ZN15IOStateReporter29getStateLastChannelUpdateTimeEy,
                            __ZN15IOStateReporter4withEP9IOServicetiy,
                            __ZN15IOStateReporter8initWithEP9IOServicetiy,
                            __ZN15IOStateReporter8setStateEy,
                            __ZN15IOStateReporter8setStateEyyy,
                            __ZN15OSDataMetaClass3NewEP8OSObject,
                            __ZN15OSMetaClassBase12GetClassNameEv,
                            __ZN15OSMetaClassBase12safeMetaCastEPKS_PK11OSMetaClass,
                            __ZN15OSMetaClassBase14QueueForObjectEy,
                            __ZN15OSMetaClassBase16requiredMetaCastEPKS_PK11OSMetaClass,
                            __ZN15OSMetaClassBase6InvokeE5IORPC,
                            __ZN15OSMetaClassBase8DispatchE5IORPC,
                            __ZN15OSMetaClassBase8GetClassEv,
                            __ZN15OSMetaClassBase8IsRemoteEv,
                            __ZN15OSSerialization10copyObjectEv,
                            __ZN15OSSerialization10freeBufferEPKvm,
                            __ZN15OSSerialization14finalizeBufferEPm,
                            __ZN15OSSerialization15createFromBytesEPKvmU13block_pointerFvS1_mE,
                            __ZN15OSSerialization16createFromObjectEP8OSObject,
                            __ZN15OSSerialization4freeEv,
                            __ZN16IODispatchSource12CheckForWorkEbPFiP15OSMetaClassBase5IORPCE,
                            __ZN16IODispatchSource13Cancel_InvokeE5IORPCP15OSMetaClassBasePFiS2_U13block_pointerFvvEE,
                            __ZN16IODispatchSource14SetEnable_ImplEb,
                            __ZN16IODispatchSource16SetEnable_InvokeE5IORPCP15OSMetaClassBasePFiS2_bE,
                            __ZN16IODispatchSource19CheckForWork_InvokeE5IORPCP15OSMetaClassBasePFiS2_S0_bE,
                            __ZN16IODispatchSource23SetEnableWithCompletionEbU13block_pointerFvvEPFiP15OSMetaClassBase5IORPCE,
                            __ZN16IODispatchSource30SetEnableWithCompletion_InvokeE5IORPCP15OSMetaClassBasePFiS2_bU13block_pointerFvvEE,
                            __ZN16IODispatchSource4freeEv,
                            __ZN16IODispatchSource4initEv,
                            __ZN16IODispatchSource6CancelEU13block_pointerFvvEPFiP15OSMetaClassBase5IORPCE,
                            __ZN16IODispatchSource8DispatchE5IORPC,
                            __ZN16IODispatchSource9SetEnableEbPFiP15OSMetaClassBase5IORPCE,
                            __ZN16IODispatchSource9_DispatchEPS_5IORPC,
                            __ZN16IOReporter_IVars10legendWithEP7OSArrayS1_19IOReportChannelTypey,
                            __ZN16IOReporter_IVars12lockReporterEv,
                            __ZN16IOReporter_IVars14copyChannelIDsEv,
                            __ZN16IOReporter_IVars14unlockReporterEv,
                            __ZN16IOReporter_IVars15getChannelIndexEyPi,
                            __ZN16IOReporter_IVars16getElementValuesEi,
                            __ZN16IOReporter_IVars16setElementValuesEiP21IOReportElementValuesy,
                            __ZN16IOReporter_IVars17copyElementValuesEiP21IOReportElementValues,
                            __ZN16IOReporter_IVars17getChannelIndicesEyPiS0_,
                            __ZN16IOReporter_IVars17handleSwapCleanupEi,
                            __ZN16IOReporter_IVars17handleSwapPrepareEi,
                            __ZN16IOReporter_IVars18handleCreateLegendEv,
                            __ZN16IOReporter_IVars18handleUpdateReportEP19IOReportChannelListjRjRPhRm,
                            __ZN16IOReporter_IVars18lockReporterConfigEv,
                            __ZN16IOReporter_IVars19updateChannelValuesEi,
                            __ZN16IOReporter_IVars19updateReportChannelEiRjRPhRm,
                            __ZN16IOReporter_IVars20getFirstElementIndexEyPi,
                            __ZN16IOReporter_IVars20handleAddChannelSwapEyPK8OSString,
                            __ZN16IOReporter_IVars20unlockReporterConfigEv,
                            __ZN16IOReporter_IVars21handleConfigureReportEP19IOReportChannelListjRj,
                            __ZN16IOReporter_IVarsC1EP9IOService19IOReportChannelTypey,
                            __ZN16IOReporter_IVarsC2EP9IOService19IOReportChannelTypey,
                            __ZN16IOReporter_IVarsD0Ev,
                            __ZN16IOReporter_IVarsD1Ev,
                            __ZN16IOReporter_IVarsD2Ev,
                            __ZN16IOSimpleReporter14incrementValueEyx,
                            __ZN16IOSimpleReporter4withEP9IOServicety,
                            __ZN16IOSimpleReporter8getValueEy,
                            __ZN16IOSimpleReporter8initWithEP9IOServicety,
                            __ZN16IOSimpleReporter8setValueEyx,
                            __ZN16OSArrayMetaClass3NewEP8OSObject,
                            __ZN17IOThreadMetaClass3NewEP8OSObject,
                            __ZN17OSActionMetaClass3NewEP8OSObject,
                            __ZN17OSActionMetaClass8DispatchE5IORPC,
                            __ZN17OSBundleMetaClass3NewEP8OSObject,
                            __ZN17OSNumberMetaClass3NewEP8OSObject,
                            __ZN17OSObjectMetaClass3NewEP8OSObject,
                            __ZN17OSObjectMetaClass8DispatchE5IORPC,
                            __ZN17OSStringMetaClass3NewEP8OSObject,
                            __ZN18IOCommandMetaClass3NewEP8OSObject,
                            __ZN18IOMemoryDescriptor10_CopyStateEP17_IOMDPrivateStatePFiP15OSMetaClassBase5IORPCE,
                            __ZN18IOMemoryDescriptor13CreateMappingEyyyyyPP11IOMemoryMapPFiP15OSMetaClassBase5IORPCE,
                            __ZN18IOMemoryDescriptor17_CopyState_InvokeE5IORPCP15OSMetaClassBasePFiS2_P17_IOMDPrivateStateE,
                            __ZN18IOMemoryDescriptor20CreateMapping_InvokeE5IORPCP15OSMetaClassBasePFiS2_yyyyyPP11IOMemoryMapE,
                            __ZN18IOMemoryDescriptor25CreateSubMemoryDescriptorEyyyPS_PS0_,
                            __ZN18IOMemoryDescriptor27CreateWithMemoryDescriptorsEyjPPS_S1_,
                            __ZN18IOMemoryDescriptor32CreateSubMemoryDescriptor_InvokeE5IORPCPFiyyyPS_PS1_E,
                            __ZN18IOMemoryDescriptor34CreateWithMemoryDescriptors_InvokeE5IORPCPFiyjPPS_S2_E,
                            __ZN18IOMemoryDescriptor3MapEyyyyPyS0_,
                            __ZN18IOMemoryDescriptor4freeEv,
                            __ZN18IOMemoryDescriptor4initEv,
                            __ZN18IOMemoryDescriptor8DispatchE5IORPC,
                            __ZN18IOMemoryDescriptor9GetLengthEPy,
                            __ZN18IOMemoryDescriptor9_DispatchEPS_5IORPC,
                            __ZN18IOServiceMetaClass3NewEP8OSObject,
                            __ZN18IOServiceMetaClass8DispatchE5IORPC,
                            __ZN18OSBooleanMetaClass3NewEP8OSObject,
                            __ZN19IOHistogramReporter10addChannelEyPKc,
                            __ZN19IOHistogramReporter10tallyValueEx,
                            __ZN19IOHistogramReporter20overrideBucketValuesEjyxxx,
                            __ZN19IOHistogramReporter4withEP9IOServicetyPKcyiP24IOHistogramSegmentConfig,
                            __ZN19IOHistogramReporter8initWithEP9IOServicetyPKcyiP24IOHistogramSegmentConfig,
                            __ZN19IOReporterMetaClass3NewEP8OSObject,
                            __ZN20IOEventLinkMetaClass3NewEP8OSObject,
                            __ZN20IOEventLinkMetaClass8DispatchE5IORPC,
                            __ZN20IOMemoryMapMetaClass3NewEP8OSObject,
                            __ZN20IOMemoryMapMetaClass8DispatchE5IORPC,
                            __ZN20IOWorkGroupMetaClass3NewEP8OSObject,
                            __ZN20IOWorkGroupMetaClass8DispatchE5IORPC,
                            __ZN20OSContainerMetaClass3NewEP8OSObject,
                            __ZN21IODMACommandMetaClass3NewEP8OSObject,
                            __ZN21IODMACommandMetaClass8DispatchE5IORPC,
                            __ZN21IOStateReporter_IVars14_getStateValueEyy29IOStateReporter_valueSelector,
                            __ZN21IOStateReporter_IVars16_getStateIndicesEyyPiS0_,
                            __ZN21IOStateReporter_IVars16handleSetStateIDEyiy,
                            __ZN21IOStateReporter_IVars17handleSwapCleanupEi,
                            __ZN21IOStateReporter_IVars17handleSwapPrepareEi,
                            __ZN21IOStateReporter_IVars19updateChannelValuesEi,
                            __ZN21IOStateReporter_IVars20handleAddChannelSwapEyPK8OSString,
                            __ZN21IOStateReporter_IVars23handleSetStateByIndicesEiiyy,
                            __ZN21IOStateReporter_IVars35handleOverrideChannelStateByIndicesEiiyyy,
                            __ZN21IOStateReporter_IVars36handleIncrementChannelStateByIndicesEiiyyy,
                            __ZN21IOStateReporter_IVarsC1EP9IOService19IOReportChannelTypeytx,
                            __ZN21IOStateReporter_IVarsC2EP9IOService19IOReportChannelTypeytx,
                            __ZN21IOStateReporter_IVarsD0Ev,
                            __ZN21IOStateReporter_IVarsD1Ev,
                            __ZN21IOStateReporter_IVarsD2Ev,
                            __ZN21IOTimerDispatchSource10SetHandlerEP8OSActionPFiP15OSMetaClassBase5IORPCE,
                            __ZN21IOTimerDispatchSource10WakeAtTimeEyyyPFiP15OSMetaClassBase5IORPCE,
                            __ZN21IOTimerDispatchSource11Cancel_ImplEU13block_pointerFvvE,
                            __ZN21IOTimerDispatchSource11Create_ImplEP15IODispatchQueuePPS_,
                            __ZN21IOTimerDispatchSource13Create_InvokeE5IORPCPFiP15IODispatchQueuePPS_E,
                            __ZN21IOTimerDispatchSource13TimerOccurredE5IORPCP8OSActionyPFiP15OSMetaClassBaseS0_E,
                            __ZN21IOTimerDispatchSource15SetHandler_ImplEP8OSAction,
                            __ZN21IOTimerDispatchSource15WakeAtTime_ImplEyyy,
                            __ZN21IOTimerDispatchSource17CheckForWork_ImplE5IORPCb,
                            __ZN21IOTimerDispatchSource17SetHandler_InvokeE5IORPCP15OSMetaClassBasePFiS2_P8OSActionE,
                            __ZN21IOTimerDispatchSource17WakeAtTime_InvokeE5IORPCP15OSMetaClassBasePFiS2_yyyE,
                            __ZN21IOTimerDispatchSource18TimerOccurred_ImplEP8OSActiony,
                            __ZN21IOTimerDispatchSource20TimerOccurred_InvokeE5IORPCP15OSMetaClassBasePFvS2_P8OSActionyE,
                            __ZN21IOTimerDispatchSource20TimerOccurred_InvokeE5IORPCP15OSMetaClassBasePFvS2_P8OSActionyEPK11OSMetaClass,
                            __ZN21IOTimerDispatchSource28SetEnableWithCompletion_ImplEbU13block_pointerFvvE,
                            __ZN21IOTimerDispatchSource4freeEv,
                            __ZN21IOTimerDispatchSource4initEv,
                            __ZN21IOTimerDispatchSource6CreateEP15IODispatchQueuePPS_,
                            __ZN21IOTimerDispatchSource8DispatchE5IORPC,
                            __ZN21IOTimerDispatchSource9_DispatchEPS_5IORPC,
                            __ZN21IOUserClientMetaClass3NewEP8OSObject,
                            __ZN21IOUserClientMetaClass8DispatchE5IORPC,
                            __ZN21IOUserServerMetaClass3NewEP8OSObject,
                            __ZN21IOUserServerMetaClass8DispatchE5IORPC,
                            __ZN21OSCollectionMetaClass3NewEP8OSObject,
                            __ZN21OSDictionaryMetaClass3NewEP8OSObject,
                            __ZN21OSMappedFileMetaClass3NewEP8OSObject,
                            __ZN21OSOrderedSetMetaClass3NewEP8OSObject,
                            __ZN21_IOBlockStorageDevice16DoAsyncReadWriteEP18IOMemoryDescriptoryyP8OSActionPFiP15OSMetaClassBase5IORPCE,
                            __ZN21_IOBlockStorageDevice21CopyProducerDataQueueEPP25IODataQueueDispatchSourcePFiP15OSMetaClassBase5IORPCE,
                            __ZN21_IOBlockStorageDevice21CopyReceiverDataQueueEPP25IODataQueueDispatchSourcePFiP15OSMetaClassBase5IORPCE,
                            __ZN21_IOBlockStorageDevice23DoAsyncReadWrite_InvokeE5IORPCP15OSMetaClassBasePFiS2_P18IOMemoryDescriptoryyP8OSActionE,
                            __ZN21_IOBlockStorageDevice26DoAsyncReadWriteCompletionEP8OSActioniyPFiP15OSMetaClassBase5IORPCE,
                            __ZN21_IOBlockStorageDevice28CopyProducerDataQueue_InvokeE5IORPCP15OSMetaClassBasePFiS2_PP25IODataQueueDispatchSourceE,
                            __ZN21_IOBlockStorageDevice28CopyReceiverDataQueue_InvokeE5IORPCP15OSMetaClassBasePFiS2_PP25IODataQueueDispatchSourceE,
                            __ZN21_IOBlockStorageDevice28CreateActionKernelCompletionEmPP8OSAction,
                            __ZN21_IOBlockStorageDevice33DoAsyncReadWriteCompletion_InvokeE5IORPCP15OSMetaClassBasePFvS2_P8OSActioniyE,
                            __ZN21_IOBlockStorageDevice33DoAsyncReadWriteCompletion_InvokeE5IORPCP15OSMetaClassBasePFvS2_P8OSActioniyEPK11OSMetaClass,
                            __ZN21_IOBlockStorageDevice8DispatchE5IORPC,
                            __ZN21_IOBlockStorageDevice9_DispatchEPS_5IORPC,
                            __ZN22IOCommandPoolMetaClass3NewEP8OSObject,
                            __ZN23IOReportLegendMetaClass3NewEP8OSObject,
                            __ZN24IOBufferMemoryDescriptor13Create_InvokeE5IORPCPFiyyyPPS_E,
                            __ZN24IOBufferMemoryDescriptor15GetAddressRangeEP16IOAddressSegment,
                            __ZN24IOBufferMemoryDescriptor16SetLength_InvokeE5IORPCP15OSMetaClassBasePFiS2_yE,
                            __ZN24IOBufferMemoryDescriptor4freeEv,
                            __ZN24IOBufferMemoryDescriptor4initEv,
                            __ZN24IOBufferMemoryDescriptor6CreateEyyyPPS_,
                            __ZN24IOBufferMemoryDescriptor8DispatchE5IORPC,
                            __ZN24IOBufferMemoryDescriptor9SetLengthEyPFiP15OSMetaClassBase5IORPCE,
                            __ZN24IOBufferMemoryDescriptor9_DispatchEPS_5IORPC,
                            __ZN24IODispatchQueueMetaClass3NewEP8OSObject,
                            __ZN24IODispatchQueueMetaClass8DispatchE5IORPC,
                            __ZN24IOStateReporterMetaClass3NewEP8OSObject,
                            __ZN24OSSerializationMetaClass3NewEP8OSObject,
                            __ZN25IODataQueueDispatchSource10CopyMemoryEPP18IOMemoryDescriptorPFiP15OSMetaClassBase5IORPCE,
                            __ZN25IODataQueueDispatchSource11Cancel_ImplEU13block_pointerFvvE,
                            __ZN25IODataQueueDispatchSource12DataServicedEP8OSActionPFiP15OSMetaClassBase5IORPCE,
                            __ZN25IODataQueueDispatchSource13Create_InvokeE5IORPCPFiyP15IODispatchQueuePPS_E,
                            __ZN25IODataQueueDispatchSource13DataAvailableEP8OSActionPFiP15OSMetaClassBase5IORPCE,
                            __ZN25IODataQueueDispatchSource14CanEnqueueDataEj,
                            __ZN25IODataQueueDispatchSource14CanEnqueueDataEjj,
                            __ZN25IODataQueueDispatchSource15IsDataAvailableEv,
                            __ZN25IODataQueueDispatchSource16SendDataServicedEv,
                            __ZN25IODataQueueDispatchSource17CheckForWork_ImplE5IORPCb,
                            __ZN25IODataQueueDispatchSource17CopyMemory_InvokeE5IORPCP15OSMetaClassBasePFiS2_PP18IOMemoryDescriptorE,
                            __ZN25IODataQueueDispatchSource17SendDataAvailableEv,
                            __ZN25IODataQueueDispatchSource19DataServiced_InvokeE5IORPCP15OSMetaClassBasePFvS2_P8OSActionE,
                            __ZN25IODataQueueDispatchSource19DataServiced_InvokeE5IORPCP15OSMetaClassBasePFvS2_P8OSActionEPK11OSMetaClass,
                            __ZN25IODataQueueDispatchSource19DequeueWithCoalesceEPbU13block_pointerFvPKvmE,
                            __ZN25IODataQueueDispatchSource19EnqueueWithCoalesceEjPbU13block_pointerFvPvmE,
                            __ZN25IODataQueueDispatchSource20DataAvailable_InvokeE5IORPCP15OSMetaClassBasePFvS2_P8OSActionE,
                            __ZN25IODataQueueDispatchSource20DataAvailable_InvokeE5IORPCP15OSMetaClassBasePFvS2_P8OSActionEPK11OSMetaClass,
                            __ZN25IODataQueueDispatchSource22SetDataServicedHandlerEP8OSActionPFiP15OSMetaClassBase5IORPCE,
                            __ZN25IODataQueueDispatchSource23CopyDataServicedHandlerEPP8OSActionPFiP15OSMetaClassBase5IORPCE,
                            __ZN25IODataQueueDispatchSource23SetDataAvailableHandlerEP8OSActionPFiP15OSMetaClassBase5IORPCE,
                            __ZN25IODataQueueDispatchSource24CopyDataAvailableHandlerEPP8OSActionPFiP15OSMetaClassBase5IORPCE,
                            __ZN25IODataQueueDispatchSource27GetDataQueueEntryHeaderSizeEv,
                            __ZN25IODataQueueDispatchSource28SetEnableWithCompletion_ImplEbU13block_pointerFvvE,
                            __ZN25IODataQueueDispatchSource29SetDataServicedHandler_InvokeE5IORPCP15OSMetaClassBasePFiS2_P8OSActionE,
                            __ZN25IODataQueueDispatchSource30CopyDataServicedHandler_InvokeE5IORPCP15OSMetaClassBasePFiS2_PP8OSActionE,
                            __ZN25IODataQueueDispatchSource30SetDataAvailableHandler_InvokeE5IORPCP15OSMetaClassBasePFiS2_P8OSActionE,
                            __ZN25IODataQueueDispatchSource31CopyDataAvailableHandler_InvokeE5IORPCP15OSMetaClassBasePFiS2_PP8OSActionE,
                            __ZN25IODataQueueDispatchSource4PeekEU13block_pointerFvPKvmE,
                            __ZN25IODataQueueDispatchSource4freeEv,
                            __ZN25IODataQueueDispatchSource4initEv,
                            __ZN25IODataQueueDispatchSource6CreateEyP15IODispatchQueuePPS_,
                            __ZN25IODataQueueDispatchSource7DequeueEU13block_pointerFvPKvmE,
                            __ZN25IODataQueueDispatchSource7EnqueueEjU13block_pointerFvPvmE,
                            __ZN25IODataQueueDispatchSource8DispatchE5IORPC,
                            __ZN25IODataQueueDispatchSource9_DispatchEPS_5IORPC,
                            __ZN25IODispatchSourceMetaClass3NewEP8OSObject,
                            __ZN25IODispatchSourceMetaClass8DispatchE5IORPC,
                            __ZN25IOHistogramReporter_IVars18handleCreateLegendEv,
                            __ZN25IOHistogramReporter_IVarsC1EP9IOService19IOReportChannelTypeyPK8OSStringtyiP24IOHistogramSegmentConfig,
                            __ZN25IOHistogramReporter_IVarsC2EP9IOService19IOReportChannelTypeyPK8OSStringtyiP24IOHistogramSegmentConfig,
                            __ZN25IOHistogramReporter_IVarsD0Ev,
                            __ZN25IOHistogramReporter_IVarsD1Ev,
                            __ZN25IOHistogramReporter_IVarsD2Ev,
                            __ZN25IOInterruptDispatchSource10SetHandlerEP8OSActionPFiP15OSMetaClassBase5IORPCE,
                            __ZN25IOInterruptDispatchSource11Cancel_ImplEU13block_pointerFvvE,
                            __ZN25IOInterruptDispatchSource11Create_CallEP9IOServicejP15IODispatchQueuePPS_,
                            __ZN25IOInterruptDispatchSource13Create_InvokeE5IORPCPFiP9IOServicejP15IODispatchQueuePPS_E,
                            __ZN25IOInterruptDispatchSource15SetHandler_ImplEP8OSAction,
                            __ZN25IOInterruptDispatchSource16GetInterruptTypeEP9IOServicejPy,
                            __ZN25IOInterruptDispatchSource16GetLastInterruptEPyS0_PFiP15OSMetaClassBase5IORPCE,
                            __ZN25IOInterruptDispatchSource17CheckForWork_ImplE5IORPCb,
                            __ZN25IOInterruptDispatchSource17InterruptOccurredE5IORPCP8OSActionyyPFiP15OSMetaClassBaseS0_E,
                            __ZN25IOInterruptDispatchSource17SetHandler_InvokeE5IORPCP15OSMetaClassBasePFiS2_P8OSActionE,
                            __ZN25IOInterruptDispatchSource22InterruptOccurred_ImplEP8OSActionyy,
                            __ZN25IOInterruptDispatchSource23GetInterruptType_InvokeE5IORPCPFiP9IOServicejPyE,
                            __ZN25IOInterruptDispatchSource23GetLastInterrupt_InvokeE5IORPCP15OSMetaClassBasePFiS2_PyS3_E,
                            __ZN25IOInterruptDispatchSource24InterruptOccurred_InvokeE5IORPCP15OSMetaClassBasePFvS2_P8OSActionyyE,
                            __ZN25IOInterruptDispatchSource24InterruptOccurred_InvokeE5IORPCP15OSMetaClassBasePFvS2_P8OSActionyyEPK11OSMetaClass,
                            __ZN25IOInterruptDispatchSource28SetEnableWithCompletion_ImplEbU13block_pointerFvvE,
                            __ZN25IOInterruptDispatchSource4freeEv,
                            __ZN25IOInterruptDispatchSource4initEv,
                            __ZN25IOInterruptDispatchSource6CreateEP9IOServicejP15IODispatchQueuePPS_,
                            __ZN25IOInterruptDispatchSource8DispatchE5IORPC,
                            __ZN25IOInterruptDispatchSource9_DispatchEPS_5IORPC,
                            __ZN25IOSimpleReporterMetaClass3NewEP8OSObject,
                            __ZN27IOMemoryDescriptorMetaClass3NewEP8OSObject,
                            __ZN27IOMemoryDescriptorMetaClass8DispatchE5IORPC,
                            __ZN28IOHistogramReporterMetaClass3NewEP8OSObject,
                            __ZN30IOTimerDispatchSourceMetaClass3NewEP8OSObject,
                            __ZN30IOTimerDispatchSourceMetaClass8DispatchE5IORPC,
                            __ZN30_IOBlockStorageDeviceMetaClass3NewEP8OSObject,
                            __ZN30_IOBlockStorageDeviceMetaClass8DispatchE5IORPC,
                            __ZN33IOBufferMemoryDescriptorMetaClass3NewEP8OSObject,
                            __ZN33IOBufferMemoryDescriptorMetaClass8DispatchE5IORPC,
                            __ZN34IODataQueueDispatchSourceMetaClass3NewEP8OSObject,
                            __ZN34IODataQueueDispatchSourceMetaClass8DispatchE5IORPC,
                            __ZN34IOInterruptDispatchSourceMetaClass3NewEP8OSObject,
                            __ZN34IOInterruptDispatchSourceMetaClass8DispatchE5IORPC,
                            __ZN35IOServiceNotificationDispatchSource10SetHandlerEP8OSActionPFiP15OSMetaClassBase5IORPCE,
                            __ZN35IOServiceNotificationDispatchSource11Cancel_ImplEU13block_pointerFvvE,
                            __ZN35IOServiceNotificationDispatchSource11Create_CallEP12OSDictionaryyP15IODispatchQueuePPS_,
                            __ZN35IOServiceNotificationDispatchSource13Create_InvokeE5IORPCPFiP12OSDictionaryyP15IODispatchQueuePPS_E,
                            __ZN35IOServiceNotificationDispatchSource17CheckForWork_ImplE5IORPCb,
                            __ZN35IOServiceNotificationDispatchSource17SetHandler_InvokeE5IORPCP15OSMetaClassBasePFiS2_P8OSActionE,
                            __ZN35IOServiceNotificationDispatchSource20CopyNextNotificationEPyPP9IOServiceS0_PFiP15OSMetaClassBase5IORPCE,
                            __ZN35IOServiceNotificationDispatchSource20DeliverNotificationsEU13block_pointerFvyP9IOServiceyE,
                            __ZN35IOServiceNotificationDispatchSource24ServiceNotificationReadyEP8OSActionPFiP15OSMetaClassBase5IORPCE,
                            __ZN35IOServiceNotificationDispatchSource27CopyNextNotification_InvokeE5IORPCP15OSMetaClassBasePFiS2_PyPP9IOServiceS3_E,
                            __ZN35IOServiceNotificationDispatchSource28SetEnableWithCompletion_ImplEbU13block_pointerFvvE,
                            __ZN35IOServiceNotificationDispatchSource31ServiceNotificationReady_InvokeE5IORPCP15OSMetaClassBasePFvS2_P8OSActionE,
                            __ZN35IOServiceNotificationDispatchSource31ServiceNotificationReady_InvokeE5IORPCP15OSMetaClassBasePFvS2_P8OSActionEPK11OSMetaClass,
                            __ZN35IOServiceNotificationDispatchSource4freeEv,
                            __ZN35IOServiceNotificationDispatchSource4initEv,
                            __ZN35IOServiceNotificationDispatchSource6CreateEP12OSDictionaryyP15IODispatchQueuePPS_,
                            __ZN35IOServiceNotificationDispatchSource8DispatchE5IORPC,
                            __ZN35IOServiceNotificationDispatchSource9_DispatchEPS_5IORPC,
                            __ZN38OSAction_IOUserClient_KernelCompletion8DispatchE5IORPC,
                            __ZN38OSAction_IOUserClient_KernelCompletion9_DispatchEPS_5IORPC,
                            __ZN40IOServiceStateNotificationDispatchSource10SetHandlerEP8OSActionPFiP15OSMetaClassBase5IORPCE,
                            __ZN40IOServiceStateNotificationDispatchSource11Cancel_ImplEU13block_pointerFvvE,
                            __ZN40IOServiceStateNotificationDispatchSource11Create_CallEP9IOServiceP7OSArrayP15IODispatchQueuePPS_,
                            __ZN40IOServiceStateNotificationDispatchSource13Create_InvokeE5IORPCPFiP9IOServiceP7OSArrayP15IODispatchQueuePPS_E,
                            __ZN40IOServiceStateNotificationDispatchSource17SetHandler_InvokeE5IORPCP15OSMetaClassBasePFiS2_P8OSActionE,
                            __ZN40IOServiceStateNotificationDispatchSource22StateNotificationBeginEPFiP15OSMetaClassBase5IORPCE,
                            __ZN40IOServiceStateNotificationDispatchSource22StateNotificationReadyEP8OSActionPFiP15OSMetaClassBase5IORPCE,
                            __ZN40IOServiceStateNotificationDispatchSource28SetEnableWithCompletion_ImplEbU13block_pointerFvvE,
                            __ZN40IOServiceStateNotificationDispatchSource29StateNotificationBegin_InvokeE5IORPCP15OSMetaClassBasePFiS2_E,
                            __ZN40IOServiceStateNotificationDispatchSource29StateNotificationReady_InvokeE5IORPCP15OSMetaClassBasePFvS2_P8OSActionE,
                            __ZN40IOServiceStateNotificationDispatchSource29StateNotificationReady_InvokeE5IORPCP15OSMetaClassBasePFvS2_P8OSActionEPK11OSMetaClass,
                            __ZN40IOServiceStateNotificationDispatchSource4freeEv,
                            __ZN40IOServiceStateNotificationDispatchSource4initEv,
                            __ZN40IOServiceStateNotificationDispatchSource6CreateEP9IOServiceP7OSArrayP15IODispatchQueuePPS_,
                            __ZN40IOServiceStateNotificationDispatchSource8DispatchE5IORPC,
                            __ZN40IOServiceStateNotificationDispatchSource9_DispatchEPS_5IORPC,
                            __ZN44IOServiceNotificationDispatchSourceMetaClass3NewEP8OSObject,
                            __ZN44IOServiceNotificationDispatchSourceMetaClass8DispatchE5IORPC,
                            __ZN47OSAction_IOUserClient_KernelCompletionMetaClass3NewEP8OSObject,
                            __ZN47OSAction_IOUserClient_KernelCompletionMetaClass8DispatchE5IORPC,
                            __ZN47OSAction__IOBlockStorageDevice_KernelCompletion8DispatchE5IORPC,
                            __ZN47OSAction__IOBlockStorageDevice_KernelCompletion9_DispatchEPS_5IORPC,
                            __ZN49IOServiceStateNotificationDispatchSourceMetaClass3NewEP8OSObject,
                            __ZN49IOServiceStateNotificationDispatchSourceMetaClass8DispatchE5IORPC,
                            __ZN56OSAction__IOBlockStorageDevice_KernelCompletionMetaClass3NewEP8OSObject,
                            __ZN56OSAction__IOBlockStorageDevice_KernelCompletionMetaClass8DispatchE5IORPC,
                            __ZN5OSSet11withObjectsEPPK8OSObjectjj,
                            __ZN5OSSet12removeObjectEPK15OSMetaClassBase,
                            __ZN5OSSet12withCapacityEj, __ZN5OSSet4initEv,
                            __ZN5OSSet5mergeEPK7OSArray,
                            __ZN5OSSet9setObjectEPK15OSMetaClassBase,
                            __ZN5OSSet9withArrayEPK7OSArrayj,
                            __ZN6OSData11appendBytesEPKS_,
                            __ZN6OSData11appendBytesEPKvm,
                            __ZN6OSData12withCapacityEj,
                            __ZN6OSData15withBytesNoCopyEPvm, __ZN6OSData4freeEv,
                            __ZN6OSData8withDataEPKS_,
                            __ZN6OSData8withDataEPKS_mm,
                            __ZN6OSData9withBytesEPKvm,
                            __ZN7OSArray11withObjectsEPPK8OSObjectjj,
                            __ZN7OSArray12removeObjectEj,
                            __ZN7OSArray12withCapacityEj,
                            __ZN7OSArray13replaceObjectEjPK15OSMetaClassBase,
                            __ZN7OSArray14ensureCapacityEj,
                            __ZN7OSArray15flushCollectionEv, __ZN7OSArray4freeEv,
                            __ZN7OSArray5mergeEPKS_,
                            __ZN7OSArray9setObjectEPK15OSMetaClassBase,
                            __ZN7OSArray9setObjectEjPK15OSMetaClassBase,
                            __ZN7OSArray9withArrayEPKS_j,
                            __ZN8IOThread17CopyCurrentThreadEPPS_,
                            __ZN8IOThread17GetTimeConstraintEPjS0_S0_PbS1_,
                            __ZN8IOThread17SetTimeConstraintEjjjb,
                            __ZN8IOThread4JoinEPPv, __ZN8IOThread4freeEv,
                            __ZN8IOThread4initEv,
                            __ZN8IOThread6CreateEyPFPvS0_ES0_PPS_,
                            __ZN8OSAction11Create_CallEP8OSObjectyymPPS_,
                            __ZN8OSAction12Aborted_ImplEv,
                            __ZN8OSAction12GetReferenceEv,
                            __ZN8OSAction13Create_InvokeE5IORPCPFiP8OSObjectyymPPS_E,
                            __ZN8OSAction14Aborted_InvokeE5IORPCP15OSMetaClassBasePFvS2_E,
                            __ZN8OSAction17SetAbortedHandlerEU13block_pointerFvvE,
                            __ZN8OSAction18CreateWithTypeNameEP8OSObjectyymP8OSStringPPS_,
                            __ZN8OSAction23CreateWithTypeName_CallEP8OSObjectyymP8OSStringPPS_,
                            __ZN8OSAction25CreateWithTypeName_InvokeE5IORPCPFiP8OSObjectyymP8OSStringPPS_E,
                            __ZN8OSAction4WaitEP17OSActionWaitTokenyy,
                            __ZN8OSAction4freeEv,
                            __ZN8OSAction6CancelEU13block_pointerFvvE,
                            __ZN8OSAction6CreateEP8OSObjectyymPPS_,
                            __ZN8OSAction7AbortedEPFiP15OSMetaClassBase5IORPCE,
                            __ZN8OSAction7EndWaitEP17OSActionWaitToken,
                            __ZN8OSAction8DispatchE5IORPC,
                            __ZN8OSAction8WillWaitEPP17OSActionWaitToken,
                            __ZN8OSAction9_DispatchEPS_5IORPC,
                            __ZN8OSBundle10mainBundleEv,
                            __ZN8OSBundle12loadResourceEPKcymPP12OSMappedFile,
                            __ZN8OSBundle14createFromPathEPKc,
                            __ZN8OSBundle4freeEv, __ZN8OSBundle4initEv,
                            __ZN8OSNumber10withNumberEPKcm,
                            __ZN8OSNumber10withNumberEym, __ZN8OSNumber4freeEv,
                            __ZN8OSObject16SetDispatchQueueEPKcP15IODispatchQueuePFiP15OSMetaClassBase5IORPCE,
                            __ZN8OSObject17CopyDispatchQueueEPKcPP15IODispatchQueuePFiP15OSMetaClassBase5IORPCE,
                            __ZN8OSObject23SetDispatchQueue_InvokeE5IORPCP15OSMetaClassBasePFiS2_PKcP15IODispatchQueueE,
                            __ZN8OSObject24CopyDispatchQueue_InvokeE5IORPCP15OSMetaClassBasePFiS2_PKcPP15IODispatchQueueE,
                            __ZN8OSObject4freeEv, __ZN8OSObject4initEv,
                            __ZN8OSObject8DispatchE5IORPC,
                            __ZN8OSObject9_DispatchEPS_5IORPC,
                            __ZN8OSString10withStringEPKS_,
                            __ZN8OSString11withCStringEPKc,
                            __ZN8OSString11withCStringEPKcm,
                            __ZN8OSString17withCStringNoCopyEPKc,
                            __ZN8OSString4freeEv, __ZN9IOCommand12CommandChainEv,
                            __ZN9IOCommand4freeEv, __ZN9IOCommand4initEv,
                            __ZN9IOCommand9FromChainEP11queue_entry,
                            __ZN9IOService10AdjustBusyEiPFiP15OSMetaClassBase5IORPCE,
                            __ZN9IOService10JoinPMTreeEPFiP15OSMetaClassBase5IORPCE,
                            __ZN9IOService10Start_ImplEPS_,
                            __ZN9IOService10Stop_asyncEPS_PFiP15OSMetaClassBase5IORPCE,
                            __ZN9IOService11Create_ImplEPS_PKcPS0_,
                            __ZN9IOService11Stop_InvokeE5IORPCP15OSMetaClassBasePFiS2_PS_E,
                            __ZN9IOService12GetBusyStateEPjPFiP15OSMetaClassBase5IORPCE,
                            __ZN9IOService12Start_InvokeE5IORPCP15OSMetaClassBasePFiS2_PS_E,
                            __ZN9IOService12UpdateReportEP6OSDatajPjyyP18IOMemoryDescriptorPFiP15OSMetaClassBase5IORPCE,
                            __ZN9IOService13ClientCrashedEPS_yPFiP15OSMetaClassBase5IORPCE,
                            __ZN9IOService13Create_InvokeE5IORPCP15OSMetaClassBasePFiS2_PS_PKcPS3_E,
                            __ZN9IOService13NewUserClientEjPP12IOUserClientPFiP15OSMetaClassBase5IORPCE,
                            __ZN9IOService13SetPowerStateEjPFiP15OSMetaClassBase5IORPCE,
                            __ZN9IOService13SetPropertiesEP12OSDictionaryPFiP15OSMetaClassBase5IORPCE,
                            __ZN9IOService14CopyPropertiesEPP12OSDictionaryPFiP15OSMetaClassBase5IORPCE,
                            __ZN9IOService14RemovePropertyEP8OSStringPFiP15OSMetaClassBase5IORPCE,
                            __ZN9IOService14SearchPropertyEPKcS1_yPP11OSContainerPFiP15OSMetaClassBase5IORPCE,
                            __ZN9IOService14SetName_InvokeE5IORPCP15OSMetaClassBasePFiS2_PKcE,
                            __ZN9IOService14_NewUserClientEjP12OSDictionaryPP12IOUserClientPFiP15OSMetaClassBase5IORPCE,
                            __ZN9IOService15ConfigureReportEP6OSDatajPjPFiP15OSMetaClassBase5IORPCE,
                            __ZN9IOService15CopyName_InvokeE5IORPCP15OSMetaClassBasePFiS2_PP8OSStringE,
                            __ZN9IOService15RegisterServiceEPFiP15OSMetaClassBase5IORPCE,
                            __ZN9IOService15Stop_async_ImplEPS_,
                            __ZN9IOService16ChangePowerStateEjPFiP15OSMetaClassBase5IORPCE,
                            __ZN9IOService16SetLegend_InvokeE5IORPCP15OSMetaClassBasePFiS2_P7OSArraybE,
                            __ZN9IOService16StringFromReturnEi,
                            __ZN9IOService16StringFromReturnEiPP8OSStringPFiP15OSMetaClassBase5IORPCE,
                            __ZN9IOService16Terminate_InvokeE5IORPCP15OSMetaClassBasePFiS2_yE,
                            __ZN9IOService17AdjustBusy_InvokeE5IORPCP15OSMetaClassBasePFiS2_iE,
                            __ZN9IOService17JoinPMTree_InvokeE5IORPCP15OSMetaClassBasePFiS2_E,
                            __ZN9IOService17Stop_async_InvokeE5IORPCP15OSMetaClassBasePFvS2_PS_E,
                            __ZN9IOService17UserSetPropertiesEP11OSContainerPFiP15OSMetaClassBase5IORPCE,
                            __ZN9IOService18GetRegistryEntryIDEPyPFiP15OSMetaClassBase5IORPCE,
                            __ZN9IOService18RequireMaxBusStallEyPFiP15OSMetaClassBase5IORPCE,
                            __ZN9IOService18SetPowerState_ImplEj,
                            __ZN9IOService19GetBusyState_InvokeE5IORPCP15OSMetaClassBasePFiS2_PjE,
                            __ZN9IOService19UpdateReport_InvokeE5IORPCP15OSMetaClassBasePFiS2_P6OSDatajPjyyP18IOMemoryDescriptorE,
                            __ZN9IOService19_NewUserClient_ImplEjP12OSDictionaryPP12IOUserClient,
                            __ZN9IOService20ClientCrashed_InvokeE5IORPCP15OSMetaClassBasePFiS2_PS_yE,
                            __ZN9IOService20NewUserClient_InvokeE5IORPCP15OSMetaClassBasePFiS2_jPP12IOUserClientE,
                            __ZN9IOService20SetPowerState_InvokeE5IORPCP15OSMetaClassBasePFiS2_jE,
                            __ZN9IOService20SetProperties_InvokeE5IORPCP15OSMetaClassBasePFiS2_P12OSDictionaryE,
                            __ZN9IOService21CopyProperties_InvokeE5IORPCP15OSMetaClassBasePFiS2_PP12OSDictionaryE,
                            __ZN9IOService21RemoveProperty_InvokeE5IORPCP15OSMetaClassBasePFiS2_P8OSStringE,
                            __ZN9IOService21SearchProperty_InvokeE5IORPCP15OSMetaClassBasePFiS2_PKcS4_yPP11OSContainerE,
                            __ZN9IOService21SetDispatchQueue_ImplEPKcP15IODispatchQueue,
                            __ZN9IOService21_ClaimSystemWakeEventEPS_yPKcP11OSContainerPFiP15OSMetaClassBase5IORPCE,
                            __ZN9IOService21_NewUserClient_InvokeE5IORPCP15OSMetaClassBasePFiS2_jP12OSDictionaryPP12IOUserClientE,
                            __ZN9IOService22ConfigureReport_InvokeE5IORPCP15OSMetaClassBasePFiS2_P6OSDatajPjE,
                            __ZN9IOService22CopyProviderPropertiesEP7OSArrayPS1_PFiP15OSMetaClassBase5IORPCE,
                            __ZN9IOService22CoreAnalyticsSendEventEyP8OSStringP12OSDictionaryPFiP15OSMetaClassBase5IORPCE,
                            __ZN9IOService22RegisterService_InvokeE5IORPCP15OSMetaClassBasePFiS2_E,
                            __ZN9IOService22UserSetProperties_ImplEP11OSContainer,
                            __ZN9IOService23ChangePowerState_InvokeE5IORPCP15OSMetaClassBasePFiS2_jE,
                            __ZN9IOService23GetRegistryEntryID_ImplEPy,
                            __ZN9IOService23StringFromReturn_InvokeE5IORPCP15OSMetaClassBasePFiS2_iPP8OSStringE,
                            __ZN9IOService24StateNotificationItemSetEP8OSStringP12OSDictionaryPFiP15OSMetaClassBase5IORPCE,
                            __ZN9IOService24UserSetProperties_InvokeE5IORPCP15OSMetaClassBasePFiS2_P11OSContainerE,
                            __ZN9IOService25GetRegistryEntryID_InvokeE5IORPCP15OSMetaClassBasePFiS2_PyE,
                            __ZN9IOService25RequireMaxBusStall_InvokeE5IORPCP15OSMetaClassBasePFiS2_yE,
                            __ZN9IOService25StateNotificationItemCopyEP8OSStringPP12OSDictionaryPFiP15OSMetaClassBase5IORPCE,
                            __ZN9IOService26CreateDefaultDispatchQueueEPP15IODispatchQueuePFiP15OSMetaClassBase5IORPCE,
                            __ZN9IOService27StateNotificationItemCreateEP8OSStringP12OSDictionaryPFiP15OSMetaClassBase5IORPCE,
                            __ZN9IOService28CreateNameMatchingDictionaryEP8OSStringP12OSDictionary,
                            __ZN9IOService28CreateNameMatchingDictionaryEPKcP12OSDictionary,
                            __ZN9IOService28_ClaimSystemWakeEvent_InvokeE5IORPCP15OSMetaClassBasePFiS2_PS_yPKcP11OSContainerE,
                            __ZN9IOService29CopyProviderProperties_InvokeE5IORPCP15OSMetaClassBasePFiS2_P7OSArrayPS4_E,
                            __ZN9IOService29CoreAnalyticsSendEvent_InvokeE5IORPCP15OSMetaClassBasePFiS2_yP8OSStringP12OSDictionaryE,
                            __ZN9IOService31CreateDefaultDispatchQueue_ImplEPP15IODispatchQueue,
                            __ZN9IOService31StateNotificationItemSet_InvokeE5IORPCP15OSMetaClassBasePFiS2_P8OSStringP12OSDictionaryE,
                            __ZN9IOService32CreatePropertyMatchingDictionaryEPKcP8OSObjectP12OSDictionary,
                            __ZN9IOService32CreatePropertyMatchingDictionaryEPKcS1_P12OSDictionary,
                            __ZN9IOService32StateNotificationItemCopy_InvokeE5IORPCP15OSMetaClassBasePFiS2_P8OSStringPP12OSDictionaryE,
                            __ZN9IOService33CreateDefaultDispatchQueue_InvokeE5IORPCP15OSMetaClassBasePFiS2_PP15IODispatchQueueE,
                            __ZN9IOService33CreateUserClassMatchingDictionaryEP8OSStringP12OSDictionary,
                            __ZN9IOService33CreateUserClassMatchingDictionaryEPKcP12OSDictionary,
                            __ZN9IOService34CopySystemStateNotificationServiceEPPS_PFiP15OSMetaClassBase5IORPCE,
                            __ZN9IOService34SendIOMessageServicePropertyChangeEPFiP15OSMetaClassBase5IORPCE,
                            __ZN9IOService34StateNotificationItemCreate_InvokeE5IORPCP15OSMetaClassBasePFiS2_P8OSStringP12OSDictionaryE,
                            __ZN9IOService35CreateKernelClassMatchingDictionaryEP8OSStringP12OSDictionary,
                            __ZN9IOService35CreateKernelClassMatchingDictionaryEPKcP12OSDictionary,
                            __ZN9IOService41CopySystemStateNotificationService_InvokeE5IORPCP15OSMetaClassBasePFiS2_PPS_E,
                            __ZN9IOService41SendIOMessageServicePropertyChange_InvokeE5IORPCP15OSMetaClassBasePFiS2_E,
                            __ZN9IOService4StopEPS_PFiP15OSMetaClassBase5IORPCE,
                            __ZN9IOService4freeEv, __ZN9IOService4initEv,
                            __ZN9IOService5StartEPS_PFiP15OSMetaClassBase5IORPCE,
                            __ZN9IOService6CreateEPS_PKcPS0_PFiP15OSMetaClassBase5IORPCE,
                            __ZN9IOService7SetNameEPKcPFiP15OSMetaClassBase5IORPCE,
                            __ZN9IOService8CopyNameEPP8OSStringPFiP15OSMetaClassBase5IORPCE,
                            __ZN9IOService8DispatchE5IORPC,
                            __ZN9IOService9SetLegendEP7OSArraybPFiP15OSMetaClassBase5IORPCE,
                            __ZN9IOService9Stop_ImplEPS_,
                            __ZN9IOService9TerminateEyPFiP15OSMetaClassBase5IORPCE,
                            __ZN9IOService9_DispatchEPS_5IORPC,
                            __ZN9OSBoolean4freeEv,
                            __ZNK12OSCollection14copyCollectionEP12OSDictionary,
                            __ZNK12OSCollection14iterateObjectsEU13block_pointerFbP8OSObjectE,
                            __ZNK12OSDictionary11getCapacityEv,
                            __ZNK12OSDictionary14iterateObjectsEU13block_pointerFbP8OSObjectE,
                            __ZNK12OSDictionary14iterateObjectsEU13block_pointerFbP8OSObjectS1_E,
                            __ZNK12OSDictionary8getCountEv,
                            __ZNK12OSDictionary9getObjectEPK8OSObject,
                            __ZNK12OSDictionary9getObjectEPKc,
                            __ZNK12OSDictionary9isEqualToEPK15OSMetaClassBase,
                            __ZNK12OSDictionary9isEqualToEPKS_,
                            __ZNK12OSDictionary9isEqualToEPKS_PK12OSCollection,
                            __ZNK12OSMappedFile4dataEv,
                            __ZNK12OSMappedFile4sizeEv,
                            __ZNK12OSOrderedSet13getLastObjectEv,
                            __ZNK12OSOrderedSet14getFirstObjectEv,
                            __ZNK15OSMetaClassBase12GetClassNameEv,
                            __ZNK15OSMetaClassBase12getMetaClassEv,
                            __ZNK15OSMetaClassBase13RemotePrivateEv,
                            __ZNK15OSMetaClassBase14getRetainCountEv,
                            __ZNK15OSMetaClassBase6retainEv,
                            __ZNK15OSMetaClassBase7PrivateEv,
                            __ZNK15OSMetaClassBase7releaseEv,
                            __ZNK15OSMetaClassBase9isEqualToEPKS_,
                            __ZNK5OSSet12getAnyObjectEv,
                            __ZNK5OSSet14containsObjectEPK15OSMetaClassBase,
                            __ZNK5OSSet6memberEPK15OSMetaClassBase,
                            __ZNK6OSData11getCapacityEv,
                            __ZNK6OSData14getBytesNoCopyEmm,
                            __ZNK6OSData14getBytesNoCopyEv,
                            __ZNK6OSData9getLengthEv,
                            __ZNK6OSData9isEqualToEPK15OSMetaClassBase,
                            __ZNK6OSData9isEqualToEPK8OSString,
                            __ZNK6OSData9isEqualToEPKS_,
                            __ZNK6OSData9isEqualToEPKvm,
                            __ZNK7OSArray11getCapacityEv,
                            __ZNK7OSArray13getLastObjectEv,
                            __ZNK7OSArray14iterateObjectsEU13block_pointerFbP8OSObjectE,
                            __ZNK7OSArray20getNextIndexOfObjectEPK15OSMetaClassBasej,
                            __ZNK7OSArray8getCountEv, __ZNK7OSArray9getObjectEj,
                            __ZNK7OSArray9isEqualToEPK15OSMetaClassBase,
                            __ZNK7OSArray9isEqualToEPKS_,
                            __ZNK8OSNumber12numberOfBitsEv,
                            __ZNK8OSNumber17unsigned8BitValueEv,
                            __ZNK8OSNumber18unsigned16BitValueEv,
                            __ZNK8OSNumber18unsigned32BitValueEv,
                            __ZNK8OSNumber18unsigned64BitValueEv,
                            __ZNK8OSNumber9isEqualToEPK15OSMetaClassBase,
                            __ZNK8OSNumber9isEqualToEPKS_,
                            __ZNK8OSObject6retainEv, __ZNK8OSObject7releaseEv,
                            __ZNK8OSString16getCStringNoCopyEv,
                            __ZNK8OSString9getLengthEv,
                            __ZNK8OSString9isEqualToEPK15OSMetaClassBase,
                            __ZNK8OSString9isEqualToEPK6OSData,
                            __ZNK8OSString9isEqualToEPKS_,
                            __ZNK8OSString9isEqualToEPKc,
                            __ZNK9IOService11GetProviderEv,
                            __ZNK9OSBoolean6retainEv, __ZNK9OSBoolean7releaseEv,
                            __ZTV10IOReporter, __ZTV11IOEventLink,
                            __ZTV11IOMemoryMap, __ZTV11IOWorkGroup,
                            __ZTV12IODMACommand, __ZTV12IOUserClient,
                            __ZTV12IOUserServer, __ZTV12OSCollection,
                            __ZTV12OSDictionary, __ZTV12OSMappedFile,
                            __ZTV12OSOrderedSet, __ZTV13IOCommandPool,
                            __ZTV14IOReportLegend, __ZTV14OSSetMetaClass,
                            __ZTV15IODispatchQueue, __ZTV15OSDataMetaClass,
                            __ZTV15OSMetaClassBase, __ZTV15OSSerialization,
                            __ZTV16IODispatchSource, __ZTV16IOReporter_IVars,
                            __ZTV16OSArrayMetaClass, __ZTV17IOThreadMetaClass,
                            __ZTV17OSActionMetaClass, __ZTV17OSBundleMetaClass,
                            __ZTV17OSNumberMetaClass, __ZTV17OSObjectMetaClass,
                            __ZTV17OSStringMetaClass, __ZTV18IOCommandMetaClass,
                            __ZTV18IOMemoryDescriptor, __ZTV18IOServiceMetaClass,
                            __ZTV18OSBooleanMetaClass,
                            __ZTV19IOReporterMetaClass,
                            __ZTV20IOEventLinkMetaClass,
                            __ZTV20IOMemoryMapMetaClass,
                            __ZTV20IOWorkGroupMetaClass,
                            __ZTV20OSContainerMetaClass,
                            __ZTV21IODMACommandMetaClass,
                            __ZTV21IOStateReporter_IVars,
                            __ZTV21IOTimerDispatchSource,
                            __ZTV21IOUserClientMetaClass,
                            __ZTV21IOUserServerMetaClass,
                            __ZTV21OSCollectionMetaClass,
                            __ZTV21OSDictionaryMetaClass,
                            __ZTV21OSMappedFileMetaClass,
                            __ZTV21OSOrderedSetMetaClass,
                            __ZTV21_IOBlockStorageDevice,
                            __ZTV22IOCommandPoolMetaClass,
                            __ZTV23IOReportLegendMetaClass,
                            __ZTV24IOBufferMemoryDescriptor,
                            __ZTV24IODispatchQueueMetaClass,
                            __ZTV24IOStateReporterMetaClass,
                            __ZTV24OSSerializationMetaClass,
                            __ZTV25IODataQueueDispatchSource,
                            __ZTV25IODispatchSourceMetaClass,
                            __ZTV25IOHistogramReporter_IVars,
                            __ZTV25IOInterruptDispatchSource,
                            __ZTV25IOSimpleReporterMetaClass,
                            __ZTV27IOMemoryDescriptorMetaClass,
                            __ZTV28IOHistogramReporterMetaClass,
                            __ZTV30IOTimerDispatchSourceMetaClass,
                            __ZTV30_IOBlockStorageDeviceMetaClass,
                            __ZTV33IOBufferMemoryDescriptorMetaClass,
                            __ZTV34IODataQueueDispatchSourceMetaClass,
                            __ZTV34IOInterruptDispatchSourceMetaClass,
                            __ZTV35IOServiceNotificationDispatchSource,
                            __ZTV38OSAction_IOUserClient_KernelCompletion,
                            __ZTV40IOServiceStateNotificationDispatchSource,
                            __ZTV44IOServiceNotificationDispatchSourceMetaClass,
                            __ZTV47OSAction_IOUserClient_KernelCompletionMetaClass,
                            __ZTV47OSAction__IOBlockStorageDevice_KernelCompletion,
                            __ZTV49IOServiceStateNotificationDispatchSourceMetaClass,
                            __ZTV56OSAction__IOBlockStorageDevice_KernelCompletionMetaClass,
                            __ZTV5OSSet, __ZTV6OSData, __ZTV7OSArray, __ZTV8IOThread,
                            __ZTV8OSAction, __ZTV8OSBundle, __ZTV8OSNumber,
                            __ZTV8OSObject, __ZTV8OSString, __ZTV9IOCommand,
                            __ZTV9IOService, __ZTV9OSBoolean,
                            __ZThn24_N10IOReporter4freeEv,
                            __ZThn24_N11IOEventLink4freeEv,
                            __ZThn24_N11IOEventLink4initEv,
                            __ZThn24_N11IOMemoryMap4freeEv,
                            __ZThn24_N11IOMemoryMap4initEv,
                            __ZThn24_N11IOWorkGroup4freeEv,
                            __ZThn24_N11IOWorkGroup4initEv,
                            __ZThn24_N12IODMACommand4freeEv,
                            __ZThn24_N12IODMACommand4initEv,
                            __ZThn24_N12IOUserClient4freeEv,
                            __ZThn24_N12IOUserClient4initEv,
                            __ZThn24_N12IOUserServer4freeEv,
                            __ZThn24_N12IOUserServer4initEv,
                            __ZThn24_N12OSDictionary4freeEv,
                            __ZThn24_N12OSMappedFile4freeEv,
                            __ZThn24_N12OSMappedFile4initEv,
                            __ZThn24_N12OSOrderedSet4freeEv,
                            __ZThn24_N12OSOrderedSet4initEv,
                            __ZThn24_N13IOCommandPool4freeEv,
                            __ZThn24_N13IOCommandPool4initEv,
                            __ZThn24_N14IOReportLegend4freeEv,
                            __ZThn24_N15IODispatchQueue4freeEv,
                            __ZThn24_N15IODispatchQueue4initEv,
                            __ZThn24_N15OSSerialization4freeEv,
                            __ZThn24_N16IODispatchSource4freeEv,
                            __ZThn24_N16IODispatchSource4initEv,
                            __ZThn24_N18IOMemoryDescriptor4freeEv,
                            __ZThn24_N18IOMemoryDescriptor4initEv,
                            __ZThn24_N21IOTimerDispatchSource4freeEv,
                            __ZThn24_N21IOTimerDispatchSource4initEv,
                            __ZThn24_N24IOBufferMemoryDescriptor4freeEv,
                            __ZThn24_N24IOBufferMemoryDescriptor4initEv,
                            __ZThn24_N25IODataQueueDispatchSource4freeEv,
                            __ZThn24_N25IODataQueueDispatchSource4initEv,
                            __ZThn24_N25IOInterruptDispatchSource4freeEv,
                            __ZThn24_N25IOInterruptDispatchSource4initEv,
                            __ZThn24_N35IOServiceNotificationDispatchSource4freeEv,
                            __ZThn24_N35IOServiceNotificationDispatchSource4initEv,
                            __ZThn24_N40IOServiceStateNotificationDispatchSource4freeEv,
                            __ZThn24_N40IOServiceStateNotificationDispatchSource4initEv,
                            __ZThn24_N5OSSet4initEv, __ZThn24_N6OSData4freeEv,
                            __ZThn24_N7OSArray4freeEv,
                            __ZThn24_N8IOThread4freeEv,
                            __ZThn24_N8IOThread4initEv,
                            __ZThn24_N8OSAction4freeEv,
                            __ZThn24_N8OSBundle4freeEv,
                            __ZThn24_N8OSBundle4initEv,
                            __ZThn24_N8OSNumber4freeEv,
                            __ZThn24_N8OSObject4freeEv,
                            __ZThn24_N8OSObject4initEv,
                            __ZThn24_N8OSString4freeEv,
                            __ZThn24_N9IOCommand4freeEv,
                            __ZThn24_N9IOCommand4initEv,
                            __ZThn24_N9IOService4freeEv,
                            __ZThn24_N9IOService4initEv,
                            __ZThn24_N9OSBoolean4freeEv,
                            __ZThn40_N13IOCommandPool10getCommandEb,
                            __ZThn40_N13IOCommandPool13initWithQueueEP15IODispatchQueue,
                            __ZThn40_N13IOCommandPool13returnCommandEP9IOCommand,
                            __ZThn40_N13IOCommandPool15gatedGetCommandEPP9IOCommandb,
                            __ZThn40_N13IOCommandPool18gatedReturnCommandEP9IOCommand,
                            __ZThn48_N12IOUserClient14ExternalMethodEyP27IOUserClientMethodArgumentsPK26IOUserClientMethodDispatchP8OSObjectPv,
                            __ZThn48_N12OSDictionary14ensureCapacityEj,
                            __ZThn48_N12OSDictionary15flushCollectionEv,
                            __ZThn48_N7OSArray14ensureCapacityEj,
                            __ZThn48_N7OSArray15flushCollectionEv,
                            __ZThn48_NK12OSCollection14copyCollectionEP12OSDictionary,
                            __ZThn48_NK12OSCollection14iterateObjectsEU13block_pointerFbP8OSObjectE,
                            __ZThn48_NK12OSDictionary11getCapacityEv,
                            __ZThn48_NK12OSDictionary14iterateObjectsEU13block_pointerFbP8OSObjectE,
                            __ZThn48_NK12OSDictionary8getCountEv,
                            __ZThn48_NK7OSArray11getCapacityEv,
                            __ZThn48_NK7OSArray14iterateObjectsEU13block_pointerFbP8OSObjectE,
                            __ZThn48_NK7OSArray8getCountEv, ___Libm_version,
                            ____chkstk_darwin, ____runetype, ____tolower,
                            ____toupper, ___assert_rtn, ___atomic_compare_exchange,
                            ___atomic_compare_exchange_1,
                            ___atomic_compare_exchange_2,
                            ___atomic_compare_exchange_4,
                            ___atomic_compare_exchange_8, ___atomic_exchange,
                            ___atomic_exchange_1, ___atomic_exchange_2,
                            ___atomic_exchange_4, ___atomic_exchange_8,
                            ___atomic_fetch_add_1, ___atomic_fetch_add_2,
                            ___atomic_fetch_add_4, ___atomic_fetch_add_8,
                            ___atomic_fetch_and_1, ___atomic_fetch_and_2,
                            ___atomic_fetch_and_4, ___atomic_fetch_and_8,
                            ___atomic_fetch_or_1, ___atomic_fetch_or_2,
                            ___atomic_fetch_or_4, ___atomic_fetch_or_8,
                            ___atomic_fetch_sub_1, ___atomic_fetch_sub_2,
                            ___atomic_fetch_sub_4, ___atomic_fetch_sub_8,
                            ___atomic_fetch_xor_1, ___atomic_fetch_xor_2,
                            ___atomic_fetch_xor_4, ___atomic_fetch_xor_8,
                            ___atomic_is_lock_free, ___atomic_load,
                            ___atomic_load_1, ___atomic_load_2, ___atomic_load_4,
                            ___atomic_load_8, ___atomic_store, ___atomic_store_1,
                            ___atomic_store_2, ___atomic_store_4,
                            ___atomic_store_8, ___chkstk_darwin, ___clzti2,
                            ___cos_d2, ___cos_f4, ___cospi, ___cospif, ___divti3,
                            ___exp10, ___exp10f, ___extendhfsf2, ___fegetfltrounds,
                            ___fixdfti, ___fixsfti, ___fixunsdfti, ___fixunssfti,
                            ___floattidf, ___floattisf, ___floatuntidf,
                            ___floatuntisf, ___fpclassifyd, ___fpclassifyf,
                            ___fpclassifyl, ___gnu_f2h_ieee, ___gnu_h2f_ieee,
                            ___inline_isfinited, ___inline_isfinitef,
                            ___inline_isfinitel, ___inline_isinfd,
                            ___inline_isinff, ___inline_isinfl, ___inline_isnand,
                            ___inline_isnanf, ___inline_isnanl,
                            ___inline_isnormald, ___inline_isnormalf,
                            ___inline_isnormall, ___inline_signbitd,
                            ___inline_signbitf, ___inline_signbitl, ___invert_d2,
                            ___invert_d3, ___invert_d4, ___invert_f2, ___invert_f3,
                            ___invert_f4, ___isPlatformVersionAtLeast,
                            ___isfinited, ___isfinitef, ___isfinitel, ___isinfd,
                            ___isinff, ___isinfl, ___isnand, ___isnanf, ___isnanl,
                            ___isnormald, ___isnormalf, ___isnormall, ___maskrune,
                            ___math_errhandling, ___mb_cur_max, ___memccpy_chk,
                            ___memcpy_chk, ___memmove_chk, ___memset_chk, ___modti3,
                            ___muldc3, ___mulsc3, ___powidf2, ___powisf2, ___signbitd,
                            ___signbitf, ___signbitl, ___sin_d2, ___sin_f4, ___sincos,
                            ___sincos_stret, ___sincosf, ___sincosf_stret,
                            ___sincospi, ___sincospi_stret, ___sincospif,
                            ___sincospif_stret, ___sinpi, ___sinpif, ___snprintf_chk,
                            ___stack_chk_fail, ___stack_chk_guard, ___stpncpy_chk,
                            ___strlcat_chk, ___strlcpy_chk, ___strncat_chk,
                            ___strncpy_chk, ___tanpi, ___tanpif, ___tolower,
                            ___toupper, ___truncdfhf2, ___truncsfhf2, ___udivmodti4,
                            ___udivti3, ___umodti3, ___vsnprintf_chk,
                            __os_log_default, __os_log_impl, __simd_acos_d2,
                            __simd_acos_f4, __simd_acosh_d2, __simd_acosh_f4,
                            __simd_asin_d2, __simd_asin_f4, __simd_asinh_d2,
                            __simd_asinh_f4, __simd_atan2_d2, __simd_atan2_f4,
                            __simd_atan_d2, __simd_atan_f4, __simd_atanh_d2,
                            __simd_atanh_f4, __simd_cbrt_d2, __simd_cbrt_f4,
                            __simd_cos_d2, __simd_cos_f4, __simd_cosh_d2,
                            __simd_cosh_f4, __simd_cospi_d2, __simd_cospi_f4,
                            __simd_erf_d2, __simd_erf_f4, __simd_erfc_d2,
                            __simd_erfc_f4, __simd_exp10_d2, __simd_exp10_f4,
                            __simd_exp2_d2, __simd_exp2_f4, __simd_exp_d2,
                            __simd_exp_f4, __simd_expm1_d2, __simd_expm1_f4,
                            __simd_fma_d2, __simd_fma_f4, __simd_fmod_d2,
                            __simd_fmod_f4, __simd_hypot_d2, __simd_hypot_f4,
                            __simd_incircle_pd2, __simd_incircle_pf2,
                            __simd_insphere_pd3, __simd_insphere_pf3,
                            __simd_lgamma_d2, __simd_lgamma_f4, __simd_log10_d2,
                            __simd_log10_f4, __simd_log1p_d2, __simd_log1p_f4,
                            __simd_log2_d2, __simd_log2_f4, __simd_log_d2,
                            __simd_log_f4, __simd_nextafter_d2,
                            __simd_nextafter_f4, __simd_orient_pd2,
                            __simd_orient_pd3, __simd_orient_pf2,
                            __simd_orient_pf3, __simd_orient_vd2,
                            __simd_orient_vd3, __simd_orient_vf2,
                            __simd_orient_vf3, __simd_pow_d2, __simd_pow_f4,
                            __simd_remainder_d2, __simd_remainder_f4,
                            __simd_round_d2, __simd_round_f4, __simd_sin_d2,
                            __simd_sin_f4, __simd_sincos_d2, __simd_sincos_f4,
                            __simd_sincospi_d2, __simd_sincospi_f4, __simd_sinh_d2,
                            __simd_sinh_f4, __simd_sinpi_d2, __simd_sinpi_f4,
                            __simd_tan_d2, __simd_tan_f4, __simd_tanh_d2,
                            __simd_tanh_f4, __simd_tanpi_d2, __simd_tanpi_f4,
                            __simd_tgamma_d2, __simd_tgamma_f4, _abort, _abs,
                            _absolutetime_to_continuoustime,
                            _absolutetime_to_nanoseconds, _acos, _acosf, _acosh,
                            _acoshf, _acoshl, _acosl, _aes_decrypt,
                            _aes_decrypt_aad_gcm, _aes_decrypt_cbc,
                            _aes_decrypt_finalize_gcm, _aes_decrypt_gcm,
                            _aes_decrypt_get_ctx_size_gcm,
                            _aes_decrypt_inc_iv_gcm, _aes_decrypt_key,
                            _aes_decrypt_key128, _aes_decrypt_key256,
                            _aes_decrypt_key_gcm, _aes_decrypt_key_with_iv_gcm,
                            _aes_decrypt_reset_gcm, _aes_decrypt_set_iv_gcm,
                            _aes_encrypt, _aes_encrypt_aad_gcm, _aes_encrypt_cbc,
                            _aes_encrypt_finalize_gcm, _aes_encrypt_gcm,
                            _aes_encrypt_get_ctx_size_gcm,
                            _aes_encrypt_inc_iv_gcm, _aes_encrypt_key,
                            _aes_encrypt_key128, _aes_encrypt_key256,
                            _aes_encrypt_key_gcm, _aes_encrypt_key_with_iv_gcm,
                            _aes_encrypt_reset_gcm, _aes_encrypt_set_iv_gcm,
                            _arc4random, _arc4random_buf, _arc4random_stir,
                            _arc4random_uniform, _asin, _asinf, _asinh, _asinhf, _asinhl,
                            _asinl, _asprintf, _atan, _atan2, _atan2f, _atan2l, _atanf,
                            _atanh, _atanhf, _atanhl, _atanl, _atof, _atoi, _atol, _atoll,
                            _atomic_flag_clear, _atomic_flag_clear_explicit,
                            _atomic_flag_test_and_set,
                            _atomic_flag_test_and_set_explicit,
                            _atomic_signal_fence, _atomic_thread_fence, _bcmp,
                            _bcopy, _bsearch, _bsearch_b, _btowc, _bzero, _cabs, _cabsf,
                            _cabsl, _cacos, _cacosf, _cacosh, _cacoshf, _cacoshl, _cacosl,
                            _carg, _cargf, _cargl, _casin, _casinf, _casinh, _casinhf,
                            _casinhl, _casinl, _catan, _catanf, _catanh, _catanhf,
                            _catanhl, _catanl, _cbrt, _cbrtf, _cbrtl, _cc_abort,
                            _cc_atfork_child, _cc_atfork_parent,
                            _cc_atfork_prepare, _cc_clear, _cc_cmp_safe,
                            _cc_impl_name, _cc_try_abort, _cc_try_abort_if,
                            _ccaes_arm_cbc_decrypt_mode,
                            _ccaes_arm_cbc_encrypt_mode,
                            _ccaes_arm_cfb_decrypt_mode,
                            _ccaes_arm_cfb_encrypt_mode,
                            _ccaes_arm_ecb_decrypt_mode,
                            _ccaes_arm_ecb_encrypt_mode,
                            _ccaes_arm_ofb_crypt_mode,
                            _ccaes_arm_xts_decrypt_mode,
                            _ccaes_arm_xts_encrypt_mode, _ccaes_cbc_decrypt_mode,
                            _ccaes_cbc_encrypt_mode, _ccaes_ccm_decrypt_mode,
                            _ccaes_ccm_encrypt_mode, _ccaes_cfb8_decrypt_mode,
                            _ccaes_cfb8_encrypt_mode, _ccaes_cfb_decrypt_mode,
                            _ccaes_cfb_encrypt_mode, _ccaes_ctr_crypt_mode,
                            _ccaes_ecb_decrypt_mode, _ccaes_ecb_encrypt_mode,
                            _ccaes_gcm_decrypt_mode, _ccaes_gcm_encrypt_mode,
                            _ccaes_gladman_cbc_decrypt_mode,
                            _ccaes_gladman_cbc_encrypt_mode,
                            _ccaes_ltc_ecb_decrypt_mode,
                            _ccaes_ltc_ecb_encrypt_mode, _ccaes_ofb_crypt_mode,
                            _ccaes_siv_decrypt_mode, _ccaes_siv_encrypt_mode,
                            _ccaes_siv_hmac_sha256_decrypt_mode,
                            _ccaes_siv_hmac_sha256_encrypt_mode, _ccaes_unwind,
                            _ccaes_xts_decrypt_mode, _ccaes_xts_encrypt_mode,
                            _ccansikdf_x963,
                            _ccapsic_client_check_intersect_response,
                            _ccapsic_client_generate_match_response,
                            _ccapsic_client_init, _ccapsic_client_state_sizeof,
                            _ccapsic_server_determine_intersection,
                            _ccapsic_server_encode_element, _ccapsic_server_init,
                            _ccapsic_server_state_sizeof,
                            _ccblowfish_cbc_decrypt_mode,
                            _ccblowfish_cbc_encrypt_mode,
                            _ccblowfish_cfb8_decrypt_mode,
                            _ccblowfish_cfb8_encrypt_mode,
                            _ccblowfish_cfb_decrypt_mode,
                            _ccblowfish_cfb_encrypt_mode,
                            _ccblowfish_ctr_crypt_mode,
                            _ccblowfish_ecb_decrypt_mode,
                            _ccblowfish_ecb_encrypt_mode,
                            _ccblowfish_ofb_crypt_mode, _cccast_cbc_decrypt_mode,
                            _cccast_cbc_encrypt_mode, _cccast_cfb8_decrypt_mode,
                            _cccast_cfb8_encrypt_mode, _cccast_cfb_decrypt_mode,
                            _cccast_cfb_encrypt_mode, _cccast_ctr_crypt_mode,
                            _cccast_ecb_decrypt_mode, _cccast_ecb_encrypt_mode,
                            _cccast_ofb_crypt_mode, _cccbc_block_size,
                            _cccbc_clear_iv, _cccbc_context_size, _cccbc_copy_iv,
                            _cccbc_init, _cccbc_one_shot, _cccbc_set_iv,
                            _cccbc_update, _ccccm_aad, _ccccm_block_size,
                            _ccccm_cbcmac, _ccccm_context_size, _ccccm_decrypt,
                            _ccccm_encrypt, _ccccm_finalize,
                            _ccccm_finalize_and_generate_tag,
                            _ccccm_finalize_and_verify_tag, _ccccm_init,
                            _ccccm_one_shot, _ccccm_one_shot_decrypt,
                            _ccccm_one_shot_encrypt, _ccccm_reset, _ccccm_set_iv,
                            _ccccm_update, _cccfb8_block_size,
                            _cccfb8_context_size, _cccfb8_init, _cccfb8_one_shot,
                            _cccfb8_update, _cccfb_block_size, _cccfb_context_size,
                            _cccfb_init, _cccfb_one_shot, _cccfb_update, _ccchacha20,
                            _ccchacha20_final, _ccchacha20_init, _ccchacha20_reset,
                            _ccchacha20_setcounter, _ccchacha20_setnonce,
                            _ccchacha20_update, _ccchacha20poly1305_aad,
                            _ccchacha20poly1305_decrypt,
                            _ccchacha20poly1305_decrypt_oneshot,
                            _ccchacha20poly1305_encrypt,
                            _ccchacha20poly1305_encrypt_oneshot,
                            _ccchacha20poly1305_finalize,
                            _ccchacha20poly1305_incnonce,
                            _ccchacha20poly1305_info, _ccchacha20poly1305_init,
                            _ccchacha20poly1305_reset,
                            _ccchacha20poly1305_setnonce,
                            _ccchacha20poly1305_verify,
                            _ccckg_contributor_commit, _ccckg_contributor_finish,
                            _ccckg_init, _ccckg_owner_finish,
                            _ccckg_owner_generate_share,
                            _ccckg_sizeof_commitment, _ccckg_sizeof_ctx,
                            _ccckg_sizeof_opening, _ccckg_sizeof_share,
                            _cccmac_final_generate, _cccmac_final_verify,
                            _cccmac_init, _cccmac_one_shot_generate,
                            _cccmac_one_shot_verify, _cccmac_update,
                            _ccctr_block_size, _ccctr_context_size, _ccctr_init,
                            _ccctr_one_shot, _ccctr_update, _cccurve25519,
                            _ccder_blob_decode_bitstring,
                            _ccder_blob_decode_eckey, _ccder_blob_decode_len,
                            _ccder_blob_decode_len_strict,
                            _ccder_blob_decode_oid, _ccder_blob_decode_range,
                            _ccder_blob_decode_range_strict,
                            _ccder_blob_decode_seqii,
                            _ccder_blob_decode_seqii_strict,
                            _ccder_blob_decode_sequence_tl,
                            _ccder_blob_decode_sequence_tl_strict,
                            _ccder_blob_decode_tag, _ccder_blob_decode_tl,
                            _ccder_blob_decode_tl_strict,
                            _ccder_blob_decode_uint, _ccder_blob_decode_uint64,
                            _ccder_blob_decode_uint_n,
                            _ccder_blob_decode_uint_strict,
                            _ccder_blob_encode_body, _ccder_blob_encode_body_tl,
                            _ccder_blob_encode_eckey,
                            _ccder_blob_encode_implicit_integer,
                            _ccder_blob_encode_implicit_octet_string,
                            _ccder_blob_encode_implicit_raw_octet_string,
                            _ccder_blob_encode_implicit_uint64,
                            _ccder_blob_encode_integer, _ccder_blob_encode_len,
                            _ccder_blob_encode_octet_string,
                            _ccder_blob_encode_oid,
                            _ccder_blob_encode_raw_octet_string,
                            _ccder_blob_encode_tag, _ccder_blob_encode_tl,
                            _ccder_blob_encode_uint64, _ccder_blob_reserve,
                            _ccder_blob_reserve_tl, _ccder_decode_bitstring,
                            _ccder_decode_constructed_tl,
                            _ccder_decode_constructed_tl_strict,
                            _ccder_decode_dhparam_n, _ccder_decode_dhparams,
                            _ccder_decode_eckey, _ccder_decode_len,
                            _ccder_decode_len_strict, _ccder_decode_oid,
                            _ccder_decode_rsa_priv, _ccder_decode_rsa_priv_n,
                            _ccder_decode_rsa_pub, _ccder_decode_rsa_pub_n,
                            _ccder_decode_rsa_pub_x509,
                            _ccder_decode_rsa_pub_x509_n, _ccder_decode_seqii,
                            _ccder_decode_seqii_strict,
                            _ccder_decode_sequence_tl,
                            _ccder_decode_sequence_tl_strict, _ccder_decode_tag,
                            _ccder_decode_tl, _ccder_decode_tl_strict,
                            _ccder_decode_uint, _ccder_decode_uint64,
                            _ccder_decode_uint_n, _ccder_decode_uint_strict,
                            _ccder_encode_body, _ccder_encode_body_nocopy,
                            _ccder_encode_constructed_tl, _ccder_encode_dhparams,
                            _ccder_encode_dhparams_size, _ccder_encode_eckey,
                            _ccder_encode_eckey_size,
                            _ccder_encode_implicit_integer,
                            _ccder_encode_implicit_octet_string,
                            _ccder_encode_implicit_raw_octet_string,
                            _ccder_encode_implicit_uint64, _ccder_encode_integer,
                            _ccder_encode_len, _ccder_encode_octet_string,
                            _ccder_encode_oid, _ccder_encode_raw_octet_string,
                            _ccder_encode_rsa_priv, _ccder_encode_rsa_priv_size,
                            _ccder_encode_rsa_pub, _ccder_encode_rsa_pub_size,
                            _ccder_encode_tag, _ccder_encode_tl,
                            _ccder_encode_uint64, _ccder_sizeof,
                            _ccder_sizeof_eckey, _ccder_sizeof_implicit_integer,
                            _ccder_sizeof_implicit_octet_string,
                            _ccder_sizeof_implicit_raw_octet_string,
                            _ccder_sizeof_implicit_raw_octet_string_overflow,
                            _ccder_sizeof_implicit_uint64, _ccder_sizeof_integer,
                            _ccder_sizeof_len, _ccder_sizeof_octet_string,
                            _ccder_sizeof_oid, _ccder_sizeof_overflow,
                            _ccder_sizeof_raw_octet_string, _ccder_sizeof_tag,
                            _ccder_sizeof_uint64, _ccdes3_cbc_decrypt_mode,
                            _ccdes3_cbc_encrypt_mode, _ccdes3_cfb8_decrypt_mode,
                            _ccdes3_cfb8_encrypt_mode, _ccdes3_cfb_decrypt_mode,
                            _ccdes3_cfb_encrypt_mode, _ccdes3_ctr_crypt_mode,
                            _ccdes3_ecb_decrypt_mode, _ccdes3_ecb_encrypt_mode,
                            _ccdes3_ltc_ecb_decrypt_mode,
                            _ccdes3_ltc_ecb_encrypt_mode, _ccdes3_ofb_crypt_mode,
                            _ccdes_cbc_cksum, _ccdes_cbc_decrypt_mode,
                            _ccdes_cbc_encrypt_mode, _ccdes_cfb8_decrypt_mode,
                            _ccdes_cfb8_encrypt_mode, _ccdes_cfb_decrypt_mode,
                            _ccdes_cfb_encrypt_mode, _ccdes_ctr_crypt_mode,
                            _ccdes_ecb_decrypt_mode, _ccdes_ecb_encrypt_mode,
                            _ccdes_key_is_weak, _ccdes_key_set_odd_parity,
                            _ccdes_ofb_crypt_mode, _ccdh_compute_shared_secret,
                            _ccdh_export_pub, _ccdh_generate_key,
                            _ccdh_gp_apple768, _ccdh_gp_rfc2409group02,
                            _ccdh_gp_rfc3526group05, _ccdh_gp_rfc3526group14,
                            _ccdh_gp_rfc3526group15, _ccdh_gp_rfc3526group16,
                            _ccdh_gp_rfc3526group17, _ccdh_gp_rfc3526group18,
                            _ccdh_gp_rfc5114_MODP_1024_160,
                            _ccdh_gp_rfc5114_MODP_2048_224,
                            _ccdh_gp_rfc5114_MODP_2048_256, _ccdh_gp_size,
                            _ccdh_import_full, _ccdh_import_priv, _ccdh_import_pub,
                            _ccdh_init_gp_from_bytes,
                            _ccdh_init_safe_gp_from_bytes, _ccdigest,
                            _ccdigest_init, _ccdigest_oid_lookup, _ccdigest_update,
                            _ccdrbg_df_bc_init, _ccdrbg_factory_nistctr,
                            _ccdrbg_factory_nisthmac, _ccdrbg_must_reseed,
                            _ccec_blind, _ccec_compact_export,
                            _ccec_compact_export_pub, _ccec_compact_generate_key,
                            _ccec_compact_generate_key_init,
                            _ccec_compact_generate_key_step,
                            _ccec_compact_import_priv,
                            _ccec_compact_import_priv_size,
                            _ccec_compact_import_pub,
                            _ccec_compact_import_pub_size,
                            _ccec_compact_transform_key,
                            _ccec_compressed_x962_export_pub,
                            _ccec_compressed_x962_export_pub_size,
                            _ccec_compressed_x962_import_pub, _ccec_compute_key,
                            _ccec_cp_192, _ccec_cp_224, _ccec_cp_256, _ccec_cp_384,
                            _ccec_cp_521, _ccec_curve_for_length_lookup,
                            _ccec_der_export_diversified_pub,
                            _ccec_der_export_diversified_pub_size,
                            _ccec_der_export_priv, _ccec_der_export_priv_size,
                            _ccec_der_import_diversified_pub,
                            _ccec_der_import_priv, _ccec_der_import_priv_keytype,
                            _ccec_diversify_min_entropy_len,
                            _ccec_diversify_priv_twin, _ccec_diversify_pub,
                            _ccec_diversify_pub_twin, _ccec_export_affine_point,
                            _ccec_export_affine_point_size, _ccec_export_pub,
                            _ccec_extract_rs, _ccec_generate_blinding_keys,
                            _ccec_generate_key, _ccec_generate_key_deterministic,
                            _ccec_generate_key_fips, _ccec_generate_key_legacy,
                            _ccec_get_cp, _ccec_get_fullkey_components,
                            _ccec_get_pubkey_components,
                            _ccec_import_affine_point, _ccec_import_pub,
                            _ccec_is_compactable_pub, _ccec_keysize_is_supported,
                            _ccec_make_priv, _ccec_make_pub,
                            _ccec_pairwise_consistency_check,
                            _ccec_print_full_key, _ccec_print_public_key,
                            _ccec_raw_import_priv_only, _ccec_raw_import_pub,
                            _ccec_rfc6637_dh_curve_p256,
                            _ccec_rfc6637_dh_curve_p521,
                            _ccec_rfc6637_unwrap_key,
                            _ccec_rfc6637_unwrap_sha256_kek_aes128,
                            _ccec_rfc6637_unwrap_sha512_kek_aes256,
                            _ccec_rfc6637_wrap_key,
                            _ccec_rfc6637_wrap_key_diversified,
                            _ccec_rfc6637_wrap_key_size,
                            _ccec_rfc6637_wrap_sha256_kek_aes128,
                            _ccec_rfc6637_wrap_sha512_kek_aes256, _ccec_sign,
                            _ccec_sign_composite, _ccec_sign_composite_msg,
                            _ccec_sign_msg, _ccec_signature_r_s_size,
                            _ccec_unblind, _ccec_validate_pub, _ccec_verify,
                            _ccec_verify_composite,
                            _ccec_verify_composite_digest,
                            _ccec_verify_composite_msg, _ccec_verify_digest,
                            _ccec_verify_msg, _ccec_x963_export,
                            _ccec_x963_import_priv, _ccec_x963_import_priv_size,
                            _ccec_x963_import_pub, _ccec_x963_import_pub_size,
                            _ccecb_block_size, _ccecb_context_size, _ccecb_init,
                            _ccecb_one_shot, _ccecb_update,
                            _ccecdh_compute_shared_secret, _ccecdh_generate_key,
                            _ccecies_decrypt_gcm, _ccecies_decrypt_gcm_composite,
                            _ccecies_decrypt_gcm_from_shared_secret,
                            _ccecies_decrypt_gcm_plaintext_size,
                            _ccecies_decrypt_gcm_plaintext_size_cp,
                            _ccecies_decrypt_gcm_setup, _ccecies_encrypt_gcm,
                            _ccecies_encrypt_gcm_ciphertext_size,
                            _ccecies_encrypt_gcm_composite,
                            _ccecies_encrypt_gcm_from_shared_secret,
                            _ccecies_encrypt_gcm_setup, _ccecies_import_eph_pub,
                            _ccecies_pub_key_size, _ccecies_pub_key_size_cp,
                            _cced25519_make_key_pair, _cced25519_make_pub,
                            _cced25519_sign, _cced25519_verify,
                            _ccentropy_add_entropy, _ccentropy_digest_init,
                            _ccentropy_get_seed, _ccentropy_rng_init, _ccgcm_aad,
                            _ccgcm_block_size, _ccgcm_context_size,
                            _ccgcm_finalize, _ccgcm_gmac, _ccgcm_inc_iv, _ccgcm_init,
                            _ccgcm_init_with_iv, _ccgcm_one_shot,
                            _ccgcm_one_shot_legacy, _ccgcm_reset, _ccgcm_set_iv,
                            _ccgcm_set_iv_legacy, _ccgcm_update, _cch2c, _cch2c_name,
                            _cch2c_p256_sha256_sae_compat_info,
                            _cch2c_p256_sha256_sswu_ro_info,
                            _cch2c_p384_sha512_sswu_ro_info,
                            _cch2c_p521_sha512_sswu_ro_info, _cchkdf,
                            _cchkdf_expand, _cchkdf_extract, _cchmac, _cchmac_final,
                            _cchmac_init, _cchmac_update,
                            _cchpke_initiator_encrypt, _cchpke_initiator_export,
                            _cchpke_initiator_seal, _cchpke_initiator_setup,
                            _cchpke_kem_generate_key_pair,
                            _cchpke_params_sizeof_aead_key,
                            _cchpke_params_sizeof_aead_nonce,
                            _cchpke_params_sizeof_aead_tag,
                            _cchpke_params_sizeof_kdf_hash,
                            _cchpke_params_sizeof_kem_enc,
                            _cchpke_params_sizeof_kem_pk,
                            _cchpke_params_sizeof_kem_pk_marshalled,
                            _cchpke_params_sizeof_kem_shared_secret,
                            _cchpke_params_sizeof_kem_sk,
                            _cchpke_params_x25519_AESGCM128_HKDF_SHA256,
                            _cchpke_responder_decrypt, _cchpke_responder_export,
                            _cchpke_responder_open, _cchpke_responder_setup,
                            _ccmd2_ltc_di, _ccmd4_ltc_di, _ccmd5_di, _ccmd5_ltc_di,
                            _ccmgf, _ccmode_factory_cbc_decrypt,
                            _ccmode_factory_cbc_encrypt,
                            _ccmode_factory_ccm_decrypt,
                            _ccmode_factory_ccm_encrypt,
                            _ccmode_factory_cfb8_decrypt,
                            _ccmode_factory_cfb8_encrypt,
                            _ccmode_factory_cfb_decrypt,
                            _ccmode_factory_cfb_encrypt,
                            _ccmode_factory_ctr_crypt,
                            _ccmode_factory_gcm_decrypt,
                            _ccmode_factory_gcm_encrypt,
                            _ccmode_factory_ofb_crypt,
                            _ccmode_factory_omac_decrypt,
                            _ccmode_factory_omac_encrypt,
                            _ccmode_factory_siv_decrypt,
                            _ccmode_factory_siv_encrypt,
                            _ccmode_factory_xts_decrypt,
                            _ccmode_factory_xts_encrypt, _ccn_add, _ccn_add1,
                            _ccn_bitlen, _ccn_cmp, _ccn_cmpn, _ccn_lprint, _ccn_print,
                            _ccn_read_uint, _ccn_set, _ccn_shift_right, _ccn_sub,
                            _ccn_write_int, _ccn_write_int_size, _ccn_write_uint,
                            _ccn_write_uint_padded_ct, _ccn_write_uint_size,
                            _ccnistkdf_ctr_cmac, _ccnistkdf_ctr_cmac_fixed,
                            _ccnistkdf_ctr_hmac, _ccnistkdf_ctr_hmac_fixed,
                            _ccnistkdf_fb_hmac, _ccnistkdf_fb_hmac_fixed,
                            _ccofb_block_size, _ccofb_context_size, _ccofb_init,
                            _ccofb_one_shot, _ccofb_update, _ccoid_equal,
                            _ccomac_block_size, _ccomac_context_size, _ccomac_init,
                            _ccomac_one_shot, _ccomac_update, _ccos, _ccosf, _ccosh,
                            _ccoshf, _ccoshl, _ccosl, _ccpad_cts1_decrypt,
                            _ccpad_cts1_encrypt, _ccpad_cts2_decrypt,
                            _ccpad_cts2_encrypt, _ccpad_cts3_decrypt,
                            _ccpad_cts3_encrypt, _ccpad_pkcs7_decode,
                            _ccpad_pkcs7_decrypt, _ccpad_pkcs7_ecb_decrypt,
                            _ccpad_pkcs7_ecb_encrypt, _ccpad_pkcs7_encrypt,
                            _ccpad_xts_decrypt, _ccpad_xts_encrypt, _ccpbkdf2_hmac,
                            _ccpoly1305, _ccpoly1305_final, _ccpoly1305_init,
                            _ccpoly1305_update, _ccrc2_cbc_decrypt_mode,
                            _ccrc2_cbc_encrypt_mode, _ccrc2_cfb8_decrypt_mode,
                            _ccrc2_cfb8_encrypt_mode, _ccrc2_cfb_decrypt_mode,
                            _ccrc2_cfb_encrypt_mode, _ccrc2_ctr_crypt_mode,
                            _ccrc2_ecb_decrypt_mode, _ccrc2_ecb_encrypt_mode,
                            _ccrc2_ofb_crypt_mode, _ccrc4, _ccrc4_eay,
                            _ccrmd160_ltc_di, _ccrng, _ccrng_drbg_done,
                            _ccrng_drbg_init, _ccrng_drbg_init_withdrbg,
                            _ccrng_drbg_reseed, _ccrng_ecfips_test_init,
                            _ccrng_pbkdf2_prng_init, _ccrng_prng,
                            _ccrng_rsafips_test_init,
                            _ccrng_rsafips_test_set_next, _ccrng_sequence_init,
                            _ccrng_system_done, _ccrng_system_init,
                            _ccrng_test_done, _ccrng_test_init, _ccrng_trng,
                            _ccrng_uniform, _ccrsa_decrypt_eme_pkcs1v15,
                            _ccrsa_decrypt_oaep, _ccrsa_dump_full_key,
                            _ccrsa_dump_public_key, _ccrsa_eme_pkcs1v15_decode,
                            _ccrsa_eme_pkcs1v15_encode,
                            _ccrsa_emsa_pkcs1v15_encode,
                            _ccrsa_emsa_pkcs1v15_verify, _ccrsa_emsa_pss_decode,
                            _ccrsa_emsa_pss_encode, _ccrsa_encrypt_eme_pkcs1v15,
                            _ccrsa_encrypt_oaep, _ccrsa_export_pub,
                            _ccrsa_generate_fips186_key, _ccrsa_generate_key,
                            _ccrsa_generate_key_deterministic,
                            _ccrsa_get_fullkey_components,
                            _ccrsa_get_pubkey_components, _ccrsa_import_pub,
                            _ccrsa_init_pub, _ccrsa_make_priv, _ccrsa_make_pub,
                            _ccrsa_oaep_decode_parameter,
                            _ccrsa_oaep_encode_parameter, _ccrsa_priv_crypt,
                            _ccrsa_pub_crypt, _ccrsa_pubkeylength,
                            _ccrsa_recover_priv, _ccrsa_sign_pkcs1v15,
                            _ccrsa_sign_pkcs1v15_msg, _ccrsa_sign_pss,
                            _ccrsa_sign_pss_msg, _ccrsa_verify_pkcs1v15,
                            _ccrsa_verify_pkcs1v15_allowshortsigs,
                            _ccrsa_verify_pkcs1v15_digest,
                            _ccrsa_verify_pkcs1v15_msg, _ccrsa_verify_pss_digest,
                            _ccrsa_verify_pss_msg, _ccrsabssa_blind_message,
                            _ccrsabssa_ciphersuite_rsa2048_sha384,
                            _ccrsabssa_ciphersuite_rsa3072_sha384,
                            _ccrsabssa_ciphersuite_rsa4096_sha384,
                            _ccrsabssa_sign_blinded_message,
                            _ccrsabssa_unblind_signature, _ccsae_gen_kck_and_pmk,
                            _ccsae_gen_password_value,
                            _ccsae_generate_commitment,
                            _ccsae_generate_commitment_finalize,
                            _ccsae_generate_commitment_init,
                            _ccsae_generate_commitment_partial,
                            _ccsae_generate_confirmation,
                            _ccsae_generate_h2c_commit,
                            _ccsae_generate_h2c_commit_finalize,
                            _ccsae_generate_h2c_commit_init,
                            _ccsae_generate_h2c_pt, _ccsae_get_keys, _ccsae_init,
                            _ccsae_init_p256_sha256,
                            _ccsae_lexographic_order_key,
                            _ccsae_sizeof_commitment, _ccsae_sizeof_confirmation,
                            _ccsae_sizeof_ctx, _ccsae_sizeof_pt,
                            _ccsae_verify_commitment, _ccsae_verify_confirmation,
                            _ccscrypt, _ccscrypt_storage_size, _ccsha1_di,
                            _ccsha1_eay_di, _ccsha1_ltc_di, _ccsha1_vng_arm_di,
                            _ccsha224_di, _ccsha224_ltc_di, _ccsha224_vng_arm_di,
                            _ccsha256_di, _ccsha256_ltc_di,
                            _ccsha256_vng_arm64neon_di, _ccsha256_vng_arm_di,
                            _ccsha384_di, _ccsha384_ltc_di, _ccsha384_vng_arm_di,
                            _ccsha3_224_c_di, _ccsha3_224_di, _ccsha3_256_c_di,
                            _ccsha3_256_di, _ccsha3_384_c_di, _ccsha3_384_di,
                            _ccsha3_512_c_di, _ccsha3_512_di, _ccsha512_256_di,
                            _ccsha512_256_ltc_di, _ccsha512_256_vng_arm_di,
                            _ccsha512_di, _ccsha512_ltc_di, _ccsha512_vng_arm_di,
                            _ccsigma_clear, _ccsigma_clear_key,
                            _ccsigma_compute_mac, _ccsigma_derive_session_keys,
                            _ccsigma_export_key_share,
                            _ccsigma_import_peer_key_share,
                            _ccsigma_import_peer_verification_key,
                            _ccsigma_import_signing_key, _ccsigma_init,
                            _ccsigma_kex_init_ctx, _ccsigma_kex_resp_ctx,
                            _ccsigma_mfi_info, _ccsigma_open, _ccsigma_peer_role,
                            _ccsigma_seal, _ccsigma_set_signing_function,
                            _ccsigma_sign, _ccsigma_verify, _ccsiv_aad,
                            _ccsiv_block_size, _ccsiv_ciphertext_size,
                            _ccsiv_context_size, _ccsiv_crypt, _ccsiv_hmac_aad,
                            _ccsiv_hmac_block_size, _ccsiv_hmac_ciphertext_size,
                            _ccsiv_hmac_context_size, _ccsiv_hmac_crypt,
                            _ccsiv_hmac_init, _ccsiv_hmac_one_shot,
                            _ccsiv_hmac_plaintext_size, _ccsiv_hmac_reset,
                            _ccsiv_hmac_set_nonce, _ccsiv_init, _ccsiv_one_shot,
                            _ccsiv_plaintext_size, _ccsiv_reset, _ccsiv_set_nonce,
                            _ccspake_cp_256, _ccspake_cp_384, _ccspake_cp_521,
                            _ccspake_generate_L, _ccspake_kex_generate,
                            _ccspake_kex_process, _ccspake_mac_compute,
                            _ccspake_mac_hkdf_cmac_aes128_sha256,
                            _ccspake_mac_hkdf_hmac_sha256,
                            _ccspake_mac_hkdf_hmac_sha512,
                            _ccspake_mac_verify_and_get_session_key,
                            _ccspake_prover_init, _ccspake_sizeof_ctx,
                            _ccspake_sizeof_point, _ccspake_sizeof_w,
                            _ccspake_verifier_init,
                            _ccsrp_client_process_challenge,
                            _ccsrp_client_start_authentication,
                            _ccsrp_client_verify_session,
                            _ccsrp_generate_salt_and_verification,
                            _ccsrp_generate_verifier, _ccsrp_gp_rfc5054_1024,
                            _ccsrp_gp_rfc5054_2048, _ccsrp_gp_rfc5054_3072,
                            _ccsrp_gp_rfc5054_4096, _ccsrp_gp_rfc5054_8192,
                            _ccsrp_server_compute_session,
                            _ccsrp_server_generate_public_key,
                            _ccsrp_server_start_authentication,
                            _ccsrp_server_verify_session,
                            _ccss_shamir_parameters_init,
                            _ccss_shamir_parameters_maximum_secret_length,
                            _ccss_shamir_share_bag_add_share,
                            _ccss_shamir_share_bag_init,
                            _ccss_shamir_share_bag_recover_secret,
                            _ccss_shamir_share_export,
                            _ccss_shamir_share_generator_deserialize,
                            _ccss_shamir_share_generator_generate_share,
                            _ccss_shamir_share_generator_init,
                            _ccss_shamir_share_generator_init_with_secrets_less_than_prime,
                            _ccss_shamir_share_generator_serialize,
                            _ccss_shamir_share_import, _ccss_shamir_share_init,
                            _ccss_shamir_share_sizeof_y, _ccss_sizeof_generator,
                            _ccss_sizeof_parameters,
                            _ccss_sizeof_shamir_share_generator_serialization,
                            _ccss_sizeof_share, _ccss_sizeof_share_bag,
                            _ccvrf_derive_public_key, _ccvrf_factory_irtfdraft03,
                            _ccvrf_factory_irtfdraft03_default,
                            _ccvrf_proof_to_hash, _ccvrf_prove, _ccvrf_sizeof_hash,
                            _ccvrf_sizeof_proof, _ccvrf_sizeof_public_key,
                            _ccvrf_sizeof_secret_key, _ccvrf_verify,
                            _ccwrap_auth_decrypt, _ccwrap_auth_decrypt_withiv,
                            _ccwrap_auth_encrypt, _ccwrap_auth_encrypt_withiv,
                            _ccwrap_unwrapped_size, _ccwrap_wrapped_size,
                            _ccxts_block_size, _ccxts_context_size, _ccxts_init,
                            _ccxts_one_shot, _ccxts_set_tweak, _ccxts_update,
                            _ccz_add, _ccz_addi, _ccz_bit, _ccz_bitlen, _ccz_cmp,
                            _ccz_cmpi, _ccz_divmod, _ccz_expmod, _ccz_free, _ccz_init,
                            _ccz_is_negative, _ccz_is_one, _ccz_is_prime,
                            _ccz_is_zero, _ccz_lsl, _ccz_lsr, _ccz_mod, _ccz_mul,
                            _ccz_muli, _ccz_mulmod, _ccz_neg, _ccz_random_bits,
                            _ccz_read_radix, _ccz_read_uint, _ccz_set, _ccz_set_bit,
                            _ccz_seti, _ccz_size, _ccz_sub, _ccz_subi,
                            _ccz_trailing_zeros, _ccz_write_int,
                            _ccz_write_int_size, _ccz_write_radix,
                            _ccz_write_radix_size, _ccz_write_uint,
                            _ccz_write_uint_size, _ccz_zero, _ceil, _ceilf, _ceill,
                            _cexp, _cexpf, _cexpl, _cimag, _cimagf, _cimagl,
                            _clock_get_calendar_microtime,
                            _clock_get_calendar_nanotime,
                            _clock_get_system_nanotime, _clock_gettime_nsec_np,
                            _clock_interval_to_deadline, _clog, _clogf, _clogl, _conj,
                            _conjf, _conjl, _continuoustime_to_absolutetime,
                            _copysign, _copysignf, _copysignl, _cos, _cosf, _cosh, _coshf,
                            _coshl, _cosl, _cpow, _cpowf, _cpowl, _cproj, _cprojf, _cprojl,
                            _crc32, _creal, _crealf, _creall, _csin, _csinf, _csinh, _csinhf,
                            _csinhl, _csinl, _csqrt, _csqrtf, _csqrtl,
                            _csss_shamir_share_bag_can_recover_secret, _ctan,
                            _ctanf, _ctanh, _ctanhf, _ctanhl, _ctanl, _div, _dladdr, _erf,
                            _erfc, _erfcf, _erfcl, _erff, _erfl, _exp, _exp2, _exp2f, _exp2l,
                            _expf, _expl, _expm1, _expm1f, _expm1l, _fabs, _fabsf, _fabsl,
                            _fdim, _fdimf, _fdiml, _feclearexcept, _fegetenv,
                            _fegetexceptflag, _fegetround, _feholdexcept,
                            _feraiseexcept, _fesetenv, _fesetexceptflag, _fesetround,
                            _fetestexcept, _feupdateenv, _ffs, _ffsl, _ffsll,
                            _fipspost_post, _fipspost_trace_vtable, _floor, _floorf,
                            _floorl, _fls, _flsl, _flsll, _fma, _fmaf, _fmal, _fmax, _fmaxf,
                            _fmaxl, _fmin, _fminf, _fminl, _fmod, _fmodf, _fmodl, _frexp,
                            _frexpf, _frexpl, _gIOBufferMemoryDescriptorMetaClass,
                            _gIOCommandMetaClass, _gIOCommandPoolMetaClass,
                            _gIODKDebug, _gIODMACommandMetaClass,
                            _gIODataQueueDispatchSourceMetaClass,
                            _gIODispatchQueueMetaClass,
                            _gIODispatchSourceMetaClass, _gIOEventLinkMetaClass,
                            _gIOHistogramReporterMetaClass,
                            _gIOInterruptDispatchSourceMetaClass,
                            _gIOMemoryDescriptorMetaClass,
                            _gIOMemoryMapMetaClass, _gIOReportLegendMetaClass,
                            _gIOReporterMetaClass, _gIOServiceMetaClass,
                            _gIOServiceNotificationDispatchSourceMetaClass,
                            _gIOServiceStateNotificationDispatchSourceMetaClass,
                            _gIOSimpleReporterMetaClass,
                            _gIOStateReporterMetaClass, _gIOThreadMetaClass,
                            _gIOTimerDispatchSourceMetaClass,
                            _gIOUserClientMetaClass, _gIOUserServerMetaClass,
                            _gIOWorkGroupMetaClass, _gOSActionMetaClass,
                            _gOSAction_IOUserClient_KernelCompletionMetaClass,
                            _gOSAction__IOBlockStorageDevice_KernelCompletionMetaClass,
                            _gOSArrayMetaClass, _gOSBooleanMetaClass,
                            _gOSBundleMetaClass, _gOSCollectionMetaClass,
                            _gOSContainerMetaClass, _gOSDataMetaClass,
                            _gOSDictionaryMetaClass, _gOSMappedFileMetaClass,
                            _gOSNumberMetaClass, _gOSObjectMetaClass,
                            _gOSOrderedSetMetaClass, _gOSSerializationMetaClass,
                            _gOSSetMetaClass, _gOSStringMetaClass,
                            _g_IOBlockStorageDeviceMetaClass, _heapsort,
                            _heapsort_b, _hypot, _hypotf, _hypotl, _ilogb, _ilogbf,
                            _ilogbl, _imaxabs, _imaxdiv, _index, _isinf, _isnan, _j0, _j1, _jn,
                            _kOSBooleanFalse, _kOSBooleanTrue, _kdebug_is_enabled,
                            _kdebug_timestamp, _kdebug_timestamp_from_absolute,
                            _kdebug_timestamp_from_continuous, _kdebug_trace,
                            _kdebug_trace_string, _kdebug_typefilter,
                            _kdebug_using_continuous_time, _labs, _ldexp, _ldexpf,
                            _ldexpl, _ldiv, _lgamma, _lgamma_r, _lgammaf, _lgammaf_r,
                            _lgammal, _lgammal_r, _llabs, _lldiv, _llrint, _llrintf,
                            _llrintl, _llround, _llroundf, _llroundl, _localeconv, _log,
                            _log10, _log10f, _log10l, _log1p, _log1pf, _log1pl, _log2,
                            _log2f, _log2l, _logb, _logbf, _logbl, _logf, _logl, _lrint,
                            _lrintf, _lrintl, _lround, _lroundf, _lroundl,
                            _mach_absolute_time, _mach_continuous_time,
                            _mach_timebase_info, _matrix_identity_double2x2,
                            _matrix_identity_double3x3,
                            _matrix_identity_double4x4,
                            _matrix_identity_float2x2, _matrix_identity_float3x3,
                            _matrix_identity_float4x4, _mblen, _mbrlen, _mbrtowc,
                            _mbsinit, _mbsnrtowcs, _mbsrtowcs, _mbstowcs, _mbtowc,
                            _memccpy, _memchr, _memcmp, _memcpy, _memmem, _memmove,
                            _memset, _memset_pattern16, _memset_pattern4,
                            _memset_pattern8, _memset_s, _mergesort, _mergesort_b,
                            _modf, _modff, _modfl, _nan, _nanf, _nanl,
                            _nanoseconds_to_absolutetime, _nearbyint, _nearbyintf,
                            _nearbyintl, _nextafter, _nextafterf, _nextafterl,
                            _nexttoward, _nexttowardf, _nexttowardl, _nextwctype,
                            _os_log_type_enabled, _panic, _pow, _powf, _powl, _qsort,
                            _qsort_b, _qsort_r, _radixsort, _read_random, _remainder,
                            _remainderf, _remainderl, _remquo, _remquof, _remquol,
                            _rindex, _rint, _rintf, _rintl, _round, _roundf, _roundl,
                            _rpmatch, _scalb, _scalbln, _scalblnf, _scalblnl, _scalbn,
                            _scalbnf, _scalbnl, _setlocale, _signgam, _sin, _sinf, _sinh,
                            _sinhf, _sinhl, _sinl, _snprintf, _sqrt, _sqrtf, _sqrtl,
                            _sradixsort, _sscanf, _stpncpy, _strcasecmp, _strcasestr,
                            _strchr, _strcmp, _strcoll, _strcspn, _strdup, _strerror,
                            _strerror_r, _strlcat, _strlcpy, _strlen, _strmode,
                            _strncasecmp, _strncat, _strncmp, _strncpy, _strndup,
                            _strnlen, _strnstr, _strpbrk, _strrchr, _strsep, _strsignal,
                            _strsignal_r, _strspn, _strstr, _strtod, _strtof, _strtoimax,
                            _strtok, _strtok_r, _strtol, _strtold, _strtoll, _strtoq,
                            _strtoul, _strtoull, _strtoumax, _strtouq, _strxfrm, _swab,
                            _swprintf, _swscanf, _tan, _tanf, _tanh, _tanhf, _tanhl, _tanl,
                            _tgamma, _tgammaf, _tgammal, _timingsafe_bcmp, _towctrans,
                            _trunc, _truncf, _truncl, _uuid_clear, _uuid_compare,
                            _uuid_copy, _uuid_generate, _uuid_generate_random,
                            _uuid_generate_time, _uuid_is_null, _uuid_parse,
                            _uuid_unparse, _uuid_unparse_lower,
                            _uuid_unparse_upper, _vasprintf, _vsnprintf, _vsscanf,
                            _vswprintf, _vswscanf, _wcpcpy, _wcpncpy, _wcrtomb,
                            _wcscasecmp, _wcscat, _wcschr, _wcscmp, _wcscoll, _wcscpy,
                            _wcscspn, _wcsdup, _wcslcat, _wcslcpy, _wcslen, _wcsncasecmp,
                            _wcsncat, _wcsncmp, _wcsncpy, _wcsnlen, _wcsnrtombs,
                            _wcspbrk, _wcsrchr, _wcsrtombs, _wcsspn, _wcsstr, _wcstod,
                            _wcstof, _wcstoimax, _wcstok, _wcstol, _wcstold, _wcstoll,
                            _wcstombs, _wcstoul, _wcstoull, _wcstoumax, _wcswidth,
                            _wcsxfrm, _wctob, _wctomb, _wctrans, _wctype, _wcwidth,
                            _wmemchr, _wmemcmp, _wmemcpy, _wmemmove, _wmemset, _y0, _y1, _yn,
                            dyld_stub_binder ]
...
