--- !tapi-tbd-v3
archs:                 [ armv7, armv7s, arm64, arm64e ]
platform:              ios
flags:                 [ flat_namespace ]
install-name:          /System/Library/PrivateFrameworks/VFXAssets.framework/VFXAssets
current-version:       42.0.2
compatibility-version: 1
objc-constraint:       retain_release
exports:
  - archs:                [ armv7, armv7s, arm64, arm64e ]
    symbols:              [ _VFXAssetsVersionNumber, _VFXAssetsVersionString,
                            __Z33Spawn_comAppleVfxConfetti_graph_5PKvmmR13vfx_int_range,
                            __Z56ParticleInit_comAppleRealitykitVfxGeneral_particleInit_3PKvjDv4_fS1_jbS1_S1_bbffffmmbmmfDv3_fffmS2_fffmRS1_S3_S3_S3_RfS3_S4_R10simd_quatfRS2_S7_,
                            __Z57ParticleInit_comAppleRealitykitVfxGeneral_particleInit_52PKvjDv3_fRDv4_f,
                            __Z57ParticleInit_comAppleRealitykitVfxGeneral_particleInit_65PKvjDv4_fS1_S1_jbbS1_S1_bbffffmmmmfDv3_fffmRS1_S3_S3_S3_RfS3_S4_R10simd_quatfRS2_,
                            __Z61ParticleUpdate_comAppleRealitykitVfxGeneral_particleUpdate_12PKvjDv4_fS1_ffmS1_ffDv3_fbmfS1_RS1_RfS4_S4_R10simd_quatf,
                            __Z61ParticleUpdate_comAppleRealitykitVfxGeneral_particleUpdate_19PKvjDv4_fS1_fDv3_fS1_ffmfS1_bRS1_RfS4_R10simd_quatfS4_,
                            __Z76Init_comAppleRealitykitVfxGeneral_graph_808D496A_AA3D_4B1F_B709_6D736E35F2D4PKvjfffffffffffR15vfx_float_rangeS2_S2_S2_S2_S2_,
                            __Z76Init_comAppleRealitykitVfxGeneral_graph_C4E7830E_DFD6_42B0_8C1E_C42D73D86C9CPKvjffffmfffmDv3_fffS1_fR15vfx_float_rangeS3_RbS3_S3_RmS5_RDv3_jS3_RS1_S8_S3_,
                            __Z76Main_comAppleRealitykitVfxGeneral_graph_18FD4393_3EF4_4453_A815_8E3AD16F6D13PKvjmbmRmS1_,
                            __Z76Main_comAppleRealitykitVfxGeneral_graph_3631C6CB_E76B_47C6_9BA0_12F4E98A26BDPKvjfbRfRbRm,
                            __Z76Main_comAppleRealitykitVfxGeneral_graph_36892C5B_FE17_447F_9E03_D2C255C0486FPKvjDv3_ffbR10simd_quatfRfRbRm,
                            __Z76Main_comAppleRealitykitVfxGeneral_graph_73DD6AB1_ACCC_401A_9516_CEDA7AB07AC2PKvjmbmRmS1_,
                            __Z76Main_comAppleRealitykitVfxGeneral_graph_C81D8ED9_E765_4CB8_B826_CC8497F5A622PKvjDv3_ffbR10simd_quatfRfRbRm,
                            __Z76Main_comAppleRealitykitVfxGeneral_graph_CABE86CB_8495_4BA5_8564_211F4E42EAD3PKvjfbRDv3_fR10simd_quatf,
                            __Z76Main_comAppleRealitykitVfxGeneral_graph_EAD9CBA2_783E_48D3_B113_0CC58281BB32PKvjfbRfRbRm,
                            __Z77Spawn_comAppleRealitykitVfxGeneral_graph_2EFCC965_6C2A_4409_B612_17DCDCF8132EPKvjffffffbmmmR15vfx_float_rangeS2_S2_RfS3_RbR13vfx_int_range,
                            __Z77Spawn_comAppleRealitykitVfxGeneral_graph_3A6197AD_E251_4C3C_A4A4_97B88CE13708PKvjffbfRfRbS2_S1_,
                            __Z78Render_comAppleRealitykitVfxGeneral_graph_39FD28C5_BDF9_4DD6_B2B8_459F45892DBFPKvjmmmRmS1_S1_,
                            __Z78Render_comAppleRealitykitVfxGeneral_graph_79611F84_9966_49FC_9DA9_42E714051A7EPKvjmmmRmS1_S1_,
                            __Z78Update_comAppleRealitykitVfxGeneral_graph_9D89648D_3FBB_4295_90CD_9E682BD76791PKvjffffbRDv3_fRbS3_Rm,
                            __Z78Update_comAppleRealitykitVfxGeneral_graph_C0414514_1ABD_430C_99B8_0B75A900FA1APKvjffffbRDv3_fRbS3_Rm,
                            ___vfx_get_effect_class_comAppleVfxConfetti,
                            ___vfx_get_script_table_comAppleRealitykitVfxGeneral,
                            ___vfx_script_comAppleRealitykitVfxGeneral_graph_18FD4393_3EF4_4453_A815_8E3AD16F6D13,
                            ___vfx_script_comAppleRealitykitVfxGeneral_graph_2EFCC965_6C2A_4409_B612_17DCDCF8132E,
                            ___vfx_script_comAppleRealitykitVfxGeneral_graph_3631C6CB_E76B_47C6_9BA0_12F4E98A26BD,
                            ___vfx_script_comAppleRealitykitVfxGeneral_graph_36892C5B_FE17_447F_9E03_D2C255C0486F,
                            ___vfx_script_comAppleRealitykitVfxGeneral_graph_39FD28C5_BDF9_4DD6_B2B8_459F45892DBF,
                            ___vfx_script_comAppleRealitykitVfxGeneral_graph_3A6197AD_E251_4C3C_A4A4_97B88CE13708,
                            ___vfx_script_comAppleRealitykitVfxGeneral_graph_73DD6AB1_ACCC_401A_9516_CEDA7AB07AC2,
                            ___vfx_script_comAppleRealitykitVfxGeneral_graph_79611F84_9966_49FC_9DA9_42E714051A7E,
                            ___vfx_script_comAppleRealitykitVfxGeneral_graph_808D496A_AA3D_4B1F_B709_6D736E35F2D4,
                            ___vfx_script_comAppleRealitykitVfxGeneral_graph_9D89648D_3FBB_4295_90CD_9E682BD76791,
                            ___vfx_script_comAppleRealitykitVfxGeneral_graph_C0414514_1ABD_430C_99B8_0B75A900FA1A,
                            ___vfx_script_comAppleRealitykitVfxGeneral_graph_C4E7830E_DFD6_42B0_8C1E_C42D73D86C9C,
                            ___vfx_script_comAppleRealitykitVfxGeneral_graph_C81D8ED9_E765_4CB8_B826_CC8497F5A622,
                            ___vfx_script_comAppleRealitykitVfxGeneral_graph_CABE86CB_8495_4BA5_8564_211F4E42EAD3,
                            ___vfx_script_comAppleRealitykitVfxGeneral_graph_EAD9CBA2_783E_48D3_B113_0CC58281BB32,
                            ___vfx_script_comAppleRealitykitVfxGeneral_particleInit_3,
                            ___vfx_script_comAppleRealitykitVfxGeneral_particleInit_52,
                            ___vfx_script_comAppleRealitykitVfxGeneral_particleInit_65,
                            ___vfx_script_comAppleRealitykitVfxGeneral_particleUpdate_12,
                            ___vfx_script_comAppleRealitykitVfxGeneral_particleUpdate_19,
                            ___vfx_script_comAppleVfxConfetti_graph_5 ]
    objc-classes:         [ comAppleSystemEnvironmentsRain, comAppleVfxConfetti,
                            comAppleVfxPrivateRemoteEdition ]
...
