--- !tapi-tbd-v3
archs:                 [ armv7, armv7s, arm64, arm64e ]
platform:              ios
flags:                 [ flat_namespace ]
install-name:          /System/Library/PrivateFrameworks/AppleSARHelper.framework/AppleSARHelper
current-version:       0
compatibility-version: 1
exports:
  - archs:                [ armv7, armv7s, arm64, arm64e ]
    symbols:              [ __Z15GetGlobalLoggerNSt3__110shared_ptrIN3ctu9LogServerEEE,
                            __Z15GetOsLogContextv,
                            __ZN14AppleSARHelper20callUserClientMethodEjPKyjPKvmPyPjPvm,
                            __ZN14AppleSARHelper21create_default_globalEv,
                            __ZN14AppleSARHelper25getSPMIEventTrackingArrayEPN3sar25BasebandSPMIEventTrackingEm,
                            __ZN14AppleSARHelper26registerSARServiceCallbackEN8dispatch8callbackIU13block_pointerFvN3sar19AppleSARMessageTypeEPvEEE,
                            __ZN14AppleSARHelper4initEv,
                            __ZN14AppleSARHelper8callbackEPviPyj,
                            __ZN14AppleSARHelperC1Ev, __ZN14AppleSARHelperC2Ev,
                            __ZN14AppleSARHelperD1Ev, __ZN14AppleSARHelperD2Ev,
                            __ZN3sar17toStringAccessoryEj,
                            __ZN3sar8toStringENS_10TunerStateE,
                            __ZN3sar8toStringENS_16HSARSubErrorCodeE,
                            __ZN3sar8toStringENS_16RegulatoryRegionE,
                            __ZN3sar8toStringENS_19AppleSARMessageTypeE,
                            __ZN3sar8toStringENS_23RegulatoryAveragingModeE,
                            __ZN3sar8toStringENS_7TASModeE,
                            __ZN3sar8toStringENS_8OBDStateE,
                            __ZN3sar9toTASModeEPKc ]
...
