--- !tapi-tbd
tbd-version:     4
targets:         [ armv7-ios, armv7s-ios, arm64-ios, arm64e-ios ]
uuids:
  - target:          armv7-ios
    value:           00000000-0000-0000-0000-000000000000
  - target:          armv7s-ios
    value:           00000000-0000-0000-0000-000000000000
  - target:          arm64-ios
    value:           AE9803ED-FAB1-3D47-A9F0-3352C29496CF
  - target:          arm64e-ios
    value:           E271EA92-8567-35FD-AC6A-F59CD7705F8A
install-name:    '/usr/lib/libIOABP.dylib'
exports:
  - targets:         [ arm64-ios, arm64e-ios ]
    symbols:         [ __Z21getABPDirectionString12abpDirection, __Z21getABPErrorTypeString12abpErrorType, 
                       __Z21getABPLinkStateString12abpLinkState, __Z24getABPAERErrorTypeString15abpAERErrorType, 
                       __Z24getABPBHIRegistersString15abpBHIRegisters, __Z24getABPBTIRegistersString15abpBTIRegisters, 
                       __ZN10IOABPClass10writeAsyncEPKvjPFvPviS2_ES2_, __ZN10IOABPClass12readRegisterEjPvPj, 
                       __ZN10IOABPClass13timeSyncAsyncEPvjPFvS0_iS0_ES0_, __ZN10IOABPClass14clearIteratorsEv, 
                       __ZN10IOABPClass14mapMemoryAsyncEtPKvjPFvPviES2_, __ZN10IOABPClass14sendImageAsyncEPKvjPFvPviS2_S2_ES2_, 
                       __ZN10IOABPClass16interfaceMatchedEPvj, __ZN10IOABPClass16unmapMemoryAsyncEtPFvPviES0_, 
                       __ZN10IOABPClass17abortChannelAsyncE12abpDirectionPFvPviES1_, 
                       __ZN10IOABPClass17registerTimeEventEjPFvPviPS0_jES0_, __ZN10IOABPClass17startChannelAsyncE12abpDirectionPFvPviES1_, 
                       __ZN10IOABPClass19deregisterTimeEventEjPFvPviES0_, __ZN10IOABPClass19setNotificationPortEv, 
                       __ZN10IOABPClass20notificationCallbackEPvjjS0_, __ZN10IOABPClass21clearNotificationPortEv, 
                       __ZN10IOABPClass25setUpNotificationCallbackEj, __ZN10IOABPClass27cleanUpNotificationCallbackEv, 
                       __ZN10IOABPClass4openEj, __ZN10IOABPClass4readEPvPj, __ZN10IOABPClass4stopEP16dispatch_group_s, 
                       __ZN10IOABPClass5closeEv, __ZN10IOABPClass5startEPKcP11__CFRunLoopU13block_pointerFvjES5_U13block_pointerFv12abpErrorTypejiE, 
                       __ZN10IOABPClass5startEPKcP16dispatch_queue_sU13block_pointerFvjES5_U13block_pointerFv12abpErrorTypejiE, 
                       __ZN10IOABPClass5writeEPKvj, __ZN10IOABPClass7open_nlEj, __ZN10IOABPClass8close_nlEv, 
                       __ZN10IOABPClass8start_nlEPKcP11__CFRunLoopP16dispatch_queue_sU13block_pointerFvjES7_U13block_pointerFv12abpErrorTypejiE, 
                       __ZN10IOABPClass9readAsyncEPvjPFvS0_iS0_ES0_, __ZN10IOABPClass9sendImageEPKvjPj, 
                       __ZN10IOABPClassC1Ev, __ZN10IOABPClassC2Ev, __ZN10IOABPClassD1Ev, 
                       __ZN10IOABPClassD2Ev, __ZN15IOABPTraceClass11openServiceEv, 
                       __ZN15IOABPTraceClass12closeServiceEv, __ZN15IOABPTraceClass12dumpRegistryEv, 
                       __ZN15IOABPTraceClass12getPipeCountEv, __ZN15IOABPTraceClass12getTraceCodeEjR18IOABPTraceCodeDict, 
                       __ZN15IOABPTraceClass13readLogsAsyncEjPvjbPFvS0_iS0_ES0_, 
                       __ZN15IOABPTraceClass15getRegistryInfoER20ABPTraceRegistryInfo, 
                       __ZN15IOABPTraceClass17flushTraceBuffersEjbPFvPviS0_ES0_, 
                       __ZN15IOABPTraceClass18getPipeCodeAndNameEjPjPcj, __ZN15IOABPTraceClass19setNotificationPortEv, 
                       __ZN15IOABPTraceClass21clearNotificationPortEv, __ZN15IOABPTraceClass21getSnapshotBufferSizeEPj, 
                       __ZN15IOABPTraceClass4demoEv, __ZN15IOABPTraceClass4stopEv, 
                       __ZN15IOABPTraceClass5startEP11__CFRunLoop, __ZN15IOABPTraceClass5startEP16dispatch_queue_s, 
                       __ZN15IOABPTraceClass7connectEP11__CFRunLoopP16dispatch_queue_s, 
                       __ZN15IOABPTraceClass8openPipeEj, __ZN15IOABPTraceClass9closePipeEj, 
                       __ZN15IOABPTraceClassC1Ev, __ZN15IOABPTraceClassC2Ev, __ZN15IOABPTraceClassD1Ev, 
                       __ZN15IOABPTraceClassD2Ev, __ZN17IOABPControlClass10loggerTuneEjjPvS0_, 
                       __ZN17IOABPControlClass13readLogsAsyncEPvjbPFvS0_iS0_ES0_, 
                       __ZN17IOABPControlClass19setNotificationPortEv, __ZN17IOABPControlClass21clearNotificationPortEv, 
                       __ZN17IOABPControlClass21getLastKnownBootStageEPj, __ZN17IOABPControlClass23generalInterestCallbackEPvjjS0_, 
                       __ZN17IOABPControlClass24getLogInternalBufferSizeEPj, __ZN17IOABPControlClass24setEventNotificationPortEv, 
                       __ZN17IOABPControlClass25registerEventNotificationEP11__CFRunLoopU13block_pointerFv12abpErrorTypePvS3_E, 
                       __ZN17IOABPControlClass25registerEventNotificationEP16dispatch_queue_sU13block_pointerFv12abpErrorTypePvS3_E, 
                       __ZN17IOABPControlClass26clearEventNotificationPortEv, __ZN17IOABPControlClass27deregisterEventNotificationEP16dispatch_group_s, 
                       __ZN17IOABPControlClass28registerEventNotification_nlEP11__CFRunLoopP16dispatch_queue_sU13block_pointerFv12abpErrorTypePvS5_E, 
                       __ZN17IOABPControlClass30deregisterEventNotification_nlEP16dispatch_group_s, 
                       __ZN17IOABPControlClass4openEP11__CFRunLoop, __ZN17IOABPControlClass4openEP16dispatch_queue_s, 
                       __ZN17IOABPControlClass4stopEv, __ZN17IOABPControlClass5closeEv, 
                       __ZN17IOABPControlClass5startEv, __ZN17IOABPControlClass7open_nlEP11__CFRunLoopP16dispatch_queue_s, 
                       __ZN17IOABPControlClass8close_nlEv, __ZN17IOABPControlClassC1Ev, 
                       __ZN17IOABPControlClassC2Ev, __ZN17IOABPControlClassD1Ev, 
                       __ZN17IOABPControlClassD2Ev, __ZTI10IOABPClass, __ZTS10IOABPClass, 
                       __ZTV10IOABPClass ]
...
