--- !tapi-tbd-v3
archs:                 [ armv7, armv7s, arm64, arm64e ]
platform:              ios
flags:                 [ flat_namespace ]
install-name:          /System/Library/Extensions/AppleSPU.kext/PlugIns/AppleSPULib.plugin/AppleSPULib
current-version:       0
compatibility-version: 0
exports:
  - archs:                [ armv7, armv7s, arm64, arm64e ]
    symbols:              [ _AppleSPULibFactory, _AppleSPULibVersionNumber,
                            _AppleSPULibVersionString, __Z7hexdumpPKvm,
                            __ZN12SPUDataQueue11dequeue_allEPFvPvjPhmjES0_,
                            __ZN12SPUDataQueue11enqueue_msgEjjPK9SPU_iovecj,
                            __ZN12SPUDataQueue17get_extended_infoEjPm,
                            __ZN12SPUDataQueue4initEPhmbh,
                            __ZN12SPUDataQueue5clearEv,
                            __ZN12SPUDataQueue8is_emptyEv,
                            __ZN22AppleSPUHIDDeviceClass10SetGrapeCSEj,
                            __ZN22AppleSPUHIDDeviceClass10SetLVBoostEj,
                            __ZN22AppleSPUHIDDeviceClass11SendCommandEjPKvmPvPm,
                            __ZN22AppleSPUHIDDeviceClass11queueSignalEP12__CFMachPortPvlS2_,
                            __ZN22AppleSPUHIDDeviceClass11queueSignalEPv,
                            __ZN22AppleSPUHIDDeviceClass11queueSignalEb,
                            __ZN22AppleSPUHIDDeviceClass13SetRawSPIModeEj,
                            __ZN22AppleSPUHIDDeviceClass14QueryInterfaceE11CFUUIDBytesPPv,
                            __ZN22AppleSPUHIDDeviceClass17SetRawSPICallbackEPFvPvjES0_,
                            __ZN22AppleSPUHIDDeviceClass19ScheduleWithRunLoopEP11__CFRunLoopPK10__CFString,
                            __ZN22AppleSPUHIDDeviceClass21UnscheduleWithRunLoopEP11__CFRunLoopPK10__CFString,
                            __ZN22AppleSPUHIDDeviceClass25ScheduleWithDispatchQueueEP16dispatch_queue_s,
                            __ZN22AppleSPUHIDDeviceClass27UnscheduleFromDispatchQueueEP16dispatch_queue_s,
                            __ZN22AppleSPUHIDDeviceClass30SetAggregateDictionaryCallbackEPFvPvS0_mES0_,
                            __ZN22AppleSPUHIDDeviceClass4OpenEj,
                            __ZN22AppleSPUHIDDeviceClass4StopEv,
                            __ZN22AppleSPUHIDDeviceClass4vtblE,
                            __ZN22AppleSPUHIDDeviceClass5CloseEj,
                            __ZN22AppleSPUHIDDeviceClass5ProbeEPK14__CFDictionaryjPi,
                            __ZN22AppleSPUHIDDeviceClass5ResetEv,
                            __ZN22AppleSPUHIDDeviceClass5StartEPK14__CFDictionaryj,
                            __ZN22AppleSPUHIDDeviceClass5allocEPK13__CFAllocator,
                            __ZN22AppleSPUHIDDeviceClass6AddRefEv,
                            __ZN22AppleSPUHIDDeviceClass7ReleaseEv,
                            __ZN22AppleSPUHIDDeviceClassC1EPK13__CFAllocator,
                            __ZN22AppleSPUHIDDeviceClassC2EPK13__CFAllocator,
                            __ZN22AppleSPUHIDDeviceClassD1Ev,
                            __ZN22AppleSPUHIDDeviceClassD2Ev,
                            __ZN22AppleSPUHIDDeviceClassdlEPv,
                            __ZN22AppleSPUHIDDriverClass11SendCommandEjPKvmPvPm,
                            __ZN22AppleSPUHIDDriverClass14QueryInterfaceE11CFUUIDBytesPPv,
                            __ZN22AppleSPUHIDDriverClass17AopTimeToCalendarEyPyPj,
                            __ZN22AppleSPUHIDDriverClass17ApplyToHistoricalEPFvPvP12__IOHIDEventES0_,
                            __ZN22AppleSPUHIDDriverClass17CopyEventMultipleEPPK9__CFArray,
                            __ZN22AppleSPUHIDDriverClass25ApplyToHistoricalCallbackEPvjPhmj,
                            __ZN22AppleSPUHIDDriverClass4OpenEj,
                            __ZN22AppleSPUHIDDriverClass4StopEv,
                            __ZN22AppleSPUHIDDriverClass5CloseEj,
                            __ZN22AppleSPUHIDDriverClass5ProbeEPK14__CFDictionaryjPi,
                            __ZN22AppleSPUHIDDriverClass5StartEPK14__CFDictionaryj,
                            __ZN22AppleSPUHIDDriverClass5allocEPK13__CFAllocator,
                            __ZN22AppleSPUHIDDriverClass6AddRefEv,
                            __ZN22AppleSPUHIDDriverClass7ReleaseEv,
                            __ZN22AppleSPUHIDDriverClass7vtbl_v1E,
                            __ZN22AppleSPUHIDDriverClass7vtbl_v2E,
                            __ZN22AppleSPUHIDDriverClassC1EPK13__CFAllocator,
                            __ZN22AppleSPUHIDDriverClassC2EPK13__CFAllocator,
                            __ZN22AppleSPUHIDDriverClassD1Ev,
                            __ZN22AppleSPUHIDDriverClassD2Ev,
                            __ZN22AppleSPUHIDDriverClassdlEPv,
                            __ZTI12SPUDataQueue, __ZTS12SPUDataQueue,
                            __ZTV12SPUDataQueue ]
undefineds:
  - archs:                [ armv7, armv7s, arm64, arm64e ]
    symbols:              [ _CFAllocatorAllocate, _CFAllocatorDeallocate,
                            _CFArrayAppendValue, _CFArrayCreateMutable,
                            _CFDictionaryGetValue, _CFEqual,
                            _CFMachPortCreateRunLoopSource,
                            _CFMachPortCreateWithPort, _CFMachPortInvalidate,
                            _CFNumberGetValue, _CFPlugInAddInstanceForFactory,
                            _CFPlugInRemoveInstanceForFactory, _CFRelease,
                            _CFRunLoopAddSource, _CFRunLoopRemoveSource,
                            _CFUUIDCreateFromUUIDBytes,
                            _CFUUIDGetConstantUUIDWithBytes,
                            _IOConnectCallMethod, _IOConnectCallScalarMethod,
                            _IOConnectMapMemory, _IOConnectSetNotificationPort,
                            _IOConnectUnmapMemory,
                            _IODataQueueAllocateNotificationPort,
                            _IODataQueueDataAvailable, _IODataQueueDequeue,
                            _IODataQueueWaitForAvailableData,
                            _IOHIDEventCreateAccelerometerEvent,
                            _IOHIDEventCreateVendorDefinedEvent,
                            _IOObjectRelease, _IORegistryEntryCreateCFProperty,
                            _IOServiceClose, _IOServiceGetMatchingService,
                            _IOServiceMatching, _IOServiceOpen,
                            __DefaultRuneLocale, __Unwind_Resume,
                            __ZNKSt3__16locale9use_facetERNS0_2idE,
                            __ZNKSt3__18ios_base6getlocEv,
                            __ZNSt3__113basic_ostreamIcNS_11char_traitsIcEEE3putEc,
                            __ZNSt3__113basic_ostreamIcNS_11char_traitsIcEEE5flushEv,
                            __ZNSt3__113basic_ostreamIcNS_11char_traitsIcEEE6sentryC1ERS3_,
                            __ZNSt3__113basic_ostreamIcNS_11char_traitsIcEEE6sentryD1Ev,
                            __ZNSt3__14coutE, __ZNSt3__15ctypeIcE2idE,
                            __ZNSt3__16localeD1Ev,
                            __ZNSt3__18ios_base33__set_badbit_and_consider_rethrowEv,
                            __ZNSt3__18ios_base5clearEj, __ZSt9terminatev,
                            __ZTVN10__cxxabiv117__class_type_infoE,
                            __ZTVN10__cxxabiv120__si_class_type_infoE,
                            ___CFConstantStringClassReference, ___assert_rtn,
                            ___cxa_begin_catch, ___cxa_end_catch,
                            ___cxa_pure_virtual, ___gxx_personality_v0,
                            ___maskrune, ___stack_chk_fail, ___stack_chk_guard,
                            __dispatch_source_type_mach_recv, __os_log_impl,
                            _bzero, _dispatch_resume, _dispatch_set_context,
                            _dispatch_source_create,
                            _dispatch_source_set_event_handler_f, _free,
                            _kCFAllocatorDefault, _kCFAllocatorSystemDefault,
                            _kCFTypeArrayCallBacks, _kIOMasterPortDefault,
                            _mach_error_string, _mach_port_mod_refs,
                            _mach_task_self_, _mach_timebase_info, _malloc, _memcpy,
                            _memset, _os_log_create, _os_log_type_enabled,
                            _os_release, _snprintf, _strlen, dyld_stub_binder ]
...
