--- !tapi-tbd
tbd-version:     4
targets:         [ armv7-ios, armv7s-ios, arm64-ios, arm64e-ios ]
install-name:    '/System/Library/Frameworks/AudioToolbox.framework/libValidationCapsule.dylib'
exports:
  - targets:         [ armv7-ios, armv7s-ios, arm64-ios, arm64e-ios ]
    symbols:         [ _CAShowAudioChannelLayout, _Synchronously, _Synchronously_ServicingMainRunLoop, 
                       _validate, _validateWithParametersAsync, _validationCapsuleVersion ]
  - targets:         [ arm64-ios, arm64e-ios ]
    symbols:         [ __Z26CAShowComponentDescriptionPK25AudioComponentDescription, 
                       __ZN11AUFunctions10OpenAUSyncEP20OpaqueAudioComponentRP28OpaqueAudioComponentInstanceb, 
                       __ZN11AUFunctions11OpenAUAsyncEP20OpaqueAudioComponentbU13block_pointerFvP28OpaqueAudioComponentInstanceibE, 
                       __ZN11AUFunctions14OSTypeToStringEjPcm, __ZN11AUFunctions17GetCompBundleVersEP20OpaqueAudioComponent, 
                       __ZN11AUFunctions20ASBDIsValidCanonicalERK24CAStreamBasicDescription, 
                       __ZN11AUFunctions6ShowCFEPK10__CFString, __ZN11CAAudioUnit11SetAUPresetEPKv, 
                       __ZN11CAAudioUnit12SetParameterEjjjfj, __ZN11CAAudioUnit13MIDIEventListEPK13MIDIEventListj, 
                       __ZN11CAAudioUnit13SetSampleRateEd, __ZN11CAAudioUnit13SetSampleRateEjjd, 
                       __ZN11CAAudioUnit15ProcessMultipleERjRK14AudioTimeStampjjPPK15AudioBufferListjPPS4_, 
                       __ZN11CAAudioUnit15SetElementCountEjj, __ZN11CAAudioUnit16SetChannelLayoutEjjRK18AudioChannelLayoutj, 
                       __ZN11CAAudioUnit16SetChannelLayoutEjjRK20CAAudioChannelLayout, 
                       __ZN11CAAudioUnit16SetPresentPresetERK8AUPreset, __ZN11CAAudioUnit17SetNumberChannelsEjjj, 
                       __ZN11CAAudioUnit18ClearChannelLayoutEjj, __ZN11CAAudioUnit20SetMaxFramesPerSliceEj, 
                       __ZN11CAAudioUnit21ConfigureDynamicScopeEjjPjd, __ZN11CAAudioUnit22RemovePropertyListenerEjPFvPvP28OpaqueAudioComponentInstancejjjES0_, 
                       __ZN11CAAudioUnit23SetAUPresetFromDocumentEPKv, __ZN11CAAudioUnit4OpenERK11CAComponentRS_, 
                       __ZN11CAAudioUnit5CloseEv, __ZN11CAAudioUnit6RenderEPjPK14AudioTimeStampjjP15AudioBufferList, 
                       __ZN11CAAudioUnit7AUStateD0Ev, __ZN11CAAudioUnit7AUStateD1Ev, 
                       __ZN11CAAudioUnit7AUStateD2Ev, __ZN11CAAudioUnit7ProcessERjRK14AudioTimeStampjR15AudioBufferList, 
                       __ZN11CAAudioUnit8StopNoteEjjj, __ZN11CAAudioUnit9MIDIEventEjjjj, 
                       __ZN11CAAudioUnit9SetFormatEjjRK27AudioStreamBasicDescription, 
                       __ZN11CAAudioUnit9StartNoteEjjPjjPK21MusicDeviceNoteParams, 
                       __ZN11CAAudioUnitC1ERK11CAComponent, __ZN11CAAudioUnitC1ERKP28OpaqueAudioComponentInstance, 
                       __ZN11CAAudioUnitC1ERKiRKP28OpaqueAudioComponentInstance, 
                       __ZN11CAAudioUnitC2ERK11CAComponent, __ZN11CAAudioUnitC2ERKP28OpaqueAudioComponentInstance, 
                       __ZN11CAAudioUnitC2ERKiRKP28OpaqueAudioComponentInstance, 
                       __ZN11CAAudioUnitD1Ev, __ZN11CAAudioUnitD2Ev, __ZN11CAAudioUnitaSERKS_, 
                       __ZN11CAComponent5ClearEv, __ZN11CAComponentC1ERK25AudioComponentDescriptionPS_, 
                       __ZN11CAComponentC1ERKP20OpaqueAudioComponent, __ZN11CAComponentC1ERKP28OpaqueAudioComponentInstance, 
                       __ZN11CAComponentC1Ejjj, __ZN11CAComponentC2ERK25AudioComponentDescriptionPS_, 
                       __ZN11CAComponentC2ERKP20OpaqueAudioComponent, __ZN11CAComponentC2ERKP28OpaqueAudioComponentInstance, 
                       __ZN11CAComponentC2Ejjj, __ZN11CAComponentD1Ev, __ZN11CAComponentD2Ev, 
                       __ZN11CAComponentaSERKS_, __ZN11CAExceptionD0Ev, __ZN11CAExceptionD1Ev, 
                       __ZN11CAExceptionD2Ev, __ZN12CADeprecated10AUOutputBL7PrepareEjb, 
                       __ZN12CADeprecated10AUOutputBL8AllocateEj, __ZN12CADeprecated10AUOutputBLC1ERK24CAStreamBasicDescriptionj, 
                       __ZN12CADeprecated10AUOutputBLC2ERK24CAStreamBasicDescriptionj, 
                       __ZN12CADeprecated10AUOutputBLD1Ev, __ZN12CADeprecated10AUOutputBLD2Ev, 
                       __ZN12CAXException15sWarningHandlerE, __ZN12CAXExceptionD0Ev, 
                       __ZN12CAXExceptionD1Ev, __ZN12CAXExceptionD2Ev, __ZN14CAAUChanHelperC1ERK11CAAudioUnitj, 
                       __ZN14CAAUChanHelperC1Ej, __ZN14CAAUChanHelperC2ERK11CAAudioUnitj, 
                       __ZN14CAAUChanHelperC2Ej, __ZN14CAAUChanHelperD1Ev, __ZN14CAAUChanHelperD2Ev, 
                       __ZN14CAAUChanHelperaSERKS_, __ZN19AUValidationCapsule10FatalErrorEPKci, 
                       __ZN19AUValidationCapsule10getVersionEv, __ZN19AUValidationCapsule11CheckFormatEjjbb, 
                       __ZN19AUValidationCapsule11PrintLayoutERK20CAAudioChannelLayout, 
                       __ZN19AUValidationCapsule11ProfileOpenEU13block_pointerFvbE, 
                       __ZN19AUValidationCapsule11RenderTestsEv, __ZN19AUValidationCapsule12AUFormatTestEv, 
                       __ZN19AUValidationCapsule12InitializeAUER11CAAudioUnit, __ZN19AUValidationCapsule12SetBusFormatER11CAAudioUnitjjj, 
                       __ZN19AUValidationCapsule12TestPropertyERK20PropertyExpectations, 
                       __ZN19AUValidationCapsule12VerifyScopesEv, __ZN19AUValidationCapsule13CheckACLWriteERKNSt3__16vectorIjNS0_9allocatorIjEEEEjjRb, 
                       __ZN19AUValidationCapsule13MessageNoLineEPKc, __ZN19AUValidationCapsule13RampParameterEv, 
                       __ZN19AUValidationCapsule13ScopeForIndexEj, __ZN19AUValidationCapsule13TestClassInfoEv, 
                       __ZN19AUValidationCapsule13TestParameterEjjRK22AudioUnitParameterInfoRb, 
                       __ZN19AUValidationCapsule13VerifyStringsEv, __ZN19AUValidationCapsule14TestRenderProcEPvPjPK14AudioTimeStampjjP15AudioBufferList, 
                       __ZN19AUValidationCapsule15ACLWritableTestEjjj, __ZN19AUValidationCapsule15CheckACLSupportERKNSt3__16vectorIjNS0_9allocatorIjEEEEjjRb, 
                       __ZN19AUValidationCapsule15FillRenderInputERK24CAStreamBasicDescriptionjP15AudioBufferList, 
                       __ZN19AUValidationCapsule15RenderPreflightEj, __ZN19AUValidationCapsule16ACLMatchesFormatEjjRj, 
                       __ZN19AUValidationCapsule16CheckFormatScopeEjjb, __ZN19AUValidationCapsule16CleanupParamInfoERK22AudioUnitParameterInfo, 
                       __ZN19AUValidationCapsule16TestPropertyInitEb, __ZN19AUValidationCapsule17FetchInputFormatsEv, 
                       __ZN19AUValidationCapsule17InitSetExtraBusesEjjd, __ZN19AUValidationCapsule17IsMatrixMixerUnitERK22CAComponentDescription, 
                       __ZN19AUValidationCapsule17ProfileParametersEv, __ZN19AUValidationCapsule17ScopeNameForScopeEj, 
                       __ZN19AUValidationCapsule17SpecialPropertiesEv, __ZN19AUValidationCapsule18ScheduleParametersEv, 
                       __ZN19AUValidationCapsule18TestFactoryPresetsEv, __ZN19AUValidationCapsule19InitialiseForRenderEv, 
                       __ZN19AUValidationCapsule20AURenderNotificationEPvPjPK14AudioTimeStampjjP15AudioBufferList, 
                       __ZN19AUValidationCapsule20DoParameterDiagnosisEjjRb, __ZN19AUValidationCapsule20TestPropertyListenerEv, 
                       __ZN19AUValidationCapsule20sValidComponentTypesE, __ZN19AUValidationCapsule22TestScopeDefaultFormatEjjPKcRj, 
                       __ZN19AUValidationCapsule24AURenderRampNotificationEPvPjPK14AudioTimeStampjjP15AudioBufferList, 
                       __ZN19AUValidationCapsule24ConfigureMatrixMixerUnitER11CAAudioUnit, 
                       __ZN19AUValidationCapsule24DoesHandleChannelLayoutsEjb, __ZN19AUValidationCapsule27replaceCapsuleResultHandlerENSt3__110shared_ptrINS_32AUValidationCapsuleOutputHandlerEEE, 
                       __ZN19AUValidationCapsule28ValidateParameterValuesMatchEv, 
                       __ZN19AUValidationCapsule32AUValidationCapsuleOutputHandler10FatalErrorEPKci, 
                       __ZN19AUValidationCapsule32AUValidationCapsuleOutputHandler11PrintLayoutERK20CAAudioChannelLayout, 
                       __ZN19AUValidationCapsule32AUValidationCapsuleOutputHandler13MessageNoLineEPKc, 
                       __ZN19AUValidationCapsule32AUValidationCapsuleOutputHandler5ErrorEPKc, 
                       __ZN19AUValidationCapsule32AUValidationCapsuleOutputHandler5PrintEPKcz, 
                       __ZN19AUValidationCapsule32AUValidationCapsuleOutputHandler6ShowCFEPK10__CFString, 
                       __ZN19AUValidationCapsule32AUValidationCapsuleOutputHandler6VerifyEiPKc, 
                       __ZN19AUValidationCapsule32AUValidationCapsuleOutputHandler7MessageEPKc, 
                       __ZN19AUValidationCapsule32AUValidationCapsuleOutputHandler7WarningEPKc, 
                       __ZN19AUValidationCapsule32AUValidationCapsuleOutputHandler9BreakLineEb, 
                       __ZN19AUValidationCapsule32AUValidationCapsuleOutputHandler9PrintDescERK24CAStreamBasicDescription, 
                       __ZN19AUValidationCapsule32CreatePropertyExpectationObjectsEv, 
                       __ZN19AUValidationCapsule5ErrorEPKc, __ZN19AUValidationCapsule6OpenAUEP20OpaqueAudioComponentbU13block_pointerFvifE, 
                       __ZN19AUValidationCapsule6ShowCFEPK10__CFString, __ZN19AUValidationCapsule6VerifyEiPKc, 
                       __ZN19AUValidationCapsule7CloseAUEv, __ZN19AUValidationCapsule7MessageEPKc, 
                       __ZN19AUValidationCapsule7WarningEPKc, __ZN19AUValidationCapsule8DoRenderER14AudioTimeStampjNSt3__16bitsetILm3EEEjb, 
                       __ZN19AUValidationCapsule8FoundACLERKNSt3__16vectorIjNS0_9allocatorIjEEEEjRb, 
                       __ZN19AUValidationCapsule8ValidateEbU13block_pointerFviE, 
                       __ZN19AUValidationCapsule9BreakLineEb, __ZN19AUValidationCapsule9GetAUTypeEj, 
                       __ZN19AUValidationCapsule9PrintDescERK24CAStreamBasicDescription, 
                       __ZN19AUValidationCapsuleC1E25AudioComponentDescriptionRK27ValidationCapsuleParameters, 
                       __ZN19AUValidationCapsuleC2E25AudioComponentDescriptionRK27ValidationCapsuleParameters, 
                       __ZN19AUValidationCapsuleD1Ev, __ZN19AUValidationCapsuleD2Ev, 
                       __ZN20CAAudioChannelLayout10SetWithTagEj, __ZN20CAAudioChannelLayout14NumberChannelsERK18AudioChannelLayout, 
                       __ZN20CAAudioChannelLayout15SetAllToUnknownER18AudioChannelLayoutj, 
                       __ZN20CAAudioChannelLayout3SetEPK18AudioChannelLayoutm, __ZN20CAAudioChannelLayout5ClearEv, 
                       __ZN20CAAudioChannelLayout6CreateEj, __ZN20CAAudioChannelLayout7DestroyEP18AudioChannelLayout, 
                       __ZN20CAAudioChannelLayoutC1EPK18AudioChannelLayout, __ZN20CAAudioChannelLayoutC1ERKS_, 
                       __ZN20CAAudioChannelLayoutC1Ej, __ZN20CAAudioChannelLayoutC1Ejb, 
                       __ZN20CAAudioChannelLayoutC1Ev, __ZN20CAAudioChannelLayoutC2EPK18AudioChannelLayout, 
                       __ZN20CAAudioChannelLayoutC2ERKS_, __ZN20CAAudioChannelLayoutC2Ej, 
                       __ZN20CAAudioChannelLayoutC2Ejb, __ZN20CAAudioChannelLayoutC2Ev, 
                       __ZN20CAAudioChannelLayoutD1Ev, __ZN20CAAudioChannelLayoutD2Ev, 
                       __ZN20CAAudioChannelLayoutaSEPK18AudioChannelLayout, __ZN20CAAudioChannelLayoutaSERKS_, 
                       __ZN20PropertyExpectationsC1EjPKcjjbb, __ZN20PropertyExpectationsC2EjPKcjjbb, 
                       __ZN20PropertyExpectationsD1Ev, __ZN20PropertyExpectationsD2Ev, 
                       __ZN22CAComponentDescription27_CAShowComponentDescriptionEPK25AudioComponentDescriptionP7__sFILE, 
                       __ZN22CAComponentDescriptionC1Ejjj, __ZN22CAComponentDescriptionC2Ejjj, 
                       __ZNK11CAAudioUnit11GetAUPresetERPKv, __ZNK11CAAudioUnit12CheckOneSideERK14CAAUChanHelperbPK13AUChannelInfoj, 
                       __ZNK11CAAudioUnit12GetParameterEjjjRf, __ZNK11CAAudioUnit13GetSampleRateEjjRd, 
                       __ZNK11CAAudioUnit13HasCustomViewEv, __ZNK11CAAudioUnit14NumberChannelsEjjRj, 
                       __ZNK11CAAudioUnit15GetElementCountEjRj, __ZNK11CAAudioUnit15HasDynamicScopeEjRi, 
                       __ZNK11CAAudioUnit16GetChannelLayoutEjjR20CAAudioChannelLayout, 
                       __ZNK11CAAudioUnit16GetPresentPresetER8AUPreset, __ZNK11CAAudioUnit16HasChannelLayoutEjj, 
                       __ZNK11CAAudioUnit17HasChannelLayoutsEjj, __ZNK11CAAudioUnit19AudioUnitProtocolIDEv, 
                       __ZNK11CAAudioUnit19SupportsNumChannelsEv, __ZNK11CAAudioUnit19ValidateChannelPairEiiPK13AUChannelInfoj, 
                       __ZNK11CAAudioUnit20GetChannelLayoutTagsEjjRNSt3__16vectorIjNS0_9allocatorIjEEEE, 
                       __ZNK11CAAudioUnit20GetMaxFramesPerSliceERj, __ZNK11CAAudioUnit20ValidateDynamicScopeEjRiPK13AUChannelInfoj, 
                       __ZNK11CAAudioUnit22IsElementCountWritableEjRb, __ZNK11CAAudioUnit2AUEv, 
                       __ZNK11CAAudioUnit5CanDoERK14CAAUChanHelperS2_, __ZNK11CAAudioUnit5CanDoEii, 
                       __ZNK11CAAudioUnit5PrintEP7__sFILE, __ZNK11CAAudioUnit7IsValidEv, 
                       __ZNK11CAAudioUnit7LatencyEv, __ZNK11CAAudioUnit9CanBypassEv, 
                       __ZNK11CAAudioUnit9GetAUNodeEv, __ZNK11CAAudioUnit9GetBypassEv, 
                       __ZNK11CAAudioUnit9GetFormatEjjR27AudioStreamBasicDescription, 
                       __ZNK11CAAudioUnit9SetBypassEb, __ZNK11CAAudioUniteqERKP28OpaqueAudioComponentInstance, 
                       __ZNK11CAAudioUniteqERKS_, __ZNK11CAComponent10GetVersionERj, 
                       __ZNK11CAComponent12SetCompNamesEv, __ZNK11CAComponent5PrintEP7__sFILE, 
                       __ZNK19AUValidationCapsule12HasMidiInputEv, __ZNK19AUValidationCapsule12IsDeviceUnitEv, 
                       __ZNK19AUValidationCapsule15IsDefRenderUnitEv, __ZNK19AUValidationCapsule16BusCountForScopeEj, 
                       __ZNK19AUValidationCapsule16DoConnectionTestEb, __ZNK19AUValidationCapsule16InStdChanConfigsEv, 
                       __ZNK19AUValidationCapsule25CheckDynamicScopeSemanticEv, __ZNK19AUValidationCapsule28DummyMethodToTestThisPointerEv, 
                       __ZNK20CAAudioChannelLayout5PrintEP7__sFILE, __ZNK20CAAudioChannelLayouteqERKS_, 
                       __ZNK20CAAudioChannelLayoutneERKS_, __ZNK20PropertyExpectations11GetDataSizeEv, 
                       __ZNK20PropertyExpectations14ScopeSupportedEj, __ZNK20PropertyExpectations16PropertyRequiredEv, 
                       __ZNK20PropertyExpectations5GetIDEv, __ZNK20PropertyExpectations7GetNameEv, 
                       __ZNK22CAComponentDescription4IsAUEv, __ZNK22CAComponentDescription7MatchesERK25AudioComponentDescription, 
                       __ZTT11CAException, __ZTV11CAException, __ZTV12CAXException, 
                       __ZTVN11CAAudioUnit7AUStateE, __ZTVN19AUValidationCapsule32AUValidationCapsuleOutputHandlerE, 
                       __ZTv0_n24_N11CAExceptionD0Ev, __ZTv0_n24_N11CAExceptionD1Ev ]
    weak-symbols:    [ __ZNSt3__119piecewise_constructE ]
...
