--- !tapi-tbd
tbd-version:           4
targets:               [ armv7-ios, armv7s-ios, arm64-ios, arm64e-ios ]
flags:                 [ flat_namespace ]
install-name:          /System/Library/PrivateFrameworks/CoreThreadRadio.framework/CoreThreadRadio
current-version:       1
compatibility-version: 1
exports:
  - targets:              [ armv7-ios, armv7s-ios, arm64-ios, arm64e-ios ]
    symbols:              [ _CoreThreadRadioVersionNumber,
                            _CoreThreadRadioVersionString,
                            __Z22dump_info_from_xpc_msgP7__sFILEPvy,
                            __Z22xpc_parse_network_infoP19wpan_network_info_sPv,
                            __Z24checkEntitlementInServerN3xpc10connectionENS_4dictEN8dispatch8callbackIU13block_pointerFvhS1_EEE,
                            __Z26checkEntitlementForMachMsgN3xpc10connectionENSt3__112basic_stringIcNS1_11char_traitsIcEENS1_9allocatorIcEEEE,
                            __Z28getEntitlementFromMethodNamePKcS0_,
                            __Z29parse_basic_type_from_xpc_msgN3xpc4dictEPvy,
                            __Z33CtrXpcClient_form_response_helperRN6CtrXPC6ResultEN3xpc4dictE,
                            __Z33CtrXpcClient_join_response_helperRN6CtrXPC6ResultEN3xpc4dictE,
                            __Z33CtrXpcClient_scan_response_helperRN6CtrXPC6ResultEN3xpc4dictE,
                            __Z34CtrXpcClient_form_interface_helperN3xpc4dictEPv,
                            __Z34CtrXpcClient_join_interface_helperN3xpc4dictEPv,
                            __Z34CtrXpcClient_leave_response_helperRN6CtrXPC6ResultEN3xpc4dictE,
                            __Z34CtrXpcClient_reset_response_helperRN6CtrXPC6ResultEN3xpc4dictE,
                            __Z34CtrXpcClient_scan_interface_helperN3xpc4dictEPv,
                            __Z35CtrXpcClient_joiner_response_helperRN6CtrXPC6ResultEN3xpc4dictE,
                            __Z35CtrXpcClient_leave_interface_helperN3xpc4dictEPv,
                            __Z35CtrXpcClient_reset_interface_helperN3xpc4dictEPv,
                            __Z35CtrXpcClient_resume_response_helperRN6CtrXPC6ResultEN3xpc4dictE,
                            __Z36CtrXpcClient_getprop_response_helperRN6CtrXPC6ResultEN3xpc4dictE,
                            __Z36CtrXpcClient_joiner_interface_helperN3xpc4dictEPv,
                            __Z36CtrXpcClient_resume_interface_helperN3xpc4dictEPv,
                            __Z36CtrXpcClient_setprop_response_helperRN6CtrXPC6ResultEN3xpc4dictE,
                            __Z37CtrXpcClient_getprop_interface_helperN3xpc4dictEPv,
                            __Z37CtrXpcClient_setprop_interface_helperN3xpc4dictEPv,
                            __Z39CtrXpcClient_SetChannel_response_helperRN6CtrXPC6ResultEN3xpc4dictE,
                            __Z39CtrXpcClient_send_data_interface_helperN3xpc4dictEPv,
                            __Z40CtrXpcClient_SetChannel_interface_helperN3xpc4dictEPv,
                            __Z40CtrXpcClient_add_service_response_helperRN6CtrXPC6ResultEN3xpc4dictE,
                            __Z40CtrXpcClient_stopPairing_response_helperRN6CtrXPC6ResultEN3xpc4dictE,
                            __Z40CtrXpcClient_threadLeave_response_helperRN6CtrXPC6ResultEN3xpc4dictE,
                            __Z40CtrXpcClient_threadStart_response_helperRN6CtrXPC6ResultEN3xpc4dictE,
                            __Z41CtrXpcClient_add_service_interface_helperN3xpc4dictEPv,
                            __Z41CtrXpcClient_generatePSKc_response_helperRN6CtrXPC6ResultEN3xpc4dictE,
                            __Z41CtrXpcClient_startPairing_response_helperRN6CtrXPC6ResultEN3xpc4dictE,
                            __Z41CtrXpcClient_stopPairing_interface_helperN3xpc4dictEPv,
                            __Z41CtrXpcClient_threadLeave_interface_helperN3xpc4dictEPv,
                            __Z41CtrXpcClient_threadStart_interface_helperN3xpc4dictEPv,
                            __Z42CtrXpcClient_generatePSKc_interface_helperN3xpc4dictEPv,
                            __Z42CtrXpcClient_startPairing_interface_helperN3xpc4dictEPv,
                            __Z43CtrXpcClient_config_gateway_response_helperRN6CtrXPC6ResultEN3xpc4dictE,
                            __Z43CtrXpcClient_remove_service_response_helperRN6CtrXPC6ResultEN3xpc4dictE,
                            __Z44CtrXpcClient_attachToNetwork_response_helperRN6CtrXPC6ResultEN3xpc4dictE,
                            __Z44CtrXpcClient_config_gateway_interface_helperN3xpc4dictEPv,
                            __Z44CtrXpcClient_remove_service_interface_helperN3xpc4dictEPv,
                            __Z45CtrXpcClient_attachToNetwork_interface_helperN3xpc4dictEPv,
                            __Z45CtrXpcClient_sendnwdiaggetreq_response_helperRN6CtrXPC6ResultEN3xpc4dictE,
                            __Z46CtrXpcClient_sendnwdiaggetreq_interface_helperN3xpc4dictEPv,
                            __Z47CtrXpcClient_captureTriggerData_response_helperRN6CtrXPC6ResultEN3xpc4dictE,
                            __Z48CtrXpcClient_captureTriggerData_interface_helperN3xpc4dictEPv,
                            __Z48CtrXpcClient_generateDiagnostics_response_helperRN6CtrXPC6ResultEN3xpc4dictE,
                            __Z49CtrXpcClient_generateDiagnostics_interface_helperN3xpc4dictEPv,
                            __Z50CtrXpcClient_updatePrimaryResident_response_helperRN6CtrXPC6ResultEN3xpc4dictE,
                            __Z51CtrXpcClient_updatePrimaryResident_interface_helperN3xpc4dictEPv,
                            __Z52CtrXpcClient_commissionOrFormNetwork_response_helperRN6CtrXPC6ResultEN3xpc4dictE,
                            __Z53CtrXpcClient_commissionOrFormNetwork_interface_helperN3xpc4dictEPv,
                            __Z54CtrXpcClient_provideExtendedMACAddress_response_helperRN6CtrXPC6ResultEN3xpc4dictE,
                            __Z55CtrXpcClient_provideExtendedMACAddress_interface_helperN3xpc4dictEPv,
                            __ZN6CtrXPC11kKeyCommandE, __ZN6CtrXPC11kKeyTimeoutE,
                            __ZN6CtrXPC13kKeyErrorCodeE,
                            __ZN6CtrXPC13kKeyEventDataE,
                            __ZN6CtrXPC13kValueInvalidE,
                            __ZN6CtrXPC14kKeyClientNameE,
                            __ZN6CtrXPC14kKeyEventsListE,
                            __ZN6CtrXPC15kClientHostNameE,
                            __ZN6CtrXPC15kCommandCheckInE,
                            __ZN6CtrXPC15kKeyCommandDataE,
                            __ZN6CtrXPC15kKeyErrorStringE,
                            __ZN6CtrXPC15kKeyServerStateE,
                            __ZN6CtrXPC15kServerHostNameE,
                            __ZN6CtrXPC15kServiceXPCNameE,
                            __ZN6CtrXPC16kCommandEventsOnE,
                            __ZN6CtrXPC17kCommandEventsOffE,
                            __ZN6CtrXPC17kKeyCommandResultE,
                            __ZN6CtrXPC17kServerStateErrorE,
                            __ZN6CtrXPC18kEventNotificationE,
                            __ZN6CtrXPC19kEventServerSIGTERME,
                            __ZN6CtrXPC19kKeyTimestampStringE,
                            __ZN6CtrXPC19kServerStateStartedE,
                            __ZN6CtrXPC19kServerStateStoppedE,
                            __ZN6CtrXPC20kServerStateStartingE,
                            __ZN6CtrXPC20kServerStateStoppingE,
                            __ZN6CtrXPC21kEventSystemPoweredOnE,
                            __ZN6CtrXPC23kEventServerStateChangeE,
                            __ZN6CtrXPC24kEventSystemShuttingDownE,
                            __ZN6CtrXPC24kServiceNotificationNameE,
                            __ZN6CtrXPC26kServerEnablePowerObserverE,
                            __ZN6CtrXPC26kServerEnableSignalHandlerE,
                            __ZN6CtrXPC27kEventSystemExitingLowPowerE,
                            __ZN6CtrXPC28kEventSystemEnteringLowPowerE,
                            __ZN6CtrXPC5Event6createEN3xpc4dictEN8dispatch8callbackIU13block_pointerFvS2_EEE,
                            __ZN6CtrXPC5EventC1ENSt3__110shared_ptrINS0_5StateEEE,
                            __ZN6CtrXPC5EventC2ENSt3__110shared_ptrINS0_5StateEEE,
                            __ZN6CtrXPC6Client10addServiceE15Ctr_add_service,
                            __ZN6CtrXPC6Client10setChannelEh,
                            __ZN6CtrXPC6Client11getPropertyEPKcPv,
                            __ZN6CtrXPC6Client11stopPairingE21Ctr_threadCredentialsU13block_pointerFvNS_6ResultEE,
                            __ZN6CtrXPC6Client11threadLeaveEv,
                            __ZN6CtrXPC6Client11threadStartE21Ctr_threadCredentials,
                            __ZN6CtrXPC6Client11threadStartEPKcS2_,
                            __ZN6CtrXPC6Client12generatePSKcE16Ctr_generatePSKcPv,
                            __ZN6CtrXPC6Client12removePrefixE10Ctr_prefix,
                            __ZN6CtrXPC6Client12startPairingE21Ctr_threadCredentialsU13block_pointerFvNS_6ResultEE,
                            __ZN6CtrXPC6Client13removeServiceE18Ctr_remove_service,
                            __ZN6CtrXPC6Client15attachToNetworkE19Ctr_attachToNetwork,
                            __ZN6CtrXPC6Client15attachToNetworkE19Ctr_attachToNetworkPv,
                            __ZN6CtrXPC6Client15setEventHandlerERKNSt3__112basic_stringIcNS1_11char_traitsIcEENS1_9allocatorIcEEEEN8dispatch8callbackIU13block_pointerFvNS1_10shared_ptrINS_5EventEEEEEE,
                            __ZN6CtrXPC6Client15setEventHandlerERKNSt3__112basic_stringIcNS1_11char_traitsIcEENS1_9allocatorIcEEEEU13block_pointerFvNS1_10shared_ptrINS_5EventEEEEN8dispatch5queueE,
                            __ZN6CtrXPC6Client15setEventHandlerERKNSt3__112basic_stringIcNS1_11char_traitsIcEENS1_9allocatorIcEEEEU13block_pointerFvNS1_10shared_ptrINS_5EventEEEEP16dispatch_queue_s,
                            __ZN6CtrXPC6Client15setEventHandlerERKNSt3__112basic_stringIcNS1_11char_traitsIcEENS1_9allocatorIcEEEEU13block_pointerFvNS1_10shared_ptrINS_5EventEEEEPv,
                            __ZN6CtrXPC6Client16processClientApiER8cmd_dataRKNSt3__112basic_stringIcNS3_11char_traitsIcEENS3_9allocatorIcEEEE,
                            __ZN6CtrXPC6Client16processStatsDataEP22Ctr_triggerStatsResultPv,
                            __ZN6CtrXPC6Client17populateStatsDataENSt3__112basic_stringIcNS1_11char_traitsIcEENS1_9allocatorIcEEEEjS7_P22Ctr_triggerStatsResult,
                            __ZN6CtrXPC6Client20generate_diagnosticsEv,
                            __ZN6CtrXPC6Client21send_network_diag_getE22Ctr_send_diagnostics_t,
                            __ZN6CtrXPC6Client21updatePrimaryResidentE23Ctr_primaryResidentInfo,
                            __ZN6CtrXPC6Client23commissionOrFormNetworkEbPv,
                            __ZN6CtrXPC6Client24threadStopWithCompletionE21Ctr_threadCredentialsU13block_pointerFvNS_6ResultEE,
                            __ZN6CtrXPC6Client25provideExtendedMACAddressE21Ctr_threadCredentialsU13block_pointerFvNS_6ResultEE,
                            __ZN6CtrXPC6Client25threadLeaveWithCompletionEU13block_pointerFvNS_6ResultEE,
                            __ZN6CtrXPC6Client25threadStartWithCompletionE21Ctr_threadCredentialsU13block_pointerFvNS_6ResultEE,
                            __ZN6CtrXPC6Client26populateStatsAccessoryDataENSt3__112basic_stringIcNS1_11char_traitsIcEENS1_9allocatorIcEEEEjS7_ibP31Ctr_triggerAccessoryStatsResult,
                            __ZN6CtrXPC6Client28processStatsDataPerAccessoryEP31Ctr_triggerAccessoryStatsResultPv,
                            __ZN6CtrXPC6Client30processClientApiWithCompletionER8cmd_dataU13block_pointerFvNS_6ResultEERKNSt3__112basic_stringIcNS6_11char_traitsIcEENS6_9allocatorIcEEEE,
                            __ZN6CtrXPC6Client32captureTriggerDataWithCompletionEP21Ctr_triggerBasedStats,
                            __ZN6CtrXPC6Client3getEPKcRPv,
                            __ZN6CtrXPC6Client3setEPKcS2_,
                            __ZN6CtrXPC6Client4formE8Ctr_form,
                            __ZN6CtrXPC6Client4joinE8Ctr_join,
                            __ZN6CtrXPC6Client4scanE8Ctr_scan,
                            __ZN6CtrXPC6Client5State35handleDaemonReadyNotificationStaticEP22__CFNotificationCenterPvPK10__CFStringPKvPK14__CFDictionary,
                            __ZN6CtrXPC6Client5StateD0Ev,
                            __ZN6CtrXPC6Client5StateD1Ev,
                            __ZN6CtrXPC6Client5StateD2Ev,
                            __ZN6CtrXPC6Client5leaveEv,
                            __ZN6CtrXPC6Client5resetEb,
                            __ZN6CtrXPC6Client6createEN3xpc4dictE,
                            __ZN6CtrXPC6Client6createEPKc,
                            __ZN6CtrXPC6Client6joinerE10Ctr_joiner,
                            __ZN6CtrXPC6Client6resumeEv,
                            __ZN6CtrXPC6Client7performENSt3__110shared_ptrINS_7CommandEEE,
                            __ZN6CtrXPC6Client7performERKNSt3__112basic_stringIcNS1_11char_traitsIcEENS1_9allocatorIcEEEEN8dispatch8callbackIU13block_pointerFvNS_6ResultEN3xpc4dictEEEESE_,
                            __ZN6CtrXPC6Client8eventsOnEv,
                            __ZN6CtrXPC6Client8sendDataEPKcPhm,
                            __ZN6CtrXPC6Client9addPrefixE10Ctr_prefix,
                            __ZN6CtrXPC6Client9eventsOffEv,
                            __ZN6CtrXPC6ClientC1ENSt3__110shared_ptrINS0_5StateEEE,
                            __ZN6CtrXPC6ClientC2ENSt3__110shared_ptrINS0_5StateEEE,
                            __ZN6CtrXPC6ClientD1Ev, __ZN6CtrXPC6ClientD2Ev,
                            __ZN6CtrXPC7Command6createERKNSt3__112basic_stringIcNS1_11char_traitsIcEENS1_9allocatorIcEEEEN8dispatch8callbackIU13block_pointerFvNS_6ResultEN3xpc4dictEEEESE_,
                            __ZN6CtrXPC7CommandC1ENSt3__110shared_ptrINS0_5StateEEE,
                            __ZN6CtrXPC7CommandC2ENSt3__110shared_ptrINS0_5StateEEE,
                            __ZN6CtrXPC9kKeyEventE,
                            __ZNK6CtrXPC5Event10getDataKeyEv,
                            __ZNK6CtrXPC5Event10getDataStrEv,
                            __ZNK6CtrXPC5Event12getDataValueEv,
                            __ZNK6CtrXPC5Event4nameEv,
                            __ZNK6CtrXPC5Event7getDataEv,
                            __ZNK6CtrXPC5Event7getNameEv,
                            __ZNK6CtrXPC7Command10notifiableEv,
                            __ZNK6CtrXPC7Command3getEv,
                            __ZNK6CtrXPC7Command4nameEv,
                            __ZNK6CtrXPC7Command6notifyENS_6ResultEN3xpc4dictE,
                            __ZNK6CtrXPC7Command7getNameEv,
                            __ZTIN6CtrXPC6Client5StateE,
                            __ZTSN6CtrXPC6Client5StateE,
                            __ZTVN6CtrXPC6Client5StateE, _buffer_is_nonzero,
                            _dump_basic_type_from_xpc_msg, _dump_xpc_msg,
                            _encode_data_into_string, _gInterfaceName, _gRet,
                            _is_hex, _is_uppercase_or_digit, _joiner_state_int2str,
                            _memcmprev, _memcpyrev, _node_type_int2str,
                            _node_type_str2int, _openlog, _parse_node_type,
                            _parse_prefix, _parse_string_into_data,
                            _print_error_diagnosis, _reverse_bytes, _setlogmask,
                            _strtobool, _strtologmask, _strtomask_uint32,
                            _syslog_is_the_mask_enabled,
                            _wpantund_status_to_cstr ]
    objc-classes:         [ CtrAccessoryInfoType,
                            CtrAccessorySpecificTriggerResult, CtrClient,
                            CtrClientSysdiag, CtrTriggerResult ]
    objc-ivars:           [ CtrAccessoryInfoType._ipaddr,
                            CtrAccessoryInfoType._isBatteryPowered,
                            CtrAccessoryInfoType._isMatter,
                            CtrAccessoryInfoType._name,
                            CtrAccessorySpecificTriggerResult._avg_rssi,
                            CtrAccessorySpecificTriggerResult._ip_addr,
                            CtrAccessorySpecificTriggerResult._is_current_node_parent,
                            CtrAccessorySpecificTriggerResult._is_direct_link,
                            CtrAccessorySpecificTriggerResult._is_link_loss_detected,
                            CtrAccessorySpecificTriggerResult._is_neighbor_table_removal_detected,
                            CtrAccessorySpecificTriggerResult._last_known_role,
                            CtrAccessorySpecificTriggerResult._name,
                            CtrAccessorySpecificTriggerResult._rx_icmp_total,
                            CtrAccessorySpecificTriggerResult._rx_success_perc,
                            CtrAccessorySpecificTriggerResult._rx_total,
                            CtrAccessorySpecificTriggerResult._rx_total_success,
                            CtrAccessorySpecificTriggerResult._tx_delayavg,
                            CtrAccessorySpecificTriggerResult._tx_delaymax,
                            CtrAccessorySpecificTriggerResult._tx_delaymin,
                            CtrAccessorySpecificTriggerResult._tx_icmp_total,
                            CtrAccessorySpecificTriggerResult._tx_success_perc,
                            CtrAccessorySpecificTriggerResult._tx_total,
                            CtrAccessorySpecificTriggerResult._tx_total_success,
                            CtrClient.CtrXPCClientPtr,
                            CtrClientSysdiag.ctrClient,
                            CtrTriggerResult._accessory_result,
                            CtrTriggerResult._coex_rx_denied_requests_percentage,
                            CtrTriggerResult._coex_tx_denied_requests_percentage,
                            CtrTriggerResult._duration,
                            CtrTriggerResult._is_border_router_advertised,
                            CtrTriggerResult._is_leader_thirdparty,
                            CtrTriggerResult._is_parent_change_detected,
                            CtrTriggerResult._is_partition_id_change_detected,
                            CtrTriggerResult._is_role_detach_disable_detected,
                            CtrTriggerResult._is_threaddaemon_crash_detected,
                            CtrTriggerResult._is_threadfw_crash_detected,
                            CtrTriggerResult._last_known_device_role,
                            CtrTriggerResult._leader_name,
                            CtrTriggerResult._max_simultaneous_prefix_detected,
                            CtrTriggerResult._num_apple_BRs,
                            CtrTriggerResult._num_border_routers_advertised,
                            CtrTriggerResult._num_routers,
                            CtrTriggerResult._num_thirdparty_BRs,
                            CtrTriggerResult._num_thread_networks,
                            CtrTriggerResult._rx_success_perc,
                            CtrTriggerResult._rx_total,
                            CtrTriggerResult._rx_total_success,
                            CtrTriggerResult._thread_mesh_size,
                            CtrTriggerResult._tx_delayavg,
                            CtrTriggerResult._tx_delaymax,
                            CtrTriggerResult._tx_delaymin,
                            CtrTriggerResult._tx_success_perc,
                            CtrTriggerResult._tx_total,
                            CtrTriggerResult._tx_total_success ]
...
