--- !tapi-tbd
tbd-version:           4
targets:               [ armv7-ios, armv7s-ios, arm64-ios, arm64e-ios ]
flags:                 [ flat_namespace ]
install-name:          /System/Library/PrivateFrameworks/DesktopServicesPriv.framework/DesktopServicesPriv
current-version:       1626
compatibility-version: 1
exports:
  - targets:              [ armv7-ios, armv7s-ios, arm64-ios, arm64e-ios ]
    symbols:              [ _DSArchiveServiceErrorDomain,
                            _DSArchiveServiceStreamingXPCInterface,
                            _DSArchiveServiceXPCInterface,
                            _DSFileOperationChildProgressUUIDUserInfoKey,
                            _DSFileOperationDateStartedUserInfoKey,
                            _DSFileOperationIconUTTypeIdentifierUserInfoKey,
                            _DSFileOperationItemCountUserInfoKey,
                            _DSFileOperationUUIDUserInfoKey,
                            _DSPropertyTypeToPropertyReferenceDataType,
                            _DSSetSuppressMainThreadIOAssert,
                            _DSSetSuppressMainThreadOpenPropertyStoreAssert,
                            _DS_DateIsBusyFolderDate, _DS_Unit_Tests,
                            _DesktopServicesPrivVersionNumber,
                            _DesktopServicesPrivVersionString, _MacStrError,
                            _NewVolumeIterator, _NodeAddServerToSidebar,
                            _NodeContextClose, _NodeContextFlush, _NodeContextOpen,
                            _NodeCopyAsPathName, _NodeCopyAsURL,
                            _NodeCopyBRContainer, _NodeCopyBookmarkData,
                            _NodeCopyChildFromName, _NodeCopyDecorationLabels,
                            _NodeCopyFPItem, _NodeCopyFPProviderDomain,
                            _NodeCopyFromAlias, _NodeCopyFromBookmarkData,
                            _NodeCopyFromPathName, _NodeCopyFromURL,
                            _NodeCopyNodeRef, _NodeCopyOriginalPath,
                            _NodeCopyParentNode, _NodeCopyPathName,
                            _NodeCopyPhysicalParentNode,
                            _NodeCopyPropertiesAsCFStrings,
                            _NodeCopyPropertiesAsInt32s,
                            _NodeCopyPropertyAsCFArray,
                            _NodeCopyPropertyAsCFData, _NodeCopyPropertyAsCFDate,
                            _NodeCopyPropertyAsCFDictionary,
                            _NodeCopyPropertyAsCFNumber,
                            _NodeCopyPropertyAsCFString,
                            _NodeCopyPropertyAsNSObject,
                            _NodeCopyPropertyForNodesAsCFStrings,
                            _NodeCopyReplicaNodes, _NodeCopyRequest,
                            _NodeCopySFNodeRef, _NodeCopySpecialFolder,
                            _NodeCreateNewReplicaNode, _NodeCreateNewRequest,
                            _NodeDiagnosticLogging, _NodeDisconnectShare,
                            _NodeDispatchEvent, _NodeDisposeEventQueue,
                            _NodeDisposeIterator, _NodeDisposeNodeRef,
                            _NodeDisposeNotifier, _NodeDisposeRequest,
                            _NodeEventCopyEvent,
                            _NodeEventCopyHandlerDebugString, _NodeEventCopyNode,
                            _NodeEventCopyRegistrationParent,
                            _NodeEventCopyResolvedParent,
                            _NodeEventDisposeEventQueue,
                            _NodeEventGetContextInfo, _NodeEventGetKind,
                            _NodeEventGetNextEvent, _NodeEventGetProperty,
                            _NodeEventGetStatus, _NodeEventNewEventQueue,
                            _NodeEventPostReply, _NodeEventRelease,
                            _NodeEventsRelease, _NodeGetChildrenCount,
                            _NodeGetEndpoint, _NodeGetMediaTypes,
                            _NodeGetPropertiesAsCFAbsoluteTimes,
                            _NodeGetPropertyAsBool, _NodeGetPropertyAsBoolean,
                            _NodeGetPropertyAsByte,
                            _NodeGetPropertyAsCFAbsoluteTime,
                            _NodeGetPropertyAsData, _NodeGetPropertyAsInt16,
                            _NodeGetPropertyAsInt32, _NodeGetPropertyAsInt64,
                            _NodeGetPropertyAsOSType, _NodeGetPropertyAsString,
                            _NodeGetPropertyForNodesAsCFAbsoluteTimes,
                            _NodeGetPropertyForNodesAsInt32s, _NodeHasCustomIcon,
                            _NodeIs, _NodeIsAlias, _NodeIsApplication,
                            _NodeIsClipping, _NodeIsComputer, _NodeIsContainer,
                            _NodeIsDiagnosticLoggingEnabled,
                            _NodeIsDiagnosticLoggingSupported, _NodeIsFontFile,
                            _NodeIsFullyFormed, _NodeIsLocation,
                            _NodeIsOnReadOnlySystemVolume, _NodeIsPackage,
                            _NodeIsSavedQuery, _NodeIsSymLink, _NodeIsVirtual,
                            _NodeIsVisible, _NodeIsVolume, _NodeIsiDisk,
                            _NodeIteratorAtIndex, _NodeIteratorFirst,
                            _NodeIteratorFullyPopulated, _NodeIteratorNext,
                            _NodeIteratorSize, _NodeNewChangeHandlerOnQueue,
                            _NodeNewChangeNotifier,
                            _NodeNewChangeNotifierOnQueue, _NodeNewEventQueue,
                            _NodeNewEventQueueWithTickleBlock, _NodeNewIterator,
                            _NodeOnSamePhysicalDevice, _NodeOpenServer,
                            _NodeRegisterChangeNotification,
                            _NodeRemoveServerFromSidebar, _NodeRequestGetTask,
                            _NodeRequestSynchronization, _NodeResolveReplicaNode,
                            _NodeRestartObserving, _NodeSetPropertyAsBool,
                            _NodeSetPropertyAsBoolean, _NodeSetPropertyAsByte,
                            _NodeSetPropertyAsCFAbsoluteTime,
                            _NodeSetPropertyAsCFArray, _NodeSetPropertyAsCFData,
                            _NodeSetPropertyAsCFDate, _NodeSetPropertyAsCFNumber,
                            _NodeSetPropertyAsCFString, _NodeSetPropertyAsData,
                            _NodeSetPropertyAsInt16, _NodeSetPropertyAsInt32,
                            _NodeSetPropertyAsInt64, _NodeSetPropertyAsOSType,
                            _NodeSetPropertyAsString,
                            _NodeStartPopulationIfNeeded, _NodeSynchronize,
                            _NodeTagNameCompare, _NodeTaskCancel, _NodeTaskGetNode,
                            _NodeTaskGetProperty, _NodeTaskGetStatus,
                            _NodeTaskGetType, _NodeUnregisterChangeNotification,
                            _NodeUserIsOwner, _NodeValidate, _NodeVolumeEject,
                            _NodeVolumeUnmount, _NodesOnSameVolume,
                            _SetNetworkBrowserMode, _UserDefaultsAsNumber_,
                            _UserDefaultsKey_, _VolumeCopyTrashPath,
                            _VolumeCopyVolumeGroupIdentifier, _VolumeGetRole,
                            _VolumeHasNoVolumeSizes, _VolumeIs, _VolumeIsEjectable,
                            _VolumeIsLocal, _VolumeIsReadOnly,
                            _VolumeIsUnmountable, _VolumeSupportsACLs,
                            __DesktopServicesAPIVersion,
                            __DesktopServicesErrorName,
                            __FSGetLocationForFileDescriptor,
                            __FSGetLocationForPath, __FSGetLocationFromStatfs,
                            __FSGetTypeInfoForFileDescriptor,
                            __FSGetTypeInfoForPath, __FSGetTypeInfoFromStatfs,
                            __NodeContextOpenExtended, __NodeDSFeatures,
                            __NodeMarkAsUsed, __NodeSetCustomNodesCallBacks,
                            __NodeSetDSFeatures,
                            __NodeSetNumberOfUnpinnedTagsDisplayed,
                            __NodeSizingV2, __NodeUseModDateAsDefaultOpenDate,
                            __Z10AppendPathRK7TStringS1_,
                            __Z10FileSuffixRK7TString, __Z10ListXattrsPKci,
                            __Z10ReplaceAllRNSt3__112basic_stringIcNS_11char_traitsIcEENS_9allocatorIcEEEENS_17basic_string_viewIcS2_EES8_,
                            __Z10SFBrowsersv, __Z10SimpleCopyRK7TStringS1_,
                            __Z10TypeForUTIP8NSString,
                            __Z11ContainsKeyP12NSDictionaryPU19objcproto9NSCopying11objc_object,
                            __Z11DebugPrint_PKciRKNSt3__112basic_stringIcNS1_11char_traitsIcEENS1_9allocatorIcEEEE,
                            __Z11Description17FSInfoVirtualType,
                            __Z11DescriptionP10__CFString,
                            __Z11DescriptionP14__CFDictionary,
                            __Z11DescriptionP7__CFSet,
                            __Z11DescriptionP8__CFData,
                            __Z11DescriptionP9__CFArray,
                            __Z11DescriptionP9__CFError,
                            __Z11DescriptionPK10__CFNumber,
                            __Z11DescriptionPK10__CFString,
                            __Z11DescriptionPK14__CFDictionary,
                            __Z11DescriptionPK5TNode, __Z11DescriptionPK7__CFSet,
                            __Z11DescriptionPK7__CFURL,
                            __Z11DescriptionPK8__CFData,
                            __Z11DescriptionPK8__CFDate,
                            __Z11DescriptionPK9__CFArray, __Z11EventQueuesv,
                            __Z11GRawComparev, __Z11LogAndAbortP11NSException,
                            __Z11LogAndAbortbP11NSException,
                            __Z11ParseFormatRKNSt3__117basic_string_viewIcNS_11char_traitsIcEEEE,
                            __Z11RedactedStrRK7TString, __Z12AllowedPathsv,
                            __Z12ContextMutexv,
                            __Z12DSDebugWarn_PKciRKNSt3__112basic_stringIcNS1_11char_traitsIcEENS1_9allocatorIcEEEE,
                            __Z12FP_ActionTagv,
                            __Z12PrefsSetBoolPK10__CFStringbb,
                            __Z12RemovePrefixRK7TStringRS_,
                            __Z12SanitizedStrRK7TString,
                            __Z12SanitizedURLP5NSURL, __Z12xattr_intentPKcj,
                            __Z13AppNapNodeSetv,
                            __Z13CopyACLToTextP16__CFFileSecurity,
                            __Z13FP_ActionCopyv,
                            __Z13FormatDetailsRKNSt3__117basic_string_viewIcNS_11char_traitsIcEEEE,
                            __Z13NWMapSpinlockv,
                            __Z13PrintToStderrRKNSt3__112basic_stringIcNS_11char_traitsIcEENS_9allocatorIcEEEE,
                            __Z13PrintToStdoutRKNSt3__112basic_stringIcNS_11char_traitsIcEENS_9allocatorIcEEEE,
                            __Z13SFBrowserLockv, __Z13SanitizedPathRK7TString,
                            __Z13SanitizedURLsP7NSArrayIP5NSURLE,
                            __Z14AppendEachLineRKNSt3__112basic_stringIcNS_11char_traitsIcEENS_9allocatorIcEEEES7_,
                            __Z14CopyDeepHelperP8NSObjectb, __Z14FP_ActionTrashv,
                            __Z14FSRefFromCFURLPK7__CFURLP5FSRef,
                            __Z14MapFromListRefP21OpaquePropertyListRef,
                            __Z14NumberFromDictPK14__CFDictionaryPK10__CFString,
                            __Z14OSTypeAsStringj, __Z14PrintBackTracev,
                            __Z14ScreenTimeAppsv, __Z14StringAsOSTypePKc,
                            __Z14TempPropertiesv,
                            __Z14ToPropertyListP21OpaquePropertyListRef,
                            __Z15ColonsToSlashesRK7TString,
                            __Z15FINodeFromTNodePK5TNode, __Z15FP_ActionDeletev,
                            __Z15FP_ActionRenamev, __Z15FileSuffixChain7TString,
                            __Z15GetNodePropertyP13OpaqueNodeRef8PropertyR18TPropertyReferenceP17OpaqueNodeRequest18NodeRequestOptions,
                            __Z15LogWithoutAbortP11NSException,
                            __Z15MutableCopyDeepP12NSDictionary,
                            __Z15MutableCopyDeepP5NSSet,
                            __Z15MutableCopyDeepP7NSArray,
                            __Z15NodeIsContainerP5TNode,
                            __Z15ParseDeviceNameNSt3__112basic_stringIcNS_11char_traitsIcEENS_9allocatorIcEEEE,
                            __Z15PrependEachLineRKNSt3__112basic_stringIcNS_11char_traitsIcEENS_9allocatorIcEEEES7_,
                            __Z15RestrictedNodesv,
                            __Z15SetNodePropertyP13OpaqueNodeRef8PropertyRK18TPropertyReferenceP17OpaqueNodeRequest18NodeRequestOptions,
                            __Z15SlashesToColonsRK7TString,
                            __Z15TNodeFromFINodeP6FINode, __Z16BRContainerClassv,
                            __Z16CloudDocsRootURLv,
                            __Z16CopyURLForFPItemP6FPItemb,
                            __Z16DispatchActivityPU28objcproto17OS_dispatch_queue8NSObjectU13block_pointerFvvE,
                            __Z16FP_ActionUntrashv, __Z16GetDateAsCStringdPcl,
                            __Z16IsDatalessDomainP5NSURLb,
                            __Z16OverwriteExtentsRKNSt3__16vectorI7TExtentNS_9allocatorIS1_EEEES6_,
                            __Z16RedactForPrivacyRKNSt3__117basic_string_viewIcNS_11char_traitsIcEEEERKNS_12basic_stringIcS2_NS_9allocatorIcEEEE,
                            __Z16RemovePrefixPathRK7TStringS1_20PathSeparatorOptions,
                            __Z16ShortDescriptionPK5TNode,
                            __Z16ValidateNodeTaskP10FINodeTask,
                            __Z17ChecksumXattrNamev,
                            __Z17EndsWithAppSuffixRK7TString,
                            __Z17FIDSNodeFromTNodePK5TNode,
                            __Z17FP_ActionReparentv,
                            __Z17IsDefaultFPDomainP16FPProviderDomain,
                            __Z17IsRunningInFinderv, __Z18CheckPointIntervalv,
                            __Z18ExceptionSafeBlockU13block_pointerFvvE,
                            __Z18FileOffsetSubtract7TExtentS_,
                            __Z18FileOffsetSubtractRKNSt3__16vectorI7TExtentNS_9allocatorIS1_EEEES6_,
                            __Z18IsRedactionEnabledv,
                            __Z18MyFPResolveSymlinkP5NSURLb,
                            __Z18NewFileCoordinatorv,
                            __Z19AddProgressObserverP10NSProgressRNSt3__16vectorI17TKeyValueObserverNS1_9allocatorIS3_EEEERKNS1_8functionIFvvEEE,
                            __Z19CheckPointXattrNamev,
                            __Z19DebugPrintToStderr_PKciRKNSt3__112basic_stringIcNS1_11char_traitsIcEENS1_9allocatorIcEEEE,
                            __Z19FPSharedItemCreatorP6FPItem,
                            __Z19FP_ActionImportHerev,
                            __Z19GetTagsFromTagsDataP6NSData,
                            __Z19IsCloningResolution21_PreProcOperationKind,
                            __Z19IsCopyingResolution21_PreProcOperationKind,
                            __Z19IsLegacyICloudDriveRK7TString,
                            __Z19IsOneStepResolution21_PreProcOperationKind,
                            __Z19RemovePrefixPathOptRK7TStringS1_20PathSeparatorOptions,
                            __Z19RootNodeForFPDomainRK7TStringb,
                            __Z20CreateCFURLFromFSRefPK5FSRef,
                            __Z20DSLocalizationBundlev,
                            __Z20DecorationIdentifierP16ISIconDecoration,
                            __Z20EscapeFormatFragmentRKNSt3__117basic_string_viewIcNS_11char_traitsIcEEEE,
                            __Z20FP_ActionModifyFlagsv,
                            __Z20IsDomainDisconnectedP16FPProviderDomain,
                            __Z20IsLogCategoryEnabled12TLogCategory13os_log_type_t,
                            __Z20SourceInodeXattrNameb,
                            __Z20vsnprintfPlusObjectsPcmPKcS_,
                            __Z21ChecksumComputeBufferPKvxP12ChecksumInfo,
                            __Z21DropLastPathComponentRK7TString20PathSeparatorOptions,
                            __Z21ExtendedFormatAdaptorRKNSt3__112basic_stringIcNS_11char_traitsIcEENS_9allocatorIcEEEES7_,
                            __Z21ExtractEmbeddedFormatRKNSt3__112basic_stringIcNS_11char_traitsIcEENS_9allocatorIcEEEE,
                            __Z21FPItemManagerInstancev,
                            __Z21FPProviderDomainClassv,
                            __Z21IsEnhancedAPFSEnabledv,
                            __Z21IsICloudDriveDomainIDRK7TString,
                            __Z21NodeGetNameSyntaxHintPK13OpaqueNodeRefP18NodeNameSyntaxHint,
                            __Z21NodeNewSortedIteratorP13OpaqueNodeRefPP18OpaqueNodeIteratorP17OpaqueNodeRequest18NodeRequestOptions,
                            __Z21PauseCurrentOperationv,
                            __Z21ReturnToSenderEnabledv,
                            __Z21ToNodePropertyListRefP12PropertyList,
                            __Z22DeEscapeFormatFragmentRKNSt3__117basic_string_viewIcNS_11char_traitsIcEEEE,
                            __Z22FPProviderDomainForURLPK7__CFURL,
                            __Z22ICloudDriveFPFSEnabledv,
                            __Z22IsLocalStorageDomainIDRK7TString,
                            __Z22NetworkRefreshCallbackP11__SFBrowserP8__SFNodePK10__CFStringm14SFBrowserErrorPv,
                            __Z22ResumeCurrentOperationv,
                            __Z22SpotlightStringComparePK10__CFStringS1_,
                            __Z22acl_compare_permset_npP12_acl_permsetS0_,
                            __Z23CreateSizerPropertyKeysv,
                            __Z23FPItemForProviderWithIDRK7TStringS1_,
                            __Z23FileProviderErrorDomainv,
                            __Z23PathEligibleForSynchingRK7TString,
                            __Z24DesktopServicesErrorNamei,
                            __Z24IsExternalDeviceDomainIDRK7TString,
                            __Z24IsInfoLogCategoryEnabled12TLogCategory,
                            __Z24PropertyDataTypeToOSType16PropertyDataType,
                            __Z24ProtectionClassXattrNamev,
                            __Z24SizeOfOverlappingExtentsRKNSt3__16vectorI7TExtentNS_9allocatorIS1_EEEES6_,
                            __Z24URLMightBeInFileProviderPK7__CFURL,
                            __Z24UseFileProviderFrameworkv,
                            __Z25DSFileServiceXPCInterfacev,
                            __Z25FPProgressManagerInstancev,
                            __Z25IsDebugLogCategoryEnabled12TLogCategory,
                            __Z25IsRunningUnderGuardMallocv,
                            __Z25MachAbsTimeToMicroSecondsy,
                            __Z25NodeEventFromNodeEventRefP11FINodeEvent,
                            __Z25NodeEventRefFromNodeEvent13TNodeEventPtr,
                            __Z25SourceVolumeUUIDXattrNameb,
                            __Z26AllowDSToInterceptCXAThrowv,
                            __Z26CheckForOperationSuspendedv,
                            __Z26GCaseInsensitiveRawComparev,
                            __Z26MapSourceToDestinationPathRK7TStringS1_S1_,
                            __Z26MatchesEDSContainerPatternRK7TString,
                            __Z26PropertyDataTypeFromOSTypej,
                            __Z26acl_containedin_permset_npP12_acl_permsetS0_,
                            __Z28DSLocalizedErrorStringForKeyP8NSString,
                            __Z28FP_ItemDecorationTypeSharingv,
                            __Z29PreservedCloneFamilyXattrNamev,
                            __Z30ExtendedFormatPrefixAndPostfixRKNSt3__112basic_stringIcNS_11char_traitsIcEENS_9allocatorIcEEEE,
                            __Z30MigrateResumableCopyAttributesRKNSt3__110shared_ptrI10TCFURLInfoEE,
                            __Z30PreservedCloneExtentsXattrNamev,
                            __Z30PreservedPerfectCloneXattrNamev,
                            __Z31FileProviderInternalErrorDomainv,
                            __Z32ChecksumComputeForFileDescriptoriRj,
                            __Z32DesktopServicesHelperServiceNamev,
                            __Z33FileMetadataCopyLastUsedDateAtURLP5NSURLPU15__autoreleasingP7NSError,
                            __Z33SwitchThreadToUserIfNotAuthorizedv,
                            __Z35PreservedClonePartialPathForURLInfoNSt3__110shared_ptrI10TCFURLInfoEE,
                            __Z35iCloudDriveDomainIDForDataSeparatedb,
                            __Z38NS_FPErrorSuppressionCheckboxIsCheckedv,
                            __Z39NodeUnregisterChangeNotificationDetailsP13OpaqueNodeRefP19OpaqueEventNotifier23NodeNotificationOptions,
                            __Z39WidenHexFormatStringSpecifierToLongLongRKNSt3__112basic_stringIcNS_11char_traitsIcEENS_9allocatorIcEEEE,
                            __Z3AddRKNSt3__16vectorI7TExtentNS_9allocatorIS1_EEEES6_,
                            __Z41FileProviderSharedItemPermissionsReadOnlyv,
                            __Z42ISURLResourcePropertySpecificationInstancev,
                            __Z42MaximumAllowableExtentCountForTimeIntervald,
                            __Z42NS_FileProviderRootContainerItemIdentifierv,
                            __Z4sizeRKNSt3__16vectorI7TExtentNS_9allocatorIS1_EEEE,
                            __Z6DSDumpRK7TString, __Z6LogObj12TLogCategory,
                            __Z6NodeIsP13OpaqueNodeRefM5TNodeKFbvE,
                            __Z8CopyBlobRK4BlobRS_RKNSt3__18functionIFvS2_jEEE,
                            __Z8CopyDeepP12NSDictionary, __Z8CopyDeepP5NSSet,
                            __Z8CopyDeepP7NSArray,
                            __Z8DemangleRKNSt3__112basic_stringIcNS_11char_traitsIcEENS_9allocatorIcEEEE,
                            __Z8PrefsIntPK10__CFStringib, __Z8Subtract7TExtentS_,
                            __Z8SubtractRKNSt3__16vectorI7TExtentNS_9allocatorIS1_EEEES6_,
                            __Z9IntersectRKNSt3__16vectorI7TExtentNS_9allocatorIS1_EEEES6_,
                            __Z9LogDSPathv, __Z9PrefsBoolPK10__CFStringbb,
                            __ZN10TCFURLInfo10AddCopyACEEP4_aclb,
                            __ZN10TCFURLInfo10BootedROSPEv,
                            __ZN10TCFURLInfo10CreateFileERK7TStringS2_P16__CFFileSecuritybRS0_,
                            __ZN10TCFURLInfo10DeleteDeepEbb,
                            __ZN10TCFURLInfo10InitializeEPK7__CFURLbb,
                            __ZN10TCFURLInfo10InitializeEPKS_RK7TStringb,
                            __ZN10TCFURLInfo10InitializeEPKc,
                            __ZN10TCFURLInfo10InitializeERK5FSRef,
                            __ZN10TCFURLInfo10InitializeERKNSt3__110shared_ptrIS_EERK7TStringb,
                            __ZN10TCFURLInfo10InitializeEv,
                            __ZN10TCFURLInfo10ItemExistsERK7TStringRNSt3__110shared_ptrIS_EE,
                            __ZN10TCFURLInfo10UnsetGroupEP16__CFFileSecurity,
                            __ZN10TCFURLInfo10gROSPStateE,
                            __ZN10TCFURLInfo11EncodedTagsEPK9__CFArrayPS2_,
                            __ZN10TCFURLInfo11GetVolumeIDEPK7__CFURL,
                            __ZN10TCFURLInfo11GetgidToUseEv,
                            __ZN10TCFURLInfo11GetuidToUseEv,
                            __ZN10TCFURLInfo11SetPropertyEPK10__CFStringPKv,
                            __ZN10TCFURLInfo11VolumeIsAllEPK7__CFURLy,
                            __ZN10TCFURLInfo12StripCopyACEERKNSt3__110shared_ptrIS_EEbP14__CFDictionary,
                            __ZN10TCFURLInfo13EverybodyUUIDEv,
                            __ZN10TCFURLInfo13NormalizedURLEPK7__CFURL,
                            __ZN10TCFURLInfo13SetFinderInfoERK10FinderInfo,
                            __ZN10TCFURLInfo13SetIsLockFileEv,
                            __ZN10TCFURLInfo14ForceNameFetchEv,
                            __ZN10TCFURLInfo14LockItemExistsERK7TStringRNSt3__110shared_ptrIS_EE,
                            __ZN10TCFURLInfo14MatchesCopyACEEP16__CFFileSecurityb,
                            __ZN10TCFURLInfo14ObjectPropertyEPK7__CFURLPK10__CFStringb,
                            __ZN10TCFURLInfo14SetIsInPackageEb,
                            __ZN10TCFURLInfo14SetPermissionsEP16__CFFileSecurity,
                            __ZN10TCFURLInfo14StringPropertyEPK7__CFURLPK10__CFString,
                            __ZN10TCFURLInfo15AreOnSameVolumeERKNSt3__110shared_ptrIS_EES4_,
                            __ZN10TCFURLInfo15ContainsCopyACEEP16__CFFileSecurityb,
                            __ZN10TCFURLInfo15CreateDirectoryERK7TStringS2_P16__CFFileSecuritybRS0_,
                            __ZN10TCFURLInfo15DeleteIfNotOpenEPKc,
                            __ZN10TCFURLInfo15FetchPropertiesEb,
                            __ZN10TCFURLInfo15GetDatePropertyEPK7__CFURLPK10__CFString,
                            __ZN10TCFURLInfo15ROSPIsReadWriteEv,
                            __ZN10TCFURLInfo15RootlessEnabledEv,
                            __ZN10TCFURLInfo15SetIsUserAppendEb,
                            __ZN10TCFURLInfo15SetIsUserLockedEb,
                            __ZN10TCFURLInfo16CopyDataPropertyEPK7__CFURLPK10__CFString,
                            __ZN10TCFURLInfo16FirmlinkMappingsEv,
                            __ZN10TCFURLInfo16MissingDateValueEv,
                            __ZN10TCFURLInfo16PropertyToStringE8Property,
                            __ZN10TCFURLInfo16SetDataForkEmptyEv,
                            __ZN10TCFURLInfo16SetHasCustomIconEb,
                            __ZN10TCFURLInfo16TranslateCFErrorEP9__CFError,
                            __ZN10TCFURLInfo16gDSHelperRunningE,
                            __ZN10TCFURLInfo16gRootlessEnabledE,
                            __ZN10TCFURLInfo17AddBackupGuardACEEP4_aclb,
                            __ZN10TCFURLInfo17CopyArrayPropertyEPK7__CFURLPK10__CFStringb,
                            __ZN10TCFURLInfo17SetIsSystemAppendEb,
                            __ZN10TCFURLInfo17SetIsSystemLockedEb,
                            __ZN10TCFURLInfo17SetStringPropertyEPK10__CFStringS2_,
                            __ZN10TCFURLInfo17ShowAllExtensionsEv,
                            __ZN10TCFURLInfo17TranslateACLErrorEi,
                            __ZN10TCFURLInfo18CheckPointIfNeededEd,
                            __ZN10TCFURLInfo18CopyPropertyValuesEPK7__CFURLyRyP24_CFURLFilePropertyValues,
                            __ZN10TCFURLInfo18GetBooleanPropertyEPK7__CFURLPK10__CFString,
                            __ZN10TCFURLInfo18IsCopyOperationACEEP10_acl_entry9acl_tag_tP12_acl_permsetbb,
                            __ZN10TCFURLInfo18SamePhysicalDeviceEPK7__CFURLS2_,
                            __ZN10TCFURLInfo18SetDSHelperRunningE13audit_token_t,
                            __ZN10TCFURLInfo18SetDSHelperRunningEjj,
                            __ZN10TCFURLInfo18SetFileSecurityRefEP16__CFFileSecuritybP14__CFDictionary,
                            __ZN10TCFURLInfo18SetTotalFinderInfoERK15TotalFinderInfo,
                            __ZN10TCFURLInfo18TagsFromAttributesEPK9__CFArray,
                            __ZN10TCFURLInfo18TranslateOpenErrorEi,
                            __ZN10TCFURLInfo18UnsetOwnerAndGroupEP16__CFFileSecurity,
                            __ZN10TCFURLInfo18gShowAllExtensionsE,
                            __ZN10TCFURLInfo19CreateTagDictionaryEPK10__CFStringPK8__CFData,
                            __ZN10TCFURLInfo19DecodeTagDictionaryEPK14__CFDictionaryPPK10__CFStringPsPbS8_,
                            __ZN10TCFURLInfo19EncodedTagsAndLabelEPK9__CFArrayPS2_Rs,
                            __ZN10TCFURLInfo19GetVolumeIdentifierEPK7__CFURL,
                            __ZN10TCFURLInfo19GetVolumeInfoRecordEPK7__CFURLR16VolumeInfoRecord,
                            __ZN10TCFURLInfo19GetZeroCreationDateEv,
                            __ZN10TCFURLInfo19SetIsNotInitialLinkEb,
                            __ZN10TCFURLInfo19StripXAttrsNotInSetERKNSt3__16vectorINS0_12basic_stringIcNS0_11char_traitsIcEENS0_9allocatorIcEEEENS5_IS7_EEEE,
                            __ZN10TCFURLInfo19TranslatePOSIXErrorEiPKc,
                            __ZN10TCFURLInfo19TranslateXAttrErrorEi,
                            __ZN10TCFURLInfo19WriteCopySourceInfoERKNSt3__110shared_ptrIS_EE,
                            __ZN10TCFURLInfo19WriteDictToDataForkEPK7__CFURLPK14__CFDictionary,
                            __ZN10TCFURLInfo20CachedStringPropertyEPK7__CFURLPK10__CFString,
                            __ZN10TCFURLInfo20CopyDictFromDataForkEPK7__CFURL,
                            __ZN10TCFURLInfo20GetNumericalPropertyEPK7__CFURLPK10__CFString,
                            __ZN10TCFURLInfo20GetPropertyStoreNameEv,
                            __ZN10TCFURLInfo20GetSizerPropertyKeysEv,
                            __ZN10TCFURLInfo20SanitizedForPrintingERK7TString,
                            __ZN10TCFURLInfo20SetIsExtensionHiddenEb,
                            __ZN10TCFURLInfo20SetShowAllExtensionsEb,
                            __ZN10TCFURLInfo21CachedBooleanPropertyEPK7__CFURLPK10__CFString,
                            __ZN10TCFURLInfo21CopyExtendedAttributeEPKcPK10__CFStringiPPK8__CFData,
                            __ZN10TCFURLInfo21CopyPathURLIfPossibleEPK7__CFURL,
                            __ZN10TCFURLInfo21DesktopServicesBundleEv,
                            __ZN10TCFURLInfo21EnableResumableCopiesEv,
                            __ZN10TCFURLInfo21HasUnifiedVolumeGroupEv,
                            __ZN10TCFURLInfo21SetEnableFileProviderEb,
                            __ZN10TCFURLInfo21SetExtendedAttributesERK15TFileDescriptorRKNSt3__16vectorINS3_12basic_stringIcNS3_11char_traitsIcEENS3_9allocatorIcEEEENS8_ISA_EEEERKNS4_I4TRefIPK8__CFData20TRetainReleasePolicyISI_EENS8_ISL_EEEEb,
                            __ZN10TCFURLInfo21SetExtendedAttributesERKNSt3__16vectorINS0_12basic_stringIcNS0_11char_traitsIcEENS0_9allocatorIcEEEENS5_IS7_EEEERKNS1_I4TRefIPK8__CFData20TRetainReleasePolicyISF_EENS5_ISI_EEEEb,
                            __ZN10TCFURLInfo21SetExtendedFinderInfoERK18ExtendedFinderInfo,
                            __ZN10TCFURLInfo21SetResourcePropertiesEPK14__CFDictionary,
                            __ZN10TCFURLInfo22CreateEncodedTagStringEPK10__CFStringPK8__CFData,
                            __ZN10TCFURLInfo22DecodeEncodedTagStringEPKv,
                            __ZN10TCFURLInfo22GetTrasherPropertyKeysEv,
                            __ZN10TCFURLInfo22LocalizedStringWithKeyEPK10__CFString,
                            __ZN10TCFURLInfo22RenameWithoutReplacingEPKcS1_,
                            __ZN10TCFURLInfo22TranslateRawPOSIXErrorEiPKc,
                            __ZN10TCFURLInfo22gHasUnifiedVolumeGroupE,
                            __ZN10TCFURLInfo23CanPreserveDatesExactlyERKNSt3__110shared_ptrIS_EES4_,
                            __ZN10TCFURLInfo23IsSpecialFolderGuardACEEP10_acl_entry9acl_tag_tP12_acl_permset,
                            __ZN10TCFURLInfo23IsSuspendedCopyOfSourceERK7TStringRKNSt3__110shared_ptrIS_EERd,
                            __ZN10TCFURLInfo23SetFileSecurityPropertyEPK10__CFStringP16__CFFileSecurity,
                            __ZN10TCFURLInfo24FileSystemRepresentationEPK7__CFURLb,
                            __ZN10TCFURLInfo24GetBasicInfoPropertyKeysEv,
                            __ZN10TCFURLInfo24GetMagicBusyCreationDateEv,
                            __ZN10TCFURLInfo24SetIsNotInitialFullCloneEb,
                            __ZN10TCFURLInfo24TranslateQuarantineErrorEi,
                            __ZN10TCFURLInfo25LocalizedCopyErrorMessageEi,
                            __ZN10TCFURLInfo25LocalizedCopyErrorMessageEiPK7__CFURL,
                            __ZN10TCFURLInfo25LocalizedCopyErrorMessageEiRK7TString,
                            __ZN10TCFURLInfo25PhysicalURLFromLogicalURLEP5NSURL,
                            __ZN10TCFURLInfo25SetResourcePropertyForKeyEPK7__CFURLPK10__CFStringPKv,
                            __ZN10TCFURLInfo26GetImmutableAndAppendFlagsEv,
                            __ZN10TCFURLInfo26OSStatusFromCFErrorShallowEP9__CFError,
                            __ZN10TCFURLInfo26RemoveCheckPointAttributesEv,
                            __ZN10TCFURLInfo26SetImmutableAndAppendFlagsENS_23ImmutableAndAppendFlagsE,
                            __ZN10TCFURLInfo26SetImmutableAndAppendFlagsEbbbb,
                            __ZN10TCFURLInfo26SourcePathForResumableCopyEPK7__CFURL,
                            __ZN10TCFURLInfo26TranslateFileProviderErrorEP9__CFError,
                            __ZN10TCFURLInfo27GetFileSystemRepresentationEPK7__CFURLbPhl,
                            __ZN10TCFURLInfo27LocalizedStringWithFileNameEPK10__CFStringPK7__CFURL,
                            __ZN10TCFURLInfo27SetEnableResumableCopiesKeyEb,
                            __ZN10TCFURLInfo29CreateStrippedFileSecurityRefEP16__CFFileSecurity,
                            __ZN10TCFURLInfo32FileSecuritySetAccessControlListEP16__CFFileSecurityP4_acl,
                            __ZN10TCFURLInfo32GetCopyItemRequestedPropertyKeysEv,
                            __ZN10TCFURLInfo36CreateURLAppendingNameToDirectoryURLEPK7__CFURLRK7TStringh,
                            __ZN10TCFURLInfo38CreateStrippedSpecialFolderSecurityRefEP16__CFFileSecurity,
                            __ZN10TCFURLInfo4OpenE9OpenFlagsP16__CFFileSecuritybbb,
                            __ZN10TCFURLInfo5CloseEv, __ZN10TCFURLInfo6DeleteEbb,
                            __ZN10TCFURLInfo6RenameERK7TString,
                            __ZN10TCFURLInfo7BootURLEv,
                            __ZN10TCFURLInfo7IsOnSSDEPKc,
                            __ZN10TCFURLInfo7SetModeEt,
                            __ZN10TCFURLInfo7SetNameERK7TString,
                            __ZN10TCFURLInfo7SetTagsEPK9__CFArrays,
                            __ZN10TCFURLInfo8SetLabelEs,
                            __ZN10TCFURLInfo8SetOwnerEj,
                            __ZN10TCFURLInfo8StripACLEP4_acl,
                            __ZN10TCFURLInfo9GetUserIDEv,
                            __ZN10TCFURLInfo9ggidToUseE,
                            __ZN10TCFURLInfo9guidToUseE, __ZN10TCFURLInfoC1ERKS_,
                            __ZN10TCFURLInfoC1Ev, __ZN10TCFURLInfoC2ERKS_,
                            __ZN10TCFURLInfoC2Ev, __ZN10TCFURLInfoaSERKS_,
                            __ZN10TCopyQueue10DoPostProcERKNSt3__110shared_ptrI10TCFURLInfoEES5_36NodeNodeOperationPostProcResultFlags,
                            __ZN10TCopyQueue10InitializeEv,
                            __ZN10TCopyQueue12ReportStatusERK15OperationStatusxRKNSt3__110shared_ptrI10TCFURLInfoEES8_bx,
                            __ZN10TCopyQueue13MaxBufferSizeEv,
                            __ZN10TCopyQueue14NotifyCopyDoneEv,
                            __ZN10TCopyQueue14WaitOnCopyDoneEv,
                            __ZN10TCopyQueue16DoCloudFaultProcERKNSt3__110shared_ptrI10TCFURLInfoEES5_,
                            __ZN10TCopyQueue16NotifyRecordDoneEv,
                            __ZN10TCopyQueue16ResetMaxFileSizeEy,
                            __ZN10TCopyQueue16SetReadCompletedEv,
                            __ZN10TCopyQueue16SetWriteCompleteEv,
                            __ZN10TCopyQueue16WaitOnRecordDoneEv,
                            __ZN10TCopyQueue17MinimumBufferSizeEv,
                            __ZN10TCopyQueue17SetNextRootRecordERKNSt3__110shared_ptrI10TCFURLInfoEES5_19OperationResolution,
                            __ZN10TCopyQueue18CheckForSupsensionEv,
                            __ZN10TCopyQueue22SetOperationThroughputEx,
                            __ZN10TCopyQueue24GetEffectiveBufferLengthEv,
                            __ZN10TCopyQueue33ReportErrorFromUnprotectedContextEiRKNSt3__110shared_ptrI10TCFURLInfoEES5_S5_RK7TStringS5_S5_b,
                            __ZN10TCopyQueue7DequeueEi,
                            __ZN10TCopyQueue7EnqueueEP9TCopyItem,
                            __ZN10TCopyQueue9AddBufferEP11TCopyBuffer,
                            __ZN10TCopyQueue9CancelledEv,
                            __ZN10TCopyQueue9GetBufferEyyb,
                            __ZN10TCopyQueueC1EP18TOperationReporterN10TCFURLInfo17CopyOperationKindE19OperationResolutionbbbbb15FaultCopyPolicyb,
                            __ZN10TCopyQueueC2EP18TOperationReporterN10TCFURLInfo17CopyOperationKindE19OperationResolutionbbbbb15FaultCopyPolicyb,
                            __ZN10TCopyQueueD1Ev, __ZN10TCopyQueueD2Ev,
                            __ZN10TEmptySpanC1Ev, __ZN10TEmptySpanC2Ev,
                            __ZN10TNodeEvent10NotifyNodeERK8TNodePtrb,
                            __ZN10TNodeEvent12NotifyCommonERK4TRefIP11TDSNotifier20TRetainReleasePolicyIS2_EEb,
                            __ZN10TNodeEvent15CreateNodeEventE13NodeEventKindRK8TNodePtr8Property,
                            __ZN10TNodeEvent15CreateNodeEventE13NodeEventKindRK8TNodePtr8PropertyRK14TPropertyValueRKNSt3__110shared_ptrI9TNodeTaskEERK4TRefIP11TDSNotifier20TRetainReleasePolicyISG_EE,
                            __ZN10TNodeEvent16CreateEventQueueEU13block_pointerFvP16OpaqueEventQueueE,
                            __ZN10TNodeEvent17RemoveClientQueueEP16OpaqueEventQueue,
                            __ZN10TNodeEvent17gInternalNotifierE,
                            __ZN10TNodeEvent19HandleInternalEventEP16OpaqueEventQueue,
                            __ZN10TNodeEvent25GetInternalClientNotifierEv,
                            __ZN10TNodeEvent29gInternalClientChangeNotifierE,
                            __ZN10TNodeEvent30CreatePropertyChangedNodeEventERK8TNodePtr8Property,
                            __ZN10TNodeEvent6NotifyEPS_b,
                            __ZN10TNodeEvent6NotifyERK4TRefIP11TDSNotifier20TRetainReleasePolicyIS2_EEb,
                            __ZN10TNodeEvent6gFlagsE,
                            __ZN10TNodeEvent9DoNothingEP16OpaqueEventQueue,
                            __ZN10TNodeEventC1E13NodeEventKindRK8TNodePtr8PropertyRK14TPropertyValueRKNSt3__110shared_ptrI9TNodeTaskEERK4TRefIP11TDSNotifier20TRetainReleasePolicyISG_EE,
                            __ZN10TNodeEventC1ERKS_,
                            __ZN10TNodeEventC2E13NodeEventKindRK8TNodePtr8PropertyRK14TPropertyValueRKNSt3__110shared_ptrI9TNodeTaskEERK4TRefIP11TDSNotifier20TRetainReleasePolicyISG_EE,
                            __ZN10TNodeEventC2ERKS_, __ZN10TNodeEventD1Ev,
                            __ZN10TNodeEventD2Ev,
                            __ZN11TCloneCache11RecordCloneERKyRKNSt3__110shared_ptrI10TCFURLInfoEE,
                            __ZN11TCloneCache11RemoveCloneERKy,
                            __ZN11TCloneCache9RemoveAllEv, __ZN11TCloneCacheC1Eb,
                            __ZN11TCloneCacheC2Eb, __ZN11TCopyBufferC1Eyyb,
                            __ZN11TCopyBufferC2Eyyb, __ZN11TCopyBufferD0Ev,
                            __ZN11TCopyBufferD1Ev, __ZN11TCopyBufferD2Ev,
                            __ZN11TCopyReader11GetNextItemEv,
                            __ZN11TCopyReader11HandleErrorEi,
                            __ZN11TCopyReader11ReadCleanupEv,
                            __ZN11TCopyReader12CreateWriterEv,
                            __ZN11TCopyReader12OpenDataForkEv,
                            __ZN11TCopyReader12ReadDataForkEv,
                            __ZN11TCopyReader12ReinitializeERKNSt3__110shared_ptrI10TCFURLInfoEES5_19OperationResolution,
                            __ZN11TCopyReader13CloseDataForkEv,
                            __ZN11TCopyReader14ReadCopyBufferEP15TFileDescriptorP11TCopyBuffer,
                            __ZN11TCopyReader14ReadSparseSpanEP15TFileDescriptorP11TSparseSpan,
                            __ZN11TCopyReader26IsEligibleForBlockMapDeltaEyy,
                            __ZN11TCopyReader4ReadEiRKNSt3__110shared_ptrI10TCFURLInfoEES5_19OperationResolution,
                            __ZN11TCopyReader8FinalizeEv,
                            __ZN11TCopyReader9QueueItemEv,
                            __ZN11TCopyReaderC1EP10TCopyQueuebbbbbbbb,
                            __ZN11TCopyReaderC2EP10TCopyQueuebbbbbbbb,
                            __ZN11TCopyReaderD1Ev, __ZN11TCopyReaderD2Ev,
                            __ZN11TCopyWriter10CopyExtentEiixx,
                            __ZN11TCopyWriter10CreateItemEv,
                            __ZN11TCopyWriter11CopyExtentsERK12TCloneRecordRK7TStringS2_S5_S5_RKNSt3__16vectorI7TExtentNS6_9allocatorIS8_EEEE,
                            __ZN11TCopyWriter11GetNextItemEv,
                            __ZN11TCopyWriter11HandleErrorEi,
                            __ZN11TCopyWriter12CopyMetaDataERKNSt3__110shared_ptrI10TCFURLInfoEES5_P16__CFFileSecuritybbbbb,
                            __ZN11TCopyWriter12ReportStatusEb,
                            __ZN11TCopyWriter12WriteCleanupEv,
                            __ZN11TCopyWriter13CloseDataForkEv,
                            __ZN11TCopyWriter13SetTargetInfoENSt3__110shared_ptrI10TCFURLInfoEE,
                            __ZN11TCopyWriter13WriteDataForkEv,
                            __ZN11TCopyWriter13WriteTaskProcEP10TCopyQueue,
                            __ZN11TCopyWriter13gCopyToBackupE,
                            __ZN11TCopyWriter13gIconFileNameE,
                            __ZN11TCopyWriter14DeleteLockItemEv,
                            __ZN11TCopyWriter14HandleFileSkipERKy,
                            __ZN11TCopyWriter15CopySymlinkFileEb,
                            __ZN11TCopyWriter15GetIconFileNameEv,
                            __ZN11TCopyWriter15TryCloningOrderERKNSt3__16vectorIyNS0_9allocatorIyEEEERK7TStringRKNS0_13unordered_mapIyNS1_I7TExtentNS2_ISB_EEEENS0_4hashIyEENS0_8equal_toIyEENS2_INS0_4pairIKySD_EEEEEE,
                            __ZN11TCopyWriter15WriteCopyBufferEP15TFileDescriptorP11TCopyBuffer,
                            __ZN11TCopyWriter15WriteSparseSpanEP15TFileDescriptorP11TSparseSpan,
                            __ZN11TCopyWriter16CloneCloneRecordERK12TCloneRecordS2_RK7TStringS5_,
                            __ZN11TCopyWriter17CopyCloneFamiliesERNSt3__16vectorI12TCloneFamilyNS0_9allocatorIS2_EEEE,
                            __ZN11TCopyWriter17CopyUsingCopyFileEbb,
                            __ZN11TCopyWriter17SkipDataForkWriteEv,
                            __ZN11TCopyWriter18CheckPointIfNeededEv,
                            __ZN11TCopyWriter18DestroyCurrentItemEv,
                            __ZN11TCopyWriter19ComputeCloningOrderERK12TCloneFamilyRK7TString,
                            __ZN11TCopyWriter19PreAllocateIfNeededEPK15TFileDescriptorRK9TCopyItem,
                            __ZN11TCopyWriter19UpdateTimeRemainingEj,
                            __ZN11TCopyWriter19WriteCompressedSpanEP15TFileDescriptorP15TCompressedSpan,
                            __ZN11TCopyWriter20PathToBackupOfVolumeERK7TString,
                            __ZN11TCopyWriter21CopySymlinkFileAtRootEv,
                            __ZN11TCopyWriter21ResetReservationStackEv,
                            __ZN11TCopyWriter22CopyFileFromClonedCopyERKNSt3__110shared_ptrI10TCFURLInfoEERS3_NS2_11CopyOptionsE,
                            __ZN11TCopyWriter22CopyOrderedCloneFamilyERK12TCloneFamilyRKNSt3__14pairINS3_6vectorIyNS3_9allocatorIyEEEENS5_ImNS6_ImEEEEEERK7TStringSG_SG_N10TCFURLInfo17CopyOperationKindEb,
                            __ZN11TCopyWriter22RecordDestinationCloneERKNSt3__110shared_ptrI10TCFURLInfoEEb,
                            __ZN11TCopyWriter22UpdateStatusThroughputExx,
                            __ZN11TCopyWriter23WriteExtendedAttributesEv,
                            __ZN11TCopyWriter24CheckForExistingLockItemERNSt3__110shared_ptrI10TCFURLInfoEE,
                            __ZN11TCopyWriter24CreateNewDestinationItemEv,
                            __ZN11TCopyWriter24PrepareForBackupIfNeededEPK15TFileDescriptor,
                            __ZN11TCopyWriter24sTimeForNextStatusReportE,
                            __ZN11TCopyWriter25RecordDestinationHardLinkERKNSt3__110shared_ptrI10TCFURLInfoEE,
                            __ZN11TCopyWriter26UpdateStatusBytesCompletedEx,
                            __ZN11TCopyWriter26UpdateStatusItemsCompletedExx,
                            __ZN11TCopyWriter28SetAppendProtectionForBackupEv,
                            __ZN11TCopyWriter33CheckOrImportPreservedCloneFamilyENSt3__110shared_ptrI10TCFURLInfoEE,
                            __ZN11TCopyWriter5CloneERK7TStringS2_,
                            __ZN11TCopyWriter5WriteEv,
                            __ZN11TCopyWriterC1EP10TCopyQueue,
                            __ZN11TCopyWriterC2EP10TCopyQueue,
                            __ZN11TCopyWriterD1Ev, __ZN11TCopyWriterD2Ev,
                            __ZN11TDSNotifier15AddPtrReferenceEv,
                            __ZN11TDSNotifier15CountForOptionsE23NodeNotificationOptions,
                            __ZN11TDSNotifier18RemovePtrReferenceEv,
                            __ZN11TDSNotifier19GetRegistrationLockEv,
                            __ZN11TDSNotifier20HandleDeferredTickleEv,
                            __ZN11TDSNotifier22SetTimerToHandleTickleERK4TRefIPS_20TRetainReleasePolicyIS1_EEy,
                            __ZN11TDSNotifier33HandleDeferredTickleOnMainRunLoopEP16__CFRunLoopTimerPv,
                            __ZN11TDSNotifier36DecrementRegistrationCountForOptionsE23NodeNotificationOptions,
                            __ZN11TDSNotifier36IncrementRegistrationCountForOptionsE23NodeNotificationOptions,
                            __ZN11TDSNotifier6TickleEb,
                            __ZN11TDSNotifier8RegisterERK4TRefIP21TClientChangeNotifier20TRetainReleasePolicyIS2_EERK8TNodePtrSA_23NodeNotificationOptions,
                            __ZN11TDSNotifierC1ERK4TRefIP21TClientChangeNotifier20TRetainReleasePolicyIS2_EERK8TNodePtrSA_,
                            __ZN11TDSNotifierC2ERK4TRefIP21TClientChangeNotifier20TRetainReleasePolicyIS2_EERK8TNodePtrSA_,
                            __ZN11TFSIterator4NextERNSt3__110shared_ptrI7TFSInfoEE,
                            __ZN11TFSIterator5FirstERNSt3__110shared_ptrI7TFSInfoEE,
                            __ZN11TFSIterator5ResetEv,
                            __ZN11TFSIterator7NextRawERNSt3__110shared_ptrI7TFSInfoEE,
                            __ZN11TFSIteratorC1EPK7__CFURLPK9__CFArray12LSPropertiesb,
                            __ZN11TFSIteratorC2EPK7__CFURLPK9__CFArray12LSPropertiesb,
                            __ZN11TSparseSpanC1Eyyb, __ZN11TSparseSpanC2Eyyb,
                            __ZN11UniCharSpanC1EPK10__CFString,
                            __ZN11UniCharSpanC2EPK10__CFString,
                            __ZN12ROSPVolumeID12BootVolumeIDEv,
                            __ZN12TBusyFolders13StopObservingEv,
                            __ZN12TBusyFolders14StartObservingEv,
                            __ZN12TBusyFolders22StopObservingDirectoryERK7TStringb,
                            __ZN12TBusyFolders23StartObservingDirectoryERK7TStringb,
                            __ZN12TBusyFolders7AddPathERK7TStringb,
                            __ZN12TBusyFoldersC1Ev, __ZN12TBusyFoldersC2Ev,
                            __ZN12TBusyFoldersD1Ev, __ZN12TBusyFoldersD2Ev,
                            __ZN12TCloneFamily26PartialCloneFamilyFromDataERK4TRefIPK8__CFData20TRetainReleasePolicyIS3_EE,
                            __ZN12TCloneFamily26PerfectCloneFamilyFromDataERK4TRefIPK8__CFData20TRetainReleasePolicyIS3_EE,
                            __ZN12TCloneFamily30PrunePartialPathsOutsideOfPathERK7TStringS2_,
                            __ZN12TCloneFamily31CloneFamilyAtPreservedClonePathERK7TString,
                            __ZN12TCloneFamily31PruneUnidirectionalPartialPathsERK7TString,
                            __ZN12TCloneFamilyC1ERKNSt3__16vectorI12TCloneRecordNS0_9allocatorIS2_EEEE16ECloneFamilyType,
                            __ZN12TCloneFamilyC2ERKNSt3__16vectorI12TCloneRecordNS0_9allocatorIS2_EEEE16ECloneFamilyType,
                            __ZN12TCloneRecord12LoadBlockMapERK7TString,
                            __ZN12TCloneRecord30PrunePartialPathsOutsideOfPathE7TStringS0_,
                            __ZN12TCloneRecord31PruneUnidirectionalPartialPathsERK7TString,
                            __ZN12TFSInfoSizer10SizeFolderENSt3__110shared_ptrIS_EEy,
                            __ZN12TFSInfoSizer12ShouldCancelEPv,
                            __ZN12TFSInfoSizerC1ERK8TNodePtrS2_RKNSt3__110shared_ptrI9TNodeTaskEEP19TFolderSizingThread,
                            __ZN12TFSInfoSizerC2ERK8TNodePtrS2_RKNSt3__110shared_ptrI9TNodeTaskEEP19TFolderSizingThread,
                            __ZN12TGlobalNodes10MoviesNodeEv,
                            __ZN12TGlobalNodes11AirDropNodeEv,
                            __ZN12TGlobalNodes11GlobalNodesEv,
                            __ZN12TGlobalNodes12ComputerNameEv,
                            __ZN12TGlobalNodes12PicturesNodeEv,
                            __ZN12TGlobalNodes12gGlobalNodesE,
                            __ZN12TGlobalNodes13DownloadsNodeEv,
                            __ZN12TGlobalNodes13FinalizeNodesEv,
                            __ZN12TGlobalNodes13IsNetworkNodeEjRK8TNodePtr,
                            __ZN12TGlobalNodes16AllProvidersNodeEv,
                            __ZN12TGlobalNodes17NetworkNearbyNodeEv,
                            __ZN12TGlobalNodes18FinalizeGlobalNodeER8TNodePtrb,
                            __ZN12TGlobalNodes18NetworkSidebarNodeEv,
                            __ZN12TGlobalNodes21NetworkRemoteDiskNodeEv,
                            __ZN12TGlobalNodes26iTunesDevicesContainerNodeEv,
                            __ZN12TGlobalNodes28iCloudLibrariesContainerNodeEv,
                            __ZN12TGlobalNodes29GetNodeForSearchPathDirectoryE21NSSearchPathDirectorymbbR8TNodePtr,
                            __ZN12TGlobalNodes30AllICloudAccountsContainerNodeEv,
                            __ZN12TGlobalNodes41DataSeparatedICloudLibrariesContainerNodeEv,
                            __ZN12TGlobalNodes8BootNodeEv,
                            __ZN12TGlobalNodes8RootNodeEv,
                            __ZN12TGlobalNodes9MusicNodeEv,
                            __ZN12TNodeRequest15AddPtrReferenceEv,
                            __ZN12TNodeRequest18RemovePtrReferenceEv,
                            __ZN12TNodeRequest7SetTaskERKNSt3__110shared_ptrI9TNodeTaskEE,
                            __ZN12TNodeRequestC1EPK21TClientChangeNotifier,
                            __ZN12TNodeRequestC1EPK21TClientChangeNotifier18NodeRequestOptions,
                            __ZN12TNodeRequestC2EPK21TClientChangeNotifier,
                            __ZN12TNodeRequestC2EPK21TClientChangeNotifier18NodeRequestOptions,
                            __ZN12TProgressMap10NodeForURLEPK7__CFURL,
                            __ZN12TProgressMap11GetProgressERK8TNodePtrR13TProgressInfo,
                            __ZN12TProgressMap11HasProgressEPK7__CFURL,
                            __ZN12TProgressMap12gProgressMapE,
                            __ZN12TProgressMap14CancelProgressERK8TNodePtrb,
                            __ZN12TProgressMap18AddProgressForPathERK13TProgressInfoRK7TString,
                            __ZN12TProgressMap18PostProgressChangeERK8TNodePtr,
                            __ZN12TProgressMap19AddExternalProgressEP11objc_objectP12NSDictionary,
                            __ZN12TProgressMap21NormalizedPathForPathERK7TString,
                            __ZN12TProgressMap22UpdateExternalProgressEPK7__CFURLS2_8TNodePtrRK13TProgressInfo,
                            __ZN12TProgressMap24GetProgressDispatchQueueEv,
                            __ZN12TProgressMap32AddSubscriberForExternalProgressEP5TNode,
                            __ZN12TProgressMap35RemoveSubscriberForExternalProgressEP5TNode,
                            __ZN13TChildrenList11AddNewChildERK8TNodePtrRb,
                            __ZN13TChildrenList11LowerBoundsERK8TNodePtr,
                            __ZN13TChildrenList11LowerBoundsERKNSt3__110shared_ptrI7TFSInfoEE,
                            __ZN13TChildrenList11RemoveChildERK8TNodePtr,
                            __ZN13TChildrenList14AddNewChildrenERKNSt3__16vectorI8TNodePtrNS0_9allocatorIS2_EEEEbRS5_S8_S8_,
                            __ZN13TChildrenList14CompareFPItemsEP6FPItemS1_,
                            __ZN13TChildrenList14DetachChildrenEv,
                            __ZN13TChildrenList14RemoveChildrenERKNSt3__16vectorI8TNodePtrNS0_9allocatorIS2_EEEERS5_,
                            __ZN13TChildrenList15FindDisplayNameERK7TString,
                            __ZN13TChildrenList15SetLastSyncTimeEy,
                            __ZN13TChildrenList16FindRenamedChildERKNSt3__110shared_ptrI7TFSInfoEE,
                            __ZN13TChildrenList16SetNotifyPendingEb,
                            __ZN13TChildrenList16SortListIfNeededEm,
                            __ZN13TChildrenList17SetLastNotifyTimeEy,
                            __ZN13TChildrenList17SetLastResizeTimeEy,
                            __ZN13TChildrenList18gNotificationQueueE,
                            __ZN13TChildrenList19InvalidateSortOrderEv,
                            __ZN13TChildrenList19ReplaceChildrenWithERKNSt3__16vectorI8TNodePtrNS0_9allocatorIS2_EEEEb,
                            __ZN13TChildrenList19SetLastSyncDurationEy,
                            __ZN13TChildrenList19SubscribeWithKQueueEv,
                            __ZN13TChildrenList20GetNotificationQueueEPFvP16OpaqueEventQueueE,
                            __ZN13TChildrenList21SetLastResizeDurationEy,
                            __ZN13TChildrenList21UnsubscribeWithKQueueEv,
                            __ZN13TChildrenList22FindNodeMatchingFPItemEP6FPItem,
                            __ZN13TChildrenList23SetNSProgressSubscriberEP11objc_object,
                            __ZN13TChildrenList24IncrementGenerationCountEv,
                            __ZN13TChildrenList26DecrementSubscriptionCountEv,
                            __ZN13TChildrenList26IncrementSubscriptionCountEv,
                            __ZN13TChildrenList28StopCollectionStatusObserverEv,
                            __ZN13TChildrenList29ClearCollectionStatusObserverEv,
                            __ZN13TChildrenList29GetSubscriptionReferenceCountEv,
                            __ZN13TChildrenList29SetSubscriptionFileDescriptorEi,
                            __ZN13TChildrenList29StartCollectionStatusObserverEP16FPItemCollectionRK8TNodePtrPU28objcproto17OS_dispatch_queue8NSObjectb,
                            __ZN13TChildrenList32DecrementRegisteredChildrenCountEv,
                            __ZN13TChildrenList32IncrementRegisteredChildrenCountEv,
                            __ZN13TChildrenList4FindERK7TString,
                            __ZN13TChildrenList4FindERKNSt3__110shared_ptrI7TFSInfoEE,
                            __ZN13TChildrenList4LockEv,
                            __ZN13TChildrenList5ClearEv,
                            __ZN13TChildrenList6UnlockEv,
                            __ZN13TChildrenListC1EPK5TNode,
                            __ZN13TChildrenListC2EPK5TNode,
                            __ZN13TChildrenListD1Ev, __ZN13TChildrenListD2Ev,
                            __ZN13TFSVolumeInfo11FlushVolumeE12ROSPVolumeIDb,
                            __ZN13TFSVolumeInfo11gSizingProcE,
                            __ZN13TFSVolumeInfo12DecodeMapKeyE9VolumeKeyR12ROSPVolumeIDR17FSInfoVirtualType,
                            __ZN13TFSVolumeInfo12FlushVolumesEb,
                            __ZN13TFSVolumeInfo12IsHiddenFileERK7TString,
                            __ZN13TFSVolumeInfo12gFPItemQueueE,
                            __ZN13TFSVolumeInfo13CanUseReadDirEv,
                            __ZN13TFSVolumeInfo13LowLevelFlushEv,
                            __ZN13TFSVolumeInfo13SetMountPointEv,
                            __ZN13TFSVolumeInfo13VolumeInfoForE12ROSPVolumeID,
                            __ZN13TFSVolumeInfo13gAirDropQueueE,
                            __ZN13TFSVolumeInfo14GarbageCollectEv,
                            __ZN13TFSVolumeInfo14gCanUseReadDirE,
                            __ZN13TFSVolumeInfo15CopyVolumeInfosEv,
                            __ZN13TFSVolumeInfo15SetIsTrashEmptyEb,
                            __ZN13TFSVolumeInfo15gTimeIterationsE,
                            __ZN13TFSVolumeInfo16AddVirtualVolumeE17FSInfoVirtualTypeRNSt3__110shared_ptrIS_EE,
                            __ZN13TFSVolumeInfo16CreateHiddenListEv,
                            __ZN13TFSVolumeInfo16GetVolumeInfoForE17FSInfoVirtualType,
                            __ZN13TFSVolumeInfo16GetVolumeInfoForEPK7__CFURL,
                            __ZN13TFSVolumeInfo16SetDeviceThreadsEv,
                            __ZN13TFSVolumeInfo16gFullEnvironmentE,
                            __ZN13TFSVolumeInfo17ClearFlushPendingEv,
                            __ZN13TFSVolumeInfo17gSkipLSPropertiesE,
                            __ZN13TFSVolumeInfo18HandleFlushRequestE12ROSPVolumeID,
                            __ZN13TFSVolumeInfo18ReadHiddenListFileEv,
                            __ZN13TFSVolumeInfo18SetFullEnvironmentEv,
                            __ZN13TFSVolumeInfo18SetPopulationPrefsEbbb,
                            __ZN13TFSVolumeInfo18SystemBuildVersionEv,
                            __ZN13TFSVolumeInfo18gAllCloudLibsQueueE,
                            __ZN13TFSVolumeInfo19FlushPropertyStoresEv,
                            __ZN13TFSVolumeInfo19gNetworkNearbyQueueE,
                            __ZN13TFSVolumeInfo20GetDedicatedGCDQueueE17FSInfoVirtualType,
                            __ZN13TFSVolumeInfo20gTagsSharedListQueueE,
                            __ZN13TFSVolumeInfo22CopyPerfCounterForPathERK7TString,
                            __ZN13TFSVolumeInfo22GetVolumeInfoForNoSyncE9VolumeKey,
                            __ZN13TFSVolumeInfo22SetIsNetworkRemoteDiskEb,
                            __ZN13TFSVolumeInfo22ShouldSkipLSPropertiesEv,
                            __ZN13TFSVolumeInfo22TestAndSetFlushPendingEv,
                            __ZN13TFSVolumeInfo22UseNWBrowserForAirDropEv,
                            __ZN13TFSVolumeInfo23InitializeVirtualVolumeE17FSInfoVirtualType,
                            __ZN13TFSVolumeInfo23UpdateIterationPerfDataERK7TStringdbbm,
                            __ZN13TFSVolumeInfo23gAllowRootStoreCreationE,
                            __ZN13TFSVolumeInfo23gNetworkRemoteDiskQueueE,
                            __ZN13TFSVolumeInfo24gNoNetworkPropertyStoresE,
                            __ZN13TFSVolumeInfo26InitializeFileSystemVolumeEPK7__CFURL12ROSPVolumeID17FSInfoVirtualType,
                            __ZN13TFSVolumeInfo26ShouldRecordIterationTimesEv,
                            __ZN13TFSVolumeInfo26gMountedNetworkRemoteDisksE,
                            __ZN13TFSVolumeInfo28SetTimerToHandleFlushRequestE12ROSPVolumeIDy,
                            __ZN13TFSVolumeInfo28UpdateReusableSpaceOnVolumesEv,
                            __ZN13TFSVolumeInfo29InvalidateFeeSpaceAndCapacityEv,
                            __ZN13TFSVolumeInfo30SetRootDirectoryForSidebarInfoE17FSInfoVirtualType,
                            __ZN13TFSVolumeInfo32ShouldWriteNetworkPropertyStoresEv,
                            __ZN13TFSVolumeInfo40InvalidateFeeSpaceAndCapacityOfContainerEv,
                            __ZN13TFSVolumeInfo5FlushEb,
                            __ZN13TFSVolumeInfo9AddVolumeEPK7__CFURL17FSInfoVirtualTypeRNSt3__110shared_ptrIS_EE,
                            __ZN13TFSVolumeInfo9GetMapKeyE12ROSPVolumeID17FSInfoVirtualType,
                            __ZN13TFSVolumeInfo9GetMapKeyE17FSInfoVirtualType,
                            __ZN13TFSVolumeInfo9LoadPrefsEv,
                            __ZN13TFSVolumeInfo9SetFormatEtt,
                            __ZN13TFSVolumeInfo9gSyncProcE,
                            __ZN13TFSVolumeInfoC1Ev, __ZN13TFSVolumeInfoC2Ev,
                            __ZN13TFSVolumeInfoD1Ev, __ZN13TFSVolumeInfoD2Ev,
                            __ZN13TNodeEventPtrC1EP11FINodeEvent,
                            __ZN13TNodeEventPtrC2EP11FINodeEvent,
                            __ZN13TNodeEventPtrD1Ev, __ZN13TNodeEventPtrD2Ev,
                            __ZN13TNodeIterator35GetVisibleChildrenAndSortPropertiesERK8TNodePtrbbb,
                            __ZN13TNodeIterator4NextEv,
                            __ZN13TNodeIterator5FirstEv,
                            __ZN13TNodeIterator7AtIndexEm,
                            __ZN13TNodeIteratorC1ERK8TNodePtrbbb,
                            __ZN13TNodeIteratorC2ERK8TNodePtrbbb,
                            __ZN13TNotifierListC1Ev, __ZN13TNotifierListC2Ev,
                            __ZN14TCFURLInfoList13FindAndRemoveERKNSt3__110shared_ptrI10TCFURLInfoEE,
                            __ZN14TCFURLInfoList4DumpEv,
                            __ZN14TCFURLIterator18SetFetchAllUpfrontEb,
                            __ZN14TCFURLIterator4NextERNSt3__110shared_ptrI10TCFURLInfoEE,
                            __ZN14TCFURLIterator7NextRawERNSt3__110shared_ptrI10TCFURLInfoEE,
                            __ZN14TCFURLIteratorC1EPK10TCFURLInfoPK9__CFArrayb,
                            __ZN14TCFURLIteratorC1ERKNSt3__110shared_ptrI10TCFURLInfoEEPK9__CFArrayb,
                            __ZN14TCFURLIteratorC2EPK10TCFURLInfoPK9__CFArrayb,
                            __ZN14TCFURLIteratorC2ERKNSt3__110shared_ptrI10TCFURLInfoEEPK9__CFArrayb,
                            __ZN14TNodeEventPtrs17SendNotificationsEv,
                            __ZN14TNodeEventPtrs18AddPropertyChangesERK8TNodePtrRKNSt3__13setI8PropertyNS3_4lessIS5_EENS3_9allocatorIS5_EEEE,
                            __ZN14TNodeEventPtrs5clearEv,
                            __ZN14TNodeEventPtrs8AddEventERK8TNodePtrRK13TNodeEventPtr,
                            __ZN14TNodeEventPtrs9AddEventsERKS_,
                            __ZN14TOperationLock12RemoveWriterEP12TLockManager,
                            __ZN14TOperationLock14AddChildWriterEP12TLockManager,
                            __ZN14TOperationLock17RemoveChildWriterEP12TLockManager,
                            __ZN14TOperationLock18ResumeNodeSynchingEv,
                            __ZN14TOperationLock19SuspendNodeSynchingEv,
                            __ZN14TOperationLock9AddWriterEP12TLockManager,
                            __ZN14TOperationLockC1EP5TNode,
                            __ZN14TOperationLockC2EP5TNode,
                            __ZN14TOperationLockD1Ev, __ZN14TOperationLockD2Ev,
                            __ZN14TPropertyValue7ReleaseEv,
                            __ZN14TPropertyValue8CopyBlobERK4Blob,
                            __ZN14TPropertyValue8CopyFromERKS_,
                            __ZN14TPropertyValue8MoveFromEOS_,
                            __ZN14TPropertyValueC1EOS_,
                            __ZN14TPropertyValueC1ERK18TPropertyReference,
                            __ZN14TPropertyValueC1ERKS_,
                            __ZN14TPropertyValueC2EOS_,
                            __ZN14TPropertyValueC2ERK18TPropertyReference,
                            __ZN14TPropertyValueC2ERKS_,
                            __ZN14TPropertyValueD1Ev, __ZN14TPropertyValueD2Ev,
                            __ZN14TPropertyValueaSEOS_,
                            __ZN14TPropertyValueaSERKS_,
                            __ZN15TFSInfoOverflow13MigrateToTypeE18FSInfoOverflowType,
                            __ZN15TFSInfoOverflow7SetTypeE18FSInfoOverflowType,
                            __ZN15TFSInfoOverflowC1E18FSInfoOverflowType,
                            __ZN15TFSInfoOverflowC1ERKS_,
                            __ZN15TFSInfoOverflowC2E18FSInfoOverflowType,
                            __ZN15TFSInfoOverflowC2ERKS_,
                            __ZN15TFSInfoOverflowD1Ev, __ZN15TFSInfoOverflowD2Ev,
                            __ZN15TFileDescriptor4OpenEPKc9OpenFlagsP16__CFFileSecuritybbb,
                            __ZN15TFileDescriptor5CloseEv,
                            __ZN15TFileDescriptorD1Ev, __ZN15TFileDescriptorD2Ev,
                            __ZN15TOperationSizer11ComputeSizeEv,
                            __ZN15TOperationSizer11StartSizingEv,
                            __ZN15TOperationSizer12ResumeSizingEy,
                            __ZN15TOperationSizer14AccumulateSizeERKNSt3__110shared_ptrI10TCFURLInfoEEbbS5_,
                            __ZN15TOperationSizer16CheckMaxFileSizeEv,
                            __ZN15TOperationSizer17UpdateSizingStatsEb,
                            __ZN15TOperationSizer22ComputeSizeWithTimeoutEy,
                            __ZN15TOperationSizer27SetFirstMergeSourceConflictERKNSt3__110shared_ptrI10TCFURLInfoEE,
                            __ZN15TOperationSizer32SetFirstMergeDestinationConflictERKNSt3__110shared_ptrI10TCFURLInfoEE,
                            __ZN15TOperationSizerC1ERKNS_21TOperationSizerParamsE,
                            __ZN15TOperationSizerC2ERKNS_21TOperationSizerParamsE,
                            __ZN15TOperationSizerD1Ev, __ZN15TOperationSizerD2Ev,
                            __ZN16TDSHelperContext10DeletePathEPKcbb,
                            __ZN16TDSHelperContext10DisconnectEv,
                            __ZN16TDSHelperContext10RenamePathEPKcRK7TStringbb,
                            __ZN16TDSHelperContext11PauseHelperEv,
                            __ZN16TDSHelperContext12CancelHelperEv,
                            __ZN16TDSHelperContext12CreateFolderEPKcS1_Pc,
                            __ZN16TDSHelperContext12ResumeHelperEv,
                            __ZN16TDSHelperContext13OperationSizeEPKcS1_S1_13OperationType16OperationOptionsP21DestinationSpaceNeedsbb17OperationConflictjRbS7_Rx,
                            __ZN16TDSHelperContext13ReplyReceivedEPU24objcproto13OS_xpc_object8NSObject,
                            __ZN16TDSHelperContext15ChildCreateLockEPKcS1_S1_b16OperationOptionsPcRb,
                            __ZN16TDSHelperContext15PerformCopyMoveEPKcS1_S1_j13OperationType19OperationResolution15MoveCopyOptionsybbbRS2_,
                            __ZN16TDSHelperContext16PerformFilesCopyEP7NSArrayIP5NSURLES2_PS0_IP8NSStringEP6NSUUIDybbR13OperationType,
                            __ZN16TDSHelperContext17HandleHelperEventEPU24objcproto13OS_xpc_object8NSObject,
                            __ZN16TDSHelperContext18SendMessageAndWaitEPU24objcproto13OS_xpc_object8NSObject,
                            __ZN16TDSHelperContext19FilesCopyDeleteItemEP22FPSandboxingURLWrapper19OperationResolutionbb,
                            __ZN16TDSHelperContext19FilesCopyDeleteLockEP22FPSandboxingURLWrapperS1_P6NSUUID,
                            __ZN16TDSHelperContext19HandleMsgFromHelperEPKcPU24objcproto13OS_xpc_object8NSObject,
                            __ZN16TDSHelperContext22CreateMessageForHelperEPKc,
                            __ZN16TDSHelperContext22FilesCopyOperationSizeEP5NSURLS1_P8NSString13OperationType16OperationOptionsP21DestinationSpaceNeeds17OperationConflictP6NSUUIDRx,
                            __ZN16TDSHelperContext24FilesCopyChildCreateLockEP5NSURLS1_P8NSStringP6NSUUIDlb16OperationOptionsbR7TStringRb,
                            __ZN16TDSHelperContext24FilesCopySetRootMetadataEP5NSURLS1_P8NSString13OperationTypeRS4_,
                            __ZN16TDSHelperContext24SendMessageWithReplySyncEPU24objcproto13OS_xpc_object8NSObject,
                            __ZN16TDSHelperContext27LaunchDesktopServicesHelperEbb,
                            __ZN16TDSHelperContext27UpdateDestinationSpaceNeedsER21DestinationSpaceNeedsxxxxxxxxxxxxxPKcS3_xy17OperationConflictbbi,
                            __ZN16TDSHelperContext4QuitEv,
                            __ZN16TDSHelperContext8DeletingEPKc19OperationResolutionbjbb,
                            __ZN16TDSHelperContextC1E16OperationOptionsPK10__CFStringPK7__CFURL,
                            __ZN16TDSHelperContextC2E16OperationOptionsPK10__CFStringPK7__CFURL,
                            __ZN16TDSHelperContextD0Ev,
                            __ZN16TDSHelperContextD1Ev,
                            __ZN16TDSHelperContextD2Ev,
                            __ZN16TReplicaRegistry16gReplicaRegistryE,
                            __ZN16TReplicaRegistry18CopyReplicaFINodesEP13OpaqueNodeRef,
                            __ZN16TReplicaRegistry3AddEP13OpaqueNodeRefPv,
                            __ZN16TReplicaRegistry6RemoveEP6FINode,
                            __ZN16TSyncBarrierLockC1EPKc,
                            __ZN16TSyncBarrierLockC2EPKc,
                            __ZN16TSyncBarrierLockD1Ev,
                            __ZN16TSyncBarrierLockD2Ev,
                            __ZN17TCopyErrorMonitor13CopyErrorLockEv,
                            __ZN17TKeyValueObserver13StopObservingEv,
                            __ZN17TKeyValueObserver18StartObservingPrivEP24DS_TKeyValueObserverGlueP7NSArrayP10NSIndexSetRK7TStringm,
                            __ZN17TKeyValueObserver18StartObservingPrivEP24DS_TKeyValueObserverGlueP8NSObjectRK7TStringm,
                            __ZN17TKeyValueObserverC1EOS_,
                            __ZN17TKeyValueObserverC2EOS_,
                            __ZN17TKeyValueObserveraSEOS_,
                            __ZN17TVolumeSyncThread19ScheduleVolumeFlushERKNSt3__110shared_ptrIS_EE12ROSPVolumeIDy,
                            __ZN17TVolumeSyncThreadC1EPK13TFSVolumeInfoPKc,
                            __ZN17TVolumeSyncThreadC2EPK13TFSVolumeInfoPKc,
                            __ZN18StRegistrationLockC1Ev,
                            __ZN18StRegistrationLockC2Ev,
                            __ZN18StRegistrationLockD1Ev,
                            __ZN18StRegistrationLockD2Ev,
                            __ZN18TConditionVariable15WaitWithTimeoutERNSt3__15mutexEy,
                            __ZN18TConditionVariable4WaitERNSt3__15mutexE,
                            __ZN18TConditionVariable6SignalEv,
                            __ZN18TDeepCFURLIterator11PopIteratorEv,
                            __ZN18TDeepCFURLIterator11RecordCloneEP11TCloneCacheRNSt3__110shared_ptrI10TCFURLInfoEEbb,
                            __ZN18TDeepCFURLIterator12NextInternalERNSt3__110shared_ptrI10TCFURLInfoEERiS5_RbS6_S4_S6_S4_,
                            __ZN18TDeepCFURLIterator12PushIteratorENSt3__110shared_ptrI10TCFURLInfoEE,
                            __ZN18TDeepCFURLIterator14RecordHardlinkEPNSt3__113unordered_setIyNS0_4hashIyEENS0_8equal_toIyEENS0_9allocatorIyEEEERNS0_10shared_ptrI10TCFURLInfoEENSB_17CopyOperationKindE,
                            __ZN18TDeepCFURLIterator16DestroyIteratorsEv,
                            __ZN18TDeepCFURLIterator16ResetCurrentItemERKNSt3__110shared_ptrI10TCFURLInfoEERi,
                            __ZN18TDeepCFURLIterator21ResetReservationStackEv,
                            __ZN18TDeepCFURLIterator30CreateDestinationListForSourceERKNSt3__110shared_ptrI10TCFURLInfoEE,
                            __ZN18TDeepCFURLIterator4NextERNSt3__110shared_ptrI10TCFURLInfoEE,
                            __ZN18TDeepCFURLIterator4NextERNSt3__110shared_ptrI10TCFURLInfoEERbS5_,
                            __ZN18TDeepCFURLIterator4NextERNSt3__110shared_ptrI10TCFURLInfoEERiS5_RbS6_,
                            __ZN18TDeepCFURLIterator4NextERNSt3__110shared_ptrI10TCFURLInfoEERiS5_RbS6_S4_S6_S4_,
                            __ZN18TDeepCFURLIterator5FirstERNSt3__110shared_ptrI10TCFURLInfoEE,
                            __ZN18TDeepCFURLIterator5FirstERNSt3__110shared_ptrI10TCFURLInfoEERbS5_,
                            __ZN18TDeepCFURLIterator5FirstERNSt3__110shared_ptrI10TCFURLInfoEERiS5_RbS6_S4_S6_S4_,
                            __ZN18TDeepCFURLIterator5ResetEv,
                            __ZN18TDeepCFURLIterator6CancelEv,
                            __ZN18TDeepCFURLIteratorC1ERKNSt3__110shared_ptrI10TCFURLInfoEEbbPK9__CFArraybPNS0_13unordered_setIyNS0_4hashIyEENS0_8equal_toIyEENS0_9allocatorIyEEEEP11TCloneCacheP17TReservationStackbbbbS3_NS2_17CopyOperationKindE,
                            __ZN18TDeepCFURLIteratorC2ERKNSt3__110shared_ptrI10TCFURLInfoEEbbPK9__CFArraybPNS0_13unordered_setIyNS0_4hashIyEENS0_8equal_toIyEENS0_9allocatorIyEEEEP11TCloneCacheP17TReservationStackbbbbS3_NS2_17CopyOperationKindE,
                            __ZN18TDeepCFURLIteratorD1Ev,
                            __ZN18TDeepCFURLIteratorD2Ev,
                            __ZN18TOperationReporterC2Ev,
                            __ZN18TPropertyRecordSetC1Ev,
                            __ZN18TPropertyRecordSetC2Ev,
                            __ZN18TPropertyReference5ClearEv,
                            __ZN18TReservationRecord31CreateAndAcquireFileCoordinatorEP17NSFileCoordinator,
                            __ZN18TReservationRecordC1ERKNSt3__110shared_ptrI10TCFURLInfoEE,
                            __ZN18TReservationRecordC2ERKNSt3__110shared_ptrI10TCFURLInfoEE,
                            __ZN18TReservationRecordD1Ev,
                            __ZN18TReservationRecordD2Ev,
                            __ZN19TBlockingEventQueue16EventQueueFromIDEP16OpaqueEventQueue,
                            __ZN19TBlockingEventQueue6TickleEv,
                            __ZN19TBlockingEventQueueC1EU13block_pointerFvP16OpaqueEventQueueEy,
                            __ZN19TBlockingEventQueueC2EU13block_pointerFvP16OpaqueEventQueueEy,
                            __ZN19TBlockingEventQueueD1Ev,
                            __ZN19TBlockingEventQueueD2Ev,
                            __ZN19TFSInfoSynchronizer13FetchChildrenEbb12LSProperties,
                            __ZN19TFSInfoSynchronizer19SyncBarrierFileNameEv,
                            __ZN19TFSInfoSynchronizer4NextEv,
                            __ZN19TFSInfoSynchronizerC1ERK8TNodePtr,
                            __ZN19TFSInfoSynchronizerC2ERK8TNodePtr,
                            __ZN19TFSInfoSynchronizerD1Ev,
                            __ZN19TFSInfoSynchronizerD2Ev,
                            __ZN19TFolderSizingThread17AssertOnFastQueueEv,
                            __ZN19TFolderSizingThread17AssertOnSlowQueueEv,
                            __ZN19TFolderSizingThread27PostFolderSizingTaskRequestERKNSt3__110shared_ptrIS_EERKNS1_I9TNodeTaskEE,
                            __ZN19TFolderSizingThread31SetTimerToDispatchResizeRequestERKNSt3__110shared_ptrIS_EERKNS1_I9TNodeTaskEEy,
                            __ZN19TFolderSizingThreadC1EPK13TFSVolumeInfo,
                            __ZN19TFolderSizingThreadC2EPK13TFSVolumeInfo,
                            __ZN20StSwitchThreadToUser12RevertToRootEv,
                            __ZN20StSwitchThreadToUser15SwitchUserGroupEjj,
                            __ZN20StSwitchThreadToUserC1Eb,
                            __ZN20StSwitchThreadToUserC1Ejj,
                            __ZN20StSwitchThreadToUserC2Eb,
                            __ZN20StSwitchThreadToUserC2Ejj,
                            __ZN20StSwitchThreadToUserD1Ev,
                            __ZN20StSwitchThreadToUserD2Ev,
                            __ZN20TFSRecursiveIterator4NextERNSt3__110shared_ptrI10TCFURLInfoEE,
                            __ZN20TFSRecursiveIterator5FirstERNSt3__110shared_ptrI10TCFURLInfoEE,
                            __ZN20TFSRecursiveIterator5ResetEv,
                            __ZN20TFSRecursiveIterator7NextRawERNSt3__110shared_ptrI10TCFURLInfoEE,
                            __ZN20TFSRecursiveIteratorC1EPK7__CFURLPK9__CFArrayb,
                            __ZN20TFSRecursiveIteratorC2EPK7__CFURLPK9__CFArrayb,
                            __ZN21NetworkResolveContext20CreateContextForNodeEP8__SFNode,
                            __ZN21NetworkResolveContext21ReleaseContextForNodeEPS_P8__SFNode,
                            __ZN21NetworkResolveContext22NetworkResolveCallBackEP8__SFNodePK10__CFStringm11SFNodeErrorPv,
                            __ZN21NetworkResolveContext6GetMapEv,
                            __ZN21NetworkResolveContext6GetURLEv,
                            __ZN21NetworkResolveContext7GetLockEv,
                            __ZN21NetworkResolveContext7ResolveEPK10__CFString,
                            __ZN21NetworkResolveContextC1EP8__SFNode,
                            __ZN21NetworkResolveContextC2EP8__SFNode,
                            __ZN21NetworkResolveContextD1Ev,
                            __ZN21NetworkResolveContextD2Ev,
                            __ZN21StFirstPopulationLock8sMutexesE,
                            __ZN21TClientChangeNotifier12HandleEventsEv,
                            __ZN21TClientChangeNotifier13DispatchEventEP11FINodeEvent,
                            __ZN21TClientChangeNotifier15AddPtrReferenceEv,
                            __ZN21TClientChangeNotifier18RemovePtrReferenceEv,
                            __ZN21TClientChangeNotifier19gClientNotifierListE,
                            __ZN21TClientChangeNotifier20FinalizeNotifierListEv,
                            __ZN21TClientChangeNotifier20ValidateNotifierListEv,
                            __ZN21TClientChangeNotifier21GetClientNotifierListEv,
                            __ZN21TClientChangeNotifier22SetTimerToHandleTickleEP11TDSNotifiery,
                            __ZN21TClientChangeNotifier4MakeE17NodeClientContextP16OpaqueEventQueuePFvS2_EPU28objcproto17OS_dispatch_queue8NSObjectU13block_pointerFvP11FINodeEventEPK10__CFString,
                            __ZN21TClientChangeNotifier6TickleEP16OpaqueEventQueue,
                            __ZN21TClientChangeNotifier6WakeUpEv,
                            __ZN21TClientChangeNotifier6gFlagsE,
                            __ZN21TClientChangeNotifierC1E17NodeClientContextP16OpaqueEventQueuePFvS2_EPU28objcproto17OS_dispatch_queue8NSObjectU13block_pointerFvP11FINodeEventEPK10__CFString,
                            __ZN21TClientChangeNotifierC2E17NodeClientContextP16OpaqueEventQueuePFvS2_EPU28objcproto17OS_dispatch_queue8NSObjectU13block_pointerFvP11FINodeEventEPK10__CFString,
                            __ZN21TClientChangeNotifierD1Ev,
                            __ZN21TClientChangeNotifierD2Ev,
                            __ZN21TFSInfoOverflowICloud13SetFPProviderEP16FPProviderDomain,
                            __ZN21TFSInfoSizerCompanion12NewIterationERKNSt3__110shared_ptrI10TCFURLInfoEE,
                            __ZN21TFSInfoSizerCompanion15FinishIterationEb,
                            __ZN21TFSInfoSizerCompanion26SetContainsDatalessFoldersEv,
                            __ZN21TFSInfoSizerCompanionC1ERK8TNodePtr,
                            __ZN21TFSInfoSizerCompanionC2ERK8TNodePtr,
                            __ZN21TFSInfoSizerCompanionD0Ev,
                            __ZN21TFSInfoSizerCompanionD1Ev,
                            __ZN21TFSInfoSizerCompanionD2Ev,
                            __ZN21TOperationErrorRecord15AddPtrReferenceEv,
                            __ZN21TOperationErrorRecord18RemovePtrReferenceEv,
                            __ZN21TOperationErrorRecordC1E13OperationTypei19OperationResolutionRKNSt3__110shared_ptrI10TCFURLInfoEEb,
                            __ZN21TOperationErrorRecordC1EP17TConflictIterator,
                            __ZN21TOperationErrorRecordC2E13OperationTypei19OperationResolutionRKNSt3__110shared_ptrI10TCFURLInfoEEb,
                            __ZN21TOperationErrorRecordC2EP17TConflictIterator,
                            __ZN22TCloneRestorationTable16CachedFamilyTypeEy,
                            __ZN22TCloneRestorationTable17ImportCloneFamilyEyNSt3__110shared_ptrI10TCFURLInfoEENS0_8functionIFNS0_8optionalI12TCloneFamilyEEvEEE,
                            __ZN22TCloneRestorationTable21RestorePreservedCloneERK7TStringyNSt3__18functionIFNS3_10shared_ptrI10TCFURLInfoEE19ECloneRestoreActionS7_EEE,
                            __ZN22TCloneRestorationTable25SourceInodeForPartialPathEyRK7TString,
                            __ZN22TCloneRestorationTable33RestoreMultipleLinkPreservedCloneERK7TStringyNSt3__18functionIFNS3_10shared_ptrI10TCFURLInfoEE19ECloneRestoreActionS7_EEE,
                            __ZN22TSidebarUpdateDisabler11IsSuspendedERK8TNodePtr,
                            __ZN22TSidebarUpdateDisabler13DisablerMutexEv,
                            __ZN22TSidebarUpdateDisabler22SideBarDisabledUpdatesEv,
                            __ZN22TSidebarUpdateDisablerC1E8TNodePtr,
                            __ZN22TSidebarUpdateDisablerC2E8TNodePtr,
                            __ZN22TSidebarUpdateDisablerD1Ev,
                            __ZN22TSidebarUpdateDisablerD2Ev,
                            __ZN23TFileCoordinationRecord15NextOperationIDEv,
                            __ZN23TFileCoordinationRecord17CoordinateReadingERKNSt3__110shared_ptrI10TCFURLInfoEEb,
                            __ZN23TFileCoordinationRecord18CoordinatedWritingERK7TString,
                            __ZN23TFileCoordinationRecord25CancelPendingCoordinatorsEi,
                            __ZN23TFileCoordinationRecord26PrepareToCoordinateReadingERKNSt3__110shared_ptrI10TCFURLInfoEEb,
                            __ZN23TFileCoordinationRecord28CopyURLForCoordinatedReadingERKNSt3__110shared_ptrI10TCFURLInfoEEb,
                            __ZN23TFileCoordinationRecord28CopyURLForCoordinatedWritingEPK7__CFURLNS_14WritingOptionsE,
                            __ZN23TFileCoordinationRecord7DidMoveEPK7__CFURLS2_,
                            __ZN23TFileCoordinationRecordC1EP17NSFileCoordinator,
                            __ZN23TFileCoordinationRecordC1Ei,
                            __ZN23TFileCoordinationRecordC2EP17NSFileCoordinator,
                            __ZN23TFileCoordinationRecordC2Ei,
                            __ZN23TFileCoordinationRecordD1Ev,
                            __ZN23TFileCoordinationRecordD2Ev,
                            __ZN23TSystemNotificationTask12gBusyFoldersE,
                            __ZN23TSystemNotificationTask13HandleFSEventEmPvPKjb,
                            __ZN23TSystemNotificationTask17EventCanBeIgnoredERK7TString,
                            __ZN23TSystemNotificationTask20HandleAllFileChangesEPK15__FSEventStreamPvmS3_PKjPKy,
                            __ZN23TSystemNotificationTask20gHandleFolderManagerE,
                            __ZN23TSystemNotificationTask21MakeNotificationQueueEv,
                            __ZN23TSystemNotificationTask22ObservedDirectoryMovedERK7TStringS2_b,
                            __ZN23TSystemNotificationTask22StopObservingDirectoryERK7TStringb,
                            __ZN23TSystemNotificationTask23StartObservingDirectoryERK7TStringb,
                            __ZN23TSystemNotificationTask23SystemNotificationQueueEv,
                            __ZN23TSystemNotificationTask23gSystemNotificationTaskE,
                            __ZN23TSystemNotificationTask24HandleBusyFoldersChangesEPK15__FSEventStreamPvmS3_PKjPKy,
                            __ZN23TSystemNotificationTask26MakeSystemNotificationTaskEv,
                            __ZN23TSystemNotificationTask28CurrentLocaleChangedCallbackEP22__CFNotificationCenterPvPK10__CFStringPKvPK14__CFDictionary,
                            __ZN23TSystemNotificationTask30FinalizeSystemNotificationTaskEv,
                            __ZN23TSystemNotificationTask33SystemConfigurationChangeCallbackEP22__CFNotificationCenterPvPK10__CFStringPKvPK14__CFDictionary,
                            __ZN23TSystemNotificationTaskC1Ev,
                            __ZN23TSystemNotificationTaskC2Ev,
                            __ZN23TSystemNotificationTaskD1Ev,
                            __ZN23TSystemNotificationTaskD2Ev,
                            __ZN24TDeviceManagementMonitor10RemoveNodeEP5TNode,
                            __ZN24TDeviceManagementMonitor11RegisterAppEP5TNode,
                            __ZN24TDeviceManagementMonitor13UnRegisterAppEP5TNode,
                            __ZN24TDeviceManagementMonitor19PolicyChangeHandlerEv,
                            __ZN24TDeviceManagementMonitor7AddNodeEP5TNode,
                            __ZN24TDeviceManagementMonitor8InstanceEv,
                            __ZN24TDeviceManagementMonitorC1Ev,
                            __ZN24TDeviceManagementMonitorC2Ev,
                            __ZN25StChangeValueForKeyHelperC1EP8NSObjectP8NSString,
                            __ZN25StChangeValueForKeyHelperC1EP8NSObjectP8NSStringP10NSIndexSet16NSKeyValueChange,
                            __ZN25StChangeValueForKeyHelperC1EP8NSObjectP8NSStringP5NSSet25NSKeyValueSetMutationKind,
                            __ZN25StChangeValueForKeyHelperC2EP8NSObjectP8NSString,
                            __ZN25StChangeValueForKeyHelperC2EP8NSObjectP8NSStringP10NSIndexSet16NSKeyValueChange,
                            __ZN25StChangeValueForKeyHelperC2EP8NSObjectP8NSStringP5NSSet25NSKeyValueSetMutationKind,
                            __ZN25StChangeValueForKeyHelperD1Ev,
                            __ZN25StChangeValueForKeyHelperD2Ev,
                            __ZN25TRegionRestrictionManager10RemoveNodeEP5TNode,
                            __ZN25TRegionRestrictionManager15UserCountryCodeEv,
                            __ZN25TRegionRestrictionManager18CurrentCountryCodeEb,
                            __ZN25TRegionRestrictionManager20CurrentLocaleChangedEv,
                            __ZN25TRegionRestrictionManager29RegisterForRegionRestrictionsEP5TNode,
                            __ZN25TRegionRestrictionManager31UnRegisterForRegionRestrictionsEP5TNode,
                            __ZN25TRegionRestrictionManager33UpdateVisibilityAfterLocaleChangeERK7TString,
                            __ZN25TRegionRestrictionManager7AddNodeEP5TNode,
                            __ZN25TRegionRestrictionManager8InstanceEv,
                            __ZN31StURLFileReferenceCheckDisablerC1Ev,
                            __ZN31StURLFileReferenceCheckDisablerC2Ev,
                            __ZN31StURLFileReferenceCheckDisablerD1Ev,
                            __ZN31StURLFileReferenceCheckDisablerD2Ev,
                            __ZN5TNode10CreateNodeERK8TNodePtrRKNSt3__110shared_ptrI7TFSInfoEERKNS4_I13TFSVolumeInfoEE,
                            __ZN5TNode10HandleSyncE18NodeRequestOptions,
                            __ZN5TNode10HandleSyncE18NodeRequestOptionsR14TNodeEventPtrs,
                            __ZN5TNode10HandleSyncERKNSt3__110shared_ptrI9TNodeTaskEERK8TNodePtr,
                            __ZN5TNode10InitializeEv, __ZN5TNode10MarkAsUsedEv,
                            __ZN5TNode10RemoveSelfEP14TNodeEventPtrs,
                            __ZN5TNode10ResetSizesEv,
                            __ZN5TNode11AddNewChildERK8TNodePtrRbbb,
                            __ZN5TNode11GetBootNodeEv,
                            __ZN5TNode11RemoveChildERK8TNodePtr,
                            __ZN5TNode11SetPropertyE8PropertyRK18TPropertyReferenceRKP17OpaqueNodeRequestb18NodeRequestOptions,
                            __ZN5TNode11SynchronizeERKP17OpaqueNodeRequest18NodeRequestOptions,
                            __ZN5TNode12ClearFPItemsEv,
                            __ZN5TNode12ComputerNameEv,
                            __ZN5TNode12GetNWNodeMapE17FSInfoVirtualType,
                            __ZN5TNode12HandleChangeERK7TString18NodeRequestOptions,
                            __ZN5TNode12RemoveNWNodeE17FSInfoVirtualTypeP8__SFNode,
                            __ZN5TNode12RemoveVolumeE12ROSPVolumeID,
                            __ZN5TNode12StPopulatingC1ERK8TNodePtrPS0_,
                            __ZN5TNode12StPopulatingC2ERK8TNodePtrPS0_,
                            __ZN5TNode12StPopulatingD1Ev,
                            __ZN5TNode12StPopulatingD2Ev,
                            __ZN5TNode12WeakValidateEPKS_,
                            __ZN5TNode12gHomeVRefNumE,
                            __ZN5TNode13GetVolumeNodeE12ROSPVolumeIDb,
                            __ZN5TNode13IsContextOpenEv,
                            __ZN5TNode13NodeForFPItemEP6FPItem,
                            __ZN5TNode13RedundantSyncE18NodeRequestOptions,
                            __ZN5TNode13ResynchronizeEv,
                            __ZN5TNode13SetIsFirmlinkEv,
                            __ZN5TNode13SetVolumeInfoERNSt3__110shared_ptrI13TFSVolumeInfoEE,
                            __ZN5TNode13VolumeInfoForERK8TNodePtrRKNSt3__110shared_ptrI7TFSInfoEE,
                            __ZN5TNode14AddNewChildrenERKNSt3__16vectorI8TNodePtrNS0_9allocatorIS2_EEEEbRS5_S8_b,
                            __ZN5TNode14FinalizeNWMapsEv,
                            __ZN5TNode14GetNetworkNodeEj,
                            __ZN5TNode14GetNodeFromURLERKPK7__CFURLR8TNodePtr18NodeRequestOptions,
                            __ZN5TNode14GetSpecialNodeEj,
                            __ZN5TNode14GetSpecialNodeEjR8TNodePtr,
                            __ZN5TNode14IsSizedPackageEv,
                            __ZN5TNode14RemoveChildrenERKNSt3__16vectorI8TNodePtrNS0_9allocatorIS2_EEEERS5_,
                            __ZN5TNode14ResumeSynchingEv,
                            __ZN5TNode14SetAliasTargetERK8TNodePtrb,
                            __ZN5TNode14UpdateSizeInfoEv,
                            __ZN5TNode15DumpPermissionsEj,
                            __ZN5TNode15FirmlinkParentsEv,
                            __ZN5TNode15GetNodeFromPathERK7TStringR8TNodePtr18NodeRequestOptions,
                            __ZN5TNode15HandleListenersE18NodeRequestOptions,
                            __ZN5TNode15LogNotificationE13NodeEventKindRK8TNodePtr8Property,
                            __ZN5TNode15NodeFromNodeRefEP13OpaqueNodeRef,
                            __ZN5TNode15SetComputerNameERK7TString,
                            __ZN5TNode15SetIsIncompleteEb,
                            __ZN5TNode15SetLastUsedDateEPK8__CFDateb,
                            __ZN5TNode15SuspendSynchingEv,
                            __ZN5TNode15ValidateGlobalsEv,
                            __ZN5TNode16CreateCustomNodeEP6FINode,
                            __ZN5TNode16GetOperationLockEv,
                            __ZN5TNode16GetSuperRootNodeEv,
                            __ZN5TNode16HandleMarkAsUsedERKNSt3__110shared_ptrI9TNodeTaskEERK8TNodePtr,
                            __ZN5TNode16SetSizesAreValidEb,
                            __ZN5TNode17CreateReplicaNodeEPS_,
                            __ZN5TNode17FindOrCreateChildENSt3__110shared_ptrI7TFSInfoEE,
                            __ZN5TNode17GetNodeFromFSInfoERKNSt3__110shared_ptrI7TFSInfoEER8TNodePtr,
                            __ZN5TNode17GetUnresolvedNodeERK7TStringRK12TCatalogInfo,
                            __ZN5TNode17HandleNodeRequestERKNSt3__110shared_ptrI9TNodeTaskEE,
                            __ZN5TNode17HandleSizeRequestEPS_,
                            __ZN5TNode17HandleSyncStartedE18NodeRequestOptionsRb,
                            __ZN5TNode17HandleVolumeAddedERKNSt3__110shared_ptrI9TNodeTaskEEb,
                            __ZN5TNode17NewVolumeIteratorEv,
                            __ZN5TNode17NodesOnSameVolumeERK8TNodePtrS2_,
                            __ZN5TNode17SetIsSizedPackageEb,
                            __ZN5TNode17SetSizePropertiesExxxxib,
                            __ZN5TNode18ClearSyncRequestedEv,
                            __ZN5TNode18CopyBookmarkDataToERPK8__CFDataRKP17OpaqueNodeRequest,
                            __ZN5TNode18HandleFlushVolumesERKNSt3__110shared_ptrI9TNodeTaskEERK8TNodePtr,
                            __ZN5TNode18HandleResolveAliasERKNSt3__110shared_ptrI9TNodeTaskEERK8TNodePtr,
                            __ZN5TNode18RequestSynchronizeE18NodeRequestOptions,
                            __ZN5TNode18ResolveBRContainerER7TString,
                            __ZN5TNode18RestartCollectionsEb,
                            __ZN5TNode18SynchronizeVolumesEv,
                            __ZN5TNode19CopyEnumeratorErrorEPU8__strongP7NSError,
                            __ZN5TNode19HandleFetchPropertyERKNSt3__110shared_ptrI9TNodeTaskEERK8TNodePtr,
                            __ZN5TNode19HandleStorePropertyERKNSt3__110shared_ptrI9TNodeTaskEERK8TNodePtr,
                            __ZN5TNode19HandleSyncCompletedE18NodeRequestOptions,
                            __ZN5TNode19HandleVolumeDeletedERKNSt3__110shared_ptrI9TNodeTaskEERK8TNodePtr,
                            __ZN5TNode19ReconcilePropertiesERKNSt3__110shared_ptrI7TFSInfoEER14TNodeEventPtrsb,
                            __ZN5TNode19ReplaceChildrenWithERKNSt3__16vectorI8TNodePtrNS0_9allocatorIS2_EEEEb,
                            __ZN5TNode19ScheduleFPOperationEP17FPActionOperationPU32objcproto21OS_dispatch_semaphore8NSObjecti,
                            __ZN5TNode19SetUnresolvedTargetEv,
                            __ZN5TNode19SynchronizeChildrenE18NodeRequestOptionsR14TNodeEventPtrs,
                            __ZN5TNode20AddVolumeToSuperRootER8TNodePtrb,
                            __ZN5TNode20ClearSizingIsPendingEv,
                            __ZN5TNode20GetNodeFromCFURLInfoERKNSt3__110shared_ptrI10TCFURLInfoEER8TNodePtr,
                            __ZN5TNode20InlineProgressCancelEv,
                            __ZN5TNode20IsDeferredForSymlinkEPKS_M7TFSInfoKFbvE,
                            __ZN5TNode21AddkQueueNotificationEv,
                            __ZN5TNode21AttachFPItemsMetadataERKNSt3__16vectorINS0_4pairI8TNodePtrU8__strongP6FPItemEENS0_9allocatorIS7_EEEEbb,
                            __ZN5TNode21DetachFPItemsMetadataEv,
                            __ZN5TNode21HandleFPProviderErrorERKNSt3__110shared_ptrI9TNodeTaskEERK8TNodePtr,
                            __ZN5TNode21HandlePropertyChangedERKNSt3__110shared_ptrI9TNodeTaskEERK8TNodePtr,
                            __ZN5TNode21SFNodeUnmountCallbackEP8__SFNodePK10__CFStringm11SFNodeErrorPv,
                            __ZN5TNode21UpdateFPItemsMetadataERKNSt3__16vectorI8TNodePtrNS0_9allocatorIS2_EEEE,
                            __ZN5TNode22AddTemporaryPropertiesE8TNodePtr,
                            __ZN5TNode22ClearHasICloudProgressEv,
                            __ZN5TNode22CopyVirtualNodeFromURLEPK7__CFURLi,
                            __ZN5TNode22DoExternalRegistrationERK4TRefIP11TDSNotifier20TRetainReleasePolicyIS2_EEb,
                            __ZN5TNode22FPItemNodeFromObjectIDERK7TString,
                            __ZN5TNode22HandleFetchNodeRequestERKNSt3__110shared_ptrI9TNodeTaskEERK8TNodePtr,
                            __ZN5TNode22HandleSyncComputerNameEv,
                            __ZN5TNode22NodeForDomainAndItemIDERK7TStringS2_,
                            __ZN5TNode22RemoveUnmarkedChildrenEP14TNodeEventPtrs,
                            __ZN5TNode23CopyVirtualNodeFromNodeERK8TNodePtr,
                            __ZN5TNode23GetNodeFromBookmarkDataERKPK8__CFDataR8TNodePtr18NodeRequestOptions,
                            __ZN5TNode23HandleFetchBookmarkDataERKNSt3__110shared_ptrI9TNodeTaskEERK8TNodePtr,
                            __ZN5TNode23HandleOpenServerRequestERKNSt3__110shared_ptrI9TNodeTaskEERK8TNodePtr,
                            __ZN5TNode24CancelPendingFPOperationEi,
                            __ZN5TNode24DispatchResizeRequestNowERKNSt3__110shared_ptrI9TNodeTaskEE,
                            __ZN5TNode24DoExternalUnRegistrationEv,
                            __ZN5TNode24FSNotificationsSupportedEv,
                            __ZN5TNode24GetSpecialNodeWithStatusEjR8TNodePtr,
                            __ZN5TNode24HandleRecursiveListenersEv,
                            __ZN5TNode24RemoveExtendedPropertiesEv,
                            __ZN5TNode24RemovekQueueNotificationEv,
                            __ZN5TNode24gKQueueRegistrationCountE,
                            __ZN5TNode25AddNewAcceptedInvitationsERKNSt3__16vectorI8TNodePtrNS0_9allocatorIS2_EEEE,
                            __ZN5TNode25HandleFolderSizingRequestERKNSt3__110shared_ptrI9TNodeTaskEE,
                            __ZN5TNode25HandleSubscribeWithKQueueERKNSt3__110shared_ptrI9TNodeTaskEERK8TNodePtr,
                            __ZN5TNode25RemoveAcceptedInvitationsERKNSt3__16vectorI8TNodePtrNS0_9allocatorIS2_EEEE,
                            __ZN5TNode25RemoveTemporaryPropertiesEv,
                            __ZN5TNode25TestAndSetSizingIsPendingEv,
                            __ZN5TNode25UpdatePropertySynchronousE8Property18NodeRequestOptionsb,
                            __ZN5TNode26AttachCreateFPItemIfNeededEb,
                            __ZN5TNode26CopyICloudFPProviderDomainEb,
                            __ZN5TNode26HandleFolderSizingRequestsERKNSt3__110shared_ptrI9TNodeTaskEE,
                            __ZN5TNode26HandleRegisterForSpotlightERKNSt3__110shared_ptrI9TNodeTaskEERK8TNodePtr,
                            __ZN5TNode26RegisterChangeNotificationERK4TRefIP21TClientChangeNotifier20TRetainReleasePolicyIS2_EE23NodeNotificationOptions,
                            __ZN5TNode26RequestFullSynchronizationEv,
                            __ZN5TNode26RestartObservingCollectionEv,
                            __ZN5TNode26SetSyncSpotlightAttributesEb,
                            __ZN5TNode26SubscribeForFSNotificationEv,
                            __ZN5TNode27ComputerNameChangedCallbackEPK16__SCDynamicStorePK9__CFArrayPv,
                            __ZN5TNode27HandleUnsubscribeWithKQueueERKNSt3__110shared_ptrI9TNodeTaskEERK8TNodePtr,
                            __ZN5TNode27NodeStartPopulationIfNeededE18NodeRequestOptions,
                            __ZN5TNode27ReconcileInternalPropertiesERKNSt3__110shared_ptrI7TFSInfoEER14TNodeEventPtrsb,
                            __ZN5TNode27RecursiveSyncOfObserveNodesEv,
                            __ZN5TNode27SetPrefetchPropertiesOnSyncEv,
                            __ZN5TNode27TestAndSetHasICloudProgressEv,
                            __ZN5TNode28ClearSpotlightAttributeQueryEb,
                            __ZN5TNode28CopyFPItemFromURLWithTimeoutEPK7__CFURLNSt3__16chrono8durationIdNS3_5ratioILl1ELl1EEEEE,
                            __ZN5TNode28ExternalUnRegistrationProperE17FSInfoVirtualTypeP8__SFNode,
                            __ZN5TNode28HandleDisconnectShareRequestERKNSt3__110shared_ptrI9TNodeTaskEERK8TNodePtr,
                            __ZN5TNode28HandleOpenScreenShareRequestERKNSt3__110shared_ptrI9TNodeTaskEERK8TNodePtr,
                            __ZN5TNode28HandleUnregisterForSpotlightERKNSt3__110shared_ptrI9TNodeTaskEERK8TNodePtr,
                            __ZN5TNode28ResetSpotlightAttributeQueryEv,
                            __ZN5TNode28SetInitialPopulationDeferredEv,
                            __ZN5TNode28UnregisterChangeNotificationERK4TRefIP21TClientChangeNotifier20TRetainReleasePolicyIS2_EERK8TNodePtr23NodeNotificationOptions,
                            __ZN5TNode28UnsubscribeForFSNotificationEv,
                            __ZN5TNode28UpdateAppNapCachedPropertiesEv,
                            __ZN5TNode29HandleRegisterForNotificationERKNSt3__110shared_ptrI9TNodeTaskEERK8TNodePtr,
                            __ZN5TNode29RegisterForUbiquityAttributesEv,
                            __ZN5TNode29SetTimerToDispatchSyncRequestERKNSt3__110shared_ptrI17TVolumeSyncThreadEEy18NodeRequestOptions,
                            __ZN5TNode29SetTimerToDispatchSyncRequestEy18NodeRequestOptions,
                            __ZN5TNode29TurnOnFetchLSPropertiesOnSyncEv,
                            __ZN5TNode30ClearInitialPopulationDeferredEv,
                            __ZN5TNode31HandleAddServerToSidebarRequestERKNSt3__110shared_ptrI9TNodeTaskEERK8TNodePtr,
                            __ZN5TNode31HandleUnregisterForNotificationERKNSt3__110shared_ptrI9TNodeTaskEERK8TNodePtr,
                            __ZN5TNode31RecalculateFreeSpaceAndCapacityEb,
                            __ZN5TNode31SetShouldSyncUbiquityAttributesEb,
                            __ZN5TNode31SetTimerToDispatchResizeRequestERKNSt3__110shared_ptrI9TNodeTaskEEy,
                            __ZN5TNode31UnRegisterForUbiquityAttributesEv,
                            __ZN5TNode32FetchAdditionalPropertiesForSyncERKNSt3__110shared_ptrI7TFSInfoEEb,
                            __ZN5TNode32RegisterForInternalNotificationsERK8TNodePtr23NodeNotificationOptions,
                            __ZN5TNode33CopyVirtualNodeFromURLWithTimeoutEPK7__CFURLNSt3__16chrono8durationIdNS3_5ratioILl1ELl1EEEEE,
                            __ZN5TNode34HandleResetSpotlightAttributeQueryEv,
                            __ZN5TNode34TestAndSetInitialPopulationStartedEv,
                            __ZN5TNode34UnRegisterForInternalNotificationsERK8TNodePtr23NodeNotificationOptions,
                            __ZN5TNode35TestAndSetInitialPopulationCompleteEv,
                            __ZN5TNode36HandleRemoveServerFromSidebarRequestERKNSt3__110shared_ptrI9TNodeTaskEERK8TNodePtr,
                            __ZN5TNode36RequestSpotlightAttributeSynchronizeEv,
                            __ZN5TNode38HandleRegisterInternalNotificationTaskERKNSt3__110shared_ptrI9TNodeTaskEERK8TNodePtr,
                            __ZN5TNode39TestAndSetRegisteredForExternalProgressEb,
                            __ZN5TNode6KQueueEv,
                            __ZN5TNode6RemoveEbP14TNodeEventPtrs,
                            __ZN5TNode7gKQueueE, __ZN5TNode8AddChildER8TNodePtr,
                            __ZN5TNode8FinalizeEv, __ZN5TNode8ValidateEPKS_,
                            __ZN5TNode9AddNWNodeE17FSInfoVirtualTypeP8__SFNodeRK8TNodePtr,
                            __ZN5TNode9AddVolumeEPK7__CFURL17FSInfoVirtualTypeR8TNodePtr,
                            __ZN5TNode9AsNodeRefEPKS_,
                            __ZN5TNode9FindChildERK7TStringbb,
                            __ZN5TNode9GetNWNodeE17FSInfoVirtualTypeP8__SFNode,
                            __ZN5TNode9GetVolumeERK7TString,
                            __ZN5TNode9SetFSInfoERKNSt3__110shared_ptrI7TFSInfoEEb,
                            __ZN5TNodeC1ERK8TNodePtrRKNSt3__110shared_ptrI7TFSInfoEERKNS4_I13TFSVolumeInfoEE,
                            __ZN5TNodeC2ERK8TNodePtrRKNSt3__110shared_ptrI7TFSInfoEERKNS4_I13TFSVolumeInfoEE,
                            __ZN5TNodeD1Ev, __ZN5TNodeD2Ev,
                            __ZN5TTime23NanosecondsSinceStartupEv,
                            __ZN5TTime24MicrosecondsSinceStartupEv,
                            __ZN5TTime9TickCountEv,
                            __ZN7TAtomic14TestAndSetFlagEjPh,
                            __ZN7TAtomic16TestAndClearFlagEjPh,
                            __ZN7TAtomic9DecrementEPi, __ZN7TAtomic9IncrementEPi,
                            __ZN7TFSInfo10CreateFileERK7TStringS2_P16__CFFileSecuritybRS0_,
                            __ZN7TFSInfo10FileSchemeEv,
                            __ZN7TFSInfo10GetURLTypeERK7TString,
                            __ZN7TFSInfo10InitializeEP6FPItem,
                            __ZN7TFSInfo10InitializeEPKS_RK7TString,
                            __ZN7TFSInfo10InitializeEPKc,
                            __ZN7TFSInfo10InitializeERKNSt3__110shared_ptrIS_EERK7TString,
                            __ZN7TFSInfo10MarkAsUsedEv,
                            __ZN7TFSInfo10SetCreatorERK18TPropertyReferenceRKNSt3__110shared_ptrI13TFSVolumeInfoEE18NodeRequestOptions,
                            __ZN7TFSInfo10SetCreatorEj,
                            __ZN7TFSInfo10UserIsRootEv,
                            __ZN7TFSInfo10initializeEPK7__CFURL12LSPropertiesbbb,
                            __ZN7TFSInfo11BrowserTypeEP11__SFBrowser,
                            __ZN7TFSInfo11DeleteDeep1Ebb,
                            __ZN7TFSInfo11PersonEqualEP22NSPersonNameComponentsS1_,
                            __ZN7TFSInfo11SetIsLockedERK18TPropertyReferenceRKNSt3__110shared_ptrI13TFSVolumeInfoEE18NodeRequestOptions,
                            __ZN7TFSInfo11SetItemNameERK7TString,
                            __ZN7TFSInfo11SetPropertyE8PropertyRK18TPropertyReferenceRKNSt3__110shared_ptrI13TFSVolumeInfoEE18NodeRequestOptions,
                            __ZN7TFSInfo11SetPropertyEPK10__CFStringPKv,
                            __ZN7TFSInfo12IsRestrictedERK7TString,
                            __ZN7TFSInfo12SetIsVisibleERK18TPropertyReferenceRKNSt3__110shared_ptrI13TFSVolumeInfoEE18NodeRequestOptions,
                            __ZN7TFSInfo13IsBrowserOpenEP11__SFBrowser,
                            __ZN7TFSInfo13ReadOnlyErrorERK18TPropertyReferenceRKNSt3__110shared_ptrI13TFSVolumeInfoEE18NodeRequestOptions,
                            __ZN7TFSInfo13SFNodeFromURLEPK7__CFURLbR17FSInfoVirtualType,
                            __ZN7TFSInfo13SetFinderInfoERK10FinderInfo,
                            __ZN7TFSInfo13SetUserGroupsERK18TPropertyReferenceRKNSt3__110shared_ptrI13TFSVolumeInfoEE18NodeRequestOptions,
                            __ZN7TFSInfo14LSPropertyKeysEv,
                            __ZN7TFSInfo14OpenBrowserMapEv,
                            __ZN7TFSInfo14SetDisplayNameERK7TString,
                            __ZN7TFSInfo14SetIsInvisibleEb,
                            __ZN7TFSInfo14SetModeDetailsEs,
                            __ZN7TFSInfo15BrowserOpenNodeEP11__SFBrowserP8__SFNodePK10__CFStringmRb,
                            __ZN7TFSInfo15CreateSFBrowserE17FSInfoVirtualType,
                            __ZN7TFSInfo15FetchPropertiesEb,
                            __ZN7TFSInfo15IsNetworkSchemeERK7TString,
                            __ZN7TFSInfo15SetCreationDateERK18TPropertyReferenceRKNSt3__110shared_ptrI13TFSVolumeInfoEE18NodeRequestOptions,
                            __ZN7TFSInfo15SetIsIncompleteEb,
                            __ZN7TFSInfo15SetIsStationeryERK18TPropertyReferenceRKNSt3__110shared_ptrI13TFSVolumeInfoEE18NodeRequestOptions,
                            __ZN7TFSInfo15SetIsUserLockedEb,
                            __ZN7TFSInfo15SetLastUsedDateEd,
                            __ZN7TFSInfo15SetTimePropertyEPK10__CFStringd,
                            __ZN7TFSInfo15SynchronizeTagsERKNSt3__110shared_ptrIS_EERNS0_3setI8PropertyNS0_4lessIS6_EENS0_9allocatorIS6_EEEE,
                            __ZN7TFSInfo16BrowserCloseNodeEP11__SFBrowserP8__SFNodeRb,
                            __ZN7TFSInfo16CheckiCloudFlagsERKNSt3__110shared_ptrIS_EERNS0_3setI8PropertyNS0_4lessIS6_EENS0_9allocatorIS6_EEEE,
                            __ZN7TFSInfo16CopyUltimateNameEPK10__CFStringS2_,
                            __ZN7TFSInfo16SetHasCustomIconERK18TPropertyReferenceRKNSt3__110shared_ptrI13TFSVolumeInfoEE18NodeRequestOptions,
                            __ZN7TFSInfo16SetIfSavedSearchEv,
                            __ZN7TFSInfo16SynchronizeKindsERKNSt3__110shared_ptrIS_EERNS0_3setI8PropertyNS0_4lessIS6_EENS0_9allocatorIS6_EEEE,
                            __ZN7TFSInfo16SynchronizeNamesEPK7__CFURLRNSt3__13setI8PropertyNS3_4lessIS5_EENS3_9allocatorIS5_EEEE,
                            __ZN7TFSInfo16SynchronizeNamesERKNSt3__110shared_ptrIS_EERNS0_3setI8PropertyNS0_4lessIS6_EENS0_9allocatorIS6_EEEE,
                            __ZN7TFSInfo17SetIfVirtualAliasEv,
                            __ZN7TFSInfo17SetStringPropertyEPK10__CFStringS2_,
                            __ZN7TFSInfo18ChangesForFPDomainEP16FPProviderDomainS1_RNSt3__13setI8PropertyNS2_4lessIS4_EENS2_9allocatorIS4_EEEE,
                            __ZN7TFSInfo18CopyFPItemIfNeededERKNSt3__110shared_ptrIS_EE,
                            __ZN7TFSInfo18SetBooleanPropertyEPK10__CFStringb,
                            __ZN7TFSInfo18SetTotalFinderInfoERK15TotalFinderInfo,
                            __ZN7TFSInfo18SynchronizeCatalogERKNSt3__110shared_ptrIS_EERNS0_3setI8PropertyNS0_4lessIS6_EENS0_9allocatorIS6_EEEE,
                            __ZN7TFSInfo18SynchronizeNetworkERKNSt3__110shared_ptrIS_EERNS0_3setI8PropertyNS0_4lessIS6_EENS0_9allocatorIS6_EEEE,
                            __ZN7TFSInfo18UpdateFileProviderEv,
                            __ZN7TFSInfo18gAirDropBrowserRefE,
                            __ZN7TFSInfo19SFNodeFromSFBrowserE17FSInfoVirtualTypePK7__CFURLb,
                            __ZN7TFSInfo19SetBladeRunnerFlagsE18DSBladeRunnerFlags,
                            __ZN7TFSInfo19SetModificationDateERK18TPropertyReferenceRKNSt3__110shared_ptrI13TFSVolumeInfoEE18NodeRequestOptions,
                            __ZN7TFSInfo19SynchronizeVersionsERKNSt3__110shared_ptrIS_EERNS0_3setI8PropertyNS0_4lessIS6_EENS0_9allocatorIS6_EEEE,
                            __ZN7TFSInfo20ComputeFlagsFromItemEP14NSMetadataItem,
                            __ZN7TFSInfo20FetchCollaborationIDEv,
                            __ZN7TFSInfo20GetSizerPropertyKeysEv,
                            __ZN7TFSInfo20HasLocationExtensionERK7TString,
                            __ZN7TFSInfo20IsDisconnectedDomainEP16FPProviderDomain,
                            __ZN7TFSInfo20RemoveOriginatorInfoEv,
                            __ZN7TFSInfo20SetAirDropBrowserRefEP11__SFBrowser,
                            __ZN7TFSInfo20SetIsExtensionHiddenERK18TPropertyReferenceRKNSt3__110shared_ptrI13TFSVolumeInfoEE18NodeRequestOptions,
                            __ZN7TFSInfo20SetIsExtensionHiddenEb,
                            __ZN7TFSInfo20SetTagsAndAttributesEPK9__CFArraybs,
                            __ZN7TFSInfo20SetTagsAndAttributesERK18TPropertyReferenceRKNSt3__110shared_ptrI13TFSVolumeInfoEE18NodeRequestOptions,
                            __ZN7TFSInfo21CopyAirDropBrowserRefEv,
                            __ZN7TFSInfo21GetMobileDocumentsURLEv,
                            __ZN7TFSInfo21RefreshUTTypePropertyEPK10__CFString,
                            __ZN7TFSInfo21SetExtendedFinderInfoERK18ExtendedFinderInfo,
                            __ZN7TFSInfo21SetExtendedUserAccessEv,
                            __ZN7TFSInfo21SetPermissionsDetailsEP16__CFFileSecurity,
                            __ZN7TFSInfo21SynchronizePropertiesERKNSt3__110shared_ptrIS_EERNS0_3setI8PropertyNS0_4lessIS6_EENS0_9allocatorIS6_EEEE,
                            __ZN7TFSInfo22SynchronizePermissionsERKNSt3__110shared_ptrIS_EERNS0_3setI8PropertyNS0_4lessIS6_EENS0_9allocatorIS6_EEEE,
                            __ZN7TFSInfo23SetFileSecurityPropertyEPK10__CFStringP16__CFFileSecurity,
                            __ZN7TFSInfo23SynchronizeBRPropertiesERKNSt3__110shared_ptrIS_EERNS0_3setI8PropertyNS0_4lessIS6_EENS0_9allocatorIS6_EEEE,
                            __ZN7TFSInfo24GetCloudLibDescriptorURLEv,
                            __ZN7TFSInfo24SynchronizeVersionsForceERKNSt3__110shared_ptrIS_EERNS0_3setI8PropertyNS0_4lessIS6_EENS0_9allocatorIS6_EEEE,
                            __ZN7TFSInfo24gNetworkNearbyBrowserRefE,
                            __ZN7TFSInfo25FetchAdditionalPropertiesERKNSt3__110shared_ptrIS_EEb,
                            __ZN7TFSInfo25FetchApplicationDMFPolicyEv,
                            __ZN7TFSInfo25FetchEnumeratorPropertiesEv,
                            __ZN7TFSInfo25IterationInfoPropertyKeysEv,
                            __ZN7TFSInfo25SetTagsAndAttributesLabelEPK9__CFArray,
                            __ZN7TFSInfo25SetTagsAndAttributesLabelERK18TPropertyReferenceRKNSt3__110shared_ptrI13TFSVolumeInfoEE18NodeRequestOptions,
                            __ZN7TFSInfo25SynchronizeLaunchServicesERKNSt3__110shared_ptrIS_EERNS0_3setI8PropertyNS0_4lessIS6_EENS0_9allocatorIS6_EEEE,
                            __ZN7TFSInfo26FetchBladeRunnerPropertiesEv,
                            __ZN7TFSInfo26GetBladeRunnerPropertyKeysEv,
                            __ZN7TFSInfo26SetNetworkNearbyBrowserRefEP11__SFBrowser,
                            __ZN7TFSInfo26SetTemporaryOriginatorInfoEP20SYDocumentAttributes,
                            __ZN7TFSInfo27AddClippingExtensionForTypeERK7TStringjRS0_,
                            __ZN7TFSInfo27CopyNetworkNearbyBrowserRefEv,
                            __ZN7TFSInfo27GetClippingExtensionForTypeEj,
                            __ZN7TFSInfo27SetLocalizedTypeDescriptionERK7TStringb,
                            __ZN7TFSInfo27SynchronizeFPItemPropertiesERKNSt3__110shared_ptrIS_EERNS0_3setI8PropertyNS0_4lessIS6_EENS0_9allocatorIS6_EEEE,
                            __ZN7TFSInfo28CopyNetworkSidebarBrowserRefEv,
                            __ZN7TFSInfo28gNetworkRemoteDiskBrowserRefE,
                            __ZN7TFSInfo29ResetContainerIncompleteStateEv,
                            __ZN7TFSInfo29SetOperationFractionCompletedEd,
                            __ZN7TFSInfo30IterationFullSetOfPropertyKeysEv,
                            __ZN7TFSInfo30SetNetworkRemoteDiskBrowserRefEP11__SFBrowser,
                            __ZN7TFSInfo31CopyNetworkRemoteDiskBrowserRefEv,
                            __ZN7TFSInfo31SynchronizeFPProviderPropertiesERKNSt3__110shared_ptrIS_EERNS0_3setI8PropertyNS0_4lessIS6_EENS0_9allocatorIS6_EEEE,
                            __ZN7TFSInfo32gDontUseModDateAsDefaultOpenDateE,
                            __ZN7TFSInfo5FetchERKNSt3__110shared_ptrIS_EE14FSInfoSyncMask,
                            __ZN7TFSInfo6DeleteER16TDSHelperContextbb,
                            __ZN7TFSInfo6DeleteEbb,
                            __ZN7TFSInfo6RenameERK7TStringb,
                            __ZN7TFSInfo7SetModeERK18TPropertyReferenceRKNSt3__110shared_ptrI13TFSVolumeInfoEE18NodeRequestOptions,
                            __ZN7TFSInfo7SetTypeERK18TPropertyReferenceRKNSt3__110shared_ptrI13TFSVolumeInfoEE18NodeRequestOptions,
                            __ZN7TFSInfo7SetTypeEj, __ZN7TFSInfo8FinalizeEv,
                            __ZN7TFSInfo8LazySyncEPK10__CFStringRKNSt3__110shared_ptrIS_EE,
                            __ZN7TFSInfo8SetIndexEi,
                            __ZN7TFSInfo8SetOwnerERK18TPropertyReferenceRKNSt3__110shared_ptrI13TFSVolumeInfoEE18NodeRequestOptions,
                            __ZN7TFSInfo8ValidateEv, __ZN7TFSInfo9GetUserIDEv,
                            __ZN7TFSInfo9SetFPItemEP6FPItem,
                            __ZN7TFSInfoC1E17FSInfoVirtualType,
                            __ZN7TFSInfoC1E17FSInfoVirtualTypeP8__SFNode,
                            __ZN7TFSInfoC1E17FSInfoVirtualTypeRK7TStringRK12TCatalogInfo,
                            __ZN7TFSInfoC1EP16FPProviderDomainP6FPItem,
                            __ZN7TFSInfoC1ERKNSt3__110shared_ptrIS_EEPKcS6_4fsidybbb,
                            __ZN7TFSInfoC1ERKS_,
                            __ZN7TFSInfoC2E17FSInfoVirtualType,
                            __ZN7TFSInfoC2E17FSInfoVirtualTypeP8__SFNode,
                            __ZN7TFSInfoC2E17FSInfoVirtualTypeRK7TStringRK12TCatalogInfo,
                            __ZN7TFSInfoC2EP16FPProviderDomainP6FPItem,
                            __ZN7TFSInfoC2ERKNSt3__110shared_ptrIS_EEPKcS6_4fsidybbb,
                            __ZN7TFSInfoC2ERKS_, __ZN7TNWNodeC1EP8__SFNode,
                            __ZN7TNWNodeC2EP8__SFNode,
                            __ZN7TString10MutableRefEv,
                            __ZN7TString10SetUniCharElt,
                            __ZN7TString11SetFromUTF8EPKcm,
                            __ZN7TString15SetFromUniCharsEPKtl,
                            __ZN7TString17ReplaceCharactersEtt,
                            __ZN7TString19ConcatWithSeparatorERKNSt3__16vectorIS_NS0_9allocatorIS_EEEERKS_,
                            __ZN7TString23SetStringRefAsImmutableEPK10__CFString,
                            __ZN7TString6AppendEPKc, __ZN7TString6AppendERKS_,
                            __ZN7TString6AppendEt,
                            __ZN7TString9IsMutableEPK10__CFString,
                            __ZN7TString9SetLengthEl, __ZN7TStringC1EPKc,
                            __ZN7TStringC1EPKcm, __ZN7TStringC2EPKc,
                            __ZN7TStringC2EPKcm, __ZN8TDSMutex4lockEv,
                            __ZN8TDSMutex6unlockEv, __ZN8TDSMutexC1Eb,
                            __ZN8TDSMutexC2Eb, __ZN8TDSMutexD1Ev,
                            __ZN8TDSMutexD2Ev, __ZN8TNodePtrC1EOS_,
                            __ZN8TNodePtrC1EPK5TNode, __ZN8TNodePtrC2EOS_,
                            __ZN8TNodePtrC2EPK5TNode, __ZN8TNodePtraSEOS_,
                            __ZN9TCopyItem13RecycleBufferEv,
                            __ZN9TCopyItem15GetNextCopySpanEj,
                            __ZN9TCopyItem17CoordinateReadingEP17NSFileCoordinatorb,
                            __ZN9TCopyItem18SetSourceIsPackageENSt3__110shared_ptrI10TCFURLInfoEE,
                            __ZN9TCopyItem20ResetDataLogicalSizeEv,
                            __ZN9TCopyItem28CheckBackupRightsFromPermsetEP12_acl_permsetb,
                            __ZN9TCopyItem7SetNameERK7TString,
                            __ZN9TCopyItemC1E12CopyItemTypeP10TCopyQueueNSt3__110shared_ptrI10TCFURLInfoEEPK7__CFURLS9_P9TCopySpan13CopyItemFlagsb21_PreProcOperationKind,
                            __ZN9TCopyItemC1ERKS_,
                            __ZN9TCopyItemC2E12CopyItemTypeP10TCopyQueueNSt3__110shared_ptrI10TCFURLInfoEEPK7__CFURLS9_P9TCopySpan13CopyItemFlagsb21_PreProcOperationKind,
                            __ZN9TCopyItemC2ERKS_, __ZN9TCopyItemD1Ev,
                            __ZN9TCopyItemD2Ev, __ZN9TCopySpanC1Eyyb,
                            __ZN9TCopySpanC2Eyyb,
                            __ZN9TNodeTask10SetRequestERK8TNodePtrj8PropertyRK14TPropertyValue18NodeRequestOptions,
                            __ZN9TNodeTask12ResetRequestEv,
                            __ZN9TNodeTask16SetRequestStatusEi,
                            __ZN9TNodeTask19PostNodeTaskRequestERKNSt3__110shared_ptrIS_EERKNS1_I17TVolumeSyncThreadEE,
                            __ZN9TNodeTaskC1ERK4TRefIP11TDSNotifier20TRetainReleasePolicyIS2_EE,
                            __ZN9TNodeTaskC2ERK4TRefIP11TDSNotifier20TRetainReleasePolicyIS2_EE,
                            __ZN9TPathName14UsersDirectoryEv,
                            __ZN9TPathName16VolumesDirectoryEv,
                            __ZN9TPathName21kMacPathNameSeparatorE,
                            __ZN9TPathName23kPOSIXPathNameSeparatorE,
                            __ZN9TPathName4kDotE, __ZN9TPathNameC1ERK7TStringt,
                            __ZN9TPathNameC1Ev, __ZN9TPathNameC2ERK7TStringt,
                            __ZN9TPathNameC2Ev,
                            __ZNK10TCFURLInfo10CreateFileERK7TStringP12TUniqueNamerP16__CFFileSecuritybRNSt3__110shared_ptrIS_EE,
                            __ZNK10TCFURLInfo10GetCreatorEv,
                            __ZNK10TCFURLInfo10IsDatalessEv,
                            __ZNK10TCFURLInfo10IsHardlinkEv,
                            __ZNK10TCFURLInfo10IsLockFileEv,
                            __ZNK10TCFURLInfo10IsNoUnlinkEv,
                            __ZNK10TCFURLInfo10IsRootItemEv,
                            __ZNK10TCFURLInfo10IsSnapshotEv,
                            __ZNK10TCFURLInfo10LSRegisterEv,
                            __ZNK10TCFURLInfo10LinkObjectERKNSt3__110shared_ptrIS_EERK7TStringRS2_S4_,
                            __ZNK10TCFURLInfo10MoveObjectERKNSt3__110shared_ptrIS_EERK7TStringRS2_S4_,
                            __ZNK10TCFURLInfo10PathAsCStrEv,
                            __ZNK10TCFURLInfo10ShouldSkipExb,
                            __ZNK10TCFURLInfo10VolumeUUIDEv,
                            __ZNK10TCFURLInfo11DisplayNameEv,
                            __ZNK10TCFURLInfo11LogicalNameEv,
                            __ZNK10TCFURLInfo11UserIsOwnerEv,
                            __ZNK10TCFURLInfo11XattrsEqualERKNSt3__110shared_ptrIS_EEb,
                            __ZNK10TCFURLInfo12GetDateAddedEv,
                            __ZNK10TCFURLInfo12IsBackupRootEv,
                            __ZNK10TCFURLInfo12IsStationeryEv,
                            __ZNK10TCFURLInfo12IsUserAppendEv,
                            __ZNK10TCFURLInfo12LSUnregisterEv,
                            __ZNK10TCFURLInfo12UnlinkObjectEb,
                            __ZNK10TCFURLInfo13CopyVolumeURLEv,
                            __ZNK10TCFURLInfo13GetFinderInfoEv,
                            __ZNK10TCFURLInfo13GetParentPathER7TString,
                            __ZNK10TCFURLInfo13GetUserGroupsEv,
                            __ZNK10TCFURLInfo13HasCustomIconEv,
                            __ZNK10TCFURLInfo13IsLocalVolumeEv,
                            __ZNK10TCFURLInfo13SecurityEqualERKNSt3__110shared_ptrIS_EE,
                            __ZNK10TCFURLInfo14CreateCFURLRefEv,
                            __ZNK10TCFURLInfo14CreateLockFileERKNSt3__110shared_ptrIS_EEPK7TStringP16__CFFileSecuritybRS2_b,
                            __ZNK10TCFURLInfo14GetExtentsListEv,
                            __ZNK10TCFURLInfo14IsSystemAppendEv,
                            __ZNK10TCFURLInfo15CompareForMergeERKNSt3__110shared_ptrIS_EER18CFComparisonResultbb,
                            __ZNK10TCFURLInfo15CopySymlinkFileERKNSt3__110shared_ptrIS_EERK7TStringNS_11CopyOptionsERS2_,
                            __ZNK10TCFURLInfo15CreateDirectoryERK7TStringP12TUniqueNamerP16__CFFileSecuritybRNSt3__110shared_ptrIS_EE,
                            __ZNK10TCFURLInfo15FinderInfoEqualERKNSt3__110shared_ptrIS_EE,
                            __ZNK10TCFURLInfo15GetCreationDateEv,
                            __ZNK10TCFURLInfo15MoveAndRenameToERKNSt3__110shared_ptrIS_EEPK7TStringRS2_,
                            __ZNK10TCFURLInfo16CopyCreationDateEv,
                            __ZNK10TCFURLInfo16IsOnSystemVolumeEv,
                            __ZNK10TCFURLInfo16LinkOrMoveObjectERKNSt3__110shared_ptrIS_EERK7TStringbRS2_S4_,
                            __ZNK10TCFURLInfo16XattrValuesEqualEPKcS1_PK10__CFStringi,
                            __ZNK10TCFURLInfo17CopyParentPathURLEv,
                            __ZNK10TCFURLInfo17CopyUsingCopyFileEbRKNSt3__110shared_ptrIS_EERK7TStringNS_11CopyOptionsERS2_,
                            __ZNK10TCFURLInfo17IsBusyApplicationEv,
                            __ZNK10TCFURLInfo17IsFolderProtectedEv,
                            __ZNK10TCFURLInfo18CheckPrefetchStateENS_13PrefetchStateE,
                            __ZNK10TCFURLInfo18CopyPropertyValuesEyRyP24_CFURLFilePropertyValues,
                            __ZNK10TCFURLInfo18GetBooleanPropertyEPK10__CFString,
                            __ZNK10TCFURLInfo18GetProtectionClassEv,
                            __ZNK10TCFURLInfo18IsSystemRestrictedEv,
                            __ZNK10TCFURLInfo18SetProtectionClassE16EProtectionClass,
                            __ZNK10TCFURLInfo19CopyFileSecurityRefEv,
                            __ZNK10TCFURLInfo19CopyInodeChangeDateEv,
                            __ZNK10TCFURLInfo19CopySecurityForCopyENS_17CopyOperationKindERP16__CFFileSecuritybbb,
                            __ZNK10TCFURLInfo19CreateLockDirectoryERKNSt3__110shared_ptrIS_EEPK7TStringP16__CFFileSecuritybRS2_bb,
                            __ZNK10TCFURLInfo19GetModificationDateEv,
                            __ZNK10TCFURLInfo19GetObjectIdentifierEv,
                            __ZNK10TCFURLInfo19GetVolumeIdentifierEv,
                            __ZNK10TCFURLInfo19GetVolumeInfoRecordER16VolumeInfoRecord,
                            __ZNK10TCFURLInfo19IsNoUnlinkEffectiveEv,
                            __ZNK10TCFURLInfo19IsQuarantinedVolumeEv,
                            __ZNK10TCFURLInfo19SupportsCompressionEv,
                            __ZNK10TCFURLInfo20CopyModificationDateEv,
                            __ZNK10TCFURLInfo20CreateVolumeIconFileEbbRNSt3__110shared_ptrIS_EE,
                            __ZNK10TCFURLInfo20EffectiveUserCanReadEPb,
                            __ZNK10TCFURLInfo20GetNumericalPropertyEPK10__CFString,
                            __ZNK10TCFURLInfo21GetExtendedFinderInfoEv,
                            __ZNK10TCFURLInfo21HasEveryOneDenyDeleteEv,
                            __ZNK10TCFURLInfo22BladeRunnerLogicalSizeEv,
                            __ZNK10TCFURLInfo22CopyExtendedAttributesERNSt3__16vectorINS0_12basic_stringIcNS0_11char_traitsIcEENS0_9allocatorIcEEEENS5_IS7_EEEERNS1_I4TRefIPK8__CFData20TRetainReleasePolicyISE_EENS5_ISH_EEEENS_17CopyOperationKindEbbb,
                            __ZNK10TCFURLInfo22IsAnyUserSpecialFolderEv,
                            __ZNK10TCFURLInfo23GetPreservedCloneFamilyEv,
                            __ZNK10TCFURLInfo23IsClientHandleableFaultEv,
                            __ZNK10TCFURLInfo23IsPreservedPartialCloneEv,
                            __ZNK10TCFURLInfo23IsSuspendedCopyOfSourceERKNSt3__110shared_ptrIS_EERd,
                            __ZNK10TCFURLInfo23ModifiedAfterCheckPointEdRb,
                            __ZNK10TCFURLInfo24CopyXattrNamesForCompareEPKc,
                            __ZNK10TCFURLInfo24PathSanitizedForPrintingEv,
                            __ZNK10TCFURLInfo25GetFirstBlockDeviceOffsetEv,
                            __ZNK10TCFURLInfo27GetPreservedProtectionClassEv,
                            __ZNK10TCFURLInfo27SetPreservedProtectionClassE16EProtectionClass,
                            __ZNK10TCFURLInfo28GetPreservedCloneExtentsListEv,
                            __ZNK10TCFURLInfo28IsSystemRestrictionEffectiveEv,
                            __ZNK10TCFURLInfo29CompareForBackupFullCloneLinkERKNSt3__110shared_ptrIS_EE,
                            __ZNK10TCFURLInfo33CheckDestinationModificationDatesERKNSt3__110shared_ptrIS_EEb,
                            __ZNK10TCFURLInfo39IsSuspendedCopyAndHasRequiredAttributesEv,
                            __ZNK10TCFURLInfo40FileSystemRepresentationRelativeToSourceERK7TStringRS0_,
                            __ZNK10TCFURLInfo4NameEv, __ZNK10TCFURLInfo4PathEv,
                            __ZNK10TCFURLInfo57CreateCFURLInfoWithFileSystemRepresentationRelativeToBaseERK7TStringS2_RNSt3__110shared_ptrIS_EE,
                            __ZNK10TCFURLInfo5EqualERKNSt3__110shared_ptrIS_EE,
                            __ZNK10TCFURLInfo5RmDirEPKc,
                            __ZNK10TCFURLInfo7GetModeEv,
                            __ZNK10TCFURLInfo7GetTypeEv,
                            __ZNK10TCFURLInfo7IsCloneEPyPb,
                            __ZNK10TCFURLInfo7IsTrashEv,
                            __ZNK10TCFURLInfo8GetInodeEv,
                            __ZNK10TCFURLInfo8GetLabelEv,
                            __ZNK10TCFURLInfo8GetOwnerEv,
                            __ZNK10TCFURLInfo8HasChildERK7TString,
                            __ZNK10TCFURLInfo8IsBackupEv,
                            __ZNK10TCFURLInfo8LessThanERKNSt3__110shared_ptrIS_EE,
                            __ZNK10TCFURLInfo9GetParentERNSt3__110shared_ptrIS_EE,
                            __ZNK10TCFURLInfo9IsDropBoxEv,
                            __ZNK10TCFURLInfo9StatFlagsEv,
                            __ZNK10TCFURLInfoeqERKS_,
                            __ZNK10TCopyQueue10ShouldSkipERKNSt3__110shared_ptrI10TCFURLInfoEES5_RbRPK7__CFURLSA_Ri,
                            __ZNK10TCopyQueue10TargetNameEv,
                            __ZNK10TCopyQueue11BackupDebugEv,
                            __ZNK10TCopyQueue11UseCopyFileEv,
                            __ZNK10TCopyQueue12UseCloneFileEv,
                            __ZNK10TCopyQueue13OperationKindEv,
                            __ZNK10TCopyQueue14GetQueueLengthEv,
                            __ZNK10TCopyQueue18MaxFileSizeAllowedEv,
                            __ZNK10TCopyQueue18SourceSupportsACLSEv,
                            __ZNK10TCopyQueue19OperationThroughputEv,
                            __ZNK10TCopyQueue20DestinationIsDropBoxEv,
                            __ZNK10TCopyQueue22MapSourceToDestinationERKNSt3__110shared_ptrI10TCFURLInfoEE,
                            __ZNK10TCopyQueue23DestinationSupportsACLSEv,
                            __ZNK10TCopyQueue23ShouldSkipForMTMMigrateERKNSt3__110shared_ptrI10TCFURLInfoEEbS5_RbRPK7__CFURL,
                            __ZNK10TCopyQueue23SourceSupportsCloneCopyEv,
                            __ZNK10TCopyQueue27DestinationSupportsSymlinksEv,
                            __ZNK10TCopyQueue27HandleFailedCoordinatedReadERKNSt3__110shared_ptrI10TCFURLInfoEES5_RPK7__CFURL,
                            __ZNK10TCopyQueue28DestinationSupportsCloneCopyEv,
                            __ZNK10TCopyQueue28DestinationSupportsU200CCopyEv,
                            __ZNK10TCopyQueue28SourceSupportsProtectedFilesEv,
                            __ZNK10TCopyQueue31ShouldPreAllocateForDestinationEv,
                            __ZNK10TCopyQueue32DestinationSupportsPreAllocationEv,
                            __ZNK10TCopyQueue33DestinationSupportsDatalessFaultsEv,
                            __ZNK10TCopyQueue33DestinationSupportsProtectedFilesEv,
                            __ZNK10TNodeEvent10GetMonitorEv,
                            __ZNK10TNodeEvent12GetOperationEv,
                            __ZNK10TNodeEvent14GetErrorRecordEv,
                            __ZNK10TNodeEvent15GetBookmarkDataEv,
                            __ZNK10TNodeEvent15GetSuboperationEv,
                            __ZNK10TNodeEvent19GetConflictIteratorEv,
                            __ZNK10TNodeEvent20ForwardEventToParentEv,
                            __ZNK10TNodeEvent25RedispatchEventToNotifierE13NodeEventKindP16OpaqueEventQueueRK4TRefIP11TDSNotifier20TRetainReleasePolicyIS5_EE,
                            __ZNK10TNodeEvent5CloneEv,
                            __ZNK10TNodeEvent7GetNodeEv,
                            __ZNK10TNodeEvent9GetStatusEv,
                            __ZNK11TCloneCache10GetURLInfoERKy,
                            __ZNK11TCloneCache10HasCloneIDERKy,
                            __ZNK11TCopyReader10ShouldSkipERKNSt3__110shared_ptrI10TCFURLInfoEERbRPK7__CFURLSA_Ri,
                            __ZNK11TCopyReader18GetFileCoordinatorEv,
                            __ZNK11TCopyReader19FullCloneResolutionEv,
                            __ZNK11TCopyReader24PreservedCloneResolutionEv,
                            __ZNK11TCopyReader25ShouldSkipBladeRunnerItemENSt3__110shared_ptrI10TCFURLInfoEE,
                            __ZNK11TCopyReader27FindExtentsNeedingDeltaCopyEv,
                            __ZNK11TCopyReader28FindResolutionForCurrentItemEv,
                            __ZNK12TBusyFolders15CopyBusyFoldersEv,
                            __ZNK12TCloneFamily10FamilyTypeEv,
                            __ZNK12TCloneFamily12GetBlockMapsERK7TString,
                            __ZNK12TCloneFamily15ReferencesInodeEy,
                            __ZNK12TCloneFamily19RecordsOrderedByKeyEv,
                            __ZNK12TCloneFamily21ReferencesPartialPathERK7TString,
                            __ZNK12TCloneFamily25SourceInodeForPartialPathERK7TString,
                            __ZNK12TCloneFamily5EmptyEv,
                            __ZNK12TCloneFamily9CloneKeysEv,
                            __ZNK12TCloneRecord11GetCloneKeyEv,
                            __ZNK12TFSInfoSizer10IsCanceledEv,
                            __ZNK12TRawCollatorclERK7TStringS2_,
                            __ZNK12TRawCollatorclERK7TStringS2_RK7CFRange,
                            __ZNK13TChildrenList12ListIsSortedEv,
                            __ZNK13TChildrenList13ChildrenCountEv,
                            __ZNK13TChildrenList14LastNotifyTimeEv,
                            __ZNK13TChildrenList14LastResizeTimeEv,
                            __ZNK13TChildrenList15GenerationCountEv,
                            __ZNK13TChildrenList17LastSyncStartTimeEv,
                            __ZNK13TChildrenList19GetLastSyncDurationEv,
                            __ZNK13TChildrenList20FindByFileIdentifierEy,
                            __ZNK13TChildrenList20NSProgressSubscriberEv,
                            __ZNK13TChildrenList21GetLastResizeDurationEv,
                            __ZNK13TChildrenList27GetCollectionStatusObserverEv,
                            __ZNK13TChildrenList29GetSubscriptionFileDescriptorEv,
                            __ZNK13TChildrenList35ClearSizesFetchedForUnobservedNodesEv,
                            __ZNK13TFSVolumeInfo10VolumeSizeEv,
                            __ZNK13TFSVolumeInfo11GetCapacityEv,
                            __ZNK13TFSVolumeInfo11NeedToFlushEv,
                            __ZNK13TFSVolumeInfo12GetFreeSpaceEv,
                            __ZNK13TFSVolumeInfo13CaseSensitiveEv,
                            __ZNK13TFSVolumeInfo13GetMountPointEv,
                            __ZNK13TFSVolumeInfo14SizingCanceledEv,
                            __ZNK13TFSVolumeInfo15GetVolumeFormatEv,
                            __ZNK13TFSVolumeInfo16ShouldUseReadDirEv,
                            __ZNK13TFSVolumeInfo16SynchingCanceledEv,
                            __ZNK13TFSVolumeInfo17MayHaveHiddenListEv,
                            __ZNK13TFSVolumeInfo18SamePhysicalDeviceEPKS_,
                            __ZNK13TFSVolumeInfo18VolumeFormatStringEv,
                            __ZNK13TFSVolumeInfo19GetReclaimableSpaceEv,
                            __ZNK13TFSVolumeInfo19GetSynchingGCDQueueEv,
                            __ZNK13TFSVolumeInfo19GetVolumeSyncThreadEv,
                            __ZNK13TFSVolumeInfo19HasPersistentStoresEv,
                            __ZNK13TFSVolumeInfo19VolumeFormatFetchedEv,
                            __ZNK13TFSVolumeInfo19VolumeHasBackupRoleEv,
                            __ZNK13TFSVolumeInfo21GetFolderSizingThreadEv,
                            __ZNK13TFSVolumeInfo21GetVolumeFormatStringEv,
                            __ZNK13TFSVolumeInfo21ReusableSpaceOnVolumeEv,
                            __ZNK13TFSVolumeInfo23GetPropertyUpdateThreadEv,
                            __ZNK13TFSVolumeInfo24VolumeShouldShowCapacityEv,
                            __ZNK13TFSVolumeInfo27SpaceAndCapacityAreUpToDateEb,
                            __ZNK13TFSVolumeInfo28VolumeAllowPermissionChangesEv,
                            __ZNK13TFSVolumeInfo28VolumeSupportsAFPPermissionsEv,
                            __ZNK13TFSVolumeInfo29VolumeSupportsIgnoreOwnershipEv,
                            __ZNK13TFSVolumeInfo29VolumeSupportsUNIXPermissionsEv,
                            __ZNK13TFSVolumeInfo31RecalculateFreeSpaceAndCapacityEb,
                            __ZNK13TFSVolumeInfo5IsSSDEv,
                            __ZNK13TFSVolumeInfo7BSDNameEv,
                            __ZNK13TFSVolumeInfo7GetUUIDEv,
                            __ZNK13TFSVolumeInfo9TrashPathEb,
                            __ZNK13TNodeEventPtrcvP10TNodeEventEv,
                            __ZNK13TNodeEventPtrptEv,
                            __ZNK13TProgressInfo13ProgressImageEv,
                            __ZNK13TProgressInfo24CreateProgressDictionaryEv,
                            __ZNK14TNodeEventPtrs5CountEv,
                            __ZNK14TOperationLock17GetWriteOperationEv,
                            __ZNK14TOperationLock17SynchingSuspendedEv,
                            __ZNK14TPropertyValue20ReferenceCountedTypeEv,
                            __ZNK14TPropertyValue6AsBlobER4BlobRKNSt3__18functionIFvS1_jEEE,
                            __ZNK14TPropertyValue7IsValidEv,
                            __ZNK14TPropertyValue8DataTypeEv,
                            __ZNK14TPropertyValueeqERKS_,
                            __ZNK15TOperationSizer10ShouldSkipERKNSt3__110shared_ptrI10TCFURLInfoEE,
                            __ZNK15TOperationSizer22MapSourceToDestinationERKNSt3__110shared_ptrI10TCFURLInfoEE,
                            __ZNK17TKeyValueObserver14CreateObserverERKNSt3__18functionIFvP12NSDictionaryIP8NSStringP8NSObjectEEEERKNS0_13unordered_setIS6_NS0_4hashISE_EENS0_8equal_toISE_EENS0_9allocatorISE_EEEERK7TString,
                            __ZNK17TKeyValueObserver14CreateObserverERKNSt3__18functionIFvvEEERKNS0_13unordered_setIP8NSObjectNS0_4hashIS9_EENS0_8equal_toIS9_EENS0_9allocatorIS9_EEEERK7TString,
                            __ZNK17TKeyValueObserver15ObservedObjectsEP7NSArrayP10NSIndexSet,
                            __ZNK17TVolumeSyncThread16SynchingCanceledEv,
                            __ZNK17TVolumeSyncThread19GetSynchingGCDQueueEv,
                            __ZNK18TDeepCFURLIterator20CurrentContainerInfoEv,
                            __ZNK18TDeepCFURLIterator22MapSourceToDestinationERKNSt3__110shared_ptrI10TCFURLInfoEE,
                            __ZNK18TPropertyReference6AsBlobER4BlobRKNSt3__18functionIFvS1_jEEE,
                            __ZNK18TPropertyReference7IsValidEv,
                            __ZNK18TPropertyReference8DataTypeEv,
                            __ZNK20TFSRecursiveIterator15SkipDescendantsEv,
                            __ZNK21TFSInfoSizerCompanion8FinishedEv,
                            __ZNK27TCaseInsensitiveRawCollatorclERK7TStringS2_,
                            __ZNK27TCaseInsensitiveRawCollatorclERK7TStringS2_RK7CFRange,
                            __ZNK5TNode10IsFirmlinkEv, __ZNK5TNode10IsSnapshotEv,
                            __ZNK5TNode10OpenServerEP17OpaqueNodeRequest18NodeRequestOptions,
                            __ZNK5TNode11CopyPathURLEv,
                            __ZNK5TNode11DisplayNameEv,
                            __ZNK5TNode11FollowAliasE18NodeRequestOptions,
                            __ZNK5TNode11FollowAliasER8TNodePtrRKP17OpaqueNodeRequest18NodeRequestOptions,
                            __ZNK5TNode11GetPropertyE8PropertyR18TPropertyReference18NodeRequestOptions,
                            __ZNK5TNode11GetPropertyE8PropertyR18TPropertyReferenceRKP17OpaqueNodeRequest18NodeRequestOptions,
                            __ZNK5TNode11GreaterThanERK7TString,
                            __ZNK5TNode11IsEjectableEv,
                            __ZNK5TNode11IsPopulatedEv,
                            __ZNK5TNode11RequestTaskEj8PropertyRK14TPropertyValueRK4TRefIP12TNodeRequest20TRetainReleasePolicyIS6_EE18NodeRequestOptions,
                            __ZNK5TNode11UserCanReadEv,
                            __ZNK5TNode11UserIsOwnerEv,
                            __ZNK5TNode11ValidateURLEv,
                            __ZNK5TNode12CopyChildrenEv,
                            __ZNK5TNode12CopyReplicasEv,
                            __ZNK5TNode12IsBackupRootEv,
                            __ZNK5TNode12IsBurnFolderEv,
                            __ZNK5TNode12SecondParentEv,
                            __ZNK5TNode13AliasResolvedEv,
                            __ZNK5TNode13CanonicalNameEv,
                            __ZNK5TNode13CaseSensitiveEv,
                            __ZNK5TNode13GetFPProviderEv,
                            __ZNK5TNode13GetMediaTypesER21NodeNetworkMediaTypes,
                            __ZNK5TNode13GetVolumeInfoEv,
                            __ZNK5TNode13IsLocalVolumeEv,
                            __ZNK5TNode13IsNetworkNodeEj,
                            __ZNK5TNode13UserCanBrowseEv,
                            __ZNK5TNode13UserCanDeleteEv,
                            __ZNK5TNode14GetAliasTargetEv,
                            __ZNK5TNode14GetPermissionsER11Permissions,
                            __ZNK5TNode14HandlePopulateEbb,
                            __ZNK5TNode14IsAppWithKEXTSEv,
                            __ZNK5TNode14IsMobileBackupEv,
                            __ZNK5TNode14OpenServerSyncENSt3__110shared_ptrI9TNodeTaskEE,
                            __ZNK5TNode14UnmarkChildrenEv,
                            __ZNK5TNode15BeingOperatedOnEb,
                            __ZNK5TNode15DisconnectShareEP17OpaqueNodeRequest18NodeRequestOptions,
                            __ZNK5TNode15GetNotifierListEv,
                            __ZNK5TNode15NewNodeIteratorERP13TNodeIteratorRKP17OpaqueNodeRequest18NodeRequestOptions,
                            __ZNK5TNode15OnPreBootVolumeEv,
                            __ZNK5TNode15OpenScreenShareEP17OpaqueNodeRequest18NodeRequestOptions,
                            __ZNK5TNode16AddToAppNapCacheEv,
                            __ZNK5TNode16AliasIsContainerEv,
                            __ZNK5TNode16ClearAliasTargetEb,
                            __ZNK5TNode16CopyOriginalPathER7TString,
                            __ZNK5TNode16EqualDisplayNameERK7TString,
                            __ZNK5TNode16FindRegistrationERK4TRefIP21TClientChangeNotifier20TRetainReleasePolicyIS2_EERK8TNodePtr,
                            __ZNK5TNode16GetChildrenCountEv,
                            __ZNK5TNode16HFSBackupForItemER8TNodePtr,
                            __ZNK5TNode16IsNetworkMountedEv,
                            __ZNK5TNode16PopulateChildrenEb,
                            __ZNK5TNode16SendNotificationE13NodeEventKindRK8TNodePtr8Propertyi,
                            __ZNK5TNode16ShouldUseReadDirEv,
                            __ZNK5TNode16SizingGenerationEv,
                            __ZNK5TNode16TrashPathForNodeERK7TString,
                            __ZNK5TNode16VolumeIsReadOnlyEv,
                            __ZNK5TNode17CopyPathToCBufferEPcm,
                            __ZNK5TNode17FPItemsCollectionEP6FPItem,
                            __ZNK5TNode17HasICloudProgressEv,
                            __ZNK5TNode17NotifyNameChangesEv,
                            __ZNK5TNode17RemoveAllChildrenE24RemoveAllChildrenOptionsP14TNodeEventPtrs,
                            __ZNK5TNode17ResolveFPProviderEv,
                            __ZNK5TNode17SendNotificationsERKNSt3__13setI8PropertyNS0_4lessIS2_EENS0_9allocatorIS2_EEEE,
                            __ZNK5TNode17SynchingSuspendedEv,
                            __ZNK5TNode18AddServerToSidebarEP17OpaqueNodeRequest18NodeRequestOptions,
                            __ZNK5TNode18AdjustedSyncQuantaEv,
                            __ZNK5TNode18CopyInlineProgressEv,
                            __ZNK5TNode18LowLevelIsLockFileEv,
                            __ZNK5TNode18NetworkNodeUnmountEv,
                            __ZNK5TNode18UserCanDeleteChildEv,
                            __ZNK5TNode18UserCanListContentEv,
                            __ZNK5TNode18VolumeSupportsACLsEv,
                            __ZNK5TNode19DisconnectShareSyncENSt3__110shared_ptrI9TNodeTaskEE,
                            __ZNK5TNode19HasUnmarkedChildrenEv,
                            __ZNK5TNode19IsInitialPopulatingEv,
                            __ZNK5TNode19IsUnmountableVolumeEv,
                            __ZNK5TNode19NeedsChildReconcileEv,
                            __ZNK5TNode19OpenScreenShareSyncENSt3__110shared_ptrI9TNodeTaskEE,
                            __ZNK5TNode19PostNodeTaskRequestERKNSt3__110shared_ptrI9TNodeTaskEE,
                            __ZNK5TNode19RequestInternalTaskEjRK14TPropertyValue18NodeRequestOptions,
                            __ZNK5TNode19ResolveITunesDeviceEv,
                            __ZNK5TNode19VolumeIsUnmountableEv,
                            __ZNK5TNode20AdjustedResizeQuantaEv,
                            __ZNK5TNode20CopyDecorationLabelsEP16FPItemDecoration,
                            __ZNK5TNode20GetCachedPackageSizeEv,
                            __ZNK5TNode20UserCanWriteDataForkEv,
                            __ZNK5TNode21IsSynchingAppropriateEv,
                            __ZNK5TNode21OpenDSStoreIfPossibleEv,
                            __ZNK5TNode22AddServerToSidebarSyncENSt3__110shared_ptrI9TNodeTaskEE,
                            __ZNK5TNode22ChildRegistrationCountEv,
                            __ZNK5TNode22UserCanWriteFinderInfoEv,
                            __ZNK5TNode22VolumeHasNoVolumeSizesEv,
                            __ZNK5TNode22VolumeIsBackupSnapshotEv,
                            __ZNK5TNode23ApplyFPItemRestrictionsE11Permissions,
                            __ZNK5TNode23FetchExtendedUserAccessEv,
                            __ZNK5TNode23FetchLSPropertiesOnSyncEv,
                            __ZNK5TNode23GetFullPOSIXPathDetailsER7TString13TFirmlinkType,
                            __ZNK5TNode23ModifyPermissionsIfBusyER11Permissions,
                            __ZNK5TNode23RemoveServerFromSidebarEP17OpaqueNodeRequest18NodeRequestOptions,
                            __ZNK5TNode23SyncSpotlightAttributesEv,
                            __ZNK5TNode24RecursiveChildrenAndSelfEb,
                            __ZNK5TNode24UserCanChangePermissionsEv,
                            __ZNK5TNode24UserCanWriteResourceForkEv,
                            __ZNK5TNode25VolumeIsNetworkRemoteDiskEv,
                            __ZNK5TNode26SupportsExtendedPropertiesEv,
                            __ZNK5TNode27CloseNodeBrowserIfNecessaryEb,
                            __ZNK5TNode27CopyVirtualURLStringForNodeEv,
                            __ZNK5TNode27FindChildButDontSynchronizeERK7TString,
                            __ZNK5TNode27IsInitialPopulationDeferredEv,
                            __ZNK5TNode27PostFolderSizingTaskRequestERKNSt3__110shared_ptrI9TNodeTaskEEb,
                            __ZNK5TNode27RemoveServerFromSidebarSyncENSt3__110shared_ptrI9TNodeTaskEE,
                            __ZNK5TNode28ShouldSyncUbiquityAttributesEv,
                            __ZNK5TNode36UserCanWriteFinderExtendedPropertiesEv,
                            __ZNK5TNode39DisplayNameWithoutDirectionalFormattingEv,
                            __ZNK5TNode4PathEv, __ZNK5TNode5EqualERK7TString,
                            __ZNK5TNode6NodeIsE14NodeAttributes,
                            __ZNK5TNode7CompareEPKS_8PropertyPFsxxERb,
                            __ZNK5TNode7CompareERK7TString,
                            __ZNK5TNode7CopyURLERPK7__CFURL,
                            __ZNK5TNode7CopyURLEv, __ZNK5TNode7GetNameER7TString,
                            __ZNK5TNode7GetPathEb13TFirmlinkType,
                            __ZNK5TNode7GetPathEv,
                            __ZNK5TNode8HasChildERK7TString,
                            __ZNK5TNode8IsBackupEv, __ZNK5TNode8IsStickyEv,
                            __ZNK5TNode8LessThanERK7TString,
                            __ZNK5TNode8ValidateEv,
                            __ZNK5TNode8VolumeIsER16VolumeAttributes,
                            __ZNK5TNode9IsChildOfERK8TNodePtr,
                            __ZNK5TNode9IsInTrashEv, __ZNK5TNode9IsVisibleEv,
                            __ZNK5TNode9NotifiersEv, __ZNK7TFSInfo10CopyFSInfoEv,
                            __ZNK7TFSInfo10GetCreatorEv,
                            __ZNK7TFSInfo10GetVolUUIDER18TPropertyReferenceRKNSt3__110shared_ptrI13TFSVolumeInfoEE18NodeRequestOptionsRb,
                            __ZNK7TFSInfo10IsDatalessEv,
                            __ZNK7TFSInfo10IsLocationEv,
                            __ZNK7TFSInfo10IsNoUnlinkEv,
                            __ZNK7TFSInfo10IsRootItemEv,
                            __ZNK7TFSInfo10IsSnapshotEv,
                            __ZNK7TFSInfo10VolumeUUIDEv,
                            __ZNK7TFSInfo11DescriptionEv,
                            __ZNK7TFSInfo11DisplayNameEv,
                            __ZNK7TFSInfo11FetchISIconEv,
                            __ZNK7TFSInfo11FolderStatsEv,
                            __ZNK7TFSInfo11FollowAliasE18NodeRequestOptionsRNSt3__110shared_ptrIS_EE,
                            __ZNK7TFSInfo11GetCapacityER18TPropertyReferenceRKNSt3__110shared_ptrI13TFSVolumeInfoEE18NodeRequestOptionsRb,
                            __ZNK7TFSInfo11GetIFSymbolER18TPropertyReferenceRKNSt3__110shared_ptrI13TFSVolumeInfoEE18NodeRequestOptionsRb,
                            __ZNK7TFSInfo11GetPropertyE8PropertyR18TPropertyReferenceRKNSt3__110shared_ptrI13TFSVolumeInfoEE18NodeRequestOptionsRb,
                            __ZNK7TFSInfo11GetVolumeIDEv,
                            __ZNK7TFSInfo11IsEjectableERKNSt3__110shared_ptrI13TFSVolumeInfoEE,
                            __ZNK7TFSInfo11IsFrameworkEv,
                            __ZNK7TFSInfo11IsInPackageEv,
                            __ZNK7TFSInfo11LogicalNameEv,
                            __ZNK7TFSInfo11UserIsOwnerEv,
                            __ZNK7TFSInfo12ActualSuffixEv,
                            __ZNK7TFSInfo12GetFreeSpaceER18TPropertyReferenceRKNSt3__110shared_ptrI13TFSVolumeInfoEE18NodeRequestOptionsRb,
                            __ZNK7TFSInfo12HasExtensionEv,
                            __ZNK7TFSInfo12IsAppLibraryEv,
                            __ZNK7TFSInfo12IsBootVolumeEv,
                            __ZNK7TFSInfo12IsBurnFolderEv,
                            __ZNK7TFSInfo12IsStationeryEv,
                            __ZNK7TFSInfo12LastUsedDateEv,
                            __ZNK7TFSInfo12SameIdentityERKNSt3__110shared_ptrIS_EE,
                            __ZNK7TFSInfo12TriggerMountEv,
                            __ZNK7TFSInfo12UnlinkObjectEv,
                            __ZNK7TFSInfo13FetchIFSymbolEv,
                            __ZNK7TFSInfo13GetFinderInfoEv,
                            __ZNK7TFSInfo13GetMediaTypesER21NodeNetworkMediaTypes,
                            __ZNK7TFSInfo13GetUserAccessEv,
                            __ZNK7TFSInfo13GetUserGroupsEv,
                            __ZNK7TFSInfo13HasBeenInitedEv,
                            __ZNK7TFSInfo13HasCustomIconEv,
                            __ZNK7TFSInfo13IsDatalessNowEv,
                            __ZNK7TFSInfo13IsIndexSortedEv,
                            __ZNK7TFSInfo13IsLocalVolumeEv,
                            __ZNK7TFSInfo13UTTypeFetchedEv,
                            __ZNK7TFSInfo14CreateCFURLRefEv,
                            __ZNK7TFSInfo14CreateOverflowEv,
                            __ZNK7TFSInfo14GetDisplayNameER18TPropertyReferenceRKNSt3__110shared_ptrI13TFSVolumeInfoEE18NodeRequestOptionsRb,
                            __ZNK7TFSInfo14GetFinderFlagsEv,
                            __ZNK7TFSInfo14GetLogicalSizeER18TPropertyReferenceRKNSt3__110shared_ptrI13TFSVolumeInfoEE18NodeRequestOptionsRb,
                            __ZNK7TFSInfo14GetLogicalSizeEv,
                            __ZNK7TFSInfo14GetLongVersionER18TPropertyReferenceRKNSt3__110shared_ptrI13TFSVolumeInfoEE18NodeRequestOptionsRb,
                            __ZNK7TFSInfo14GetLongVersionER7TString18NodeRequestOptions,
                            __ZNK7TFSInfo14GetOldLocationEv,
                            __ZNK7TFSInfo14GetSLHighlightER18TPropertyReferenceRKNSt3__110shared_ptrI13TFSVolumeInfoEE18NodeRequestOptionsRb,
                            __ZNK7TFSInfo14HasCustomBadgeEv,
                            __ZNK7TFSInfo14OriginatorInfoEv,
                            __ZNK7TFSInfo15CopyPermissionsEv,
                            __ZNK7TFSInfo15CopyTagsForPathEv,
                            __ZNK7TFSInfo15GetCreationDateEv,
                            __ZNK7TFSInfo15GetLastUsedDateER18TPropertyReferenceRKNSt3__110shared_ptrI13TFSVolumeInfoEE18NodeRequestOptionsRb,
                            __ZNK7TFSInfo15GetLastUsedDateEbRb,
                            __ZNK7TFSInfo15GetOldViewStyleEv,
                            __ZNK7TFSInfo15GetPhysicalSizeER18TPropertyReferenceRKNSt3__110shared_ptrI13TFSVolumeInfoEE18NodeRequestOptionsRb,
                            __ZNK7TFSInfo15GetPhysicalSizeEv,
                            __ZNK7TFSInfo15GetShortVersionER18TPropertyReferenceRKNSt3__110shared_ptrI13TFSVolumeInfoEE18NodeRequestOptionsRb,
                            __ZNK7TFSInfo15GetShortVersionER7TString18NodeRequestOptions,
                            __ZNK7TFSInfo15GetVolumeFormatER18TPropertyReferenceRKNSt3__110shared_ptrI13TFSVolumeInfoEE18NodeRequestOptionsRb,
                            __ZNK7TFSInfo15IsReadOnlyShareEv,
                            __ZNK7TFSInfo15MoveAndRenameToERKNSt3__110shared_ptrIS_EEPK7TStringRS5_,
                            __ZNK7TFSInfo16CopyBookmarkDataEv,
                            __ZNK7TFSInfo16CopySFBrowserRefEv,
                            __ZNK7TFSInfo16GetAliasInfoFromERbS0_P7TStringS2_,
                            __ZNK7TFSInfo16GetDateAddedDateEv,
                            __ZNK7TFSInfo16GetDeepItemCountER18TPropertyReferenceRKNSt3__110shared_ptrI13TFSVolumeInfoEE18NodeRequestOptionsRb,
                            __ZNK7TFSInfo16GetFlatItemCountER18TPropertyReferenceRKNSt3__110shared_ptrI13TFSVolumeInfoEE18NodeRequestOptionsRb,
                            __ZNK7TFSInfo16GetFlatItemCountEb,
                            __ZNK7TFSInfo16GetOldIconOriginEv,
                            __ZNK7TFSInfo16GetPropertyFlagsEyRy,
                            __ZNK7TFSInfo16GetResumableCopyER18TPropertyReferenceRKNSt3__110shared_ptrI13TFSVolumeInfoEE18NodeRequestOptionsRb,
                            __ZNK7TFSInfo16GetSLHighlightIDER18TPropertyReferenceRKNSt3__110shared_ptrI13TFSVolumeInfoEE18NodeRequestOptionsRb,
                            __ZNK7TFSInfo16GetSystemVersionER18TPropertyReferenceRKNSt3__110shared_ptrI13TFSVolumeInfoEE18NodeRequestOptionsRb,
                            __ZNK7TFSInfo16GetSystemVersionER7TString18NodeRequestOptions,
                            __ZNK7TFSInfo16GetUbiquityFaultER18TPropertyReferenceRKNSt3__110shared_ptrI13TFSVolumeInfoEE18NodeRequestOptionsRb,
                            __ZNK7TFSInfo16IsOnSystemVolumeEv,
                            __ZNK7TFSInfo16ObjectIdentifierER18TPropertyReferenceRKNSt3__110shared_ptrI13TFSVolumeInfoEE18NodeRequestOptionsRb,
                            __ZNK7TFSInfo16ObjectIdentifierEv,
                            __ZNK7TFSInfo16WriteTagsForPathEPK9__CFArrays,
                            __ZNK7TFSInfo17ApproximateUTTypeEv,
                            __ZNK7TFSInfo17CopyParentPathURLEv,
                            __ZNK7TFSInfo17CopyPathToCBufferEPcm,
                            __ZNK7TFSInfo17FetchPlistVersionER12TVersionData,
                            __ZNK7TFSInfo17GetAboutToUnmountER18TPropertyReferenceRKNSt3__110shared_ptrI13TFSVolumeInfoEE18NodeRequestOptionsRb,
                            __ZNK7TFSInfo17GetFileDescriptorEv,
                            __ZNK7TFSInfo17GetOriginatorInfoER18TPropertyReferenceRKNSt3__110shared_ptrI13TFSVolumeInfoEE18NodeRequestOptionsRb,
                            __ZNK7TFSInfo17GetUbiquityStatusER18TPropertyReferenceRKNSt3__110shared_ptrI13TFSVolumeInfoEE18NodeRequestOptionsRb,
                            __ZNK7TFSInfo17IsBusyApplicationEv,
                            __ZNK7TFSInfo17UserCanChangeLockEv,
                            __ZNK7TFSInfo18CopyBookmarkDataToERPK8__CFData,
                            __ZNK7TFSInfo18CopyPropertyValuesEyRyP24_CFURLFilePropertyValues,
                            __ZNK7TFSInfo18FetchAppCategoriesEv,
                            __ZNK7TFSInfo18FollowVirtualAliasE18NodeRequestOptionsRNSt3__110shared_ptrIS_EE,
                            __ZNK7TFSInfo18GetCopyrightStringER18TPropertyReferenceRKNSt3__110shared_ptrI13TFSVolumeInfoEE18NodeRequestOptionsRb,
                            __ZNK7TFSInfo18GetCopyrightStringER7TString18NodeRequestOptions,
                            __ZNK7TFSInfo18GetDataLogicalSizeEv,
                            __ZNK7TFSInfo18GetDownloadedStateER18TPropertyReferenceRKNSt3__110shared_ptrI13TFSVolumeInfoEE18NodeRequestOptionsRb,
                            __ZNK7TFSInfo18GetItemDecorationsER18TPropertyReferenceRKNSt3__110shared_ptrI13TFSVolumeInfoEE18NodeRequestOptionsRb,
                            __ZNK7TFSInfo18GetNameWhileLockedEv,
                            __ZNK7TFSInfo18IsSystemRestrictedEv,
                            __ZNK7TFSInfo18LowLevelIsLockFileEv,
                            __ZNK7TFSInfo18RegionRestrictionsEv,
                            __ZNK7TFSInfo19GetBladeRunnerFlagsEv,
                            __ZNK7TFSInfo19GetDataPhysicalSizeEv,
                            __ZNK7TFSInfo19GetICloudLastEditorER18TPropertyReferenceRKNSt3__110shared_ptrI13TFSVolumeInfoEE18NodeRequestOptionsRb,
                            __ZNK7TFSInfo19GetModificationDateEv,
                            __ZNK7TFSInfo19GetObjectIdentifierEv,
                            __ZNK7TFSInfo19GetOrCreateOverflowEv,
                            __ZNK7TFSInfo19GetReclaimableSpaceER18TPropertyReferenceRKNSt3__110shared_ptrI13TFSVolumeInfoEE18NodeRequestOptionsRb,
                            __ZNK7TFSInfo19GetVolumeIdentifierEv,
                            __ZNK7TFSInfo19GetVolumeInfoRecordER16VolumeInfoRecord,
                            __ZNK7TFSInfo19IsNoUnlinkEffectiveER18TPropertyReferenceRKNSt3__110shared_ptrI13TFSVolumeInfoEE18NodeRequestOptionsRb,
                            __ZNK7TFSInfo19IsNoUnlinkEffectiveEv,
                            __ZNK7TFSInfo19IsUnmountableVolumeEv,
                            __ZNK7TFSInfo20ApplicationDMFPolicyEv,
                            __ZNK7TFSInfo20FetchFlatFileVersionER12TVersionData,
                            __ZNK7TFSInfo20FetchVersionMetaDataE18NodeRequestOptions,
                            __ZNK7TFSInfo20GetICloudSharePersonER18TPropertyReferenceRKNSt3__110shared_ptrI13TFSVolumeInfoEE18NodeRequestOptionsRb,
                            __ZNK7TFSInfo20GetOriginalContainerER18TPropertyReferenceRKNSt3__110shared_ptrI13TFSVolumeInfoEE18NodeRequestOptionsRb,
                            __ZNK7TFSInfo20GetTagsAndAttributesER18TPropertyReferenceRKNSt3__110shared_ptrI13TFSVolumeInfoEE18NodeRequestOptionsRb,
                            __ZNK7TFSInfo20InitializeAndGetPathEv,
                            __ZNK7TFSInfo20InitializeIfQueryHitEv,
                            __ZNK7TFSInfo20IsTopLevelSharedItemEv,
                            __ZNK7TFSInfo21CanHaveOriginatorInfoEv,
                            __ZNK7TFSInfo21CanSetExtensionHiddenER18TPropertyReferenceRKNSt3__110shared_ptrI13TFSVolumeInfoEE18NodeRequestOptionsRb,
                            __ZNK7TFSInfo21CopyICloudSharePersonEv,
                            __ZNK7TFSInfo21CopyTagsAndAttributesEb,
                            __ZNK7TFSInfo21GetCachedLastUsedDateEv,
                            __ZNK7TFSInfo21GetExtendedFinderInfoEv,
                            __ZNK7TFSInfo21GetSystemBuildVersionER18TPropertyReferenceRKNSt3__110shared_ptrI13TFSVolumeInfoEE18NodeRequestOptionsRb,
                            __ZNK7TFSInfo21GetUbiquityTotalBytesER18TPropertyReferenceRKNSt3__110shared_ptrI13TFSVolumeInfoEE18NodeRequestOptionsRb,
                            __ZNK7TFSInfo21GetVolumeFormatStringER18TPropertyReferenceRKNSt3__110shared_ptrI13TFSVolumeInfoEE18NodeRequestOptionsRb,
                            __ZNK7TFSInfo21HasExtendedUserAccessEv,
                            __ZNK7TFSInfo21ISIconRefFromTypeInfoEv,
                            __ZNK7TFSInfo22DescriptionWhileLockedEv,
                            __ZNK7TFSInfo22FileSystemObjectExistsEv,
                            __ZNK7TFSInfo22GetExtendedFinderFlagsEv,
                            __ZNK7TFSInfo22GetKindWithoutPlatformER7TString18NodeRequestOptionsRb,
                            __ZNK7TFSInfo22GetResourceLogicalSizeEv,
                            __ZNK7TFSInfo23BladeRunnerPromisedNameEv,
                            __ZNK7TFSInfo23ComputeBladeRunnerFlagsEv,
                            __ZNK7TFSInfo23GetApplicationDMFPolicyER18TPropertyReferenceRKNSt3__110shared_ptrI13TFSVolumeInfoEE18NodeRequestOptionsRb,
                            __ZNK7TFSInfo23GetDeepVisibleItemCountER18TPropertyReferenceRKNSt3__110shared_ptrI13TFSVolumeInfoEE18NodeRequestOptionsRb,
                            __ZNK7TFSInfo23GetIsTopLevelSharedItemER18TPropertyReferenceRKNSt3__110shared_ptrI13TFSVolumeInfoEE18NodeRequestOptionsRb,
                            __ZNK7TFSInfo23GetNewFilePathCFURLInfoEv,
                            __ZNK7TFSInfo23GetResourcePhysicalSizeEv,
                            __ZNK7TFSInfo23GetTypeIdentifierStringER18TPropertyReferenceRKNSt3__110shared_ptrI13TFSVolumeInfoEE18NodeRequestOptionsRb,
                            __ZNK7TFSInfo24FollowAliasOrSymlinkDeepE18NodeRequestOptionsRNSt3__110shared_ptrIS_EEi,
                            __ZNK7TFSInfo24LocalizedTypeDescriptionEv,
                            __ZNK7TFSInfo24SupportsExtendedSecurityEv,
                            __ZNK7TFSInfo25CopyDataAsURLFromDataForkERPK7__CFURL,
                            __ZNK7TFSInfo25GetDisplayNameWhileLockedEv,
                            __ZNK7TFSInfo25GetParentObjectIdentifierEv,
                            __ZNK7TFSInfo26GetICloudSharePersonStringER18TPropertyReferenceRKNSt3__110shared_ptrI13TFSVolumeInfoEE18NodeRequestOptionsRb,
                            __ZNK7TFSInfo26KindWithoutPlatformFetchedEv,
                            __ZNK7TFSInfo27CopyICloudSharePersonStringEv,
                            __ZNK7TFSInfo27GetUbiquityTransferredBytesER18TPropertyReferenceRKNSt3__110shared_ptrI13TFSVolumeInfoEE18NodeRequestOptionsRb,
                            __ZNK7TFSInfo28FPItemPermissionRestrictionsEv,
                            __ZNK7TFSInfo28GetKindWithoutPlatformStringER18TPropertyReferenceRKNSt3__110shared_ptrI13TFSVolumeInfoEE18NodeRequestOptionsRb,
                            __ZNK7TFSInfo28IsSystemRestrictionEffectiveER18TPropertyReferenceRKNSt3__110shared_ptrI13TFSVolumeInfoEE18NodeRequestOptionsRb,
                            __ZNK7TFSInfo28IsSystemRestrictionEffectiveEv,
                            __ZNK7TFSInfo35GetWritableDataVolumeMountpointInfoEv,
                            __ZNK7TFSInfo4NameEv,
                            __ZNK7TFSInfo4OpenE9OpenFlagsP16__CFFileSecuritybbb,
                            __ZNK7TFSInfo4PathEv, __ZNK7TFSInfo5CloseEv,
                            __ZNK7TFSInfo5EqualERKNSt3__110shared_ptrIS_EE,
                            __ZNK7TFSInfo6InfoIsEy, __ZNK7TFSInfo6dCPathEb,
                            __ZNK7TFSInfo7GetModeEv, __ZNK7TFSInfo7GetPathEv,
                            __ZNK7TFSInfo7GetTypeEv, __ZNK7TFSInfo7IsAliasEv,
                            __ZNK7TFSInfo7IsTrashEv, __ZNK7TFSInfo7MakeURLEv,
                            __ZNK7TFSInfo8GetIndexEv, __ZNK7TFSInfo8GetInodeEv,
                            __ZNK7TFSInfo8GetLabelEv, __ZNK7TFSInfo8GetOwnerEv,
                            __ZNK7TFSInfo8HasChildERK7TString,
                            __ZNK7TFSInfo8IsLockedEv,
                            __ZNK7TFSInfo8LessThanERKNSt3__110shared_ptrIS_EE,
                            __ZNK7TFSInfo9GetFPItemEv,
                            __ZNK7TFSInfo9GetISIconER18TPropertyReferenceRKNSt3__110shared_ptrI13TFSVolumeInfoEE18NodeRequestOptionsRb,
                            __ZNK7TFSInfo9GetISIconEv,
                            __ZNK7TFSInfo9GetParentERNSt3__110shared_ptrIS_EE,
                            __ZNK7TFSInfo9GetUTTypeER18TPropertyReferenceRKNSt3__110shared_ptrI13TFSVolumeInfoEE18NodeRequestOptionsRb,
                            __ZNK7TFSInfo9GetUTTypeERU8__strongP6UTType18NodeRequestOptionsRb,
                            __ZNK7TFSInfo9GetUTTypeEv, __ZNK7TFSInfo9IsDropBoxEv,
                            __ZNK7TFSInfo9SetISIconEP6ISIcon,
                            __ZNK7TFSInfo9SetUTTypeEP6UTTypeb,
                            __ZNK7TNWNode20IsSameUnderlyingTypeERKS_,
                            __ZNK7TNWNodeeqERKS_, __ZNK7TString10BeginsWithERKS_,
                            __ZNK7TString10BeginsWithERKS_RK9ICollator,
                            __ZNK7TString10GetCStringEPcl,
                            __ZNK7TString11LastIndexOfERKS_,
                            __ZNK7TString11LastIndexOfERKS_l,
                            __ZNK7TString11LastIndexOfEt,
                            __ZNK7TString13ContainsAnyOfERKS_,
                            __ZNK7TString13StringCompareERKS_,
                            __ZNK7TString13SubStringFromEl,
                            __ZNK7TString14StripExtensionERKS_,
                            __ZNK7TString15CopyToUniStringER9UniString,
                            __ZNK7TString17EndsWithExtensionERKS_,
                            __ZNK7TString3StrEv, __ZNK7TString4SkipElRKS_,
                            __ZNK7TString4TillElP14NSCharacterSet,
                            __ZNK7TString5c_strEv, __ZNK7TString7IndexOfERKS_,
                            __ZNK7TString7IndexOfERKS_l, __ZNK7TString7IndexOfEt,
                            __ZNK7TString7IndexOfEtl,
                            __ZNK7TString7IsEqualERKS_RK9ICollator,
                            __ZNK7TString8ContainsERKS_,
                            __ZNK7TString8ContainsERKS_RK9ICollator,
                            __ZNK7TString8ContainsEt,
                            __ZNK7TString8EndsWithERKS_,
                            __ZNK7TString8EndsWithERKS_RK9ICollator,
                            __ZNK7TString9SubStringERK8_NSRange,
                            __ZNK7TString9SubStringEll, __ZNK7TStringgtERKS_,
                            __ZNK7TStringltERKS_,
                            __ZNK8TNodePtr13CopyAsNodeRefEv,
                            __ZNK9TCopyItem12SkipMetadataEv,
                            __ZNK9TCopyItem7IsAliasEv,
                            __ZNK9TCopyItem8ItemTypeEv,
                            __ZNK9TCopyItem9IsSymlinkEv,
                            __ZNK9TCopySpan10IsLastSpanEv,
                            __ZNK9TCopySpan7GetSizeEv,
                            __ZNK9TCopySpan9GetOffsetEv,
                            __ZNK9TNodeTask11GetNotifierEv,
                            __ZNK9TNodeTask22GetNotificationOptionsEv,
                            __ZNK9TNodeTask22GetRequestPropertyListEv,
                            __ZNK9TNodeTask23GetClientChangeNotifierEv,
                            __ZNK9TNodeTask8GetChildEv,
                            __ZNK9TNodeTask8GetIndexEv,
                            __ZNK9TPathName18AsOldStyleFullPathERK7TStringRS0_,
                            __ZNK9TPathName8FullPathERK7TStringRS0_t,
                            __ZTI11TCopyBuffer, __ZTI12TRawCollator,
                            __ZTI16TDSHelperContext,
                            __ZTI21TFSInfoSizerCompanion,
                            __ZTI27TCaseInsensitiveRawCollator, __ZTI9TCopySpan,
                            __ZTS11TCopyBuffer, __ZTS12TRawCollator,
                            __ZTS16TDSHelperContext,
                            __ZTS21TFSInfoSizerCompanion,
                            __ZTS27TCaseInsensitiveRawCollator, __ZTS9TCopySpan,
                            __ZTV11TCopyBuffer, __ZTV12TRawCollator,
                            __ZTV16TDSHelperContext,
                            __ZTV21TFSInfoSizerCompanion,
                            __ZTV27TCaseInsensitiveRawCollator, __ZTV9TCopySpan,
                            __ZeqRK4BlobS1_, __ZeqRK5PointS1_, _as_SemaphoreRef,
                            _as_dispatch_semaphore, _gAuthorized,
                            _gInitializationCount, _gInitializeStartTime,
                            _gListenerSerialID, _gOperationPaused,
                            _gPendingCoordinations, _gSystemNotificationGCDQueue,
                            _kFinderTagColorKey, _kFinderTagIsPinnedKey,
                            _kFinderTagIsVisibleKey, _kFinderTagNameKey,
                            _kLSSharedFileListItemBundleID,
                            _kLSSharedFileListItemIsFileProvider,
                            _kLSSharedFileListItemIsFileProviderHidden,
                            _kLSSharedFileListItemIsiCloudLibrary,
                            _kLSSharedFileListItemUserIsDataSeparatediCloud,
                            _kLSSharedFileListItemUserIsiCloud,
                            _kLSSharedTagFileListItemLabel,
                            _kLSSharedTagFileListItemUnpinnedShowing,
                            _kLSSharedTagFileListItemUserPinned,
                            _kNodeAttributesArrayKey,
                            _kNodeAttributesSelectorKey,
                            _kNodeDownloadCompletedSizeKey,
                            _kNodeDownloadProgressPercentageDoneKey,
                            _kNodeDownloadProgressTotalSizeKey,
                            _kNodeInlineProgressAirdropOperation,
                            _kNodeInlineProgressCancellableKey,
                            _kNodeInlineProgressCompletedSizeKey,
                            _kNodeInlineProgressCopyOperation,
                            _kNodeInlineProgressImageKey,
                            _kNodeInlineProgressOperationTypeKey,
                            _kNodeInlineProgressPausableKey,
                            _kNodeInlineProgressPercentageDoneKey,
                            _kNodeInlineProgressStateKey,
                            _kNodeInlineProgressSubOperationTypeKey,
                            _kNodeInlineProgressTimeEstimateKey,
                            _kNodeInlineProgressTotalSizeKey,
                            _kNodeInlineProgressUbiquityDownloadSubOperation,
                            _kNodeInlineProgressUbiquityOperation,
                            _kNodeInlineProgressUbiquityUploadSubOperation,
                            _kNodeInlineProgressUserDownloadKey,
                            _kNodeQueryScopeArrayKey,
                            _kNodeQuerySearchAnyAttributeContainsKey,
                            _kNodeQueryStringKey, _kNodeQueryVersionStringKey,
                            _kNodeQueryViewOptionsDictKey,
                            _kNodeUploadCompletedSizeKey,
                            _kNodeUploadProgressPercentageDoneKey,
                            _kNodeUploadProgressTotalSizeKey,
                            _kResumableUserCopyAttrName, _sDynamicStore,
                            _sManageSidebar, _sMaxUnpinnedTagCount,
                            _sOpenDSStoreOnEnumeration,
                            _sReleaseCustomNodeCallback ]
    objc-classes:         [ DSArchiveService, DSArchivedItemDescriptor,
                            DSConflictStrategy, DSFPItemStatusObserver,
                            DSFileOperation, DSFileOperationID, DSFileProgress,
                            DSFileServiceConnection, DSNSHelperContext,
                            DSNSSizerOutput, DSNSURLBatchEnumerator,
                            DSProvidersObserver, DS_TDSHelperConnectionHandler,
                            DS_TKeyValueObserverGlue, FIChildrenIterator,
                            FICompoundNode, FICompoundNodeIterator, FICustomNode,
                            FIDSNode, FIFolderSize, FINode, FINodeEvent,
                            FINodeIterator, FINodeIteratorWithExtraChildren,
                            FINodeObserver, FINodeTask, FINode_AllCloudLibraries,
                            FINode_ICloudAppLibrary, FIReplicaNode, _FIProxyNode ]
    objc-ivars:           [ DSArchiveService._unarchivingDelegate,
                            DSArchivedItemDescriptor._filePath,
                            DSArchivedItemDescriptor._fileSize,
                            DSArchivedItemDescriptor._typeIdentifier,
                            DSConflictStrategy._conflictHandler,
                            DSConflictStrategy._localizedAlertMessageFormat,
                            DSConflictStrategy._localizedAlertTitle,
                            DSConflictStrategy._localizedTitlesByResolution,
                            DSConflictStrategy._type,
                            DSFPItemStatusObserver._FPError,
                            DSFPItemStatusObserver._collection,
                            DSFPItemStatusObserver._observingLock,
                            DSFPItemStatusObserver._parentIdentifier,
                            DSFPItemStatusObserver._parentNode,
                            DSFPItemStatusObserver._populated,
                            DSFileOperation._dateStarted,
                            DSFileOperation._operationID,
                            DSFileOperation._progress, DSFileOperation._utType,
                            DSFileOperationID._uuid, DSFileProgress._observers,
                            DSFileServiceConnection._didUpdateInProgressOperationsHandler,
                            DSFileServiceConnection._fileOperations,
                            DSFileServiceConnection._progressTokenMap,
                            DSFileServiceConnection._progresses,
                            DSFileServiceConnection._updateCurrentOperationsSource,
                            DSNSHelperContext.impl,
                            DSNSSizerOutput._conflictPhysicalDelta,
                            DSNSSizerOutput._conflicts,
                            DSNSSizerOutput._destinationPath,
                            DSNSSizerOutput._fsItemCount,
                            DSNSSizerOutput._logicalBytesTotal,
                            DSNSSizerOutput._maxFileSize,
                            DSNSSizerOutput._mergeDestinationItemsNotInSourceCount,
                            DSNSSizerOutput._mergeDestinationNewerConflictsBytes,
                            DSNSSizerOutput._mergeDestinationNewerConflictsCount,
                            DSNSSizerOutput._mergeDiffMetaDataFilesCount,
                            DSNSSizerOutput._mergeMatchedFilesBytes,
                            DSNSSizerOutput._mergeMatchedFilesCount,
                            DSNSSizerOutput._mergePhysicalDelta,
                            DSNSSizerOutput._mergeSourceItemsNotInDestinationCount,
                            DSNSSizerOutput._mergeSourceNewerConflictsCount,
                            DSNSSizerOutput._physicalBytesTotal,
                            DSNSSizerOutput._sourcePath,
                            DSNSSizerOutput._userVisibleItemCount,
                            DSNSURLBatchEnumerator._batchSize,
                            DSNSURLBatchEnumerator._index,
                            DSNSURLBatchEnumerator._targetNames,
                            DSNSURLBatchEnumerator._urls,
                            DSProvidersObserver._cv,
                            DSProvidersObserver._firstUpdateReceived,
                            DSProvidersObserver._mutex,
                            DSProvidersObserver._providers,
                            DSProvidersObserver._token,
                            DSProvidersObserver.fParentNode,
                            DSProvidersObserver.populated,
                            DS_TDSHelperConnectionHandler._helper,
                            DS_TDSHelperConnectionHandler._mutex,
                            DS_TKeyValueObserverGlue._functor,
                            DS_TKeyValueObserverGlue._functorWithChange,
                            DS_TKeyValueObserverGlue._observedKeyPath,
                            DS_TKeyValueObserverGlue._observedObjects,
                            FIChildrenIterator._children,
                            FIChildrenIterator._includeInvisible,
                            FIChildrenIterator._index, FICompoundNode._nodes,
                            FICompoundNode._nodesToComplete,
                            FICompoundNode._openSyncStartedSent,
                            FICompoundNodeIterator._subIterators,
                            FICompoundNodeIterator.fCurrentIterator,
                            FIDSNode._node,
                            FIFolderSize._compressionAdjustedLogicalBytes,
                            FIFolderSize._error, FIFolderSize._folderCount,
                            FIFolderSize._logicalBytes,
                            FIFolderSize._physicalBytes,
                            FIFolderSize._skippedItemCount,
                            FIFolderSize._totalItems,
                            FIFolderSize._userVisibleItems, FINodeEvent._event,
                            FINodeIterator._iterator,
                            FINodeIteratorWithExtraChildren._baseIterator,
                            FINodeIteratorWithExtraChildren._baseIteratorDone,
                            FINodeIteratorWithExtraChildren._extraIterator,
                            FINodeObserver._notifier,
                            FINodeObserver._observedNode, FINodeTask._nodeTask,
                            FINode_ICloudAppLibrary._documentsFolder,
                            FIReplicaNode._node, _FIProxyNode._proxyNode ]
...
