--- !tapi-tbd
tbd-version:           4
targets:               [ armv7-ios, armv7s-ios, arm64-ios, arm64e-ios ]
flags:                 [ flat_namespace ]
install-name:          /System/Library/PrivateFrameworks/ABMHelper.framework/ABMHelper
current-version:       0
compatibility-version: 1
exports:
  - targets:              [ armv7-ios, armv7s-ios, arm64-ios, arm64e-ios ]
    symbols:              [ __Z15GetABMLogServerv,
                            __Z15GetGlobalLoggerNSt3__110shared_ptrIN3ctu9LogServerEEE,
                            __Z15GetOsLogContextv,
                            __ZN12Capabilities21create_default_globalEv,
                            __ZN12CapabilitiesC1Ev, __ZN12CapabilitiesC2Ev,
                            __ZN13CoredumpTrace11getPropertyERKNSt3__112basic_stringIcNS0_11char_traitsIcEENS0_9allocatorIcEEEERS6_,
                            __ZN13CoredumpTrace11setPropertyEN8dispatch5groupERKNSt3__112basic_stringIcNS2_11char_traitsIcEENS2_9allocatorIcEEEESA_,
                            __ZN13CoredumpTrace12exitLowPowerEN8dispatch5groupE,
                            __ZN13CoredumpTrace12handleBBULogEiPKc,
                            __ZN13CoredumpTrace13enterLowPowerEN8dispatch5groupE,
                            __ZN13CoredumpTrace13snapshot_syncEN8dispatch5groupEN3ctu2cf11CFSharedRefIK14__CFDictionaryEE,
                            __ZN13CoredumpTrace14createInternalEv,
                            __ZN13CoredumpTrace15makeCrashStringERKN3xpc4dictE,
                            __ZN13CoredumpTrace16getSettingPrefixEv,
                            __ZN13CoredumpTrace18crashBaseband_syncENSt3__112basic_stringIcNS0_11char_traitsIcEENS0_9allocatorIcEEEE,
                            __ZN13CoredumpTrace18fixJSONFormat_syncERNSt3__112basic_stringIcNS0_11char_traitsIcEENS0_9allocatorIcEEEE,
                            __ZN13CoredumpTrace18handleBBULogStaticEPviPKc,
                            __ZN13CoredumpTrace21cleanCrashReport_syncEv,
                            __ZN13CoredumpTrace21crashBasebandARI_syncEv,
                            __ZN13CoredumpTrace21parseCrashReason_syncEv,
                            __ZN13CoredumpTrace21storeCrashReason_syncERKN3xpc4dictE,
                            __ZN13CoredumpTrace22createScratchPath_syncEv,
                            __ZN13CoredumpTrace22submitCrashReason_syncERKN3xpc4dictE,
                            __ZN13CoredumpTrace23loadRawCrashReport_syncERN3xpc4dictERKNSt3__112basic_stringIcNS3_11char_traitsIcEENS3_9allocatorIcEEEE,
                            __ZN13CoredumpTrace23moveToSnapshotPath_syncEN3ctu2cf11CFSharedRefIK14__CFDictionaryEE,
                            __ZN13CoredumpTrace23processCrashReason_syncEv,
                            __ZN13CoredumpTrace25updateAnalyticsEvent_syncERKN3xpc4dictE,
                            __ZN13CoredumpTrace28collectBasebandCoreDump_syncEv,
                            __ZN13CoredumpTrace29fetchPostBootCrashReport_syncEv,
                            __ZN13CoredumpTrace4initENSt3__112basic_stringIcNS0_11char_traitsIcEENS0_9allocatorIcEEEENS0_8weak_ptrIN3abm19BasebandTracingTaskEEEN8dispatch5groupE,
                            __ZN13CoredumpTrace4stopEN8dispatch5groupEN3ctu2cf11CFSharedRefIK14__CFDictionaryEE,
                            __ZN13CoredumpTrace5abortEN8dispatch5groupEN3ctu2cf11CFSharedRefIK14__CFDictionaryEE,
                            __ZN13CoredumpTrace5startEN8dispatch5groupEN3ctu2cf11CFSharedRefIK14__CFDictionaryEE,
                            __ZN13CoredumpTrace6reinitEN8dispatch5groupEN3ctu2cf11CFSharedRefIK14__CFDictionaryEE,
                            __ZN13CoredumpTrace7getNameEv,
                            __ZN13CoredumpTrace7prepareEN8dispatch5groupEN3ctu2cf11CFSharedRefIK14__CFDictionaryEE,
                            __ZN13CoredumpTrace8snapshotEN8dispatch5groupEN3ctu2cf11CFSharedRefIK14__CFDictionaryEE,
                            __ZN13CoredumpTrace9dumpStateEN8dispatch5groupENSt3__112basic_stringIcNS2_11char_traitsIcEENS2_9allocatorIcEEEE,
                            __ZN13CoredumpTraceC1Ev, __ZN13CoredumpTraceC2Ev,
                            __ZN13CoredumpTraceD0Ev, __ZN13CoredumpTraceD1Ev,
                            __ZN13CoredumpTraceD2Ev,
                            __ZN13ServerLogging13snapshot_syncEN3ctu2cf11CFSharedRefIK14__CFDictionaryEE,
                            __ZN13ServerLogging17registerLogServerENSt3__110shared_ptrIN3ctu9LogServerEEE,
                            __ZN13ServerLogging18backupFolders_syncERKNSt3__112basic_stringIcNS0_11char_traitsIcEENS0_9allocatorIcEEEES8_,
                            __ZN13ServerLogging24clearScratchFolders_syncEv,
                            __ZN13ServerLogging24monitorSnapshotPath_syncEv,
                            __ZN13ServerLogging4initEv,
                            __ZN13ServerLogging8snapshotEN3ctu2cf11CFSharedRefIK14__CFDictionaryEE,
                            __ZN13ServerLogging9init_syncEv,
                            __ZN13ServerLoggingC1ERKNSt3__112basic_stringIcNS0_11char_traitsIcEENS0_9allocatorIcEEEES8_,
                            __ZN13ServerLoggingC2ERKNSt3__112basic_stringIcNS0_11char_traitsIcEENS0_9allocatorIcEEEES8_,
                            __ZN13ServerLoggingD1Ev, __ZN13ServerLoggingD2Ev,
                            __ZN14KernelPCITrace11getPropertyERKNSt3__112basic_stringIcNS0_11char_traitsIcEENS0_9allocatorIcEEEERS6_,
                            __ZN14KernelPCITrace11setPropertyEN8dispatch5groupERKNSt3__112basic_stringIcNS2_11char_traitsIcEENS2_9allocatorIcEEEESA_,
                            __ZN14KernelPCITrace12exitLowPowerEN8dispatch5groupE,
                            __ZN14KernelPCITrace13enterLowPowerEN8dispatch5groupE,
                            __ZN14KernelPCITrace13snapshot_syncEN8dispatch13group_sessionEN3ctu2cf11CFSharedRefIK14__CFDictionaryEE,
                            __ZN14KernelPCITrace14createInternalEv,
                            __ZN14KernelPCITrace16getProperty_syncERKNSt3__112basic_stringIcNS0_11char_traitsIcEENS0_9allocatorIcEEEERS6_,
                            __ZN14KernelPCITrace16setProperty_syncEN8dispatch13group_sessionERKNSt3__112basic_stringIcNS2_11char_traitsIcEENS2_9allocatorIcEEEESA_,
                            __ZN14KernelPCITrace17initProperty_syncEv,
                            __ZN14KernelPCITrace18readLogsCompletionEPNS_11BuffContextEmi,
                            __ZN14KernelPCITrace19flushLogsCompletionEPNS_11BuffContextEmi,
                            __ZN14KernelPCITrace21updateTraceState_syncEN8dispatch13group_sessionE,
                            __ZN14KernelPCITrace22createBuffContext_syncEm,
                            __ZN14KernelPCITrace22deleteBuffContext_syncEPNS_11BuffContextE,
                            __ZN14KernelPCITrace23registerWithKernel_syncEv,
                            __ZN14KernelPCITrace25deleteAllBuffContext_syncEv,
                            __ZN14KernelPCITrace25deregisterWithKernel_syncEv,
                            __ZN14KernelPCITrace4initENSt3__112basic_stringIcNS0_11char_traitsIcEENS0_9allocatorIcEEEENS0_8weak_ptrIN3abm19BasebandTracingTaskEEEN8dispatch5groupE,
                            __ZN14KernelPCITrace4stopEN8dispatch5groupEN3ctu2cf11CFSharedRefIK14__CFDictionaryEE,
                            __ZN14KernelPCITrace5abortEN8dispatch5groupEN3ctu2cf11CFSharedRefIK14__CFDictionaryEE,
                            __ZN14KernelPCITrace5startEN8dispatch5groupEN3ctu2cf11CFSharedRefIK14__CFDictionaryEE,
                            __ZN14KernelPCITrace6reinitEN8dispatch5groupEN3ctu2cf11CFSharedRefIK14__CFDictionaryEE,
                            __ZN14KernelPCITrace7prepareEN8dispatch5groupEN3ctu2cf11CFSharedRefIK14__CFDictionaryEE,
                            __ZN14KernelPCITrace8shutdownEN8dispatch5groupEN3ctu2cf11CFSharedRefIK14__CFDictionaryEE,
                            __ZN14KernelPCITrace8snapshotEN8dispatch5groupEN3ctu2cf11CFSharedRefIK14__CFDictionaryEE,
                            __ZN14KernelPCITrace9dumpStateEN8dispatch5groupENSt3__112basic_stringIcNS2_11char_traitsIcEENS2_9allocatorIcEEEE,
                            __ZN14KernelPCITraceC1Ev, __ZN14KernelPCITraceC2Ev,
                            __ZN14KernelPCITraceD0Ev, __ZN14KernelPCITraceD1Ev,
                            __ZN14KernelPCITraceD2Ev,
                            __ZN14ResetDetection16addToBlocks_syncENSt3__112basic_stringIcNS0_11char_traitsIcEENS0_9allocatorIcEEEEN8dispatch5blockIU13block_pointerFviEEERNS0_3mapIS6_NS0_4pairIP17dispatch_source_sSB_EENS0_4lessIS6_EENS4_INSD_IKS6_SG_EEEEEEy,
                            __ZN14ResetDetection16invokeBlock_syncERNSt3__14pairIKNS0_12basic_stringIcNS0_11char_traitsIcEENS0_9allocatorIcEEEENS1_IP17dispatch_source_sN8dispatch5blockIU13block_pointerFviEEEEEEEi,
                            __ZN14ResetDetection19resetDetectCallbackEPvjjS0_,
                            __ZN14ResetDetection20sResetDetectCallbackEPvjjS0_,
                            __ZN14ResetDetection28notifyResetDetectBlocks_syncERNSt3__13mapINS0_12basic_stringIcNS0_11char_traitsIcEENS0_9allocatorIcEEEENS0_4pairIP17dispatch_source_sN8dispatch5blockIU13block_pointerFviEEEEENS0_4lessIS7_EENS5_INS8_IKS7_SG_EEEEEE,
                            __ZN14ResetDetection3addENSt3__112basic_stringIcNS0_11char_traitsIcEENS0_9allocatorIcEEEEbN8dispatch5blockIU13block_pointerFviEEEy,
                            __ZN14ResetDetection4pollERb,
                            __ZN14ResetDetection5startEv,
                            __ZN14ResetDetection6createEN8dispatch5queueENSt3__110shared_ptrIN3ctu9LogServerEEEP11__CFRunLoop,
                            __ZN14ResetDetectionC1EN8dispatch5queueENSt3__110shared_ptrIN3ctu9LogServerEEEP11__CFRunLoop,
                            __ZN14ResetDetectionC2EN8dispatch5queueENSt3__110shared_ptrIN3ctu9LogServerEEEP11__CFRunLoop,
                            __ZN14ResetDetectionD0Ev, __ZN14ResetDetectionD1Ev,
                            __ZN14ResetDetectionD2Ev,
                            __ZN16BasebandIPCTrace10start_syncEN8dispatch5groupE,
                            __ZN16BasebandIPCTrace10write_syncEN3ctu2cf11CFSharedRefIK14__CFDictionaryEE,
                            __ZN16BasebandIPCTrace11getPropertyERKNSt3__112basic_stringIcNS0_11char_traitsIcEENS0_9allocatorIcEEEERS6_,
                            __ZN16BasebandIPCTrace11setPropertyEN8dispatch5groupERKNSt3__112basic_stringIcNS2_11char_traitsIcEENS2_9allocatorIcEEEESA_,
                            __ZN16BasebandIPCTrace12collect_syncEN8dispatch5groupEN3ctu2cf11CFSharedRefIK14__CFDictionaryEE,
                            __ZN16BasebandIPCTrace12exitLowPowerEN8dispatch5groupE,
                            __ZN16BasebandIPCTrace13enterLowPowerEN8dispatch5groupE,
                            __ZN16BasebandIPCTrace14createInternalEv,
                            __ZN16BasebandIPCTrace4initENSt3__112basic_stringIcNS0_11char_traitsIcEENS0_9allocatorIcEEEENS0_8weak_ptrIN3abm19BasebandTracingTaskEEEN8dispatch5groupE,
                            __ZN16BasebandIPCTrace4stopEN8dispatch5groupEN3ctu2cf11CFSharedRefIK14__CFDictionaryEE,
                            __ZN16BasebandIPCTrace5abortEN8dispatch5groupEN3ctu2cf11CFSharedRefIK14__CFDictionaryEE,
                            __ZN16BasebandIPCTrace5startEN8dispatch5groupEN3ctu2cf11CFSharedRefIK14__CFDictionaryEE,
                            __ZN16BasebandIPCTrace6reinitEN8dispatch5groupEN3ctu2cf11CFSharedRefIK14__CFDictionaryEE,
                            __ZN16BasebandIPCTrace7prepareEN8dispatch5groupEN3ctu2cf11CFSharedRefIK14__CFDictionaryEE,
                            __ZN16BasebandIPCTrace8snapshotEN8dispatch5groupEN3ctu2cf11CFSharedRefIK14__CFDictionaryEE,
                            __ZN16BasebandIPCTrace9dumpStateEN8dispatch5groupENSt3__112basic_stringIcNS2_11char_traitsIcEENS2_9allocatorIcEEEE,
                            __ZN16BasebandIPCTraceC1Ev,
                            __ZN16BasebandIPCTraceC2Ev,
                            __ZN16BasebandIPCTraceD0Ev,
                            __ZN16BasebandIPCTraceD1Ev,
                            __ZN16BasebandIPCTraceD2Ev,
                            __ZN16EURCoreDumpTrace11getPropertyERKNSt3__112basic_stringIcNS0_11char_traitsIcEENS0_9allocatorIcEEEERS6_,
                            __ZN16EURCoreDumpTrace11setPropertyEN8dispatch5groupERKNSt3__112basic_stringIcNS2_11char_traitsIcEENS2_9allocatorIcEEEESA_,
                            __ZN16EURCoreDumpTrace12exitLowPowerEN8dispatch5groupE,
                            __ZN16EURCoreDumpTrace13enterLowPowerEN8dispatch5groupE,
                            __ZN16EURCoreDumpTrace13snapshot_syncEN3ctu2cf11CFSharedRefIK14__CFDictionaryEE,
                            __ZN16EURCoreDumpTrace14createInternalEv,
                            __ZN16EURCoreDumpTrace16submitCrash_syncENSt3__14listIN8coredump13CommandDriver29EURCoreDumpTraceProtocolCrashENS0_9allocatorIS4_EEEE,
                            __ZN16EURCoreDumpTrace21storeCrashReason_syncERNSt3__14listIN8coredump13CommandDriver29EURCoreDumpTraceProtocolCrashENS0_9allocatorIS4_EEEE,
                            __ZN16EURCoreDumpTrace22kCoreDumpScratchFolderE,
                            __ZN16EURCoreDumpTrace24commandDriverStatus_syncEN8coredump13CommandDriver6StatusE,
                            __ZN16EURCoreDumpTrace25updateAnalyticsEvent_syncENSt3__14listIN8coredump13CommandDriver29EURCoreDumpTraceProtocolCrashENS0_9allocatorIS4_EEEE,
                            __ZN16EURCoreDumpTrace25updateCoreDumpStatus_syncEv,
                            __ZN16EURCoreDumpTrace30postBootCrashReasonUpdate_syncENSt3__14listIN8coredump13CommandDriver29EURCoreDumpTraceProtocolCrashENS0_9allocatorIS4_EEEE,
                            __ZN16EURCoreDumpTrace35getCoreDumpEnabledStatusUpdate_syncEb,
                            __ZN16EURCoreDumpTrace4initENSt3__112basic_stringIcNS0_11char_traitsIcEENS0_9allocatorIcEEEENS0_8weak_ptrIN3abm19BasebandTracingTaskEEEN8dispatch5groupE,
                            __ZN16EURCoreDumpTrace4stopEN8dispatch5groupEN3ctu2cf11CFSharedRefIK14__CFDictionaryEE,
                            __ZN16EURCoreDumpTrace5abortEN8dispatch5groupEN3ctu2cf11CFSharedRefIK14__CFDictionaryEE,
                            __ZN16EURCoreDumpTrace5startEN8dispatch5groupEN3ctu2cf11CFSharedRefIK14__CFDictionaryEE,
                            __ZN16EURCoreDumpTrace6reinitEN8dispatch5groupEN3ctu2cf11CFSharedRefIK14__CFDictionaryEE,
                            __ZN16EURCoreDumpTrace7prepareEN8dispatch5groupEN3ctu2cf11CFSharedRefIK14__CFDictionaryEE,
                            __ZN16EURCoreDumpTrace8kDevNodeE,
                            __ZN16EURCoreDumpTrace8snapshotEN8dispatch5groupEN3ctu2cf11CFSharedRefIK14__CFDictionaryEE,
                            __ZN16EURCoreDumpTrace9dumpStateEN8dispatch5groupENSt3__112basic_stringIcNS2_11char_traitsIcEENS2_9allocatorIcEEEE,
                            __ZN16EURCoreDumpTraceC1Ev,
                            __ZN16EURCoreDumpTraceC2Ev,
                            __ZN16EURCoreDumpTraceD0Ev,
                            __ZN16EURCoreDumpTraceD1Ev,
                            __ZN16EURCoreDumpTraceD2Ev,
                            __ZN16ICECoredumpTrace14createInternalEv,
                            __ZN16ICECoredumpTrace15makeCrashStringERKN3xpc4dictE,
                            __ZN16ICECoredumpTrace18crashBaseband_syncENSt3__112basic_stringIcNS0_11char_traitsIcEENS0_9allocatorIcEEEE,
                            __ZN16ICECoredumpTrace21parseCrashReason_syncEv,
                            __ZN17BasebandTransport10asProtocolENSt3__112basic_stringIcNS0_11char_traitsIcEENS0_9allocatorIcEEEE,
                            __ZN17BasebandTransport10close_syncEv,
                            __ZN17BasebandTransport10stopReaderEv,
                            __ZN17BasebandTransport12openPCI_syncEv,
                            __ZN17BasebandTransport12reportStatusEjN8dispatch5blockIU13block_pointerFvNS_6StatusEEEE,
                            __ZN17BasebandTransport12timerOn_syncEv,
                            __ZN17BasebandTransport13timerOff_syncEv,
                            __ZN17BasebandTransport14queueRead_syncEv,
                            __ZN17BasebandTransport15switchDIAG_syncEv,
                            __ZN17BasebandTransport16startReader_syncEv,
                            __ZN17BasebandTransport17asStringLowerCaseENS_8ProtocolE,
                            __ZN17BasebandTransport17updateDeltas_syncEv,
                            __ZN17BasebandTransport21getSupportedProtocolsEv,
                            __ZN17BasebandTransport29getDefaultTransportIOReadSizeENS_8ProtocolE,
                            __ZN17BasebandTransport29getSupportedProtocolsAsStringEv,
                            __ZN17BasebandTransport30getDefaultTransportIOReadCountENS_8ProtocolE,
                            __ZN17BasebandTransport38getSupportedProtocolsAsStringLowerCaseEv,
                            __ZN17BasebandTransport4initEv,
                            __ZN17BasebandTransport4openENS_10ParametersEN8dispatch5blockIU13block_pointerFvPhjEEE,
                            __ZN17BasebandTransport4readEPhmPjbj,
                            __ZN17BasebandTransport5closeEv,
                            __ZN17BasebandTransport5writeEPKhmPjbj,
                            __ZN17BasebandTransport6Status4initEv,
                            __ZN17BasebandTransport6StatusC1Ev,
                            __ZN17BasebandTransport6StatusC2Ev,
                            __ZN17BasebandTransport6createEN8dispatch5queueE,
                            __ZN17BasebandTransport6createENSt3__110shared_ptrIN3ctu9LogServerEEEN8dispatch5queueE,
                            __ZN17BasebandTransport7getNameEv,
                            __ZN17BasebandTransport8asStringENS_5StateE,
                            __ZN17BasebandTransport8asStringENS_8ProtocolE,
                            __ZN17BasebandTransport9dumpStateEb,
                            __ZN17BasebandTransport9getStatusEv,
                            __ZN17BasebandTransport9read_syncEN8dispatch13group_sessionE,
                            __ZN17BasebandTransportC1ENSt3__110shared_ptrIN3ctu9LogServerEEEN8dispatch5queueE,
                            __ZN17BasebandTransportC2ENSt3__110shared_ptrIN3ctu9LogServerEEEN8dispatch5queueE,
                            __ZN17BasebandTransportD0Ev,
                            __ZN17BasebandTransportD1Ev,
                            __ZN17BasebandTransportD2Ev,
                            __ZN17BasebandTransportdeEv,
                            __ZN17KernelPCIABPTrace11PipeContext15setFileCapacityEm,
                            __ZN17KernelPCIABPTrace11PipeContext4stopEv,
                            __ZN17KernelPCIABPTrace11PipeContext5pauseEv,
                            __ZN17KernelPCIABPTrace11PipeContext5startERN21CircularFileLogWriter6ParamsE,
                            __ZN17KernelPCIABPTrace11PipeContext5writeEPKcm,
                            __ZN17KernelPCIABPTrace11PipeContext6resumeEv,
                            __ZN17KernelPCIABPTrace11getPropertyERKNSt3__112basic_stringIcNS0_11char_traitsIcEENS0_9allocatorIcEEEERS6_,
                            __ZN17KernelPCIABPTrace11setPropertyEN8dispatch5groupERKNSt3__112basic_stringIcNS2_11char_traitsIcEENS2_9allocatorIcEEEESA_,
                            __ZN17KernelPCIABPTrace12exitLowPowerEN8dispatch5groupE,
                            __ZN17KernelPCIABPTrace13enterLowPowerEN8dispatch5groupE,
                            __ZN17KernelPCIABPTrace13snapshot_syncEN8dispatch13group_sessionEN3ctu2cf11CFSharedRefIK14__CFDictionaryEE,
                            __ZN17KernelPCIABPTrace14createInternalEv,
                            __ZN17KernelPCIABPTrace15startTrace_syncEv,
                            __ZN17KernelPCIABPTrace16getProperty_syncERKNSt3__112basic_stringIcNS0_11char_traitsIcEENS0_9allocatorIcEEEERS6_,
                            __ZN17KernelPCIABPTrace16setProperty_syncEN8dispatch13group_sessionERKNSt3__112basic_stringIcNS2_11char_traitsIcEENS2_9allocatorIcEEEESA_,
                            __ZN17KernelPCIABPTrace17fileSnapshot_syncERNSt3__110shared_ptrINS_11PipeContextEEE,
                            __ZN17KernelPCIABPTrace17initProperty_syncEv,
                            __ZN17KernelPCIABPTrace18readLogsCompletionEPNS_11BuffContextEmi,
                            __ZN17KernelPCIABPTrace19flushLogsCompletionEPNS_11BuffContextEmi,
                            __ZN17KernelPCIABPTrace21dumpCodeRegistry_syncEv,
                            __ZN17KernelPCIABPTrace21updateTraceState_syncEN8dispatch13group_sessionE,
                            __ZN17KernelPCIABPTrace22createBuffContext_syncEmRNSt3__110shared_ptrINS_11PipeContextEEE,
                            __ZN17KernelPCIABPTrace22deleteBuffContext_syncEPNS_11BuffContextE,
                            __ZN17KernelPCIABPTrace23registerWithKernel_syncEv,
                            __ZN17KernelPCIABPTrace24allocateBufferQueue_syncERNSt3__110shared_ptrINS_11PipeContextEEE,
                            __ZN17KernelPCIABPTrace25deleteAllBuffContext_syncEv,
                            __ZN17KernelPCIABPTrace25deregisterWithKernel_syncEv,
                            __ZN17KernelPCIABPTrace4initENSt3__112basic_stringIcNS0_11char_traitsIcEENS0_9allocatorIcEEEENS0_8weak_ptrIN3abm19BasebandTracingTaskEEEN8dispatch5groupE,
                            __ZN17KernelPCIABPTrace4stopEN8dispatch5groupEN3ctu2cf11CFSharedRefIK14__CFDictionaryEE,
                            __ZN17KernelPCIABPTrace5abortEN8dispatch5groupEN3ctu2cf11CFSharedRefIK14__CFDictionaryEE,
                            __ZN17KernelPCIABPTrace5startEN8dispatch5groupEN3ctu2cf11CFSharedRefIK14__CFDictionaryEE,
                            __ZN17KernelPCIABPTrace6reinitEN8dispatch5groupEN3ctu2cf11CFSharedRefIK14__CFDictionaryEE,
                            __ZN17KernelPCIABPTrace7prepareEN8dispatch5groupEN3ctu2cf11CFSharedRefIK14__CFDictionaryEE,
                            __ZN17KernelPCIABPTrace8shutdownEN8dispatch5groupEN3ctu2cf11CFSharedRefIK14__CFDictionaryEE,
                            __ZN17KernelPCIABPTrace8snapshotEN8dispatch5groupEN3ctu2cf11CFSharedRefIK14__CFDictionaryEE,
                            __ZN17KernelPCIABPTrace9dumpStateEN8dispatch5groupENSt3__112basic_stringIcNS2_11char_traitsIcEENS2_9allocatorIcEEEE,
                            __ZN17KernelPCIABPTrace9stopTraceERKN8dispatch13group_sessionE,
                            __ZN17KernelPCIABPTraceC1Ev,
                            __ZN17KernelPCIABPTraceC2Ev,
                            __ZN17KernelPCIABPTraceD0Ev,
                            __ZN17KernelPCIABPTraceD1Ev,
                            __ZN17KernelPCIABPTraceD2Ev,
                            __ZN18ResetReasonEncoder19findMatchingMappingENSt3__112basic_stringIcNS0_11char_traitsIcEENS0_9allocatorIcEEEERNS_7MappingE,
                            __ZN18ResetReasonEncoder5parseENSt3__112basic_stringIcNS0_11char_traitsIcEENS0_9allocatorIcEEEE,
                            __ZN18ResetReasonEncoder6encodeERKNS_12ParsedReasonE,
                            __ZN18ResetReasonEncoder6encodeERKNSt3__112basic_stringIcNS0_11char_traitsIcEENS0_9allocatorIcEEEE,
                            __ZN18SoftwareBypassShim6createEv,
                            __ZN18SoftwareBypassShimC1Ev,
                            __ZN18SoftwareBypassShimC2Ev,
                            __ZN18SoftwareBypassShimD1Ev,
                            __ZN18SoftwareBypassShimD2Ev,
                            __ZN19BasebandIPCTraceICE11getPropertyERKNSt3__112basic_stringIcNS0_11char_traitsIcEENS0_9allocatorIcEEEERS6_,
                            __ZN19BasebandIPCTraceICE11setPropertyEN8dispatch5groupERKNSt3__112basic_stringIcNS2_11char_traitsIcEENS2_9allocatorIcEEEESA_,
                            __ZN19BasebandIPCTraceICE12exitLowPowerEN8dispatch5groupE,
                            __ZN19BasebandIPCTraceICE13enterLowPowerEN8dispatch5groupE,
                            __ZN19BasebandIPCTraceICE14createInternalEv,
                            __ZN19BasebandIPCTraceICE4initENSt3__112basic_stringIcNS0_11char_traitsIcEENS0_9allocatorIcEEEENS0_8weak_ptrIN3abm19BasebandTracingTaskEEEN8dispatch5groupE,
                            __ZN19BasebandIPCTraceICE4stopEN8dispatch5groupEN3ctu2cf11CFSharedRefIK14__CFDictionaryEE,
                            __ZN19BasebandIPCTraceICE5abortEN8dispatch5groupEN3ctu2cf11CFSharedRefIK14__CFDictionaryEE,
                            __ZN19BasebandIPCTraceICE5startEN8dispatch5groupEN3ctu2cf11CFSharedRefIK14__CFDictionaryEE,
                            __ZN19BasebandIPCTraceICE6reinitEN8dispatch5groupEN3ctu2cf11CFSharedRefIK14__CFDictionaryEE,
                            __ZN19BasebandIPCTraceICE7prepareEN8dispatch5groupEN3ctu2cf11CFSharedRefIK14__CFDictionaryEE,
                            __ZN19BasebandIPCTraceICE8snapshotEN8dispatch5groupEN3ctu2cf11CFSharedRefIK14__CFDictionaryEE,
                            __ZN19BasebandIPCTraceICE9dumpStateEN8dispatch5groupENSt3__112basic_stringIcNS2_11char_traitsIcEENS2_9allocatorIcEEEE,
                            __ZN19BasebandIPCTraceICEC1Ev,
                            __ZN19BasebandIPCTraceICEC2Ev,
                            __ZN19BasebandIPCTraceICED0Ev,
                            __ZN19BasebandIPCTraceICED1Ev,
                            __ZN19BasebandIPCTraceICED2Ev,
                            __ZN20BasebandTransportICE10close_syncEv,
                            __ZN20BasebandTransportICE16configureARIPipeEv,
                            __ZN20BasebandTransportICE17configurePhysicalEv,
                            __ZN20BasebandTransportICE17openARIClientPipeEN17BasebandTransport10ParametersEN8dispatch5blockIU13block_pointerFvPhjEEE,
                            __ZN20BasebandTransportICE17sendToDataHandlerEPhm,
                            __ZN20BasebandTransportICE18writeARIClientPipeEPKhmPjbj,
                            __ZN20BasebandTransportICE23closeARIClientPipe_syncEv,
                            __ZN20BasebandTransportICE4openEN17BasebandTransport10ParametersEN8dispatch5blockIU13block_pointerFvPhjEEE,
                            __ZN20BasebandTransportICE4readEPhmPjbj,
                            __ZN20BasebandTransportICE5writeEPKhmPjbj,
                            __ZN20BasebandTransportICEC1ENSt3__110shared_ptrIN3ctu9LogServerEEEN8dispatch5queueE,
                            __ZN20BasebandTransportICEC2ENSt3__110shared_ptrIN3ctu9LogServerEEEN8dispatch5queueE,
                            __ZN20BasebandTransportMAV15switchDIAG_syncEv,
                            __ZN20BasebandTransportMAVC1ENSt3__110shared_ptrIN3ctu9LogServerEEEN8dispatch5queueE,
                            __ZN20BasebandTransportMAVC2ENSt3__110shared_ptrIN3ctu9LogServerEEEN8dispatch5queueE,
                            __ZN20BasebandTransportMAVD0Ev,
                            __ZN20BasebandTransportMAVD1Ev,
                            __ZN20BasebandTransportMAVD2Ev,
                            __ZN21CircularFileLogWriter10clear_syncEv,
                            __ZN21CircularFileLogWriter10close_syncEv,
                            __ZN21CircularFileLogWriter10write_syncENSt3__110shared_ptrIN3ctu10LogMessageEEE,
                            __ZN21CircularFileLogWriter10write_syncEPKcm,
                            __ZN21CircularFileLogWriter11setCapacityEm,
                            __ZN21CircularFileLogWriter15openNewLog_syncEv,
                            __ZN21CircularFileLogWriter17clearOldLogs_syncEv,
                            __ZN21CircularFileLogWriter17getFileIndex_syncERjS0_,
                            __ZN21CircularFileLogWriter20closeRunningLog_syncEv,
                            __ZN21CircularFileLogWriter4openEv,
                            __ZN21CircularFileLogWriter5clearEv,
                            __ZN21CircularFileLogWriter5closeEv,
                            __ZN21CircularFileLogWriter5writeENSt3__110shared_ptrIN3ctu10LogMessageEEE,
                            __ZN21CircularFileLogWriter5writeEPKcm,
                            __ZN21CircularFileLogWriter6createERKNS_6ParamsE,
                            __ZN21CircularFileLogWriterC1ERKNS_6ParamsE,
                            __ZN21CircularFileLogWriterC2ERKNS_6ParamsE,
                            __ZN24EURCoreDumpTraceProtocol17createScratchPathEv,
                            __ZN24EURCoreDumpTraceProtocol18moveToSnapshotPathEN3ctu2cf11CFSharedRefIK14__CFDictionaryEE,
                            __ZN24EURCoreDumpTraceProtocol24collectBasebandCrashListERNSt3__14listIN8coredump13CommandDriver29EURCoreDumpTraceProtocolCrashENS0_9allocatorIS4_EEEE,
                            __ZN24EURCoreDumpTraceProtocol27collectBasebandCrashListM20ERNSt3__14listIN8coredump13CommandDriver29EURCoreDumpTraceProtocolCrashENS0_9allocatorIS4_EEEE,
                            __ZN24EURCoreDumpTraceProtocol6createEv,
                            __ZN24EURCoreDumpTraceProtocolC2Ev,
                            __ZN27SAHEURCoreDumpTraceProtocol15createTransportEv,
                            __ZN27SAHEURCoreDumpTraceProtocol15handleLogStaticEPviPKc,
                            __ZN27SAHEURCoreDumpTraceProtocol16snapshotInternalEN3ctu2cf11CFSharedRefIK14__CFDictionaryEERNSt3__14listIN8coredump13CommandDriver29EURCoreDumpTraceProtocolCrashENS6_9allocatorISA_EEEE,
                            __ZN27SAHEURCoreDumpTraceProtocol18resetInternalStateEv,
                            __ZN27SAHEURCoreDumpTraceProtocol19generateCrashReasonEN3ctu2cf11CFSharedRefIK14__CFDictionaryEEPcm,
                            __ZN27SAHEURCoreDumpTraceProtocol21crashBasebandOverDIAGEP39__TelephonyBasebandControllerHandle_tagRK19ETLCrashOptions_tag,
                            __ZN27SAHEURCoreDumpTraceProtocol21crashBasebandWithGPIOEP39__TelephonyBasebandControllerHandle_tag,
                            __ZN27SAHEURCoreDumpTraceProtocol23collectBasebandCoreDumpEv,
                            __ZN27SAHEURCoreDumpTraceProtocol24crashBasebandForCoreDumpEN3ctu2cf11CFSharedRefIK14__CFDictionaryEE,
                            __ZN27SAHEURCoreDumpTraceProtocol8snapshotEN3ctu2cf11CFSharedRefIK14__CFDictionaryEERNSt3__14listIN8coredump13CommandDriver29EURCoreDumpTraceProtocolCrashENS6_9allocatorISA_EEEE,
                            __ZN27SAHEURCoreDumpTraceProtocol9handleLogEiPKc,
                            __ZN27SAHEURCoreDumpTraceProtocolC1Ev,
                            __ZN27SAHEURCoreDumpTraceProtocolC2Ev,
                            __ZN27SAHEURCoreDumpTraceProtocolD0Ev,
                            __ZN27SAHEURCoreDumpTraceProtocolD1Ev,
                            __ZN27SAHEURCoreDumpTraceProtocolD2Ev,
                            __ZN3abm10AppMonitor11addBundleIDENSt3__112basic_stringIcNS1_11char_traitsIcEENS1_9allocatorIcEEEE,
                            __ZN3abm10AppMonitor14removeBundleIDENSt3__112basic_stringIcNS1_11char_traitsIcEENS1_9allocatorIcEEEE,
                            __ZN3abm10AppMonitor18setAppStateHandlerEN8dispatch5queueENSt3__18functionIFvNS3_12basic_stringIcNS3_11char_traitsIcEENS3_9allocatorIcEEEENS_8AppStateEEEE,
                            __ZN3abm10AppMonitor4stopEv,
                            __ZN3abm10AppMonitor5startEv,
                            __ZN3abm10AppMonitor6createEN3ctu12OsLogContextE,
                            __ZN3abm10AppMonitorC1EN3ctu12OsLogContextE,
                            __ZN3abm10AppMonitorC2EN3ctu12OsLogContextE,
                            __ZN3abm10HelperTask10start_syncEv,
                            __ZN3abm10HelperTask4initEv,
                            __ZN3abm10HelperTask4stopEv,
                            __ZN3abm10HelperTask5getIDEv,
                            __ZN3abm10HelperTask5startEv,
                            __ZN3abm10HelperTask6isBusyEv,
                            __ZN3abm10HelperTask7getNameEv,
                            __ZN3abm10HelperTask9stop_syncEv,
                            __ZN3abm10HelperTaskC2ENS_6helper6TaskIDENSt3__110shared_ptrIN3ctu9LogServerEEENS3_8weak_ptrINS_20HelperServerInternalEEE,
                            __ZN3abm12HelperClient22registerForHelperReadyENS_6helper6UserIDEN8dispatch8callbackIU13block_pointerFvN12TelephonyXPC6ResultEN3xpc4dictEEEE,
                            __ZN3abm12HelperClient6createEPKcNSt3__110shared_ptrIN3ctu9LogServerEEE,
                            __ZN3abm12HelperClient7performENS_6helper6TaskIDEPKcN3xpc4dictEN8dispatch8callbackIU13block_pointerFvN12TelephonyXPC6ResultES6_EEE,
                            __ZN3abm12HelperClient7performENS_6helper6TaskIDEPKcN3xpc4dictERS6_,
                            __ZN3abm12HelperClientC1EPKcNSt3__110shared_ptrIN3ctu9LogServerEEE,
                            __ZN3abm12HelperClientC2EPKcNSt3__110shared_ptrIN3ctu9LogServerEEE,
                            __ZN3abm12HelperClientD1Ev,
                            __ZN3abm12HelperClientD2Ev,
                            __ZN3abm12HelperServer4stopEv,
                            __ZN3abm12HelperServer5startEv,
                            __ZN3abm12HelperServer6createENSt3__110shared_ptrIN3ctu9LogServerEEE,
                            __ZN3abm12HelperServer6isBusyEv,
                            __ZN3abm12HelperServerC1ENSt3__110shared_ptrIN3ctu9LogServerEEE,
                            __ZN3abm12HelperServerC2ENSt3__110shared_ptrIN3ctu9LogServerEEE,
                            __ZN3abm12HelperServerD1Ev,
                            __ZN3abm12HelperServerD2Ev, __ZN3abm12kTraceFilterE,
                            __ZN3abm13kAPDumpPrefixE, __ZN3abm13kBBDumpPrefixE,
                            __ZN3abm13kKeyRadarTypeE, __ZN3abm13kKeyTraceFlagE,
                            __ZN3abm13kKeyTraceModeE, __ZN3abm13kKeyTraceNameE,
                            __ZN3abm13kTraceProfileE,
                            __ZN3abm14DirectoryQueryC1ENS_7BaseDirENSt3__112basic_stringIcNS2_11char_traitsIcEENS2_9allocatorIcEEEE,
                            __ZN3abm14DirectoryQueryC2ENS_7BaseDirENSt3__112basic_stringIcNS2_11char_traitsIcEENS2_9allocatorIcEEEE,
                            __ZN3abm14FileProperties8setStateENS0_5StateE,
                            __ZN3abm14FilePropertiesC1ENS_7BaseDirERKNSt3__112basic_stringIcNS2_11char_traitsIcEENS2_9allocatorIcEEEEbNS0_5StateE,
                            __ZN3abm14FilePropertiesC2ENS_7BaseDirERKNSt3__112basic_stringIcNS2_11char_traitsIcEENS2_9allocatorIcEEEEbNS0_5StateE,
                            __ZN3abm14SystemLogsTask17filterReason_syncERKNSt3__112basic_stringIcNS1_11char_traitsIcEENS1_9allocatorIcEEEE,
                            __ZN3abm14SystemLogsTask23askForConfirmation_syncERKNSt3__112basic_stringIcNS1_11char_traitsIcEENS1_9allocatorIcEEEE,
                            __ZN3abm14SystemLogsTask24snapshotSysdiagnose_syncENSt3__112basic_stringIcNS1_11char_traitsIcEENS1_9allocatorIcEEEES7_N8dispatch13group_sessionE,
                            __ZN3abm14SystemLogsTask25snapshotOsLogArchive_syncENSt3__112basic_stringIcNS1_11char_traitsIcEENS1_9allocatorIcEEEES7_S7_N8dispatch13group_sessionE,
                            __ZN3abm14SystemLogsTask33convertSysdiagnoseTimeFormat_syncENSt3__112basic_stringIcNS1_11char_traitsIcEENS1_9allocatorIcEEEE,
                            __ZN3abm14SystemLogsTask7getNameEv,
                            __ZN3abm14SystemLogsTask9init_syncEv,
                            __ZN3abm14SystemLogsTaskC1ENS_6helper6TaskIDENSt3__110shared_ptrIN3ctu9LogServerEEENS3_8weak_ptrINS_20HelperServerInternalEEE,
                            __ZN3abm14SystemLogsTaskC2ENS_6helper6TaskIDENSt3__110shared_ptrIN3ctu9LogServerEEENS3_8weak_ptrINS_20HelperServerInternalEEE,
                            __ZN3abm14TapToRadarTask14fileRadar_syncENS_6helper9RadarTypeERKNSt3__112basic_stringIcNS3_11char_traitsIcEENS3_9allocatorIcEEEESB_RKN3xpc5arrayESB_,
                            __ZN3abm14TapToRadarTask17prepareRadar_syncENS_6helper9RadarTypeERKNSt3__112basic_stringIcNS3_11char_traitsIcEENS3_9allocatorIcEEEERKN3xpc5arrayESB_,
                            __ZN3abm14TapToRadarTask23populateComponents_syncEv,
                            __ZN3abm14TapToRadarTask24validateAttachments_syncERN3xpc5arrayE,
                            __ZN3abm14TapToRadarTask28checkTraceLogsInArchive_syncERNSt3__112basic_stringIcNS1_11char_traitsIcEENS1_9allocatorIcEEEERNS1_6vectorIPKcNS5_ISB_EEEE,
                            __ZN3abm14TapToRadarTask32checkAttachmentForRadarType_syncENS_6helper9RadarTypeERN3xpc5arrayE,
                            __ZN3abm14TapToRadarTask7getNameEv,
                            __ZN3abm14TapToRadarTask9init_syncEv,
                            __ZN3abm14TapToRadarTaskC1ENS_6helper6TaskIDENSt3__110shared_ptrIN3ctu9LogServerEEENS3_8weak_ptrINS_20HelperServerInternalEEE,
                            __ZN3abm14TapToRadarTaskC2ENS_6helper6TaskIDENSt3__110shared_ptrIN3ctu9LogServerEEENS3_8weak_ptrINS_20HelperServerInternalEEE,
                            __ZN3abm14TapToRadarTaskD0Ev,
                            __ZN3abm14TapToRadarTaskD1Ev,
                            __ZN3abm14TapToRadarTaskD2Ev,
                            __ZN3abm14kDefaultReasonE, __ZN3abm14kKeyTraceClearE,
                            __ZN3abm14kKeyTraceStateE, __ZN3abm14kTraceBasebandE,
                            __ZN3abm14kTraceCoreDumpE, __ZN3abm14kTraceSettingsE,
                            __ZN3abm14kTraceTailspinE,
                            __ZN3abm15kKeyTraceActionE,
                            __ZN3abm15kReinitAllTraceE,
                            __ZN3abm15kTraceKernelIPCE,
                            __ZN3abm16kKeyTraceEnabledE,
                            __ZN3abm16kKeyTraceHistoryE,
                            __ZN3abm16kTraceSystemLogsE,
                            __ZN3abm16kTraceTapToRadarE,
                            __ZN3abm17LogManagementTask11remove_syncENSt3__110shared_ptrINS_14FilePropertiesEEE,
                            __ZN3abm17LogManagementTask11remove_syncERKNSt3__112basic_stringIcNS1_11char_traitsIcEENS1_9allocatorIcEEEE,
                            __ZN3abm17LogManagementTask17markPurgeableLogsE18CacheDeleteUrgencyPK14__CFDictionary,
                            __ZN3abm17LogManagementTask7getNameEv,
                            __ZN3abm17LogManagementTask9init_syncEv,
                            __ZN3abm17LogManagementTaskC1ENS_6helper6TaskIDENSt3__110shared_ptrIN3ctu9LogServerEEENS3_8weak_ptrINS_20HelperServerInternalEEE,
                            __ZN3abm17LogManagementTaskC2ENS_6helper6TaskIDENSt3__110shared_ptrIN3ctu9LogServerEEENS3_8weak_ptrINS_20HelperServerInternalEEE,
                            __ZN3abm17LogManagementTaskD0Ev,
                            __ZN3abm17LogManagementTaskD1Ev,
                            __ZN3abm17LogManagementTaskD2Ev,
                            __ZN3abm17kKeyTraceFileSizeE,
                            __ZN3abm17kKeyTraceHighTputE,
                            __ZN3abm17kKeyTraceLogLevelE,
                            __ZN3abm17kShutdownAllTraceE,
                            __ZN3abm17kTraceBasebandIPCE,
                            __ZN3abm17kTraceCompressionE,
                            __ZN3abm18AppMonitorInternal6createEN3ctu12OsLogContextE,
                            __ZN3abm18CellularLoggingEUR10stopReaderEb,
                            __ZN3abm18CellularLoggingEUR11getFileSizeEv,
                            __ZN3abm18CellularLoggingEUR11startReaderEb,
                            __ZN3abm18CellularLoggingEUR13getConfigNameEv,
                            __ZN3abm18CellularLoggingEUR14getGUIDStringsENSt3__110shared_ptrI20ETLDIAGGUIDParameterEE,
                            __ZN3abm18CellularLoggingEUR15getCurrentIndexEv,
                            __ZN3abm18CellularLoggingEUR16getFileExtensionEv,
                            __ZN3abm18CellularLoggingEUR18getConfigHistoryMBEv,
                            __ZN3abm18CellularLoggingEUR19getMaxNumberOfFilesEv,
                            __ZN3abm18CellularLoggingEUR20getModemInformation1Ev,
                            __ZN3abm18CellularLoggingEUR20getModemInformation2Ev,
                            __ZN3abm18CellularLoggingEUR23getCandidateConfigNamesEv,
                            __ZN3abm18CellularLoggingEUR4stopEv,
                            __ZN3abm18CellularLoggingEUR5startEN3xpc4dictE,
                            __ZN3abm18CellularLoggingEUR6createENSt3__110shared_ptrIN3ctu9LogServerEEENS1_8weak_ptrINS_20HelperServerInternalEEEN8dispatch5queueE,
                            __ZN3abm18CellularLoggingEUR7getGUIDEv,
                            __ZN3abm18CellularLoggingEURC1ENSt3__110shared_ptrIN3ctu9LogServerEEENS1_8weak_ptrINS_20HelperServerInternalEEEN8dispatch5queueE,
                            __ZN3abm18CellularLoggingEURC2ENSt3__110shared_ptrIN3ctu9LogServerEEENS1_8weak_ptrINS_20HelperServerInternalEEEN8dispatch5queueE,
                            __ZN3abm18CellularLoggingEURD0Ev,
                            __ZN3abm18CellularLoggingEURD1Ev,
                            __ZN3abm18CellularLoggingEURD2Ev,
                            __ZN3abm18CellularLoggingINT10stopReaderEb,
                            __ZN3abm18CellularLoggingINT11getFileSizeEv,
                            __ZN3abm18CellularLoggingINT11startReaderEb,
                            __ZN3abm18CellularLoggingINT13getConfigNameEv,
                            __ZN3abm18CellularLoggingINT15getCurrentIndexEv,
                            __ZN3abm18CellularLoggingINT16getFileExtensionEv,
                            __ZN3abm18CellularLoggingINT18getConfigHistoryMBEv,
                            __ZN3abm18CellularLoggingINT19getMaxNumberOfFilesEv,
                            __ZN3abm18CellularLoggingINT20getModemInformation1Ev,
                            __ZN3abm18CellularLoggingINT20getModemInformation2Ev,
                            __ZN3abm18CellularLoggingINT23getCandidateConfigNamesEv,
                            __ZN3abm18CellularLoggingINT4stopEv,
                            __ZN3abm18CellularLoggingINT5startEN3xpc4dictE,
                            __ZN3abm18CellularLoggingINT6createENSt3__110shared_ptrIN3ctu9LogServerEEENS1_8weak_ptrINS_20HelperServerInternalEEEN8dispatch5queueE,
                            __ZN3abm18CellularLoggingINTC1ENSt3__110shared_ptrIN3ctu9LogServerEEENS1_8weak_ptrINS_20HelperServerInternalEEEN8dispatch5queueE,
                            __ZN3abm18CellularLoggingINTC2ENSt3__110shared_ptrIN3ctu9LogServerEEENS1_8weak_ptrINS_20HelperServerInternalEEEN8dispatch5queueE,
                            __ZN3abm18CellularLoggingINTD0Ev,
                            __ZN3abm18CellularLoggingINTD1Ev,
                            __ZN3abm18CellularLoggingINTD2Ev,
                            __ZN3abm18LogCompressionTask12archive_syncEN3xpc4dictE,
                            __ZN3abm18LogCompressionTask17archiveEntry_syncEP7archiveNSt3__112basic_stringIcNS3_11char_traitsIcEENS3_9allocatorIcEEEES9_,
                            __ZN3abm18LogCompressionTask17closeArchive_syncEP7archive,
                            __ZN3abm18LogCompressionTask18archiveHelper_syncENS_11ArchiveTypeENSt3__112basic_stringIcNS2_11char_traitsIcEENS2_9allocatorIcEEEES8_S8_S8_N12capabilities5trace15CompressionModeE,
                            __ZN3abm18LogCompressionTask18createArchive_syncENSt3__112basic_stringIcNS1_11char_traitsIcEENS1_9allocatorIcEEEEN12capabilities5trace15CompressionModeE,
                            __ZN3abm18LogCompressionTask18initWorkspace_syncEv,
                            __ZN3abm18LogCompressionTask19archiveEntries_syncEP7archiveNSt3__112basic_stringIcNS3_11char_traitsIcEENS3_9allocatorIcEEEENS3_6vectorIS9_NS7_IS9_EEEES9_,
                            __ZN3abm18LogCompressionTask7getNameEv,
                            __ZN3abm18LogCompressionTask9init_syncEv,
                            __ZN3abm18LogCompressionTaskC1ENS_6helper6TaskIDENSt3__110shared_ptrIN3ctu9LogServerEEENS3_8weak_ptrINS_20HelperServerInternalEEE,
                            __ZN3abm18LogCompressionTaskC2ENS_6helper6TaskIDENSt3__110shared_ptrIN3ctu9LogServerEEENS3_8weak_ptrINS_20HelperServerInternalEEE,
                            __ZN3abm18LogCompressionTaskD0Ev,
                            __ZN3abm18LogCompressionTaskD1Ev,
                            __ZN3abm18LogCompressionTaskD2Ev,
                            __ZN3abm18kKeyTraceOwnershipE,
                            __ZN3abm19BasebandTracingTask10getRunLoopEv,
                            __ZN3abm19BasebandTracingTask11changeStateENS0_5StateE,
                            __ZN3abm19BasebandTracingTask11performWorkEN8dispatch13group_sessionENS0_5StateENS1_8callbackIU13block_pointerFviN3xpc4dictEEEENS1_5blockIU13block_pointerFvvEEESD_,
                            __ZN3abm19BasebandTracingTask12stopInternalEN8dispatch5groupEN3ctu2cf11CFSharedRefIK14__CFDictionaryEE,
                            __ZN3abm19BasebandTracingTask13abortInternalEN8dispatch5groupEN3ctu2cf11CFSharedRefIK14__CFDictionaryEE,
                            __ZN3abm19BasebandTracingTask13startInternalEN8dispatch5groupEN3ctu2cf11CFSharedRefIK14__CFDictionaryEE,
                            __ZN3abm19BasebandTracingTask13stateAsStringENS0_5StateE,
                            __ZN3abm19BasebandTracingTask14reinitInternalEN8dispatch5groupEN3ctu2cf11CFSharedRefIK14__CFDictionaryEE,
                            __ZN3abm19BasebandTracingTask15prepareInternalEN8dispatch5groupEN3ctu2cf11CFSharedRefIK14__CFDictionaryEE,
                            __ZN3abm19BasebandTracingTask16shutdownInternalEN8dispatch5groupEN3ctu2cf11CFSharedRefIK14__CFDictionaryEE,
                            __ZN3abm19BasebandTracingTask16snapshotInternalEN8dispatch5groupEN3ctu2cf11CFSharedRefIK14__CFDictionaryEE,
                            __ZN3abm19BasebandTracingTask17commandResetModemE9ResetInfo,
                            __ZN3abm19BasebandTracingTask18setLastCrashReasonENSt3__112basic_stringIcNS1_11char_traitsIcEENS1_9allocatorIcEEEEN8dispatch8callbackIU13block_pointerFviN3xpc4dictEEEE,
                            __ZN3abm19BasebandTracingTask19setPropertyInternalEN8dispatch5groupERKNSt3__112basic_stringIcNS3_11char_traitsIcEENS3_9allocatorIcEEEESB_SB_,
                            __ZN3abm19BasebandTracingTask20createLogFolderPathsEv,
                            __ZN3abm19BasebandTracingTask20exitLowPowerInternalEN8dispatch5groupE,
                            __ZN3abm19BasebandTracingTask21commandReportStatsAWDEN3xpc4dictE,
                            __ZN3abm19BasebandTracingTask21enterLowPowerInternalEN8dispatch5groupE,
                            __ZN3abm19BasebandTracingTask21stopTraceRunLoop_syncEv,
                            __ZN3abm19BasebandTracingTask22createDumpingFile_syncEv,
                            __ZN3abm19BasebandTracingTask22removeDumpingFile_syncEi,
                            __ZN3abm19BasebandTracingTask22startTraceRunLoop_syncEv,
                            __ZN3abm19BasebandTracingTask23sServerTraceRunLoopMainEPv,
                            __ZN3abm19BasebandTracingTask7getNameEv,
                            __ZN3abm19BasebandTracingTask9addTracesEv,
                            __ZN3abm19BasebandTracingTask9init_syncEv,
                            __ZN3abm19BasebandTracingTask9stop_syncEv,
                            __ZN3abm19BasebandTracingTaskC1ENS_6helper6TaskIDENSt3__110shared_ptrIN3ctu9LogServerEEENS3_8weak_ptrINS_20HelperServerInternalEEE,
                            __ZN3abm19BasebandTracingTaskC2ENS_6helper6TaskIDENSt3__110shared_ptrIN3ctu9LogServerEEENS3_8weak_ptrINS_20HelperServerInternalEEE,
                            __ZN3abm19BasebandTracingTaskD0Ev,
                            __ZN3abm19BasebandTracingTaskD1Ev,
                            __ZN3abm19BasebandTracingTaskD2Ev,
                            __ZN3abm19CellularLoggingTask20isUserAgreeLegalInfoEv,
                            __ZN3abm19CellularLoggingTask23isCarrierBundleKeyExistEv,
                            __ZN3abm19CellularLoggingTask7getNameEv,
                            __ZN3abm19CellularLoggingTask9init_syncEv,
                            __ZN3abm19CellularLoggingTaskC1ENS_6helper6TaskIDENSt3__110shared_ptrIN3ctu9LogServerEEENS3_8weak_ptrINS_20HelperServerInternalEEE,
                            __ZN3abm19CellularLoggingTaskC2ENS_6helper6TaskIDENSt3__110shared_ptrIN3ctu9LogServerEEENS3_8weak_ptrINS_20HelperServerInternalEEE,
                            __ZN3abm19CellularLoggingTaskD0Ev,
                            __ZN3abm19CellularLoggingTaskD1Ev,
                            __ZN3abm19CellularLoggingTaskD2Ev,
                            __ZN3abm19DiagnosticToolsTask13tailspin_syncENSt3__112basic_stringIcNS1_11char_traitsIcEENS1_9allocatorIcEEEES7_i,
                            __ZN3abm19DiagnosticToolsTask7getNameEv,
                            __ZN3abm19DiagnosticToolsTask9init_syncEv,
                            __ZN3abm19DiagnosticToolsTaskC1ENS_6helper6TaskIDENSt3__110shared_ptrIN3ctu9LogServerEEENS3_8weak_ptrINS_20HelperServerInternalEEE,
                            __ZN3abm19DiagnosticToolsTaskC2ENS_6helper6TaskIDENSt3__110shared_ptrIN3ctu9LogServerEEENS3_8weak_ptrINS_20HelperServerInternalEEE,
                            __ZN3abm19DiagnosticToolsTaskD0Ev,
                            __ZN3abm19DiagnosticToolsTaskD1Ev,
                            __ZN3abm19DiagnosticToolsTaskD2Ev,
                            __ZN3abm19baseDirectoryStringENS_7BaseDirE,
                            __ZN3abm19kKeyBootSessionUUIDE,
                            __ZN3abm19kKeyTraceConfigPathE,
                            __ZN3abm19kKeyTraceFilterTypeE,
                            __ZN3abm20HelperServerInternal10getRunLoopEv,
                            __ZN3abm20HelperServerInternal17setCommandHandlerENSt3__112basic_stringIcNS1_11char_traitsIcEENS1_9allocatorIcEEEEN8dispatch8callbackIU13block_pointerFvN12TelephonyXPC17ServerClientStateEN3xpc4dictENS9_IU13block_pointerFviSD_EEEEEE,
                            __ZN3abm20HelperServerInternal28sendCommandToBasebandManagerENSt3__112basic_stringIcNS1_11char_traitsIcEENS1_9allocatorIcEEEEN3xpc4dictEU13block_pointerFvN12TelephonyXPC6ResultEPvE,
                            __ZN3abm20HelperServerInternal4initEv,
                            __ZN3abm20HelperServerInternal4stopEv,
                            __ZN3abm20HelperServerInternal5startEv,
                            __ZN3abm20HelperServerInternal6createENSt3__110shared_ptrIN3ctu9LogServerEEE,
                            __ZN3abm20HelperServerInternal6isBusyEv,
                            __ZN3abm20HelperServerInternalC1ENSt3__110shared_ptrIN3ctu9LogServerEEE,
                            __ZN3abm20HelperServerInternalC2ENSt3__110shared_ptrIN3ctu9LogServerEEE,
                            __ZN3abm20HelperServerInternalD0Ev,
                            __ZN3abm20HelperServerInternalD1Ev,
                            __ZN3abm20HelperServerInternalD2Ev,
                            __ZN3abm20kCollectBasebandLogsE,
                            __ZN3abm20kKeyTraceDataLoggingE,
                            __ZN3abm20kKeyTraceFilterValueE,
                            __ZN3abm20kKeyTracePayloadSizeE,
                            __ZN3abm20kKeyTraceTimeToPurgeE,
                            __ZN3abm21CellularLoggingCommon11changeStateEb,
                            __ZN3abm21CellularLoggingCommon11getPropertyENSt3__112basic_stringIcNS1_11char_traitsIcEENS1_9allocatorIcEEEE,
                            __ZN3abm21CellularLoggingCommon11setPropertyENSt3__112basic_stringIcNS1_11char_traitsIcEENS1_9allocatorIcEEEES7_,
                            __ZN3abm21CellularLoggingCommon5startEN3xpc4dictE,
                            __ZN3abm21CellularLoggingCommon6createENSt3__110shared_ptrIN3ctu9LogServerEEENS1_8weak_ptrINS_20HelperServerInternalEEEN8dispatch5queueE,
                            __ZN3abm21CellularLoggingCommon9isStartedEv,
                            __ZN3abm21CellularLoggingCommonC2ENSt3__110shared_ptrIN3ctu9LogServerEEENS1_8weak_ptrINS_20HelperServerInternalEEEN8dispatch5queueE,
                            __ZN3abm21CellularLoggingCommonD0Ev,
                            __ZN3abm21CellularLoggingCommonD1Ev,
                            __ZN3abm21CellularLoggingCommonD2Ev,
                            __ZN3abm21ProfileManagementTask14isProfileValidEj,
                            __ZN3abm21ProfileManagementTask16readProfile_syncEv,
                            __ZN3abm21ProfileManagementTask21installMCProfile_syncEPKcb,
                            __ZN3abm21ProfileManagementTask23uninstallMCProfile_syncEPKcN8dispatch8callbackIU13block_pointerFviN3xpc4dictEEEE,
                            __ZN3abm21ProfileManagementTask24getProfileInfoIndex_syncEPKc,
                            __ZN3abm21ProfileManagementTask24wasProfileInstalled_syncEv,
                            __ZN3abm21ProfileManagementTask25applyTraceProperties_syncEN3xpc5arrayE,
                            __ZN3abm21ProfileManagementTask25getProfileIdentifier_syncEj,
                            __ZN3abm21ProfileManagementTask26isAllowedToOverrideProfileEj,
                            __ZN3abm21ProfileManagementTask28checkifProfileInstalled_syncEPKcRi,
                            __ZN3abm21ProfileManagementTask29convertToTraceProperties_syncEN3xpc4dictEb,
                            __ZN3abm21ProfileManagementTask29registerForNotifications_syncEv,
                            __ZN3abm21ProfileManagementTask37showMCProfileInstallNotification_syncEPKc,
                            __ZN3abm21ProfileManagementTask49updateDefaultCarrierProfileInstalledProperty_syncEv,
                            __ZN3abm21ProfileManagementTask7getNameEv,
                            __ZN3abm21ProfileManagementTask9init_syncEv,
                            __ZN3abm21ProfileManagementTaskC1ENS_6helper6TaskIDENSt3__110shared_ptrIN3ctu9LogServerEEENS3_8weak_ptrINS_20HelperServerInternalEEE,
                            __ZN3abm21ProfileManagementTaskC2ENS_6helper6TaskIDENSt3__110shared_ptrIN3ctu9LogServerEEENS3_8weak_ptrINS_20HelperServerInternalEEE,
                            __ZN3abm21ProfileManagementTaskD0Ev,
                            __ZN3abm21ProfileManagementTaskD1Ev,
                            __ZN3abm21ProfileManagementTaskD2Ev,
                            __ZN3abm21kCollectTelephonyLogsE,
                            __ZN3abm21kKeyTraceFilterActionE,
                            __ZN3abm21kKeyTracePrivacyLevelE,
                            __ZN3abm21kKeyTracePropertyNameE,
                            __ZN3abm21kTraceFilterFreeSpaceE,
                            __ZN3abm22kCommandTraceDumpStateE,
                            __ZN3abm22kKeyTraceDumpStatePathE,
                            __ZN3abm22kKeyTracePropertyValueE,
                            __ZN3abm22kTraceFilterActionLiteE,
                            __ZN3abm22kTraceFilterActionNoneE,
                            __ZN3abm23kCommandGetDataPropertyE,
                            __ZN3abm23kCommandSetDataPropertyE,
                            __ZN3abm23kEventTraceDumpStateEndE,
                            __ZN3abm23kKeyTraceSettingsDeviceE,
                            __ZN3abm23kKeyTransportIOReadSizeE,
                            __ZN3abm23kTraceFilterMaxLogLimitE,
                            __ZN3abm24kCommandGetTracePropertyE,
                            __ZN3abm24kCommandSetTracePropertyE,
                            __ZN3abm24kKeyTraceDumpStateReasonE,
                            __ZN3abm24kKeyTraceKeepScratchLogsE,
                            __ZN3abm24kKeyTraceSettingsVersionE,
                            __ZN3abm24kKeyTraceSleepConfigFileE,
                            __ZN3abm24kKeyTransportIOReadCountE,
                            __ZN3abm25kEventTraceDumpStateBeginE,
                            __ZN3abm25kEventTraceDumpStateOsLogE,
                            __ZN3abm25kEventTracePropertyUpdateE,
                            __ZN3abm25kKeyTraceSettingsSelectedE,
                            __ZN3abm25kKeyTraceTailspinDurationE,
                            __ZN3abm25kKeyTraceUserConfirmationE,
                            __ZN3abm26kKeyTracePrimaryConfigFileE,
                            __ZN3abm27kCollectCommCenterCrashLogsE,
                            __ZN3abm27kKeyTraceAttachmentAgeLimitE,
                            __ZN3abm27kKeyTraceMaxMemoryFileCountE,
                            __ZN3abm28kEventTracePostProcessingEndE,
                            __ZN3abm28kKeyTraceSecondaryConfigFileE,
                            __ZN3abm30kCommandTraceDumpStateInternalE,
                            __ZN3abm30kKeyTraceDumpStateSplitArchiveE,
                            __ZN3abm32kCommandGetTracePropertyInternalE,
                            __ZN3abm32kCommandSetTracePropertyInternalE,
                            __ZN3abm33kCollectTelephonyLogsWithCoredumpE,
                            __ZN3abm34kKeyTracePropertyWaitForCompletionE,
                            __ZN3abm36kKeyTraceCarrierCellularLoggingName1E,
                            __ZN3abm36kKeyTraceCarrierCellularLoggingName2E,
                            __ZN3abm36kKeyTraceDumpStatePerformCompressionE,
                            __ZN3abm36kTraceInstalledCarrierProfileVersionE,
                            __ZN3abm38kKeyTraceCarrierCellularLoggingAllowedE,
                            __ZN3abm39kTraceFilterDuplicateSignatureDetectionE,
                            __ZN3abm4data12DataPropertyINS0_13DataPowerSaveEE16createDictForGetEv,
                            __ZN3abm4data12DataPropertyINS0_13DataPowerSaveEE6createEN3xpc4dictE,
                            __ZN3abm4data12DataPropertyINS0_13DataPowerSaveEE6createEj,
                            __ZN3abm4data12DataPropertyINS0_15DataFlowControlEE16createDictForGetEv,
                            __ZN3abm4data12DataPropertyINS0_15DataFlowControlEE6createEN3xpc4dictE,
                            __ZN3abm4data12DataPropertyINS0_15DataFlowControlEE6createEj,
                            __ZN3abm4data12DataPropertyINS0_22DataAggregationMaxSizeEE16createDictForGetEv,
                            __ZN3abm4data12DataPropertyINS0_22DataAggregationMaxSizeEE6createEN3xpc4dictE,
                            __ZN3abm4data12DataPropertyINS0_22DataAggregationMaxSizeEE6createEj,
                            __ZN3abm4data12DataPropertyINS0_23DataAggregationProtocolEE16createDictForGetEv,
                            __ZN3abm4data12DataPropertyINS0_23DataAggregationProtocolEE6createEN3xpc4dictE,
                            __ZN3abm4data12DataPropertyINS0_23DataAggregationProtocolEE6createEj,
                            __ZN3abm4data12DataPropertyINS0_27DataAggregationMaxDatagramsEE16createDictForGetEv,
                            __ZN3abm4data12DataPropertyINS0_27DataAggregationMaxDatagramsEE6createEN3xpc4dictE,
                            __ZN3abm4data12DataPropertyINS0_27DataAggregationMaxDatagramsEE6createEj,
                            __ZN3abm4data13DataPowerSave6toDictEv,
                            __ZN3abm4data13DataPowerSave9addToDictERN3xpc4dictE,
                            __ZN3abm4data15DataFlowControl6toDictEv,
                            __ZN3abm4data15DataFlowControl9addToDictERN3xpc4dictE,
                            __ZN3abm4data22DataAggregationMaxSize6toDictEv,
                            __ZN3abm4data22DataAggregationMaxSize9addToDictERN3xpc4dictE,
                            __ZN3abm4data23DataAggregationProtocol6toDictEv,
                            __ZN3abm4data23DataAggregationProtocol8asStringEv,
                            __ZN3abm4data23DataAggregationProtocol9addToDictERN3xpc4dictE,
                            __ZN3abm4data27DataAggregationMaxDatagrams6toDictEv,
                            __ZN3abm4data27DataAggregationMaxDatagrams9addToDictERN3xpc4dictE,
                            __ZN3abm4data27getDataPropertyNameFromDictEN3xpc4dictE,
                            __ZN3abm4data27getDataPropertyTypeFromDictEN3xpc4dictE,
                            __ZN3abm5debug17registerLogServerENSt3__110shared_ptrIN3ctu9LogServerEEE,
                            __ZN3abm5trace10kKernelPCIE,
                            __ZN3abm5trace11isSupportedENSt3__112basic_stringIcNS1_11char_traitsIcEENS1_9allocatorIcEEEE,
                            __ZN3abm5trace11kSystemLogsE,
                            __ZN3abm5trace11kTapToRadarE,
                            __ZN3abm5trace12kBasebandIPCE,
                            __ZN3abm5trace12kCompressionE,
                            __ZN3abm5trace12kEURCoreDumpE,
                            __ZN3abm5trace12kTailspinExtE,
                            __ZN3abm5trace12kTraceFilterE,
                            __ZN3abm5trace12kTrashFolderE,
                            __ZN3abm5trace13kLogDirPrefixE,
                            __ZN3abm5trace14kBasebandTraceE,
                            __ZN3abm5trace14kScratchFolderE,
                            __ZN3abm5trace14kTraceSettingsE,
                            __ZN3abm5trace14kTraceTailspinE,
                            __ZN3abm5trace15kSnapshotFolderE,
                            __ZN3abm5trace16kLogPrefixCommonE,
                            __ZN3abm5trace16kLogTarExtensionE,
                            __ZN3abm5trace17kLogArchiveSuffixE,
                            __ZN3abm5trace17kLogCCCrashPrefixE,
                            __ZN3abm5trace18kLogTarGzExtensionE,
                            __ZN3abm5trace18kSysdiagnoseFolderE,
                            __ZN3abm5trace18kSysdiagnosePrefixE,
                            __ZN3abm5trace19kUncompressedFolderE,
                            __ZN3abm5trace20getCoreDumpDirSuffixEv,
                            __ZN3abm5trace20kLiteDirectorySuffixE,
                            __ZN3abm5trace22kCommCenterCrashReasonE,
                            __ZN3abm5trace23kABMLogSummaryExtensionE,
                            __ZN3abm5trace23kDumpIndicationFilePathE,
                            __ZN3abm5trace25getBasebandTraceDirSuffixEb,
                            __ZN3abm5trace25kPendingCompressionFolderE,
                            __ZN3abm5trace26kMobileCrashReporterFolderE,
                            __ZN3abm5trace27kNumberOfLogsInSnapshotPathE,
                            __ZN3abm5trace32kCoreDumpSnapshotDirectorySuffixE,
                            __ZN3abm5trace32kEURTraceSnapshotDirectorySuffixE,
                            __ZN3abm5trace32kICETraceSnapshotDirectorySuffixE,
                            __ZN3abm5trace33kDiagnosticExtensionDumpingReasonE,
                            __ZN3abm5trace35kEURCoreDumpSnapshotDirectorySuffixE,
                            __ZN3abm5trace36kEURQDSSTraceSnapshotDirectorySuffixE,
                            __ZN3abm5trace4kIPCE, __ZN3abm5trace5kDIAGE,
                            __ZN3abm5trace8kProfileE, __ZN3abm5trace9kCoreDumpE,
                            __ZN3abm5trace9kICETraceE,
                            __ZN3abm6helper10kKeyLogExtE,
                            __ZN3abm6helper10kKeyTaskIDE,
                            __ZN3abm6helper10kKeyUserIDE,
                            __ZN3abm6helper11kKeyEnabledE,
                            __ZN3abm6helper11kKeyHistoryE,
                            __ZN3abm6helper11kKeyLogPathE,
                            __ZN3abm6helper11kKeyTimeoutE,
                            __ZN3abm6helper12kKeyDurationE,
                            __ZN3abm6helper12kKeyFileSizeE,
                            __ZN3abm6helper12kKeyUserNameE,
                            __ZN3abm6helper13getUserConfigENS0_6UserIDE,
                            __ZN3abm6helper13kKeyFoundListE,
                            __ZN3abm6helper13kKeyGUIDListsE,
                            __ZN3abm6helper13kKeyRadarTypeE,
                            __ZN3abm6helper13kKeyTraceNameE,
                            __ZN3abm6helper14DaemonObserver17handleDaemonReadyEv,
                            __ZN3abm6helper14DaemonObserver35handleDaemonReadyNotificationStaticEP22__CFNotificationCenterPvPK10__CFStringPKvPK14__CFDictionary,
                            __ZN3abm6helper14DaemonObserver4initEv,
                            __ZN3abm6helper14DaemonObserverC1ENS0_6UserIDEN8dispatch8callbackIU13block_pointerFvN12TelephonyXPC6ResultEN3xpc4dictEEEE,
                            __ZN3abm6helper14DaemonObserverC2ENS0_6UserIDEN8dispatch8callbackIU13block_pointerFvN12TelephonyXPC6ResultEN3xpc4dictEEEE,
                            __ZN3abm6helper14DaemonObserverD1Ev,
                            __ZN3abm6helper14DaemonObserverD2Ev,
                            __ZN3abm6helper14getUserForTaskENS0_6TaskIDE,
                            __ZN3abm6helper14kKeyConfigNameE,
                            __ZN3abm6helper14kKeyRadarTitleE,
                            __ZN3abm6helper15getTasksForUserENS0_6UserIDE,
                            __ZN3abm6helper15kCommandLogMoveE,
                            __ZN3abm6helper15kKeyAppBundleIDE,
                            __ZN3abm6helper15kKeyConfigListsE,
                            __ZN3abm6helper15kKeyDIAGIDListsE,
                            __ZN3abm6helper15kKeyPackagePathE,
                            __ZN3abm6helper15kKeyProcessNameE,
                            __ZN3abm6helper15kKeyProfileNameE,
                            __ZN3abm6helper15kKeyPropertyKeyE,
                            __ZN3abm6helper15kKeyRadarActionE,
                            __ZN3abm6helper16getLoggingDomainENS0_6TaskIDE,
                            __ZN3abm6helper16kCommandTailspinE,
                            __ZN3abm6helper16kKeyCurrentIndexE,
                            __ZN3abm6helper16kKeyRadarMessageE,
                            __ZN3abm6helper16kKeySplitArchiveE,
                            __ZN3abm6helper17kCommandDumpStateE,
                            __ZN3abm6helper17kCommandLogDeleteE,
                            __ZN3abm6helper17kCommandTraceStopE,
                            __ZN3abm6helper17kKeyAllowToDeleteE,
                            __ZN3abm6helper17kKeyConfigHistoryE,
                            __ZN3abm6helper17kKeyPropertyValueE,
                            __ZN3abm6helper18kCommandTraceAbortE,
                            __ZN3abm6helper18kCommandTraceFlushE,
                            __ZN3abm6helper18kCommandTraceStartE,
                            __ZN3abm6helper18kKeyProfileVersionE,
                            __ZN3abm6helper19kCommandCollectLogsE,
                            __ZN3abm6helper19kCommandGetPropertyE,
                            __ZN3abm6helper19kCommandReadProfileE,
                            __ZN3abm6helper19kCommandSetPropertyE,
                            __ZN3abm6helper19kCommandTraceReinitE,
                            __ZN3abm6helper19kKeyDumpStateReasonE,
                            __ZN3abm6helper19kKeyMatchingPatternE,
                            __ZN3abm6helper19kKeySysdiagnosePathE,
                            __ZN3abm6helper19kKeyTimestampStringE,
                            __ZN3abm6helper20kCommandApplyProfileE,
                            __ZN3abm6helper20kCommandPrepareRadarE,
                            __ZN3abm6helper20kCommandTracePrepareE,
                            __ZN3abm6helper20kKeyArchiveSourceDirE,
                            __ZN3abm6helper20kKeyMaxNumberOfFilesE,
                            __ZN3abm6helper20kKeyRadarAttachmentsE,
                            __ZN3abm6helper21kCommandCreateArchiveE,
                            __ZN3abm6helper21kCommandTraceShutdownE,
                            __ZN3abm6helper21kKeyLiveFilterSettingE,
                            __ZN3abm6helper22kCommandInstallProfileE,
                            __ZN3abm6helper22kKeyLiveFilterFileSizeE,
                            __ZN3abm6helper22kKeyProfileIsInstalledE,
                            __ZN3abm6helper23kKeyArchiveDestFileNameE,
                            __ZN3abm6helper23kKeyBasebandCrashReasonE,
                            __ZN3abm6helper24kBasebandLogDEHelperNameE,
                            __ZN3abm6helper24kCommandUninstallProfileE,
                            __ZN3abm6helper24kKeyAllRequiredLogsFoundE,
                            __ZN3abm6helper25getDaemonNotificationNameENS0_6UserIDE,
                            __ZN3abm6helper25kCommandOsLogTextSnapshotE,
                            __ZN3abm6helper25kCommandSysdiagnoseStatusE,
                            __ZN3abm6helper25kCommandTraceExitLowPowerE,
                            __ZN3abm6helper26kCommandGetLastCrashReasonE,
                            __ZN3abm6helper26kCommandSetLastCrashReasonE,
                            __ZN3abm6helper26kCommandTraceEnterLowPowerE,
                            __ZN3abm6helper27kCarrierCellularLoggingNameE,
                            __ZN3abm6helper27kCommandCellularLoggingStopE,
                            __ZN3abm6helper27kCommandCollectBasebandLogsE,
                            __ZN3abm6helper27kCommandSysdiagnoseSnapshotE,
                            __ZN3abm6helper27kKeyRequireUserConfirmationE,
                            __ZN3abm6helper28kCommandCellularLoggingPauseE,
                            __ZN3abm6helper28kCommandCellularLoggingStartE,
                            __ZN3abm6helper28kCommandOsLogArchiveSnapshotE,
                            __ZN3abm6helper28kDefaultDELoggingProfileNameE,
                            __ZN3abm6helper29kCommandCellularLoggingResumeE,
                            __ZN3abm6helper29kCommandOsLogProcessingStatusE,
                            __ZN3abm6helper31kCommandCheckIfProfileInstalledE,
                            __ZN3abm6helper31kCommandGetBasebandSnapshotLogsE,
                            __ZN3abm6helper33kDefaultCarrierLoggingProfileNameE,
                            __ZN3abm6helper37kCommandCellularLoggingGetConfigListsE,
                            __ZN3abm6helper37kCommandCellularLoggingSetAppBundleIDE,
                            __ZN3abm6helper38kCommandCellularLoggingGetCurrentIndexE,
                            __ZN3abm6helper6asEnumEPKc, __ZN3abm6helper6kKeySEE,
                            __ZN3abm6helper8asStringEN12capabilities5trace15CompressionModeE,
                            __ZN3abm6helper8asStringENS0_13LoggingConfigE,
                            __ZN3abm6helper8asStringENS0_14SystemLogsModeE,
                            __ZN3abm6helper8asStringENS0_6TaskIDE,
                            __ZN3abm6helper8asStringENS0_6UserIDE,
                            __ZN3abm6helper8asStringENS0_9RadarTypeE,
                            __ZN3abm6helper8kKeyModeE,
                            __ZN3abm8asStringENS_11ArchiveTypeE,
                            __ZN3abm8asStringENSt3__110shared_ptrINS_14FilePropertiesEEE,
                            __ZN3abm8kTraceBBE,
                            __ZN3abm8tailspin26dumpOutputWithOptions_syncENSt3__112basic_stringIcNS1_11char_traitsIcEENS1_9allocatorIcEEEES7_i,
                            __ZN3abm9findFilesERKNSt3__16vectorINS_14DirectoryQueryENS0_9allocatorIS2_EEEEb,
                            __ZN3abm9kTraceIPCE,
                            __ZN3bsp10parseFieldEPKhS1_RNS_18WakeReasonChannelsE,
                            __ZN3bsp10writeFieldEPhNS_18WakeReasonChannelsE,
                            __ZN3bsp12getFieldSizeENS_18WakeReasonChannelsE,
                            __ZN3bsp3tlv3abm10parseFieldEPKhS3_RNS1_10ARTDConfigE,
                            __ZN3bsp3tlv3abm10parseFieldEPKhS3_RNS1_10BlockIndexE,
                            __ZN3bsp3tlv3abm10parseFieldEPKhS3_RNS1_10DIAGConfigE,
                            __ZN3bsp3tlv3abm10parseFieldEPKhS3_RNS1_10DIAGWMHighE,
                            __ZN3bsp3tlv3abm10parseFieldEPKhS3_RNS1_10ReadStatusE,
                            __ZN3bsp3tlv3abm10parseFieldEPKhS3_RNS1_10WakeBufferE,
                            __ZN3bsp3tlv3abm10parseFieldEPKhS3_RNS1_10WakeReasonE,
                            __ZN3bsp3tlv3abm10parseFieldEPKhS3_RNS1_11CommandCodeE,
                            __ZN3bsp3tlv3abm10parseFieldEPKhS3_RNS1_11CrashReasonE,
                            __ZN3bsp3tlv3abm10parseFieldEPKhS3_RNS1_11MeasureTypeE,
                            __ZN3bsp3tlv3abm10parseFieldEPKhS3_RNS1_11PayloadRFFEE,
                            __ZN3bsp3tlv3abm10parseFieldEPKhS3_RNS1_11RegionIndexE,
                            __ZN3bsp3tlv3abm10parseFieldEPKhS3_RNS1_11SleepConfigE,
                            __ZN3bsp3tlv3abm10parseFieldEPKhS3_RNS1_11TestTimeoutE,
                            __ZN3bsp3tlv3abm10parseFieldEPKhS3_RNS1_11WakeChannelE,
                            __ZN3bsp3tlv3abm10parseFieldEPKhS3_RNS1_12ARTDConfigV2E,
                            __ZN3bsp3tlv3abm10parseFieldEPKhS3_RNS1_12CapabilitiesE,
                            __ZN3bsp3tlv3abm10parseFieldEPKhS3_RNS1_12DIAGPresetIDE,
                            __ZN3bsp3tlv3abm10parseFieldEPKhS3_RNS1_12TriggerErrorE,
                            __ZN3bsp3tlv3abm10parseFieldEPKhS3_RNS1_13DIAGBufferingE,
                            __ZN3bsp3tlv3abm10parseFieldEPKhS3_RNS1_14SecurityStatusE,
                            __ZN3bsp3tlv3abm10parseFieldEPKhS3_RNS1_15ARFCNLockConfigE,
                            __ZN3bsp3tlv3abm10parseFieldEPKhS3_RNS1_15DIAGActiveIfaceE,
                            __ZN3bsp3tlv3abm10parseFieldEPKhS3_RNS1_15FieldTestConfigE,
                            __ZN3bsp3tlv3abm10parseFieldEPKhS3_RNS1_15RFSelfTestNonceE,
                            __ZN3bsp3tlv3abm10parseFieldEPKhS3_RNS1_15TxAntennaConfigE,
                            __ZN3bsp3tlv3abm10parseFieldEPKhS3_RNS1_16CapabilitiesItemE,
                            __ZN3bsp3tlv3abm10parseFieldEPKhS3_RNS1_16EARFCNLockConfigE,
                            __ZN3bsp3tlv3abm10parseFieldEPKhS3_RNS1_16RFSelfTestTicketE,
                            __ZN3bsp3tlv3abm10parseFieldEPKhS3_RNS1_16UARFCNLockConfigE,
                            __ZN3bsp3tlv3abm10parseFieldEPKhS3_RNS1_16WakeBufferLengthE,
                            __ZN3bsp3tlv3abm10parseFieldEPKhS3_RNS1_17FieldTestConfigV2E,
                            __ZN3bsp3tlv3abm10parseFieldEPKhS3_RNS1_17RxDiversityConfigE,
                            __ZN3bsp3tlv3abm10parseFieldEPKhS3_RNS1_18CarrierAgreggationE,
                            __ZN3bsp3tlv3abm10parseFieldEPKhS3_RNS1_19CoreDumpEnabledTypeE,
                            __ZN3bsp3tlv3abm10parseFieldEPKhS3_RNS1_19RxDiversityConfigV2E,
                            __ZN3bsp3tlv3abm10parseFieldEPKhS3_RNS1_24CarrierAgreggationConfigE,
                            __ZN3bsp3tlv3abm10parseFieldEPKhS3_RNS1_25CoreDumpCrashReasonA5LineE,
                            __ZN3bsp3tlv3abm10parseFieldEPKhS3_RNS1_25CoreDumpCrashReasonQ6LineE,
                            __ZN3bsp3tlv3abm10parseFieldEPKhS3_RNS1_27CoreDumpCrashReasonA5StringE,
                            __ZN3bsp3tlv3abm10parseFieldEPKhS3_RNS1_27CoreDumpCrashReasonQ6StringE,
                            __ZN3bsp3tlv3abm10parseFieldEPKhS3_RNS1_4ARTDE,
                            __ZN3bsp3tlv3abm10parseFieldEPKhS3_RNS1_4PortE,
                            __ZN3bsp3tlv3abm10parseFieldEPKhS3_RNS1_4SizeE,
                            __ZN3bsp3tlv3abm10parseFieldEPKhS3_RNS1_6ARTDV2E,
                            __ZN3bsp3tlv3abm10parseFieldEPKhS3_RNS1_6EnableE,
                            __ZN3bsp3tlv3abm10parseFieldEPKhS3_RNS1_7LogDataE,
                            __ZN3bsp3tlv3abm10parseFieldEPKhS3_RNS1_9ARFCNLockE,
                            __ZN3bsp3tlv3abm10parseFieldEPKhS3_RNS1_9ChannelIDE,
                            __ZN3bsp3tlv3abm10parseFieldEPKhS3_RNS1_9DIAGWMLowE,
                            __ZN3bsp3tlv3abm10writeFieldEPhRKNS1_10ARTDConfigE,
                            __ZN3bsp3tlv3abm10writeFieldEPhRKNS1_10BlockIndexE,
                            __ZN3bsp3tlv3abm10writeFieldEPhRKNS1_10DIAGConfigE,
                            __ZN3bsp3tlv3abm10writeFieldEPhRKNS1_10DIAGWMHighE,
                            __ZN3bsp3tlv3abm10writeFieldEPhRKNS1_10ReadStatusE,
                            __ZN3bsp3tlv3abm10writeFieldEPhRKNS1_10WakeBufferE,
                            __ZN3bsp3tlv3abm10writeFieldEPhRKNS1_10WakeReasonE,
                            __ZN3bsp3tlv3abm10writeFieldEPhRKNS1_11CommandCodeE,
                            __ZN3bsp3tlv3abm10writeFieldEPhRKNS1_11CrashReasonE,
                            __ZN3bsp3tlv3abm10writeFieldEPhRKNS1_11MeasureTypeE,
                            __ZN3bsp3tlv3abm10writeFieldEPhRKNS1_11PayloadRFFEE,
                            __ZN3bsp3tlv3abm10writeFieldEPhRKNS1_11RegionIndexE,
                            __ZN3bsp3tlv3abm10writeFieldEPhRKNS1_11SleepConfigE,
                            __ZN3bsp3tlv3abm10writeFieldEPhRKNS1_11TestTimeoutE,
                            __ZN3bsp3tlv3abm10writeFieldEPhRKNS1_11WakeChannelE,
                            __ZN3bsp3tlv3abm10writeFieldEPhRKNS1_12ARTDConfigV2E,
                            __ZN3bsp3tlv3abm10writeFieldEPhRKNS1_12CapabilitiesE,
                            __ZN3bsp3tlv3abm10writeFieldEPhRKNS1_12DIAGPresetIDE,
                            __ZN3bsp3tlv3abm10writeFieldEPhRKNS1_12TriggerErrorE,
                            __ZN3bsp3tlv3abm10writeFieldEPhRKNS1_13DIAGBufferingE,
                            __ZN3bsp3tlv3abm10writeFieldEPhRKNS1_14SecurityStatusE,
                            __ZN3bsp3tlv3abm10writeFieldEPhRKNS1_15ARFCNLockConfigE,
                            __ZN3bsp3tlv3abm10writeFieldEPhRKNS1_15DIAGActiveIfaceE,
                            __ZN3bsp3tlv3abm10writeFieldEPhRKNS1_15FieldTestConfigE,
                            __ZN3bsp3tlv3abm10writeFieldEPhRKNS1_15RFSelfTestNonceE,
                            __ZN3bsp3tlv3abm10writeFieldEPhRKNS1_15TxAntennaConfigE,
                            __ZN3bsp3tlv3abm10writeFieldEPhRKNS1_16CapabilitiesItemE,
                            __ZN3bsp3tlv3abm10writeFieldEPhRKNS1_16EARFCNLockConfigE,
                            __ZN3bsp3tlv3abm10writeFieldEPhRKNS1_16RFSelfTestTicketE,
                            __ZN3bsp3tlv3abm10writeFieldEPhRKNS1_16UARFCNLockConfigE,
                            __ZN3bsp3tlv3abm10writeFieldEPhRKNS1_16WakeBufferLengthE,
                            __ZN3bsp3tlv3abm10writeFieldEPhRKNS1_17FieldTestConfigV2E,
                            __ZN3bsp3tlv3abm10writeFieldEPhRKNS1_17RxDiversityConfigE,
                            __ZN3bsp3tlv3abm10writeFieldEPhRKNS1_18CarrierAgreggationE,
                            __ZN3bsp3tlv3abm10writeFieldEPhRKNS1_19CoreDumpEnabledTypeE,
                            __ZN3bsp3tlv3abm10writeFieldEPhRKNS1_19RxDiversityConfigV2E,
                            __ZN3bsp3tlv3abm10writeFieldEPhRKNS1_24CarrierAgreggationConfigE,
                            __ZN3bsp3tlv3abm10writeFieldEPhRKNS1_25CoreDumpCrashReasonA5LineE,
                            __ZN3bsp3tlv3abm10writeFieldEPhRKNS1_25CoreDumpCrashReasonQ6LineE,
                            __ZN3bsp3tlv3abm10writeFieldEPhRKNS1_27CoreDumpCrashReasonA5StringE,
                            __ZN3bsp3tlv3abm10writeFieldEPhRKNS1_27CoreDumpCrashReasonQ6StringE,
                            __ZN3bsp3tlv3abm10writeFieldEPhRKNS1_4ARTDE,
                            __ZN3bsp3tlv3abm10writeFieldEPhRKNS1_4PortE,
                            __ZN3bsp3tlv3abm10writeFieldEPhRKNS1_4SizeE,
                            __ZN3bsp3tlv3abm10writeFieldEPhRKNS1_6ARTDV2E,
                            __ZN3bsp3tlv3abm10writeFieldEPhRKNS1_6EnableE,
                            __ZN3bsp3tlv3abm10writeFieldEPhRKNS1_7LogDataE,
                            __ZN3bsp3tlv3abm10writeFieldEPhRKNS1_9ARFCNLockE,
                            __ZN3bsp3tlv3abm10writeFieldEPhRKNS1_9ChannelIDE,
                            __ZN3bsp3tlv3abm10writeFieldEPhRKNS1_9DIAGWMLowE,
                            __ZN3bsp3tlv3abm12getFieldSizeERKNS1_10ARTDConfigE,
                            __ZN3bsp3tlv3abm12getFieldSizeERKNS1_10BlockIndexE,
                            __ZN3bsp3tlv3abm12getFieldSizeERKNS1_10DIAGConfigE,
                            __ZN3bsp3tlv3abm12getFieldSizeERKNS1_10DIAGWMHighE,
                            __ZN3bsp3tlv3abm12getFieldSizeERKNS1_10ReadStatusE,
                            __ZN3bsp3tlv3abm12getFieldSizeERKNS1_10WakeBufferE,
                            __ZN3bsp3tlv3abm12getFieldSizeERKNS1_10WakeReasonE,
                            __ZN3bsp3tlv3abm12getFieldSizeERKNS1_11CommandCodeE,
                            __ZN3bsp3tlv3abm12getFieldSizeERKNS1_11CrashReasonE,
                            __ZN3bsp3tlv3abm12getFieldSizeERKNS1_11MeasureTypeE,
                            __ZN3bsp3tlv3abm12getFieldSizeERKNS1_11PayloadRFFEE,
                            __ZN3bsp3tlv3abm12getFieldSizeERKNS1_11RegionIndexE,
                            __ZN3bsp3tlv3abm12getFieldSizeERKNS1_11SleepConfigE,
                            __ZN3bsp3tlv3abm12getFieldSizeERKNS1_11TestTimeoutE,
                            __ZN3bsp3tlv3abm12getFieldSizeERKNS1_11WakeChannelE,
                            __ZN3bsp3tlv3abm12getFieldSizeERKNS1_12ARTDConfigV2E,
                            __ZN3bsp3tlv3abm12getFieldSizeERKNS1_12CapabilitiesE,
                            __ZN3bsp3tlv3abm12getFieldSizeERKNS1_12DIAGPresetIDE,
                            __ZN3bsp3tlv3abm12getFieldSizeERKNS1_12TriggerErrorE,
                            __ZN3bsp3tlv3abm12getFieldSizeERKNS1_13DIAGBufferingE,
                            __ZN3bsp3tlv3abm12getFieldSizeERKNS1_14SecurityStatusE,
                            __ZN3bsp3tlv3abm12getFieldSizeERKNS1_15ARFCNLockConfigE,
                            __ZN3bsp3tlv3abm12getFieldSizeERKNS1_15DIAGActiveIfaceE,
                            __ZN3bsp3tlv3abm12getFieldSizeERKNS1_15FieldTestConfigE,
                            __ZN3bsp3tlv3abm12getFieldSizeERKNS1_15RFSelfTestNonceE,
                            __ZN3bsp3tlv3abm12getFieldSizeERKNS1_15TxAntennaConfigE,
                            __ZN3bsp3tlv3abm12getFieldSizeERKNS1_16CapabilitiesItemE,
                            __ZN3bsp3tlv3abm12getFieldSizeERKNS1_16EARFCNLockConfigE,
                            __ZN3bsp3tlv3abm12getFieldSizeERKNS1_16RFSelfTestTicketE,
                            __ZN3bsp3tlv3abm12getFieldSizeERKNS1_16UARFCNLockConfigE,
                            __ZN3bsp3tlv3abm12getFieldSizeERKNS1_16WakeBufferLengthE,
                            __ZN3bsp3tlv3abm12getFieldSizeERKNS1_17FieldTestConfigV2E,
                            __ZN3bsp3tlv3abm12getFieldSizeERKNS1_17RxDiversityConfigE,
                            __ZN3bsp3tlv3abm12getFieldSizeERKNS1_18CarrierAgreggationE,
                            __ZN3bsp3tlv3abm12getFieldSizeERKNS1_19CoreDumpEnabledTypeE,
                            __ZN3bsp3tlv3abm12getFieldSizeERKNS1_19RxDiversityConfigV2E,
                            __ZN3bsp3tlv3abm12getFieldSizeERKNS1_24CarrierAgreggationConfigE,
                            __ZN3bsp3tlv3abm12getFieldSizeERKNS1_25CoreDumpCrashReasonA5LineE,
                            __ZN3bsp3tlv3abm12getFieldSizeERKNS1_25CoreDumpCrashReasonQ6LineE,
                            __ZN3bsp3tlv3abm12getFieldSizeERKNS1_27CoreDumpCrashReasonA5StringE,
                            __ZN3bsp3tlv3abm12getFieldSizeERKNS1_27CoreDumpCrashReasonQ6StringE,
                            __ZN3bsp3tlv3abm12getFieldSizeERKNS1_4ARTDE,
                            __ZN3bsp3tlv3abm12getFieldSizeERKNS1_4PortE,
                            __ZN3bsp3tlv3abm12getFieldSizeERKNS1_4SizeE,
                            __ZN3bsp3tlv3abm12getFieldSizeERKNS1_6ARTDV2E,
                            __ZN3bsp3tlv3abm12getFieldSizeERKNS1_6EnableE,
                            __ZN3bsp3tlv3abm12getFieldSizeERKNS1_7LogDataE,
                            __ZN3bsp3tlv3abm12getFieldSizeERKNS1_9ARFCNLockE,
                            __ZN3bsp3tlv3abm12getFieldSizeERKNS1_9ChannelIDE,
                            __ZN3bsp3tlv3abm12getFieldSizeERKNS1_9DIAGWMLowE,
                            __ZN3tlv4sizeIN3bsp3tlv3abm10ARTDConfigEEEmRKT_,
                            __ZN3tlv4sizeIN3bsp3tlv3abm10BlockIndexEEEmRKT_,
                            __ZN3tlv4sizeIN3bsp3tlv3abm10DIAGConfigEEEmRKT_,
                            __ZN3tlv4sizeIN3bsp3tlv3abm10DIAGWMHighEEEmRKT_,
                            __ZN3tlv4sizeIN3bsp3tlv3abm10ReadStatusEEEmRKT_,
                            __ZN3tlv4sizeIN3bsp3tlv3abm10WakeBufferEEEmRKT_,
                            __ZN3tlv4sizeIN3bsp3tlv3abm10WakeReasonEEEmRKT_,
                            __ZN3tlv4sizeIN3bsp3tlv3abm11CommandCodeEEEmRKT_,
                            __ZN3tlv4sizeIN3bsp3tlv3abm11CrashReasonEEEmRKT_,
                            __ZN3tlv4sizeIN3bsp3tlv3abm11MeasureTypeEEEmRKT_,
                            __ZN3tlv4sizeIN3bsp3tlv3abm11PayloadRFFEEEEmRKT_,
                            __ZN3tlv4sizeIN3bsp3tlv3abm11RegionIndexEEEmRKT_,
                            __ZN3tlv4sizeIN3bsp3tlv3abm11SleepConfigEEEmRKT_,
                            __ZN3tlv4sizeIN3bsp3tlv3abm11TestTimeoutEEEmRKT_,
                            __ZN3tlv4sizeIN3bsp3tlv3abm11WakeChannelEEEmRKT_,
                            __ZN3tlv4sizeIN3bsp3tlv3abm12ARTDConfigV2EEEmRKT_,
                            __ZN3tlv4sizeIN3bsp3tlv3abm12CapabilitiesEEEmRKT_,
                            __ZN3tlv4sizeIN3bsp3tlv3abm12DIAGPresetIDEEEmRKT_,
                            __ZN3tlv4sizeIN3bsp3tlv3abm12TriggerErrorEEEmRKT_,
                            __ZN3tlv4sizeIN3bsp3tlv3abm13DIAGBufferingEEEmRKT_,
                            __ZN3tlv4sizeIN3bsp3tlv3abm14SecurityStatusEEEmRKT_,
                            __ZN3tlv4sizeIN3bsp3tlv3abm15ARFCNLockConfigEEEmRKT_,
                            __ZN3tlv4sizeIN3bsp3tlv3abm15DIAGActiveIfaceEEEmRKT_,
                            __ZN3tlv4sizeIN3bsp3tlv3abm15FieldTestConfigEEEmRKT_,
                            __ZN3tlv4sizeIN3bsp3tlv3abm15RFSelfTestNonceEEEmRKT_,
                            __ZN3tlv4sizeIN3bsp3tlv3abm15TxAntennaConfigEEEmRKT_,
                            __ZN3tlv4sizeIN3bsp3tlv3abm16CapabilitiesItemEEEmRKT_,
                            __ZN3tlv4sizeIN3bsp3tlv3abm16EARFCNLockConfigEEEmRKT_,
                            __ZN3tlv4sizeIN3bsp3tlv3abm16RFSelfTestTicketEEEmRKT_,
                            __ZN3tlv4sizeIN3bsp3tlv3abm16UARFCNLockConfigEEEmRKT_,
                            __ZN3tlv4sizeIN3bsp3tlv3abm16WakeBufferLengthEEEmRKT_,
                            __ZN3tlv4sizeIN3bsp3tlv3abm17FieldTestConfigV2EEEmRKT_,
                            __ZN3tlv4sizeIN3bsp3tlv3abm17RxDiversityConfigEEEmRKT_,
                            __ZN3tlv4sizeIN3bsp3tlv3abm18CarrierAgreggationEEEmRKT_,
                            __ZN3tlv4sizeIN3bsp3tlv3abm19CoreDumpEnabledTypeEEEmRKT_,
                            __ZN3tlv4sizeIN3bsp3tlv3abm19RxDiversityConfigV2EEEmRKT_,
                            __ZN3tlv4sizeIN3bsp3tlv3abm24CarrierAgreggationConfigEEEmRKT_,
                            __ZN3tlv4sizeIN3bsp3tlv3abm25CoreDumpCrashReasonA5LineEEEmRKT_,
                            __ZN3tlv4sizeIN3bsp3tlv3abm25CoreDumpCrashReasonQ6LineEEEmRKT_,
                            __ZN3tlv4sizeIN3bsp3tlv3abm27CoreDumpCrashReasonA5StringEEEmRKT_,
                            __ZN3tlv4sizeIN3bsp3tlv3abm27CoreDumpCrashReasonQ6StringEEEmRKT_,
                            __ZN3tlv4sizeIN3bsp3tlv3abm4ARTDEEEmRKT_,
                            __ZN3tlv4sizeIN3bsp3tlv3abm4PortEEEmRKT_,
                            __ZN3tlv4sizeIN3bsp3tlv3abm4SizeEEEmRKT_,
                            __ZN3tlv4sizeIN3bsp3tlv3abm6ARTDV2EEEmRKT_,
                            __ZN3tlv4sizeIN3bsp3tlv3abm6EnableEEEmRKT_,
                            __ZN3tlv4sizeIN3bsp3tlv3abm7LogDataEEEmRKT_,
                            __ZN3tlv4sizeIN3bsp3tlv3abm9ARFCNLockEEEmRKT_,
                            __ZN3tlv4sizeIN3bsp3tlv3abm9ChannelIDEEEmRKT_,
                            __ZN3tlv4sizeIN3bsp3tlv3abm9DIAGWMLowEEEmRKT_,
                            __ZN3tlv4sizeIN5ssctl3tlv3abm12ErrorMessageEEEmRKT_,
                            __ZN3tlv4sizeIN5ssctl3tlv3abm13ErrorMessagesEEEmRKT_,
                            __ZN3tlv4sizeIN5ssctl3tlv3abm20ExtendedErrorMessageEEEmRKT_,
                            __ZN3tlv4sizeIN5ssctl3tlv3abm21ExtendedErrorMessagesEEEmRKT_,
                            __ZN3tlv6parseVIN3bsp3tlv3abm10ARTDConfigEEET_RPKhi,
                            __ZN3tlv6parseVIN3bsp3tlv3abm10BlockIndexEEET_RPKhi,
                            __ZN3tlv6parseVIN3bsp3tlv3abm10DIAGConfigEEET_RPKhi,
                            __ZN3tlv6parseVIN3bsp3tlv3abm10DIAGWMHighEEET_RPKhi,
                            __ZN3tlv6parseVIN3bsp3tlv3abm10ReadStatusEEET_RPKhi,
                            __ZN3tlv6parseVIN3bsp3tlv3abm10WakeBufferEEET_RPKhi,
                            __ZN3tlv6parseVIN3bsp3tlv3abm10WakeReasonEEET_RPKhi,
                            __ZN3tlv6parseVIN3bsp3tlv3abm11CommandCodeEEET_RPKhi,
                            __ZN3tlv6parseVIN3bsp3tlv3abm11CrashReasonEEET_RPKhi,
                            __ZN3tlv6parseVIN3bsp3tlv3abm11MeasureTypeEEET_RPKhi,
                            __ZN3tlv6parseVIN3bsp3tlv3abm11PayloadRFFEEEET_RPKhi,
                            __ZN3tlv6parseVIN3bsp3tlv3abm11RegionIndexEEET_RPKhi,
                            __ZN3tlv6parseVIN3bsp3tlv3abm11SleepConfigEEET_RPKhi,
                            __ZN3tlv6parseVIN3bsp3tlv3abm11TestTimeoutEEET_RPKhi,
                            __ZN3tlv6parseVIN3bsp3tlv3abm11WakeChannelEEET_RPKhi,
                            __ZN3tlv6parseVIN3bsp3tlv3abm12ARTDConfigV2EEET_RPKhi,
                            __ZN3tlv6parseVIN3bsp3tlv3abm12CapabilitiesEEET_RPKhi,
                            __ZN3tlv6parseVIN3bsp3tlv3abm12DIAGPresetIDEEET_RPKhi,
                            __ZN3tlv6parseVIN3bsp3tlv3abm12TriggerErrorEEET_RPKhi,
                            __ZN3tlv6parseVIN3bsp3tlv3abm13DIAGBufferingEEET_RPKhi,
                            __ZN3tlv6parseVIN3bsp3tlv3abm14SecurityStatusEEET_RPKhi,
                            __ZN3tlv6parseVIN3bsp3tlv3abm15ARFCNLockConfigEEET_RPKhi,
                            __ZN3tlv6parseVIN3bsp3tlv3abm15DIAGActiveIfaceEEET_RPKhi,
                            __ZN3tlv6parseVIN3bsp3tlv3abm15FieldTestConfigEEET_RPKhi,
                            __ZN3tlv6parseVIN3bsp3tlv3abm15RFSelfTestNonceEEET_RPKhi,
                            __ZN3tlv6parseVIN3bsp3tlv3abm15TxAntennaConfigEEET_RPKhi,
                            __ZN3tlv6parseVIN3bsp3tlv3abm16CapabilitiesItemEEET_RPKhi,
                            __ZN3tlv6parseVIN3bsp3tlv3abm16EARFCNLockConfigEEET_RPKhi,
                            __ZN3tlv6parseVIN3bsp3tlv3abm16RFSelfTestTicketEEET_RPKhi,
                            __ZN3tlv6parseVIN3bsp3tlv3abm16UARFCNLockConfigEEET_RPKhi,
                            __ZN3tlv6parseVIN3bsp3tlv3abm16WakeBufferLengthEEET_RPKhi,
                            __ZN3tlv6parseVIN3bsp3tlv3abm17FieldTestConfigV2EEET_RPKhi,
                            __ZN3tlv6parseVIN3bsp3tlv3abm17RxDiversityConfigEEET_RPKhi,
                            __ZN3tlv6parseVIN3bsp3tlv3abm18CarrierAgreggationEEET_RPKhi,
                            __ZN3tlv6parseVIN3bsp3tlv3abm19CoreDumpEnabledTypeEEET_RPKhi,
                            __ZN3tlv6parseVIN3bsp3tlv3abm19RxDiversityConfigV2EEET_RPKhi,
                            __ZN3tlv6parseVIN3bsp3tlv3abm24CarrierAgreggationConfigEEET_RPKhi,
                            __ZN3tlv6parseVIN3bsp3tlv3abm25CoreDumpCrashReasonA5LineEEET_RPKhi,
                            __ZN3tlv6parseVIN3bsp3tlv3abm25CoreDumpCrashReasonQ6LineEEET_RPKhi,
                            __ZN3tlv6parseVIN3bsp3tlv3abm27CoreDumpCrashReasonA5StringEEET_RPKhi,
                            __ZN3tlv6parseVIN3bsp3tlv3abm27CoreDumpCrashReasonQ6StringEEET_RPKhi,
                            __ZN3tlv6parseVIN3bsp3tlv3abm4ARTDEEET_RPKhi,
                            __ZN3tlv6parseVIN3bsp3tlv3abm4PortEEET_RPKhi,
                            __ZN3tlv6parseVIN3bsp3tlv3abm4SizeEEET_RPKhi,
                            __ZN3tlv6parseVIN3bsp3tlv3abm6ARTDV2EEET_RPKhi,
                            __ZN3tlv6parseVIN3bsp3tlv3abm6EnableEEET_RPKhi,
                            __ZN3tlv6parseVIN3bsp3tlv3abm7LogDataEEET_RPKhi,
                            __ZN3tlv6parseVIN3bsp3tlv3abm9ARFCNLockEEET_RPKhi,
                            __ZN3tlv6parseVIN3bsp3tlv3abm9ChannelIDEEET_RPKhi,
                            __ZN3tlv6parseVIN3bsp3tlv3abm9DIAGWMLowEEET_RPKhi,
                            __ZN3tlv6parseVIN5ssctl3tlv3abm12ErrorMessageEEET_RPKhi,
                            __ZN3tlv6parseVIN5ssctl3tlv3abm13ErrorMessagesEEET_RPKhi,
                            __ZN3tlv6parseVIN5ssctl3tlv3abm20ExtendedErrorMessageEEET_RPKhi,
                            __ZN3tlv6parseVIN5ssctl3tlv3abm21ExtendedErrorMessagesEEET_RPKhi,
                            __ZN3tlv6writeVIN3bsp3tlv3abm10ARTDConfigEEEvRPhRKT_,
                            __ZN3tlv6writeVIN3bsp3tlv3abm10BlockIndexEEEvRPhRKT_,
                            __ZN3tlv6writeVIN3bsp3tlv3abm10DIAGConfigEEEvRPhRKT_,
                            __ZN3tlv6writeVIN3bsp3tlv3abm10DIAGWMHighEEEvRPhRKT_,
                            __ZN3tlv6writeVIN3bsp3tlv3abm10ReadStatusEEEvRPhRKT_,
                            __ZN3tlv6writeVIN3bsp3tlv3abm10WakeBufferEEEvRPhRKT_,
                            __ZN3tlv6writeVIN3bsp3tlv3abm10WakeReasonEEEvRPhRKT_,
                            __ZN3tlv6writeVIN3bsp3tlv3abm11CommandCodeEEEvRPhRKT_,
                            __ZN3tlv6writeVIN3bsp3tlv3abm11CrashReasonEEEvRPhRKT_,
                            __ZN3tlv6writeVIN3bsp3tlv3abm11MeasureTypeEEEvRPhRKT_,
                            __ZN3tlv6writeVIN3bsp3tlv3abm11PayloadRFFEEEEvRPhRKT_,
                            __ZN3tlv6writeVIN3bsp3tlv3abm11RegionIndexEEEvRPhRKT_,
                            __ZN3tlv6writeVIN3bsp3tlv3abm11SleepConfigEEEvRPhRKT_,
                            __ZN3tlv6writeVIN3bsp3tlv3abm11TestTimeoutEEEvRPhRKT_,
                            __ZN3tlv6writeVIN3bsp3tlv3abm11WakeChannelEEEvRPhRKT_,
                            __ZN3tlv6writeVIN3bsp3tlv3abm12ARTDConfigV2EEEvRPhRKT_,
                            __ZN3tlv6writeVIN3bsp3tlv3abm12CapabilitiesEEEvRPhRKT_,
                            __ZN3tlv6writeVIN3bsp3tlv3abm12DIAGPresetIDEEEvRPhRKT_,
                            __ZN3tlv6writeVIN3bsp3tlv3abm12TriggerErrorEEEvRPhRKT_,
                            __ZN3tlv6writeVIN3bsp3tlv3abm13DIAGBufferingEEEvRPhRKT_,
                            __ZN3tlv6writeVIN3bsp3tlv3abm14SecurityStatusEEEvRPhRKT_,
                            __ZN3tlv6writeVIN3bsp3tlv3abm15ARFCNLockConfigEEEvRPhRKT_,
                            __ZN3tlv6writeVIN3bsp3tlv3abm15DIAGActiveIfaceEEEvRPhRKT_,
                            __ZN3tlv6writeVIN3bsp3tlv3abm15FieldTestConfigEEEvRPhRKT_,
                            __ZN3tlv6writeVIN3bsp3tlv3abm15RFSelfTestNonceEEEvRPhRKT_,
                            __ZN3tlv6writeVIN3bsp3tlv3abm15TxAntennaConfigEEEvRPhRKT_,
                            __ZN3tlv6writeVIN3bsp3tlv3abm16CapabilitiesItemEEEvRPhRKT_,
                            __ZN3tlv6writeVIN3bsp3tlv3abm16EARFCNLockConfigEEEvRPhRKT_,
                            __ZN3tlv6writeVIN3bsp3tlv3abm16RFSelfTestTicketEEEvRPhRKT_,
                            __ZN3tlv6writeVIN3bsp3tlv3abm16UARFCNLockConfigEEEvRPhRKT_,
                            __ZN3tlv6writeVIN3bsp3tlv3abm16WakeBufferLengthEEEvRPhRKT_,
                            __ZN3tlv6writeVIN3bsp3tlv3abm17FieldTestConfigV2EEEvRPhRKT_,
                            __ZN3tlv6writeVIN3bsp3tlv3abm17RxDiversityConfigEEEvRPhRKT_,
                            __ZN3tlv6writeVIN3bsp3tlv3abm18CarrierAgreggationEEEvRPhRKT_,
                            __ZN3tlv6writeVIN3bsp3tlv3abm19CoreDumpEnabledTypeEEEvRPhRKT_,
                            __ZN3tlv6writeVIN3bsp3tlv3abm19RxDiversityConfigV2EEEvRPhRKT_,
                            __ZN3tlv6writeVIN3bsp3tlv3abm24CarrierAgreggationConfigEEEvRPhRKT_,
                            __ZN3tlv6writeVIN3bsp3tlv3abm25CoreDumpCrashReasonA5LineEEEvRPhRKT_,
                            __ZN3tlv6writeVIN3bsp3tlv3abm25CoreDumpCrashReasonQ6LineEEEvRPhRKT_,
                            __ZN3tlv6writeVIN3bsp3tlv3abm27CoreDumpCrashReasonA5StringEEEvRPhRKT_,
                            __ZN3tlv6writeVIN3bsp3tlv3abm27CoreDumpCrashReasonQ6StringEEEvRPhRKT_,
                            __ZN3tlv6writeVIN3bsp3tlv3abm4ARTDEEEvRPhRKT_,
                            __ZN3tlv6writeVIN3bsp3tlv3abm4PortEEEvRPhRKT_,
                            __ZN3tlv6writeVIN3bsp3tlv3abm4SizeEEEvRPhRKT_,
                            __ZN3tlv6writeVIN3bsp3tlv3abm6ARTDV2EEEvRPhRKT_,
                            __ZN3tlv6writeVIN3bsp3tlv3abm6EnableEEEvRPhRKT_,
                            __ZN3tlv6writeVIN3bsp3tlv3abm7LogDataEEEvRPhRKT_,
                            __ZN3tlv6writeVIN3bsp3tlv3abm9ARFCNLockEEEvRPhRKT_,
                            __ZN3tlv6writeVIN3bsp3tlv3abm9ChannelIDEEEvRPhRKT_,
                            __ZN3tlv6writeVIN3bsp3tlv3abm9DIAGWMLowEEEvRPhRKT_,
                            __ZN3tlv6writeVIN5ssctl3tlv3abm12ErrorMessageEEEvRPhRKT_,
                            __ZN3tlv6writeVIN5ssctl3tlv3abm13ErrorMessagesEEEvRPhRKT_,
                            __ZN3tlv6writeVIN5ssctl3tlv3abm20ExtendedErrorMessageEEEvRPhRKT_,
                            __ZN3tlv6writeVIN5ssctl3tlv3abm21ExtendedErrorMessagesEEEvRPhRKT_,
                            __ZN4diag10DIAGReader10Parameters6createEN17BasebandTransport8ProtocolENSt3__110shared_ptrIS2_EENS5_I20ETLDIAGGUIDParameterEENS5_IN3ctu9LogServerEEEiPKcjj,
                            __ZN4diag10DIAGReader10ParametersC1EN17BasebandTransport8ProtocolENSt3__110shared_ptrIS2_EENS5_I20ETLDIAGGUIDParameterEENS5_IN3ctu9LogServerEEEiPKcjj,
                            __ZN4diag10DIAGReader10ParametersC2EN17BasebandTransport8ProtocolENSt3__110shared_ptrIS2_EENS5_I20ETLDIAGGUIDParameterEENS5_IN3ctu9LogServerEEEiPKcjj,
                            __ZN4diag10DIAGReader10setHistoryEi,
                            __ZN4diag10DIAGReader11setFileSizeEj,
                            __ZN4diag10DIAGReader12getTraceInfoEv,
                            __ZN4diag10DIAGReader15getCurrentIndexEv,
                            __ZN4diag10DIAGReader16setMaxMemoryFileEj,
                            __ZN4diag10DIAGReader4stopEv,
                            __ZN4diag10DIAGReader5startEv,
                            __ZN4diag10DIAGReader7archiveEb,
                            __ZN4diag10DIAGReader8shutdownEv,
                            __ZN4diag10DIAGReader8snapshotERKNSt3__112basic_stringIcNS1_11char_traitsIcEENS1_9allocatorIcEEEES9_b,
                            __ZN4diag10DIAGReaderC1ENSt3__110shared_ptrINS0_10ParametersEEEN8dispatch8callbackIU13block_pointerFvNS1_12basic_stringIcNS1_11char_traitsIcEENS1_9allocatorIcEEEEEEE,
                            __ZN4diag10DIAGReaderC2ENSt3__110shared_ptrINS0_10ParametersEEEN8dispatch8callbackIU13block_pointerFvNS1_12basic_stringIcNS1_11char_traitsIcEENS1_9allocatorIcEEEEEEE,
                            __ZN4diag10DIAGReaderD1Ev, __ZN4diag10DIAGReaderD2Ev,
                            __ZN4diag11getFileInfoERKNSt3__112basic_stringIcNS0_11char_traitsIcEENS0_9allocatorIcEEEE,
                            __ZN4diag14DIAGConfigurer10switchMaskE20ETLDIAGLoggingMaskIDN8dispatch8callbackIU13block_pointerFvbEEE,
                            __ZN4diag14DIAGConfigurer5abortEv,
                            __ZN4diag14DIAGConfigurer5drainEN8dispatch8callbackIU13block_pointerFvbEEE,
                            __ZN4diag14DIAGConfigurer8bufferOnEN12capabilities4diag15BufferingParamsEN8dispatch8callbackIU13block_pointerFvbEEE,
                            __ZN4diag14DIAGConfigurer8isActiveEN8dispatch8callbackIU13block_pointerFvbEEE,
                            __ZN4diag14DIAGConfigurer9bufferOffEN8dispatch8callbackIU13block_pointerFvbEEE,
                            __ZN4diag14DIAGConfigurer9isAbortedEv,
                            __ZN4diag14DIAGConfigurerC2ENSt3__110shared_ptrIN3ctu9LogServerEEENS0_12Parameters_tEPK20ETLDIAGLoggingParams,
                            __ZN4diag14DIAGConfigurerD0Ev,
                            __ZN4diag14DIAGConfigurerD1Ev,
                            __ZN4diag14DIAGConfigurerD2Ev,
                            __ZN4diag16DIAGProtocolHDLC11scanForFlagEPKhjRj,
                            __ZN4diag16DIAGProtocolHDLC14handleReadDataEPKhj,
                            __ZN4diag16DIAGProtocolHDLC19consumeFlagIfNeededERPKhRj,
                            __ZN4diag16DIAGProtocolHDLC5resetEv,
                            __ZN4diag17DIAGConfigurerPCI4initEv,
                            __ZN4diag17DIAGConfigurerPCI5resetEv,
                            __ZN4diag17DIAGConfigurerPCI7startedEN8dispatch8callbackIU13block_pointerFvbEEE,
                            __ZN4diag17DIAGConfigurerPCI7stoppedEN8dispatch8callbackIU13block_pointerFvbEEE,
                            __ZN4diag17DIAGConfigurerPCI8startingEN8dispatch8callbackIU13block_pointerFvbEEE,
                            __ZN4diag17DIAGConfigurerPCI8stoppingEN8dispatch8callbackIU13block_pointerFvbEEE,
                            __ZN4diag17DIAGConfigurerPCIC1ENSt3__110shared_ptrIN3ctu9LogServerEEENS_14DIAGConfigurer12Parameters_tEPK20ETLDIAGLoggingParams,
                            __ZN4diag17DIAGConfigurerPCIC2ENSt3__110shared_ptrIN3ctu9LogServerEEENS_14DIAGConfigurer12Parameters_tEPK20ETLDIAGLoggingParams,
                            __ZN4diag17DIAGConfigurerPCID0Ev,
                            __ZN4diag17DIAGConfigurerPCID1Ev,
                            __ZN4diag17DIAGConfigurerPCID2Ev,
                            __ZN4diag17DIAGConfigurerUSB4initEv,
                            __ZN4diag17DIAGConfigurerUSB5resetEv,
                            __ZN4diag17DIAGConfigurerUSB7startedEN8dispatch8callbackIU13block_pointerFvbEEE,
                            __ZN4diag17DIAGConfigurerUSB7stoppedEN8dispatch8callbackIU13block_pointerFvbEEE,
                            __ZN4diag17DIAGConfigurerUSB8startingEN8dispatch8callbackIU13block_pointerFvbEEE,
                            __ZN4diag17DIAGConfigurerUSB8stoppingEN8dispatch8callbackIU13block_pointerFvbEEE,
                            __ZN4diag17DIAGConfigurerUSBC1ENSt3__110shared_ptrIN3ctu9LogServerEEENS_14DIAGConfigurer12Parameters_tEPK20ETLDIAGLoggingParams,
                            __ZN4diag17DIAGConfigurerUSBC2ENSt3__110shared_ptrIN3ctu9LogServerEEENS_14DIAGConfigurer12Parameters_tEPK20ETLDIAGLoggingParams,
                            __ZN4diag17DIAGConfigurerUSBD0Ev,
                            __ZN4diag17DIAGConfigurerUSBD1Ev,
                            __ZN4diag17DIAGConfigurerUSBD2Ev,
                            __ZN4diag17DIAGReaderManager10setHistoryENS0_7ChannelEi,
                            __ZN4diag17DIAGReaderManager11setFileSizeENS0_7ChannelEj,
                            __ZN4diag17DIAGReaderManager15getCurrentIndexENS0_7ChannelE,
                            __ZN4diag17DIAGReaderManager15setStallHandlerEN3abm5trace14TraceInfoStateEN8dispatch8callbackIU13block_pointerFvNS2_14TraceInfoEntryEEEE,
                            __ZN4diag17DIAGReaderManager16setMaxMemoryFileENS0_7ChannelEj,
                            __ZN4diag17DIAGReaderManager17startIfNotStartedEv,
                            __ZN4diag17DIAGReaderManager4stopEv,
                            __ZN4diag17DIAGReaderManager4waitEj,
                            __ZN4diag17DIAGReaderManager5startEv,
                            __ZN4diag17DIAGReaderManager6createEv,
                            __ZN4diag17DIAGReaderManager7archiveEb,
                            __ZN4diag17DIAGReaderManager8pushInfoEN3abm5trace14TraceInfoEntryE,
                            __ZN4diag17DIAGReaderManager8pushInfoEN3abm5trace14TraceInfoStateENSt3__112basic_stringIcNS4_11char_traitsIcEENS4_9allocatorIcEEEE,
                            __ZN4diag17DIAGReaderManager8pushInfoENSt3__112basic_stringIcNS1_11char_traitsIcEENS1_9allocatorIcEEEEN3xpc4dictE,
                            __ZN4diag17DIAGReaderManager8shutdownEv,
                            __ZN4diag17DIAGReaderManager8snapshotENS0_7ChannelENSt3__112basic_stringIcNS2_11char_traitsIcEENS2_9allocatorIcEEEES8_b,
                            __ZN4diag17DIAGReaderManager9addReaderENS0_7ChannelENSt3__110shared_ptrINS_10DIAGReader10ParametersEEEN8dispatch8callbackIU13block_pointerFvNS2_12basic_stringIcNS2_11char_traitsIcEENS2_9allocatorIcEEEEEEE,
                            __ZN4diag17DIAGReaderManagerC1Ev,
                            __ZN4diag17DIAGReaderManagerC2Ev,
                            __ZN4diag17DIAGReaderManagerD1Ev,
                            __ZN4diag17DIAGReaderManagerD2Ev,
                            __ZN4diag6config11kMaxHistoryE,
                            __ZN4diag6config12equal_nocaseERKNSt3__112basic_stringIcNS1_11char_traitsIcEENS1_9allocatorIcEEEES9_,
                            __ZN4diag6config12kDefaultModeE,
                            __ZN4diag6config12kNoneDMCFileE,
                            __ZN4diag6config12kTempModeKeyE,
                            __ZN4diag6config15kADPLScratchDirE,
                            __ZN4diag6config15kDIAGScratchDirE,
                            __ZN4diag6config15kDefaultHistoryE,
                            __ZN4diag6config15kQDSSScratchDirE,
                            __ZN4diag6config15kTempEnabledKeyE,
                            __ZN4diag6config15toStringCompactENS0_8RecoveryE,
                            __ZN4diag6config16kExtraDMCFileKeyE,
                            __ZN4diag6config16kLowWatermarkKeyE,
                            __ZN4diag6config16kUseThresholdKeyE,
                            __ZN4diag6config17kHighWatermarkKeyE,
                            __ZN4diag6config18kStallDetectionKeyE,
                            __ZN4diag6config18kThroughputDMCFileE,
                            __ZN4diag6config19kBufferingOnAPAwakeE,
                            __ZN4diag6config19kKeepScratchLogsKeyE,
                            __ZN4diag6config20kDefaultExtraDMCFileE,
                            __ZN4diag6config20kDefaultLowWatermarkE,
                            __ZN4diag6config20kDefaultSleepDMCFileE,
                            __ZN4diag6config20kDefaultUseThresholdE,
                            __ZN4diag6config20kDefaultWatchHistoryE,
                            __ZN4diag6config21getShouldAlwaysFilterEv,
                            __ZN4diag6config21kDefaultHighWatermarkE,
                            __ZN4diag6config22kDefaultPrimaryDMCFileE,
                            __ZN4diag6config22kDefaultStallDetectionE,
                            __ZN4diag6config22kEnabledDuringSleepKeyE,
                            __ZN4diag6config24kDefaultSecondaryDMCFileE,
                            __ZN4diag6config25kStallDetectionRetriesKeyE,
                            __ZN4diag6config26kStallDetectionRecoveryKeyE,
                            __ZN4diag6config29kDefaultStallDetectionRetriesE,
                            __ZN4diag6config30kDefaultStallDetectionRecoveryE,
                            __ZN4diag6config6asEnumERKNSt3__112basic_stringIcNS1_11char_traitsIcEENS1_9allocatorIcEEEERNS0_8RecoveryE,
                            __ZN4diag6config8toStringENS0_13DuringAPSleepE,
                            __ZN4diag6config8toStringENS0_4ModeE,
                            __ZN4diag6config8toStringENS0_8RecoveryE,
                            __ZN4diag7Service12updateConfigEN3ctu2cf11CFSharedRefIK14__CFDictionaryEE,
                            __ZN4diag7Service13stateAsStringENS0_5StateE,
                            __ZN4diag7Service15setStallHandlerEN3abm5trace14TraceInfoStateEN8dispatch8callbackIU13block_pointerFvNS2_14TraceInfoEntryEEEE,
                            __ZN4diag7Service4initEv,
                            __ZN4diag7Service4stopEN8dispatch8callbackIU13block_pointerFvNS0_5StateENSt3__112basic_stringIcNS4_11char_traitsIcEENS4_9allocatorIcEEEEEEEb,
                            __ZN4diag7Service4wakeEN8dispatch8callbackIU13block_pointerFvNS0_5StateENSt3__112basic_stringIcNS4_11char_traitsIcEENS4_9allocatorIcEEEEEEE,
                            __ZN4diag7Service5abortEbN8dispatch8callbackIU13block_pointerFvNS0_5StateENSt3__112basic_stringIcNS4_11char_traitsIcEENS4_9allocatorIcEEEEEEE,
                            __ZN4diag7Service5resetEN8dispatch8callbackIU13block_pointerFvNS0_5StateENSt3__112basic_stringIcNS4_11char_traitsIcEENS4_9allocatorIcEEEEEEE,
                            __ZN4diag7Service5sleepEN8dispatch8callbackIU13block_pointerFvNS0_5StateENSt3__112basic_stringIcNS4_11char_traitsIcEENS4_9allocatorIcEEEEEEE,
                            __ZN4diag7Service5startEN8dispatch8callbackIU13block_pointerFvNS0_5StateENSt3__112basic_stringIcNS4_11char_traitsIcEENS4_9allocatorIcEEEEEEEb,
                            __ZN4diag7Service8Internal6createENSt3__110shared_ptrIN3ctu9LogServerEEENS_6config4ModeEN8dispatch8callbackIU13block_pointerFvNS0_5StateENS2_12basic_stringIcNS2_11char_traitsIcEENS2_9allocatorIcEEEEEEE,
                            __ZN4diag7Service8pushInfoEN3abm5trace14TraceInfoStateENSt3__112basic_stringIcNS4_11char_traitsIcEENS4_9allocatorIcEEEE,
                            __ZN4diag7Service8pushInfoENSt3__112basic_stringIcNS1_11char_traitsIcEENS1_9allocatorIcEEEEN3xpc4dictE,
                            __ZN4diag7Service8snapshotENSt3__112basic_stringIcNS1_11char_traitsIcEENS1_9allocatorIcEEEERKS7_bN8dispatch8callbackIU13block_pointerFvNS0_5StateES7_EEE,
                            __ZN4diag7ServiceC1ENSt3__110shared_ptrIN3ctu9LogServerEEENS_6config4ModeEN8dispatch8callbackIU13block_pointerFvNS0_5StateENS1_12basic_stringIcNS1_11char_traitsIcEENS1_9allocatorIcEEEEEEE,
                            __ZN4diag7ServiceC2ENSt3__110shared_ptrIN3ctu9LogServerEEENS_6config4ModeEN8dispatch8callbackIU13block_pointerFvNS0_5StateENS1_12basic_stringIcNS1_11char_traitsIcEENS1_9allocatorIcEEEEEEE,
                            __ZN4diag7ServiceD1Ev, __ZN4diag7ServiceD2Ev,
                            __ZN4diag7copyDMCERKNSt3__112basic_stringIcNS0_11char_traitsIcEENS0_9allocatorIcEEEES8_,
                            __ZN4diag7loadDMCERKNSt3__112basic_stringIcNS0_11char_traitsIcEENS0_9allocatorIcEEEE,
                            __ZN4diag8mergeDMCERKNSt3__112basic_stringIcNS0_11char_traitsIcEENS0_9allocatorIcEEEES8_S8_b,
                            __ZN4diag9filterDMCEP17__ETLDMCHandleTag,
                            __ZN4logs24convertToTracePropertiesEN3xpc4dictE,
                            __ZN4logs25getDefaultTracePropertiesEv,
                            __ZN4prop10systemlogs3getERKNSt3__112basic_stringIcNS1_11char_traitsIcEENS1_9allocatorIcEEEERS7_,
                            __ZN4prop10systemlogs3setERKNSt3__112basic_stringIcNS1_11char_traitsIcEENS1_9allocatorIcEEEES9_,
                            __ZN4prop11compression3getERKNSt3__112basic_stringIcNS1_11char_traitsIcEENS1_9allocatorIcEEEERS7_,
                            __ZN4prop11compression3setERKNSt3__112basic_stringIcNS1_11char_traitsIcEENS1_9allocatorIcEEEES9_,
                            __ZN4prop13tracesettings10anyEnabledEv,
                            __ZN4prop13tracesettings12isContinuousEv,
                            __ZN4prop13tracesettings3getERKNSt3__112basic_stringIcNS1_11char_traitsIcEENS1_9allocatorIcEEEERS7_,
                            __ZN4prop13tracesettings3setERKNSt3__112basic_stringIcNS1_11char_traitsIcEENS1_9allocatorIcEEEES9_,
                            __ZN4prop13tracesettings7enabledEPKc,
                            __ZN4prop3getERKNSt3__112basic_stringIcNS0_11char_traitsIcEENS0_9allocatorIcEEEES8_RS6_,
                            __ZN4prop3ipc3getERKNSt3__112basic_stringIcNS1_11char_traitsIcEENS1_9allocatorIcEEEERS7_,
                            __ZN4prop3ipc3setERKNSt3__112basic_stringIcNS1_11char_traitsIcEENS1_9allocatorIcEEEES9_,
                            __ZN4prop3setERKNSt3__112basic_stringIcNS0_11char_traitsIcEENS0_9allocatorIcEEEES8_S8_,
                            __ZN4prop3ttr3getERKNSt3__112basic_stringIcNS1_11char_traitsIcEENS1_9allocatorIcEEEERS7_,
                            __ZN4prop3ttr3setERKNSt3__112basic_stringIcNS1_11char_traitsIcEENS1_9allocatorIcEEEES9_,
                            __ZN4prop5bbipc3getERKNSt3__112basic_stringIcNS1_11char_traitsIcEENS1_9allocatorIcEEEERS7_,
                            __ZN4prop5bbipc3setERKNSt3__112basic_stringIcNS1_11char_traitsIcEENS1_9allocatorIcEEEES9_,
                            __ZN4prop7bbtrace3getERKNSt3__112basic_stringIcNS1_11char_traitsIcEENS1_9allocatorIcEEEERS7_,
                            __ZN4prop7bbtrace3setERKNSt3__112basic_stringIcNS1_11char_traitsIcEENS1_9allocatorIcEEEES9_,
                            __ZN4prop7profile3getERKNSt3__112basic_stringIcNS1_11char_traitsIcEENS1_9allocatorIcEEEERS7_,
                            __ZN4prop7profile3setERKNSt3__112basic_stringIcNS1_11char_traitsIcEENS1_9allocatorIcEEEES9_,
                            __ZN4prop8coredump3getERKNSt3__112basic_stringIcNS1_11char_traitsIcEENS1_9allocatorIcEEEERS7_,
                            __ZN4prop8coredump3setERKNSt3__112basic_stringIcNS1_11char_traitsIcEENS1_9allocatorIcEEEES9_,
                            __ZN4prop8tailspin3getERKNSt3__112basic_stringIcNS1_11char_traitsIcEENS1_9allocatorIcEEEERS7_,
                            __ZN4prop8tailspin3setERKNSt3__112basic_stringIcNS1_11char_traitsIcEENS1_9allocatorIcEEEES9_,
                            __ZN4prop9logfilter3getERKNSt3__112basic_stringIcNS1_11char_traitsIcEENS1_9allocatorIcEEEERS7_,
                            __ZN4prop9logfilter3setERKNSt3__112basic_stringIcNS1_11char_traitsIcEENS1_9allocatorIcEEEES9_,
                            __ZN4util12equal_nocaseERKNSt3__112basic_stringIcNS0_11char_traitsIcEENS0_9allocatorIcEEEES8_,
                            __ZN4util13strip_patternERKNSt3__112basic_stringIcNS0_11char_traitsIcEENS0_9allocatorIcEEEES8_,
                            __ZN4util14generateSHA256ENSt3__112basic_stringIcNS0_11char_traitsIcEENS0_9allocatorIcEEEEPcj,
                            __ZN4util14moveDirContentENSt3__112basic_stringIcNS0_11char_traitsIcEENS0_9allocatorIcEEEES6_bjNS0_11basic_regexIcNS0_12regex_traitsIcEEEE,
                            __ZN4util15checkLogFileAgeENSt3__112basic_stringIcNS0_11char_traitsIcEENS0_9allocatorIcEEEElNS0_11basic_regexIcNS0_12regex_traitsIcEEEE,
                            __ZN4util15convert_garbageERNSt3__112basic_stringIcNS0_11char_traitsIcEENS0_9allocatorIcEEEE,
                            __ZN4util15strip_non_alphaERNSt3__112basic_stringIcNS0_11char_traitsIcEENS0_9allocatorIcEEEE,
                            __ZN4util17markPurgeableFileENSt3__112basic_stringIcNS0_11char_traitsIcEENS0_9allocatorIcEEEE,
                            __ZN4util19strip_non_printableERNSt3__112basic_stringIcNS0_11char_traitsIcEENS0_9allocatorIcEEEE,
                            __ZN4util20isDumpForSysdiagnoseENSt3__112basic_stringIcNS0_11char_traitsIcEENS0_9allocatorIcEEEES6_,
                            __ZN4util22strip_leading_trailingERKNSt3__112basic_stringIcNS0_11char_traitsIcEENS0_9allocatorIcEEEES8_,
                            __ZN4util23findBasebandLogInfoFileENSt3__112basic_stringIcNS0_11char_traitsIcEENS0_9allocatorIcEEEENS0_6vectorIS6_NS4_IS6_EEEE,
                            __ZN4util23readPlistToCFDictionaryENSt3__112basic_stringIcNS0_11char_traitsIcEENS0_9allocatorIcEEEE,
                            __ZN4util24findLastLogDumpTimestampEPKcS1_jbS1_,
                            __ZN4util28compareTwoStringsWithPatternERKNSt3__112basic_stringIcNS0_11char_traitsIcEENS0_9allocatorIcEEEES8_S8_,
                            __ZN4util8readJSONENSt3__112basic_stringIcNS0_11char_traitsIcEENS0_9allocatorIcEEEE,
                            __ZN4util8to_upperERNSt3__112basic_stringIcNS0_11char_traitsIcEENS0_9allocatorIcEEEE,
                            __ZN4util9writeJSONEN3xpc4dictENSt3__112basic_stringIcNS2_11char_traitsIcEENS2_9allocatorIcEEEE,
                            __ZN5Trace25getCurrentBootSessionUUIDEv,
                            __ZN5Trace6createERKNSt3__112basic_stringIcNS0_11char_traitsIcEENS0_9allocatorIcEEEENS0_8weak_ptrIN3abm19BasebandTracingTaskEEEN8dispatch5groupE,
                            __ZN5TraceC2ENSt3__112basic_stringIcNS0_11char_traitsIcEENS0_9allocatorIcEEEE,
                            __ZN5ssctl3tlv3abm10parseFieldEPKhS3_RNS1_12ErrorMessageE,
                            __ZN5ssctl3tlv3abm10parseFieldEPKhS3_RNS1_13ErrorMessagesE,
                            __ZN5ssctl3tlv3abm10parseFieldEPKhS3_RNS1_20ExtendedErrorMessageE,
                            __ZN5ssctl3tlv3abm10parseFieldEPKhS3_RNS1_21ExtendedErrorMessagesE,
                            __ZN5ssctl3tlv3abm10writeFieldEPhRKNS1_12ErrorMessageE,
                            __ZN5ssctl3tlv3abm10writeFieldEPhRKNS1_13ErrorMessagesE,
                            __ZN5ssctl3tlv3abm10writeFieldEPhRKNS1_20ExtendedErrorMessageE,
                            __ZN5ssctl3tlv3abm10writeFieldEPhRKNS1_21ExtendedErrorMessagesE,
                            __ZN5ssctl3tlv3abm12getFieldSizeERKNS1_12ErrorMessageE,
                            __ZN5ssctl3tlv3abm12getFieldSizeERKNS1_13ErrorMessagesE,
                            __ZN5ssctl3tlv3abm12getFieldSizeERKNS1_20ExtendedErrorMessageE,
                            __ZN5ssctl3tlv3abm12getFieldSizeERKNS1_21ExtendedErrorMessagesE,
                            __ZN5trace11kKeyETBFileE,
                            __ZN5trace12isModeActiveENS_4ModeE,
                            __ZN5trace16kKeyLowWatermarkE,
                            __ZN5trace17kKeyHighWatermarkE,
                            __ZN5trace19kKeyETBFileDisabledE,
                            __ZN5trace22kKeyTraceErrorHandlingE,
                            __ZN5trace22sleepTraceModeToStringENS_14SleepTraceModeE,
                            __ZN5trace23kKeyTraceBackgroundModeE,
                            __ZN5trace26kKeyTraceLiveFilterSettingE,
                            __ZN5trace27kKeyTraceDuringSleepEnabledE,
                            __ZN5trace8toStringENS_12PrivacyLevelE,
                            __ZN5trace8toStringENS_13ErrorHandlingE,
                            __ZN5trace8toStringENS_17LiveFilterSettingE,
                            __ZN5trace8toStringENS_4ModeE,
                            __ZN6config2hw10regionCodeEv,
                            __ZN6config2hw10regionInfoEv,
                            __ZN6config2hw11getBootArgsEv,
                            __ZN6config2hw14deviceMaterialEv,
                            __ZN6config2hw5watchEv, __ZN6config2hw7productEv,
                            __ZN6config5build19internal_or_carrierEv,
                            __ZN6config5build7carrierEv,
                            __ZN6config5build7versionEv,
                            __ZN6config5build8internalEv,
                            __ZN7support2fs10fileExistsERKNSt3__112basic_stringIcNS1_11char_traitsIcEENS1_9allocatorIcEEEE,
                            __ZN7support2fs10removeFileERKNSt3__112basic_stringIcNS1_11char_traitsIcEENS1_9allocatorIcEEEE,
                            __ZN7support2fs11getBasePathERKNSt3__112basic_stringIcNS1_11char_traitsIcEENS1_9allocatorIcEEEE,
                            __ZN7support2fs11getFileNameERKNSt3__112basic_stringIcNS1_11char_traitsIcEENS1_9allocatorIcEEEE,
                            __ZN7support2fs11getFileSizeERKNSt3__112basic_stringIcNS1_11char_traitsIcEENS1_9allocatorIcEEEERm,
                            __ZN7support2fs11getFileSizeERNSt3__114basic_ifstreamIcNS1_11char_traitsIcEEEERm,
                            __ZN7support2fs11updateOwnerENSt3__112basic_stringIcNS1_11char_traitsIcEENS1_9allocatorIcEEEEjj,
                            __ZN7support2fs13moveDirUniqueERKNSt3__112basic_stringIcNS1_11char_traitsIcEENS1_9allocatorIcEEEES9_,
                            __ZN7support2fs15readCurrentLineERNSt3__114basic_ifstreamIcNS1_11char_traitsIcEEEE,
                            __ZN7support2fs16createUniquePathENSt3__112basic_stringIcNS1_11char_traitsIcEENS1_9allocatorIcEEEE,
                            __ZN7support2fs16getFilteredFilesENSt3__112basic_stringIcNS1_11char_traitsIcEENS1_9allocatorIcEEEENS1_11basic_regexIcNS1_12regex_traitsIcEEEERNS1_6vectorIS7_NS5_IS7_EEEEb,
                            __ZN7support2fs16getLastNumberDirERKNSt3__112basic_stringIcNS1_11char_traitsIcEENS1_9allocatorIcEEEE,
                            __ZN7support2fs16getPartitionInfoENSt3__112basic_stringIcNS1_11char_traitsIcEENS1_9allocatorIcEEEERmS8_S8_,
                            __ZN7support2fs17removeDirContentsERKNSt3__112basic_stringIcNS1_11char_traitsIcEENS1_9allocatorIcEEEEm,
                            __ZN7support2fs17writeToCompletionEP7__sFILEPKhm,
                            __ZN7support2fs17writeToCompletionEiPKhm,
                            __ZN7support2fs20createUniqueFilenameENSt3__112basic_stringIcNS1_11char_traitsIcEENS1_9allocatorIcEEEE,
                            __ZN7support2fs5chmodERKNSt3__112basic_stringIcNS1_11char_traitsIcEENS1_9allocatorIcEEEEt,
                            __ZN7support2fs5chownERKNSt3__112basic_stringIcNS1_11char_traitsIcEENS1_9allocatorIcEEEEjj,
                            __ZN7support2fs5isDirERKNSt3__112basic_stringIcNS1_11char_traitsIcEENS1_9allocatorIcEEEE,
                            __ZN7support2fs6renameERKNSt3__112basic_stringIcNS1_11char_traitsIcEENS1_9allocatorIcEEEES9_,
                            __ZN7support2fs7lockDirERKNSt3__112basic_stringIcNS1_11char_traitsIcEENS1_9allocatorIcEEEE,
                            __ZN7support2fs7readDirERKNSt3__112basic_stringIcNS1_11char_traitsIcEENS1_9allocatorIcEEEERNS1_6vectorIS7_NS5_IS7_EEEE,
                            __ZN7support2fs8copyFileERKNSt3__112basic_stringIcNS1_11char_traitsIcEENS1_9allocatorIcEEEES9_b,
                            __ZN7support2fs8loadFileERKNSt3__112basic_stringIcNS1_11char_traitsIcEENS1_9allocatorIcEEEERNS1_6vectorIcS6_EE,
                            __ZN7support2fs8openFileERKNSt3__112basic_stringIcNS1_11char_traitsIcEENS1_9allocatorIcEEEEit,
                            __ZN7support2fs8toStringENS0_6userIDE,
                            __ZN7support2fs9closeFileEi,
                            __ZN7support2fs9createDirERKNSt3__112basic_stringIcNS1_11char_traitsIcEENS1_9allocatorIcEEEEtb,
                            __ZN7support2fs9getUidGidENS0_6userIDERjS2_,
                            __ZN7support2fs9removeDirERKNSt3__112basic_stringIcNS1_11char_traitsIcEENS1_9allocatorIcEEEE,
                            __ZN7support2fs9unlockDirEi,
                            __ZN7support2ui23displayUserNotificationERKNSt3__112basic_stringIcNS1_11char_traitsIcEENS1_9allocatorIcEEEES9_bd,
                            __ZN7support2ui28displayAlertWithUserResponseEPK10__CFStringS3_,
                            __ZN7support3log14manager_globalC1Ev,
                            __ZN7support3log14manager_globalC2Ev,
                            __ZN7support3log15stdout_delegate6createENSt3__18weak_ptrINS0_8delegate7contextEEE,
                            __ZN7support3log15stdout_delegate6createEv,
                            __ZN7support3log15stdout_delegate7messageERKNS0_7detailsEPKc,
                            __ZN7support3log15stdout_delegateC1ENSt3__18weak_ptrINS0_8delegate7contextEEE,
                            __ZN7support3log15stdout_delegateC2ENSt3__18weak_ptrINS0_8delegate7contextEEE,
                            __ZN7support3log6client10descriptorC1ENSt3__112basic_stringIcNS3_11char_traitsIcEENS3_9allocatorIcEEEES9_,
                            __ZN7support3log6client10descriptorC2ENSt3__112basic_stringIcNS3_11char_traitsIcEENS3_9allocatorIcEEEES9_,
                            __ZN7support3log6clientC1ENSt3__112basic_stringIcNS2_11char_traitsIcEENS2_9allocatorIcEEEES8_,
                            __ZN7support3log6clientC1ENSt3__112basic_stringIcNS2_11char_traitsIcEENS2_9allocatorIcEEEES8_NS2_10shared_ptrINS0_7managerEEE,
                            __ZN7support3log6clientC1ENSt3__112basic_stringIcNS2_11char_traitsIcEENS2_9allocatorIcEEEES8_PKNS0_7managerE,
                            __ZN7support3log6clientC2ENSt3__112basic_stringIcNS2_11char_traitsIcEENS2_9allocatorIcEEEES8_,
                            __ZN7support3log6clientC2ENSt3__112basic_stringIcNS2_11char_traitsIcEENS2_9allocatorIcEEEES8_NS2_10shared_ptrINS0_7managerEEE,
                            __ZN7support3log6clientC2ENSt3__112basic_stringIcNS2_11char_traitsIcEENS2_9allocatorIcEEEES8_PKNS0_7managerE,
                            __ZN7support3log7manager10parameters12set_defaultsEv,
                            __ZN7support3log7manager10parametersC1ENS0_5levelE,
                            __ZN7support3log7manager10parametersC1Ev,
                            __ZN7support3log7manager10parametersC2ENS0_5levelE,
                            __ZN7support3log7manager10parametersC2Ev,
                            __ZN7support3log7manager12add_delegateEONSt3__110unique_ptrINS0_8delegateENS2_14default_deleteIS4_EEEE,
                            __ZN7support3log7manager12set_defaultsEv,
                            __ZN7support3log7manager13add_delegatesEONSt3__14listINS2_10unique_ptrINS0_8delegateENS2_14default_deleteIS5_EEEENS2_9allocatorIS8_EEEE,
                            __ZN7support3log7manager6createENSt3__112basic_stringIcNS2_11char_traitsIcEENS2_9allocatorIcEEEERKNS1_10parametersEONS2_10unique_ptrINS0_8delegateENS2_14default_deleteISD_EEEE,
                            __ZN7support3log7manager6createENSt3__112basic_stringIcNS2_11char_traitsIcEENS2_9allocatorIcEEEERKNS1_10parametersEONS2_4listINS2_10unique_ptrINS0_8delegateENS2_14default_deleteISE_EEEENS6_ISH_EEEE,
                            __ZN7support3log7manager9set_levelENS0_5levelE,
                            __ZN7support3log7managerC1ENSt3__112basic_stringIcNS2_11char_traitsIcEENS2_9allocatorIcEEEERKNS1_10parametersEONS2_10unique_ptrINS0_8delegateENS2_14default_deleteISD_EEEE,
                            __ZN7support3log7managerC1ENSt3__112basic_stringIcNS2_11char_traitsIcEENS2_9allocatorIcEEEERKNS1_10parametersEONS2_4listINS2_10unique_ptrINS0_8delegateENS2_14default_deleteISE_EEEENS6_ISH_EEEE,
                            __ZN7support3log7managerC2ENSt3__112basic_stringIcNS2_11char_traitsIcEENS2_9allocatorIcEEEERKNS1_10parametersEONS2_10unique_ptrINS0_8delegateENS2_14default_deleteISD_EEEE,
                            __ZN7support3log7managerC2ENSt3__112basic_stringIcNS2_11char_traitsIcEENS2_9allocatorIcEEEERKNS1_10parametersEONS2_4listINS2_10unique_ptrINS0_8delegateENS2_14default_deleteISE_EEEENS6_ISH_EEEE,
                            __ZN7support3log8delegate7context6createEPv,
                            __ZN7support3log8delegate7contextC1EPv,
                            __ZN7support3log8delegate7contextC2EPv,
                            __ZN7support3log8delegateC2ENSt3__18weak_ptrINS1_7contextEEE,
                            __ZN7support9transport3ARI12getLogClientEv,
                            __ZN7support9transport3ARI13getKTLOptionsEv,
                            __ZN7support9transport3ARI17getLibTUTransportEv,
                            __ZN7support9transport3ARI6createEPKcbPKNS_3log7managerE,
                            __ZN7support9transport3ARI6createEPKcjjPKNS_3log7managerE,
                            __ZN7support9transport3ARI6createEPKcjjbPKNS_3log7managerE,
                            __ZN7support9transport3ARI6initRTEPKcjj,
                            __ZN7support9transport3ARI9initLibTUEPKcjj,
                            __ZN7support9transport3ARIC1EPKNS_3log7managerE,
                            __ZN7support9transport3ARIC2EPKNS_3log7managerE,
                            __ZN7support9transport3ARID0Ev,
                            __ZN7support9transport3ARID1Ev,
                            __ZN7support9transport3ARID2Ev,
                            __ZN7support9transport5AriRT6createEPKcPKNS_3log7managerE,
                            __ZN7support9transport5AriRT6createEPKcjjPKNS_3log7managerE,
                            __ZN7support9transport5AriRTC1EPKNS_3log7managerE,
                            __ZN7support9transport5AriRTC2EPKNS_3log7managerE,
                            __ZN8ICETrace10start_syncEN8dispatch5groupEN3ctu2cf11CFSharedRefIK14__CFDictionaryEE,
                            __ZN8ICETrace11getPropertyERKNSt3__112basic_stringIcNS0_11char_traitsIcEENS0_9allocatorIcEEEERS6_,
                            __ZN8ICETrace11setPropertyEN8dispatch5groupERKNSt3__112basic_stringIcNS2_11char_traitsIcEENS2_9allocatorIcEEEESA_,
                            __ZN8ICETrace12exitLowPowerEN8dispatch5groupE,
                            __ZN8ICETrace12prepare_syncEv,
                            __ZN8ICETrace13enterLowPowerEN8dispatch5groupE,
                            __ZN8ICETrace14createInternalEv,
                            __ZN8ICETrace15processETB_syncEv,
                            __ZN8ICETrace16getSettingPrefixEv,
                            __ZN8ICETrace16setPropMode_syncEN8dispatch5groupENSt3__112basic_stringIcNS2_11char_traitsIcEENS2_9allocatorIcEEEES8_,
                            __ZN8ICETrace17getDefaultEnabledEv,
                            __ZN8ICETrace17setTraceMode_syncEN5trace4ModeE,
                            __ZN8ICETrace18openTransport_syncEv,
                            __ZN8ICETrace19closeTransport_syncEv,
                            __ZN8ICETrace19setLPMHandlers_syncEv,
                            __ZN8ICETrace19setPropEnabled_syncEN8dispatch5groupENSt3__112basic_stringIcNS2_11char_traitsIcEENS2_9allocatorIcEEEES8_,
                            __ZN8ICETrace19setPropHistory_syncEN8dispatch5groupENSt3__112basic_stringIcNS2_11char_traitsIcEENS2_9allocatorIcEEEES8_,
                            __ZN8ICETrace20setPropETBSetup_syncEN8dispatch5groupENSt3__112basic_stringIcNS2_11char_traitsIcEENS2_9allocatorIcEEEES8_,
                            __ZN8ICETrace20setPropFileSize_syncEN8dispatch5groupENSt3__112basic_stringIcNS2_11char_traitsIcEENS2_9allocatorIcEEEES8_,
                            __ZN8ICETrace21clearLPMHandlers_syncEv,
                            __ZN8ICETrace21watermarkIsValid_syncEi,
                            __ZN8ICETrace22commandResetModem_syncE9ResetInfo,
                            __ZN8ICETrace23issueStartCommands_syncEN8dispatch5groupE,
                            __ZN8ICETrace23setPropSleepConfig_syncEN8dispatch5groupENSt3__112basic_stringIcNS2_11char_traitsIcEENS2_9allocatorIcEEEES8_,
                            __ZN8ICETrace24loadTraceConfigFile_syncENSt3__112basic_stringIcNS0_11char_traitsIcEENS0_9allocatorIcEEEERNS0_6vectorIcS5_EE11KTLMaskType,
                            __ZN8ICETrace24setPropActiveConfig_syncEN8dispatch5groupENSt3__112basic_stringIcNS2_11char_traitsIcEENS2_9allocatorIcEEEES8_,
                            __ZN8ICETrace24setPropLowWatermark_syncEN8dispatch5groupENSt3__112basic_stringIcNS2_11char_traitsIcEENS2_9allocatorIcEEEES8_,
                            __ZN8ICETrace25setPropHighWatermark_syncEN8dispatch5groupENSt3__112basic_stringIcNS2_11char_traitsIcEENS2_9allocatorIcEEEES8_,
                            __ZN8ICETrace26setPropBackgroundMode_syncEN8dispatch5groupENSt3__112basic_stringIcNS2_11char_traitsIcEENS2_9allocatorIcEEEES8_,
                            __ZN8ICETrace29setPropSleepTraceEnabled_syncEN8dispatch5groupENSt3__112basic_stringIcNS2_11char_traitsIcEENS2_9allocatorIcEEEES8_,
                            __ZN8ICETrace29setPropTransportReadSize_syncEN8dispatch5groupENSt3__112basic_stringIcNS2_11char_traitsIcEENS2_9allocatorIcEEEES8_,
                            __ZN8ICETrace30setPropMaxMemoryFileCount_syncEN8dispatch5groupENSt3__112basic_stringIcNS2_11char_traitsIcEENS2_9allocatorIcEEEES8_,
                            __ZN8ICETrace30setPropTransportReadCount_syncEN8dispatch5groupENSt3__112basic_stringIcNS2_11char_traitsIcEENS2_9allocatorIcEEEES8_,
                            __ZN8ICETrace4initENSt3__112basic_stringIcNS0_11char_traitsIcEENS0_9allocatorIcEEEENS0_8weak_ptrIN3abm19BasebandTracingTaskEEEN8dispatch5groupE,
                            __ZN8ICETrace4stopEN8dispatch5groupEN3ctu2cf11CFSharedRefIK14__CFDictionaryEE,
                            __ZN8ICETrace5abortEN8dispatch5groupEN3ctu2cf11CFSharedRefIK14__CFDictionaryEE,
                            __ZN8ICETrace5startEN8dispatch5groupEN3ctu2cf11CFSharedRefIK14__CFDictionaryEE,
                            __ZN8ICETrace6reinitEN8dispatch5groupEN3ctu2cf11CFSharedRefIK14__CFDictionaryEE,
                            __ZN8ICETrace7getNameEv,
                            __ZN8ICETrace7prepareEN8dispatch5groupEN3ctu2cf11CFSharedRefIK14__CFDictionaryEE,
                            __ZN8ICETrace8shutdownEN8dispatch5groupEN3ctu2cf11CFSharedRefIK14__CFDictionaryEE,
                            __ZN8ICETrace8snapshotEN8dispatch5groupEN3ctu2cf11CFSharedRefIK14__CFDictionaryEE,
                            __ZN8ICETrace9dumpStateEN8dispatch5groupENSt3__112basic_stringIcNS2_11char_traitsIcEENS2_9allocatorIcEEEE,
                            __ZN8ICETrace9stop_syncEN8dispatch5groupEN3ctu2cf11CFSharedRefIK14__CFDictionaryEE,
                            __ZN8ICETraceC1Ev, __ZN8ICETraceC2Ev,
                            __ZN8ICETraceD0Ev, __ZN8ICETraceD1Ev,
                            __ZN8ICETraceD2Ev,
                            __ZN8INTTrace10start_syncEN8dispatch5groupE,
                            __ZN8INTTrace11getPropertyERKNSt3__112basic_stringIcNS0_11char_traitsIcEENS0_9allocatorIcEEEERS6_,
                            __ZN8INTTrace11setPropertyEN8dispatch5groupERKNSt3__112basic_stringIcNS2_11char_traitsIcEENS2_9allocatorIcEEEESA_,
                            __ZN8INTTrace12exitLowPowerEN8dispatch5groupE,
                            __ZN8INTTrace12prepare_syncEv,
                            __ZN8INTTrace13enterLowPowerEN8dispatch5groupE,
                            __ZN8INTTrace14createInternalEv,
                            __ZN8INTTrace15sendConfig_syncEN8dispatch5groupENSt3__112basic_stringIcNS2_11char_traitsIcEENS2_9allocatorIcEEEEbb,
                            __ZN8INTTrace15stopReader_syncEv,
                            __ZN8INTTrace16getSettingPrefixEv,
                            __ZN8INTTrace16startReader_syncEv,
                            __ZN8INTTrace18initTraceMode_syncEv,
                            __ZN8INTTrace18setPropConfig_syncEN8dispatch5groupENSt3__112basic_stringIcNS2_11char_traitsIcEENS2_9allocatorIcEEEES8_,
                            __ZN8INTTrace19setPropEnabled_syncEN8dispatch5groupENSt3__112basic_stringIcNS2_11char_traitsIcEENS2_9allocatorIcEEEES8_,
                            __ZN8INTTrace19setPropHistory_syncEN8dispatch5groupENSt3__112basic_stringIcNS2_11char_traitsIcEENS2_9allocatorIcEEEES8_,
                            __ZN8INTTrace20setPropFileSize_syncEN8dispatch5groupENSt3__112basic_stringIcNS2_11char_traitsIcEENS2_9allocatorIcEEEES8_,
                            __ZN8INTTrace21setPropTraceMode_syncEN8dispatch5groupENSt3__112basic_stringIcNS2_11char_traitsIcEENS2_9allocatorIcEEEES8_,
                            __ZN8INTTrace22commandResetModem_syncE9ResetInfo,
                            __ZN8INTTrace23setPropSleepConfig_syncEN8dispatch5groupENSt3__112basic_stringIcNS2_11char_traitsIcEENS2_9allocatorIcEEEES8_,
                            __ZN8INTTrace24setPropPrivacyLevel_syncEN8dispatch5groupENSt3__112basic_stringIcNS2_11char_traitsIcEENS2_9allocatorIcEEEES8_,
                            __ZN8INTTrace25setPropErrorHandling_syncEN8dispatch5groupENSt3__112basic_stringIcNS2_11char_traitsIcEENS2_9allocatorIcEEEES8_,
                            __ZN8INTTrace26setPropSleepTraceMode_syncEN8dispatch5groupENSt3__112basic_stringIcNS2_11char_traitsIcEENS2_9allocatorIcEEEES8_,
                            __ZN8INTTrace26setPropTraceOwnership_syncEN8dispatch5groupENSt3__112basic_stringIcNS2_11char_traitsIcEENS2_9allocatorIcEEEES8_,
                            __ZN8INTTrace29setPropLiveFilterSetting_syncEN8dispatch5groupENSt3__112basic_stringIcNS2_11char_traitsIcEENS2_9allocatorIcEEEES8_,
                            __ZN8INTTrace29setPropTransportReadSize_syncEN8dispatch5groupENSt3__112basic_stringIcNS2_11char_traitsIcEENS2_9allocatorIcEEEES8_,
                            __ZN8INTTrace30setPropMaxMemoryFileCount_syncEN8dispatch5groupENSt3__112basic_stringIcNS2_11char_traitsIcEENS2_9allocatorIcEEEES8_,
                            __ZN8INTTrace30setPropTransportReadCount_syncEN8dispatch5groupENSt3__112basic_stringIcNS2_11char_traitsIcEENS2_9allocatorIcEEEES8_,
                            __ZN8INTTrace32startTraceWithUSBBridgeInterfaceEv,
                            __ZN8INTTrace4initENSt3__112basic_stringIcNS0_11char_traitsIcEENS0_9allocatorIcEEEENS0_8weak_ptrIN3abm19BasebandTracingTaskEEEN8dispatch5groupE,
                            __ZN8INTTrace4stopEN8dispatch5groupEN3ctu2cf11CFSharedRefIK14__CFDictionaryEE,
                            __ZN8INTTrace5abortEN8dispatch5groupEN3ctu2cf11CFSharedRefIK14__CFDictionaryEE,
                            __ZN8INTTrace5startEN8dispatch5groupEN3ctu2cf11CFSharedRefIK14__CFDictionaryEE,
                            __ZN8INTTrace6reinitEN8dispatch5groupEN3ctu2cf11CFSharedRefIK14__CFDictionaryEE,
                            __ZN8INTTrace7getNameEv,
                            __ZN8INTTrace7prepareEN8dispatch5groupEN3ctu2cf11CFSharedRefIK14__CFDictionaryEE,
                            __ZN8INTTrace8shutdownEN8dispatch5groupEN3ctu2cf11CFSharedRefIK14__CFDictionaryEE,
                            __ZN8INTTrace8snapshotEN8dispatch5groupEN3ctu2cf11CFSharedRefIK14__CFDictionaryEE,
                            __ZN8INTTrace9dumpStateEN8dispatch5groupENSt3__112basic_stringIcNS2_11char_traitsIcEENS2_9allocatorIcEEEE,
                            __ZN8INTTrace9stop_syncEN8dispatch5groupE,
                            __ZN8INTTraceC1Ev, __ZN8INTTraceC2Ev,
                            __ZN8INTTraceD0Ev, __ZN8INTTraceD1Ev,
                            __ZN8INTTraceD2Ev,
                            __ZN8defaults10systemlogs24userConfirmationRequiredEv,
                            __ZN8defaults10systemlogs3getERKNSt3__112basic_stringIcNS1_11char_traitsIcEENS1_9allocatorIcEEEERS7_,
                            __ZN8defaults10systemlogs4modeEv,
                            __ZN8defaults10systemlogs7historyEv,
                            __ZN8defaults10systemlogs9supportedEv,
                            __ZN8defaults11compression12splitArchiveEv,
                            __ZN8defaults11compression3getERKNSt3__112basic_stringIcNS1_11char_traitsIcEENS1_9allocatorIcEEEERS7_,
                            __ZN8defaults11compression4modeEv,
                            __ZN8defaults11compression9supportedEv,
                            __ZN8defaults13tracesettings3getERKNSt3__112basic_stringIcNS1_11char_traitsIcEENS1_9allocatorIcEEEERS7_,
                            __ZN8defaults13tracesettings6configEv,
                            __ZN8defaults3getERKNSt3__112basic_stringIcNS0_11char_traitsIcEENS0_9allocatorIcEEEES8_RS6_,
                            __ZN8defaults3ipc12buffer_countEv,
                            __ZN8defaults3ipc3getERKNSt3__112basic_stringIcNS1_11char_traitsIcEENS1_9allocatorIcEEEERS7_,
                            __ZN8defaults3ipc7enabledEv,
                            __ZN8defaults3ipc7historyEv,
                            __ZN8defaults3ttr3getERKNSt3__112basic_stringIcNS1_11char_traitsIcEENS1_9allocatorIcEEEERS7_,
                            __ZN8defaults3ttr4modeEv,
                            __ZN8defaults3ttr8agelimitEv,
                            __ZN8defaults3ttr9supportedEv,
                            __ZN8defaults5bbipc20mhiConfigPayloadSizeEv,
                            __ZN8defaults5bbipc3getERKNSt3__112basic_stringIcNS1_11char_traitsIcEENS1_9allocatorIcEEEERS7_,
                            __ZN8defaults5bbipc7enabledEv,
                            __ZN8defaults5bbipc8logLevelEv,
                            __ZN8defaults6helper9supportedEv,
                            __ZN8defaults7bbtrace11live_filterEv,
                            __ZN8defaults7bbtrace11primary_dmcEv,
                            __ZN8defaults7bbtrace12data_loggingEv,
                            __ZN8defaults7bbtrace12privacyLevelEv,
                            __ZN8defaults7bbtrace13min_file_sizeEv,
                            __ZN8defaults7bbtrace13secondary_dmcEv,
                            __ZN8defaults7bbtrace13stall_retriesEv,
                            __ZN8defaults7bbtrace14error_handlingEv,
                            __ZN8defaults7bbtrace14low_water_markEv,
                            __ZN8defaults7bbtrace14stall_recoveryEv,
                            __ZN8defaults7bbtrace15high_water_markEv,
                            __ZN8defaults7bbtrace15stall_detectionEv,
                            __ZN8defaults7bbtrace17keep_scratch_logsEv,
                            __ZN8defaults7bbtrace19transport_read_sizeEv,
                            __ZN8defaults7bbtrace20buffering_on_ap_wakeEv,
                            __ZN8defaults7bbtrace20enabled_during_sleepEv,
                            __ZN8defaults7bbtrace20transport_read_countEv,
                            __ZN8defaults7bbtrace21max_memory_file_countEv,
                            __ZN8defaults7bbtrace23carrier_logging_allowedEv,
                            __ZN8defaults7bbtrace3getERKNSt3__112basic_stringIcNS1_11char_traitsIcEENS1_9allocatorIcEEEERS7_,
                            __ZN8defaults7bbtrace4modeEv,
                            __ZN8defaults7bbtrace7enabledEv,
                            __ZN8defaults7bbtrace7historyEv,
                            __ZN8defaults7bbtrace9extra_dmcEv,
                            __ZN8defaults7bbtrace9file_sizeEv,
                            __ZN8defaults7bbtrace9high_tputEv,
                            __ZN8defaults7bbtrace9sleep_dmcEv,
                            __ZN8defaults7profile3getERKNSt3__112basic_stringIcNS1_11char_traitsIcEENS1_9allocatorIcEEEERS7_,
                            __ZN8defaults7profile7enabledEv,
                            __ZN8defaults7profile7versionEv,
                            __ZN8defaults8coredump3getERKNSt3__112basic_stringIcNS1_11char_traitsIcEENS1_9allocatorIcEEEERS7_,
                            __ZN8defaults8coredump7enabledEv,
                            __ZN8defaults8tailspin3getERKNSt3__112basic_stringIcNS1_11char_traitsIcEENS1_9allocatorIcEEEERS7_,
                            __ZN8defaults8tailspin7enabledEv,
                            __ZN8defaults8tailspin9supportedEv,
                            __ZN8defaults9logfilter13max_log_limitEv,
                            __ZN8defaults9logfilter16free_space_limitEv,
                            __ZN8defaults9logfilter3getERKNSt3__112basic_stringIcNS1_11char_traitsIcEENS1_9allocatorIcEEEERS7_,
                            __ZN8defaults9logfilter9supportedEv,
                            __ZN9DIAGTrace10abort_syncEN8dispatch5groupEN3ctu2cf11CFSharedRefIK14__CFDictionaryEE,
                            __ZN9DIAGTrace10start_syncEN8dispatch5groupEN3ctu2cf11CFSharedRefIK14__CFDictionaryEEb,
                            __ZN9DIAGTrace11getPropertyERKNSt3__112basic_stringIcNS0_11char_traitsIcEENS0_9allocatorIcEEEERS6_,
                            __ZN9DIAGTrace11setPropertyEN8dispatch5groupERKNSt3__112basic_stringIcNS2_11char_traitsIcEENS2_9allocatorIcEEEESA_,
                            __ZN9DIAGTrace12exitLowPowerEN8dispatch5groupE,
                            __ZN9DIAGTrace13enterLowPowerEN8dispatch5groupE,
                            __ZN9DIAGTrace13filterHistoryEi,
                            __ZN9DIAGTrace13snapshot_syncEN8dispatch5groupEN3ctu2cf11CFSharedRefIK14__CFDictionaryEE,
                            __ZN9DIAGTrace14createInternalEv,
                            __ZN9DIAGTrace16getProperty_syncERKNSt3__112basic_stringIcNS0_11char_traitsIcEENS0_9allocatorIcEEEERS6_,
                            __ZN9DIAGTrace16setProperty_syncERKNSt3__112basic_stringIcNS0_11char_traitsIcEENS0_9allocatorIcEEEES8_RNS_13ServiceActionE,
                            __ZN9DIAGTrace17exitLowPower_syncEN8dispatch5groupE,
                            __ZN9DIAGTrace17getDefaultEnabledEv,
                            __ZN9DIAGTrace17initProperty_syncEv,
                            __ZN9DIAGTrace18enterLowPower_syncEN8dispatch5groupE,
                            __ZN9DIAGTrace18initTraceMode_syncEv,
                            __ZN9DIAGTrace18ratifyDMCFile_syncERKNSt3__112basic_stringIcNS0_11char_traitsIcEENS0_9allocatorIcEEEES8_,
                            __ZN9DIAGTrace18reinitService_syncEb,
                            __ZN9DIAGTrace19destroyService_syncEN8dispatch5groupEN3ctu2cf11CFSharedRefIK14__CFDictionaryEE,
                            __ZN9DIAGTrace19restartService_syncEN8dispatch5groupE,
                            __ZN9DIAGTrace19stallDetection_syncEb,
                            __ZN9DIAGTrace20checkAllDMCName_syncERKNSt3__112basic_stringIcNS0_11char_traitsIcEENS0_9allocatorIcEEEE,
                            __ZN9DIAGTrace21updateDMCSetting_syncENSt3__112basic_stringIcNS0_11char_traitsIcEENS0_9allocatorIcEEEERKS6_,
                            __ZN9DIAGTrace22checkOneOfDMCName_syncERKNSt3__112basic_stringIcNS0_11char_traitsIcEENS0_9allocatorIcEEEE,
                            __ZN9DIAGTrace22commandResetModem_syncE9ResetInfo,
                            __ZN9DIAGTrace22pushServiceConfig_syncEv,
                            __ZN9DIAGTrace24getBasebandOperatingModeEv,
                            __ZN9DIAGTrace25handleTputDMCforADPL_syncERNS_13ServiceActionE,
                            __ZN9DIAGTrace25updateEnableProperty_syncEbRNS_13ServiceActionE,
                            __ZN9DIAGTrace26setPropTraceOwnership_syncERKNSt3__112basic_stringIcNS0_11char_traitsIcEENS0_9allocatorIcEEEES8_,
                            __ZN9DIAGTrace36displayUserNotificationForModeChangeEv,
                            __ZN9DIAGTrace4initENSt3__112basic_stringIcNS0_11char_traitsIcEENS0_9allocatorIcEEEENS0_8weak_ptrIN3abm19BasebandTracingTaskEEEN8dispatch5groupE,
                            __ZN9DIAGTrace4stopEN8dispatch5groupEN3ctu2cf11CFSharedRefIK14__CFDictionaryEE,
                            __ZN9DIAGTrace5abortEN8dispatch5groupEN3ctu2cf11CFSharedRefIK14__CFDictionaryEE,
                            __ZN9DIAGTrace5startEN8dispatch5groupEN3ctu2cf11CFSharedRefIK14__CFDictionaryEE,
                            __ZN9DIAGTrace6reinitEN8dispatch5groupEN3ctu2cf11CFSharedRefIK14__CFDictionaryEE,
                            __ZN9DIAGTrace7prepareEN8dispatch5groupEN3ctu2cf11CFSharedRefIK14__CFDictionaryEE,
                            __ZN9DIAGTrace8shutdownEN8dispatch5groupEN3ctu2cf11CFSharedRefIK14__CFDictionaryEE,
                            __ZN9DIAGTrace8snapshotEN8dispatch5groupEN3ctu2cf11CFSharedRefIK14__CFDictionaryEE,
                            __ZN9DIAGTrace9dumpStateEN8dispatch5groupENSt3__112basic_stringIcNS2_11char_traitsIcEENS2_9allocatorIcEEEE,
                            __ZN9DIAGTrace9stop_syncEN8dispatch5groupEN3ctu2cf11CFSharedRefIK14__CFDictionaryEEb,
                            __ZN9DIAGTraceC1Ev, __ZN9DIAGTraceC2Ev,
                            __ZN9DIAGTraceD0Ev, __ZN9DIAGTraceD1Ev,
                            __ZN9DIAGTraceD2Ev,
                            __ZN9ResetInfo10setSubTypeEPK10__CFString,
                            __ZN9ResetInfo13fetchFromDictERN3xpc4dictE,
                            __ZN9ResetInfo13sPatternMasksE,
                            __ZN9ResetInfo14setCrashReasonERKNSt3__112basic_stringIcNS0_11char_traitsIcEENS0_9allocatorIcEEEE,
                            __ZN9ResetInfo23readResetReasonPatternsEv,
                            __ZN9ResetInfo7setTimeENSt3__112basic_stringIcNS0_11char_traitsIcEENS0_9allocatorIcEEEE,
                            __ZN9ResetInfo7setTypeEPK10__CFString,
                            __ZN9ResetInfo8setRadarEN3abm6helper9RadarTypeE,
                            __ZN9ResetInfo9setReasonERKNSt3__112basic_stringIcNS0_11char_traitsIcEENS0_9allocatorIcEEEE,
                            __ZN9ResetInfoC1EPK10__CFStringS2_NSt3__112basic_stringIcNS3_11char_traitsIcEENS3_9allocatorIcEEEES9_N3abm6helper9RadarTypeES9_,
                            __ZN9ResetInfoC1ERKNSt3__112basic_stringIcNS0_11char_traitsIcEENS0_9allocatorIcEEEES8_S8_S6_N3abm6helper9RadarTypeES6_,
                            __ZN9ResetInfoC1Ev,
                            __ZN9ResetInfoC2EPK10__CFStringS2_NSt3__112basic_stringIcNS3_11char_traitsIcEENS3_9allocatorIcEEEES9_N3abm6helper9RadarTypeES9_,
                            __ZN9ResetInfoC2ERKNSt3__112basic_stringIcNS0_11char_traitsIcEENS0_9allocatorIcEEEES8_S8_S6_N3abm6helper9RadarTypeES6_,
                            __ZN9ResetInfoC2Ev, __ZN9ResetInfoD1Ev,
                            __ZN9ResetInfoD2Ev, __ZN9Timestamp3nowER7timeval,
                            __ZN9Timestamp3setERK7timevalNS_10TimeDomainE,
                            __ZN9Timestamp7convertENSt3__112basic_stringIcNS0_11char_traitsIcEENS0_9allocatorIcEEEE,
                            __ZN9TimestampC1ENSt3__112basic_stringIcNS0_11char_traitsIcEENS0_9allocatorIcEEEENS_6FormatENS_10TimeDomainE,
                            __ZN9TimestampC1ERK7timevalNS_10TimeDomainE,
                            __ZN9TimestampC1ERKS_,
                            __ZN9TimestampC1ElNS_10TimeDomainE,
                            __ZN9TimestampC1Ev,
                            __ZN9TimestampC2ENSt3__112basic_stringIcNS0_11char_traitsIcEENS0_9allocatorIcEEEENS_6FormatENS_10TimeDomainE,
                            __ZN9TimestampC2ERK7timevalNS_10TimeDomainE,
                            __ZN9TimestampC2ERKS_,
                            __ZN9TimestampC2ElNS_10TimeDomainE,
                            __ZN9TimestampC2Ev,
                            __ZNK12Capabilities26isCMHandDetectionSupportedEv,
                            __ZNK14KernelPCITrace14dumpState_syncENSt3__112basic_stringIcNS0_11char_traitsIcEENS0_9allocatorIcEEEEbc,
                            __ZNK14KernelPCITrace15historyAsStringEv,
                            __ZNK14ResetDetection7getNameEv,
                            __ZNK17BasebandTransport10Parameters8toStringEv,
                            __ZNK17BasebandTransport6Status8toStringEv,
                            __ZNK17KernelPCIABPTrace14dumpState_syncENSt3__112basic_stringIcNS0_11char_traitsIcEENS0_9allocatorIcEEEEbc,
                            __ZNK17KernelPCIABPTrace15historyAsStringEv,
                            __ZNK18SoftwareBypassShim11isSupportedEv,
                            __ZNK18SoftwareBypassShim27bypassInterfaceMaskAsStringEi,
                            __ZNK18SoftwareBypassShim9bypassCtlEi,
                            __ZNK21CircularFileLogWriter21generateFileName_syncEm,
                            __ZNK3abm14FileProperties10getDirPathEv,
                            __ZNK3abm14FileProperties11isDirectoryEv,
                            __ZNK3abm14FileProperties6getDirEv,
                            __ZNK3abm14FileProperties7getNameEv,
                            __ZNK3abm14FileProperties7getPathEv,
                            __ZNK3abm14FileProperties8getStateEv,
                            __ZNK3abm19BasebandTracingTask14traceSupportedERKNSt3__112basic_stringIcNS1_11char_traitsIcEENS1_9allocatorIcEEEE,
                            __ZNK3abm19BasebandTracingTask16getTraceNoAssertERKNSt3__112basic_stringIcNS1_11char_traitsIcEENS1_9allocatorIcEEEE,
                            __ZNK3abm19BasebandTracingTask22isStateTransitionValidENS0_5StateE,
                            __ZNK3abm19BasebandTracingTask8getTraceERKNSt3__112basic_stringIcNS1_11char_traitsIcEENS1_9allocatorIcEEEE,
                            __ZNK3abm20HelperServerInternal7getNameEv,
                            __ZNK3abm21ProfileManagementTask11reboot_syncEv,
                            __ZNK3abm21ProfileManagementTask27rebootWithConfirmation_syncEv,
                            __ZNK4diag10DIAGReader12getReadCountEv,
                            __ZNK4diag10DIAGReader9isStartedEv,
                            __ZNK4diag14DIAGConfigurer7getNameEv,
                            __ZNK4diag7Service8getStateEv,
                            __ZNK4diag8FileInfo12shouldFilterEv,
                            __ZNK7support3log6client10descriptoreqERKS2_,
                            __ZNK7support3log6client11get_managerEv,
                            __ZNK7support3log6client14get_descriptorEv,
                            __ZNK7support3log7manager14get_log_bufferEv,
                            __ZNK7support3log7manager17message_delegatesERKNS0_7detailsEPc,
                            __ZNK7support3log7manager18release_log_bufferEPc,
                            __ZNK7support3log7manager9get_levelEv,
                            __ZNK7support3log8delegate11get_contextEv,
                            __ZNK8ICETrace14dumpState_syncENSt3__112basic_stringIcNS0_11char_traitsIcEENS0_9allocatorIcEEEEbc,
                            __ZNK8ICETrace19getStateAsDict_syncERKNSt3__112basic_stringIcNS0_11char_traitsIcEENS0_9allocatorIcEEEE,
                            __ZNK8ICETrace20historyAsString_syncEv,
                            __ZNK8INTTrace14dumpState_syncENSt3__112basic_stringIcNS0_11char_traitsIcEENS0_9allocatorIcEEEE,
                            __ZNK8INTTrace19getStateAsDict_syncERKNSt3__112basic_stringIcNS0_11char_traitsIcEENS0_9allocatorIcEEEE,
                            __ZNK8INTTrace20historyAsString_syncEv,
                            __ZNK9DIAGTrace14dumpState_syncENSt3__112basic_stringIcNS0_11char_traitsIcEENS0_9allocatorIcEEEEbc,
                            __ZNK9DIAGTrace15historyAsStringEv,
                            __ZNK9DIAGTrace18stateFlagsAsStringEv,
                            __ZNK9DIAGTrace19getStateAsDict_syncERKNSt3__112basic_stringIcNS0_11char_traitsIcEENS0_9allocatorIcEEEE,
                            __ZNK9ResetInfo10getSubTypeEv,
                            __ZNK9ResetInfo12shouldSetCOFEv,
                            __ZNK9ResetInfo12shouldSetSCDEv,
                            __ZNK9ResetInfo13getChronoTimeEv,
                            __ZNK9ResetInfo14getCrashReasonEv,
                            __ZNK9ResetInfo45resetReasonMatchesAtLeastOneApplicablePatternEiRKNSt3__112basic_stringIcNS0_11char_traitsIcEENS0_9allocatorIcEEEERKNS0_6vectorINS_25RegexPatternAndReasonMaskENS4_ISA_EEEE,
                            __ZNK9ResetInfo6isMTBFEv, __ZNK9ResetInfo7getTimeEv,
                            __ZNK9ResetInfo7getTypeEv,
                            __ZNK9ResetInfo8asStringEv,
                            __ZNK9ResetInfo8getRadarEv,
                            __ZNK9ResetInfo9addToDictERN3ctu2cf11CFSharedRefI14__CFDictionaryEE,
                            __ZNK9ResetInfo9addToDictERN3xpc4dictE,
                            __ZNK9ResetInfo9getReasonEv,
                            __ZNK9Timestamp3getER7timevalNS_10TimeDomainE,
                            __ZNK9Timestamp8asStringENS_10TimeDomainENS_6FormatE,
                            __ZTI13CoredumpTrace, __ZTI14KernelPCITrace,
                            __ZTI14ResetDetection, __ZTI16BasebandIPCTrace,
                            __ZTI16EURCoreDumpTrace, __ZTI16ICECoredumpTrace,
                            __ZTI17BasebandTransport, __ZTI17KernelPCIABPTrace,
                            __ZTI19BasebandIPCTraceICE,
                            __ZTI20BasebandTransportICE,
                            __ZTI20BasebandTransportMAV,
                            __ZTI21CircularFileLogWriter,
                            __ZTI27SAHEURCoreDumpTraceProtocol, __ZTI8ICETrace,
                            __ZTI8INTTrace, __ZTI9DIAGTrace,
                            __ZTIN3abm10HelperTaskE, __ZTIN3abm14SystemLogsTaskE,
                            __ZTIN3abm14TapToRadarTaskE,
                            __ZTIN3abm17LogManagementTaskE,
                            __ZTIN3abm18CellularLoggingEURE,
                            __ZTIN3abm18CellularLoggingINTE,
                            __ZTIN3abm18LogCompressionTaskE,
                            __ZTIN3abm19BasebandTracingTaskE,
                            __ZTIN3abm19CellularLoggingTaskE,
                            __ZTIN3abm19DiagnosticToolsTaskE,
                            __ZTIN3abm20HelperServerInternalE,
                            __ZTIN3abm21CellularLoggingCommonE,
                            __ZTIN3abm21ProfileManagementTaskE,
                            __ZTIN3abm4data13DataPowerSaveE,
                            __ZTIN3abm4data15DataFlowControlE,
                            __ZTIN3abm4data22DataAggregationMaxSizeE,
                            __ZTIN3abm4data23DataAggregationProtocolE,
                            __ZTIN3abm4data27DataAggregationMaxDatagramsE,
                            __ZTIN4diag14DIAGConfigurerE,
                            __ZTIN4diag17DIAGConfigurerPCIE,
                            __ZTIN4diag17DIAGConfigurerUSBE,
                            __ZTIN7support3log15stdout_delegateE,
                            __ZTIN7support3log7manager10parametersE,
                            __ZTIN7support3log7managerE,
                            __ZTIN7support3log8delegateE,
                            __ZTIN7support9transport3ARIE, __ZTS13CoredumpTrace,
                            __ZTS14KernelPCITrace, __ZTS14ResetDetection,
                            __ZTS16BasebandIPCTrace, __ZTS16EURCoreDumpTrace,
                            __ZTS16ICECoredumpTrace, __ZTS17BasebandTransport,
                            __ZTS17KernelPCIABPTrace, __ZTS19BasebandIPCTraceICE,
                            __ZTS20BasebandTransportICE,
                            __ZTS20BasebandTransportMAV,
                            __ZTS21CircularFileLogWriter,
                            __ZTS27SAHEURCoreDumpTraceProtocol, __ZTS8ICETrace,
                            __ZTS8INTTrace, __ZTS9DIAGTrace,
                            __ZTSN3abm10HelperTaskE, __ZTSN3abm14SystemLogsTaskE,
                            __ZTSN3abm14TapToRadarTaskE,
                            __ZTSN3abm17LogManagementTaskE,
                            __ZTSN3abm18CellularLoggingEURE,
                            __ZTSN3abm18CellularLoggingINTE,
                            __ZTSN3abm18LogCompressionTaskE,
                            __ZTSN3abm19BasebandTracingTaskE,
                            __ZTSN3abm19CellularLoggingTaskE,
                            __ZTSN3abm19DiagnosticToolsTaskE,
                            __ZTSN3abm20HelperServerInternalE,
                            __ZTSN3abm21CellularLoggingCommonE,
                            __ZTSN3abm21ProfileManagementTaskE,
                            __ZTSN3abm4data13DataPowerSaveE,
                            __ZTSN3abm4data15DataFlowControlE,
                            __ZTSN3abm4data22DataAggregationMaxSizeE,
                            __ZTSN3abm4data23DataAggregationProtocolE,
                            __ZTSN3abm4data27DataAggregationMaxDatagramsE,
                            __ZTSN4diag14DIAGConfigurerE,
                            __ZTSN4diag17DIAGConfigurerPCIE,
                            __ZTSN4diag17DIAGConfigurerUSBE,
                            __ZTSN7support3log15stdout_delegateE,
                            __ZTSN7support3log7manager10parametersE,
                            __ZTSN7support3log7managerE,
                            __ZTSN7support3log8delegateE,
                            __ZTSN7support9transport3ARIE, __ZTV13CoredumpTrace,
                            __ZTV14KernelPCITrace, __ZTV14ResetDetection,
                            __ZTV16BasebandIPCTrace, __ZTV16EURCoreDumpTrace,
                            __ZTV16ICECoredumpTrace, __ZTV17BasebandTransport,
                            __ZTV17KernelPCIABPTrace, __ZTV19BasebandIPCTraceICE,
                            __ZTV20BasebandTransportICE,
                            __ZTV20BasebandTransportMAV,
                            __ZTV21CircularFileLogWriter,
                            __ZTV27SAHEURCoreDumpTraceProtocol, __ZTV8ICETrace,
                            __ZTV8INTTrace, __ZTV9DIAGTrace,
                            __ZTVN3abm10HelperTaskE, __ZTVN3abm14SystemLogsTaskE,
                            __ZTVN3abm14TapToRadarTaskE,
                            __ZTVN3abm17LogManagementTaskE,
                            __ZTVN3abm18CellularLoggingEURE,
                            __ZTVN3abm18CellularLoggingINTE,
                            __ZTVN3abm18LogCompressionTaskE,
                            __ZTVN3abm19BasebandTracingTaskE,
                            __ZTVN3abm19CellularLoggingTaskE,
                            __ZTVN3abm19DiagnosticToolsTaskE,
                            __ZTVN3abm20HelperServerInternalE,
                            __ZTVN3abm21CellularLoggingCommonE,
                            __ZTVN3abm21ProfileManagementTaskE,
                            __ZTVN3abm4data13DataPowerSaveE,
                            __ZTVN3abm4data15DataFlowControlE,
                            __ZTVN3abm4data22DataAggregationMaxSizeE,
                            __ZTVN3abm4data23DataAggregationProtocolE,
                            __ZTVN3abm4data27DataAggregationMaxDatagramsE,
                            __ZTVN4diag14DIAGConfigurerE,
                            __ZTVN4diag17DIAGConfigurerPCIE,
                            __ZTVN4diag17DIAGConfigurerUSBE,
                            __ZTVN7support3log15stdout_delegateE,
                            __ZTVN7support3log7manager10parametersE,
                            __ZTVN7support3log7managerE,
                            __ZTVN7support3log8delegateE,
                            __ZTVN7support9transport3ARIE,
                            _kABMDefaultServiceName, _kCommandCheckIn,
                            _kCommandCheckOut, _kCommandEventsOff,
                            _kCommandEventsOn, _kCommandSignalNotification,
                            _kDaemonLogScratchDir, _kDefaultPatternMasks,
                            _kKeepScratchLogsKey, _kKeyClientName, _kKeyCommand,
                            _kKeyCommandData, _kKeyCommandResult, _kKeyEvent,
                            _kKeyEventData, _kKeyEventsList, _kOptionServiceName,
                            _kValueInvalid, _sCanHostHelperServer ]
    objc-classes:         [ ABMCacheDelete ]
    weak-def-symbols:     [ __ZGVN3ctu9SingletonI10SharedDataS1_NS_23PthreadMutexGuardPolicyIS1_EEE9sInstanceE,
                            __ZGVN3ctu9SingletonI13ABMPropertiesS1_NS_23PthreadMutexGuardPolicyIS1_EEE9sInstanceE,
                            __ZGVN3ctu9SingletonI13ServerLoggingS1_NS_23PthreadMutexGuardPolicyIS1_EEE9sInstanceE,
                            __ZGVN3ctu9SingletonI20CommandDriverFactoryS1_NS_23PthreadMutexGuardPolicyIS1_EEE9sInstanceE,
                            __ZGVN3ctu9SingletonIN7support3log14manager_globalES3_NS_23PthreadMutexGuardPolicyIS3_EEE9sInstanceE,
                            __ZGVN3ctu9SingletonIN7support3log6bufferES3_NS_23PthreadMutexGuardPolicyIS3_EEE9sInstanceE,
                            __ZGVN3ctu9SingletonINS_18XpcJetsamAssertionES1_NS_23PthreadMutexGuardPolicyIS1_EEE9sInstanceE,
                            __ZGVN3ctu9SingletonINS_7GestaltES1_NS_23PthreadMutexGuardPolicyIS1_EEE9sInstanceE,
                            __ZN3ctu9SingletonI10SharedDataS1_NS_23PthreadMutexGuardPolicyIS1_EEE9sInstanceE,
                            __ZN3ctu9SingletonI13ABMPropertiesS1_NS_23PthreadMutexGuardPolicyIS1_EEE9sInstanceE,
                            __ZN3ctu9SingletonI13ServerLoggingS1_NS_23PthreadMutexGuardPolicyIS1_EEE9sInstanceE,
                            __ZN3ctu9SingletonI20CommandDriverFactoryS1_NS_23PthreadMutexGuardPolicyIS1_EEE9sInstanceE,
                            __ZN3ctu9SingletonIN7support3log14manager_globalES3_NS_23PthreadMutexGuardPolicyIS3_EEE9sInstanceE,
                            __ZN3ctu9SingletonIN7support3log6bufferES3_NS_23PthreadMutexGuardPolicyIS3_EEE9sInstanceE,
                            __ZN3ctu9SingletonINS_18XpcJetsamAssertionES1_NS_23PthreadMutexGuardPolicyIS1_EEE9sInstanceE,
                            __ZN3ctu9SingletonINS_7GestaltES1_NS_23PthreadMutexGuardPolicyIS1_EEE9sInstanceE ]
...
