--- !tapi-tbd-v3
archs:                 [ armv7, armv7s, arm64, arm64e ]
platform:              ios
flags:                 [ flat_namespace ]
install-name:          /System/Library/PrivateFrameworks/iWorkImport.framework/Frameworks/PagesQuicklook.framework/PagesQuicklook
current-version:       1
compatibility-version: 1
objc-constraint:       retain_release
exports:
  - archs:                [ armv7, armv7s, arm64, arm64e ]
    symbols:              [ _NSStringFromTPStatisticsType, _TPBundle,
                            _TPDefaultFontForNewBasicDocumentsEnabledUserDefault,
                            _TPDefaultFontForNewBasicDocumentsFontNameUserDefault,
                            _TPDefaultFontForNewBasicDocumentsPointSizeUserDefault,
                            _TPDocumentRootDidExportNotification,
                            _TPDocumentRootWillExportNotification,
                            _TPFlowLayoutCat_init_token, _TPFlowLayoutCat_log_t,
                            _TPHasBodyChangedNotification, _TPIndexOfLastSection,
                            _TPIsLastSection, _TPLogPaginationCat,
                            _TPLogPaginationCat_init_token,
                            _TPLogPaginationCat_log_t,
                            _TPMacInspectorSegmentIdentifierFormat,
                            _TPMacInspectorSegmentIdentifierSetup,
                            _TPNextSectionIndex,
                            _TPObjectPlacementCat_init_token,
                            _TPObjectPlacementCat_log_t,
                            _TPPageCanvasPointCat_init_token,
                            _TPPageCanvasPointCat_log_t,
                            _TPPageDidLayoutCharIndexRange,
                            _TPPageDidLayoutNotification,
                            _TPPageDidLayoutPageIndex,
                            _TPPageDidSyncNotification,
                            _TPPaginationCat_init_token, _TPPaginationCat_log_t,
                            _TPPaginationVerboseCat_init_token,
                            _TPPaginationVerboseCat_log_t,
                            _TPRegisterPersistentClasses,
                            _TPResetMetricsCacheKey, _TPSectionCharRange,
                            __Z25NSStringFromPageRowColumnmm,
                            __ZN19TPSectionEnumerator16lastSectionIndexEmP11TSWPStorage,
                            __ZN19TPSectionEnumerator17firstSectionIndexEmP11TSWPStorage,
                            __ZN19TPSectionEnumerator18fixSectionRangeEndEv,
                            __ZN19TPSectionEnumerator20fixSectionRangeStartEv,
                            __ZN19TPSectionEnumeratorC1EP11TSWPStoragemm,
                            __ZN19TPSectionEnumeratorC1ERKS_,
                            __ZN19TPSectionEnumeratorC1Ev,
                            __ZN19TPSectionEnumeratorC2EP11TSWPStoragemm,
                            __ZN19TPSectionEnumeratorC2ERKS_,
                            __ZN19TPSectionEnumeratorC2Ev,
                            __ZN19TPSectionEnumeratorD1Ev,
                            __ZN19TPSectionEnumeratorD2Ev,
                            __ZN19TPSectionEnumeratormmEi,
                            __ZN19TPSectionEnumeratormmEv,
                            __ZN19TPSectionEnumeratorppEi,
                            __ZN19TPSectionEnumeratorppEv,
                            __ZN20TPPageHintEnumerator15finishIfInvalidEv,
                            __ZN20TPPageHintEnumerator21findDocumentPageIndexEv,
                            __ZN20TPPageHintEnumerator6finishEv,
                            __ZN20TPPageHintEnumeratorC1EP7NSArray,
                            __ZN20TPPageHintEnumeratorC1EP7NSArrayP15TPPageIndexPathl,
                            __ZN20TPPageHintEnumeratorC1EP7NSArraym,
                            __ZN20TPPageHintEnumeratorC2EP7NSArray,
                            __ZN20TPPageHintEnumeratorC2EP7NSArrayP15TPPageIndexPathl,
                            __ZN20TPPageHintEnumeratorC2EP7NSArraym,
                            __ZN20TPPageHintEnumeratorD1Ev,
                            __ZN20TPPageHintEnumeratorD2Ev,
                            __ZN20TPPageHintEnumeratormmEv,
                            __ZN20TPPageHintEnumeratorppEv,
                            __ZNK19TPSectionEnumerator12sectionTableEv,
                            __ZNK19TPSectionEnumerator13isLastSectionEv,
                            __ZNK19TPSectionEnumerator14isFirstSectionEv,
                            __ZNK19TPSectionEnumerator16sectionCharRangeEv,
                            __ZNK19TPSectionEnumerator24firstVisibleSectionIndexEv,
                            __ZNK19TPSectionEnumerator7sectionEP8_NSRange,
                            __ZNK19TPSectionEnumeratoreqERKS_,
                            __ZNK20TPPageHintEnumerator10isFinishedEv,
                            __ZNK20TPPageHintEnumerator11sectionHintEv,
                            __ZNK20TPPageHintEnumerator12sectionIndexEv,
                            __ZNK20TPPageHintEnumerator13anchoredRangeEv,
                            __ZNK20TPPageHintEnumerator13lastChildHintEv,
                            __ZNK20TPPageHintEnumerator14firstChildHintEv,
                            __ZNK20TPPageHintEnumerator17documentPageIndexEv,
                            __ZNK20TPPageHintEnumerator19footnoteLayoutRangeEv,
                            __ZNK20TPPageHintEnumerator23footnoteAutoNumberRangeEv,
                            __ZNK20TPPageHintEnumerator8lastHintEv,
                            __ZNK20TPPageHintEnumerator8pageHintEv,
                            __ZNK20TPPageHintEnumerator8pageKindEv,
                            __ZNK20TPPageHintEnumerator9bodyRangeEv,
                            __ZNK20TPPageHintEnumerator9firstHintEv,
                            __ZNK20TPPageHintEnumerator9pageIndexEv,
                            __ZppR14TPFootnoteKind, __ZppR14TPFootnoteKindi,
                            __ZppR16TPFootnoteFormat, __ZppR16TPFootnoteFormati,
                            __ZppR16TPPageMasterType, __ZppR16TPPageMasterTypei,
                            __ZppR19TPFootnoteNumbering,
                            __ZppR19TPFootnoteNumberingi,
                            _kHorizontalGapBetweenPages, _kMaxCacheSize,
                            _kPageMarginInPoints,
                            _kTPDocumentRootContainedObjectsPageTemplatesContainer,
                            _kTPDocumentSetupLeftPageIndex,
                            _kTPDocumentSetupPageIndex,
                            _kTPDocumentSetupRightPageIndex,
                            _kTPEPUBDocumentType, _kTPEmptyDrawableTag,
                            _kTPITMSPPackageType, _kTPMSWordDOCDocumentType,
                            _kTPMSWordDOCMDocumentType,
                            _kTPMSWordDOCXDocumentType,
                            _kTPMSWordDOTDocumentType,
                            _kTPMSWordDOTMDocumentType,
                            _kTPMSWordDOTXDocumentType, _kTPMaximumDrawableIndex,
                            _kTPPDFDocumentType, _kTPPageTemplateAddedOrRemoved,
                            _kTPPageTemplateBlankTemplateUUIDString,
                            _kTPPageTemplateContainedObjectsPlaceholdersContainer,
                            _kTPPageTemplateMaximumNameLength,
                            _kTPPrintBackgrounds, _kTPPrintComments,
                            _kTPPrintSmartAnnotations,
                            _kTPTemplateStartPageIndex,
                            _kTPiWorkPagesPkgDocumentType,
                            _kTPiWorkPagesPkgTemplateType,
                            _kTPiWorkPagesSFFDocumentType,
                            _kTPiWorkPagesSFFTemplateType,
                            _kTPiWorkPagesTEFDocumentType,
                            _kVSpecDividerLineWidthInPoints,
                            _kVSpecGapFromSidebarToDocContentForOneInchLeftMargin,
                            _kVSpecGapFromSidebarToDocContentForZeroInchLeftMargin,
                            _kVSpecMaxSidebarContentWidthInPoints,
                            _kVSpecMinSidebarContentWidthInPoints,
                            _kVerticalGapBetweenPages ]
    objc-classes:         [ TPAllFootnoteSelection, TPAppDelegate,
                            TPAppPropertiesProvider,
                            TPArchivedAllFootnoteSelection,
                            TPArchivedCanvasSelection, TPArchivedLayoutState,
                            TPArchivedUIState, TPBaseCompatibilityDelegate,
                            TPBodyInfo, TPBodyLayout, TPBodyRep, TPCanvasSelection,
                            TPDocumentRoot, TPDocumentSettings, TPDrawablesZOrder,
                            TPEndnotePageGenerator, TPFillerPageGenerator,
                            TPFloatingDrawables, TPFootnoteContainerLayout,
                            TPFootnoteContainerRep, TPFootnoteHeightMeasurer,
                            TPFootnoteLayoutController,
                            TPFootnotePropertyStrings, TPFootnoteRep,
                            TPGilliganCompatibilityDelegate,
                            TPHeaderFooterFragmentEnumerator,
                            TPHeaderFragmentImportHelper, TPHeaderRep,
                            TPInflatableFootnoteContainerLayout,
                            TPLayerDelegateProxy, TPLayoutState, TPNullChildHint,
                            TPOffscreenLayoutController, TPOrphanPageGenerator,
                            TPPageController, TPPageControllerCanvasDelegate,
                            TPPageHint, TPPageIndexPath, TPPageInfo, TPPageLayout,
                            TPPageLayoutNotifier, TPPageLayoutPageGenerator,
                            TPPageMaster, TPPageRep, TPPageTemplate,
                            TPPaginatedPageInfo, TPPdfExporter,
                            TPPdfHyperlinkController, TPPlaceholderInfo,
                            TPPreviewExporter, TPQuicklookAppDelegate,
                            TPQuicklookCompatibilityDelegate,
                            TPRenderingExporter, TPRenderingExporterPageEntry,
                            TPRootLayout, TPSection, TPSectionHint,
                            TPShapeTextWrapController,
                            TPTextFlowLayoutController, TPTextImporter,
                            TPTextPageGenerator, TPTextWrapController,
                            TPTextWrapCookie, TPTheme, TPThumbnailImager, TPUIState,
                            TPViewStateRoot, TPVisibleColumnProxy,
                            _TtC14PagesQuicklook17TPPageLayoutCache,
                            _TtC14PagesQuicklook17TPPaginationState ]
    objc-ivars:           [ TPArchivedCanvasSelection._selection,
                            TPCanvasSelection.mAdditionalInfos,
                            TPCanvasSelection.mExcludedInfos,
                            TPCanvasSelection.mInfos,
                            TPDocumentRoot._citationRecords,
                            TPDocumentRoot._shouldUniquifyTableNames,
                            TPDrawablesZOrder._drawables,
                            TPEndnotePageGenerator._footnoteLayoutController,
                            TPInflatableFootnoteContainerLayout._inflated,
                            TPOrphanPageGenerator._documentRoot,
                            TPPageMaster._documentRoot,
                            TPPageMaster._headerFooters,
                            TPPageMaster._masterDrawables, TPPageMaster._section,
                            TPSection._pageMasters,
                            TPTextWrapController._canvasSpaceToWrapSpace,
                            TPTextWrapController._wrapSpaceToCanvasSpace ]
undefineds:
  - archs:                [ armv7, armv7s, arm64, arm64e ]
    symbols:              [ _CFAbsoluteTimeGetCurrent, _CFLocaleCreate, _CFRelease,
                            _CFRetain, _CGAffineTransformInvert,
                            _CGAffineTransformIsIdentity,
                            _CGAffineTransformMakeTranslation, _CGColorRelease,
                            _CGContextBeginPage, _CGContextEndPage,
                            _CGContextFillRect, _CGContextRestoreGState,
                            _CGContextSaveGState, _CGContextScaleCTM,
                            _CGContextSetFillColorWithColor, _CGImageRelease,
                            _CGPathAddRectSafe, _CGPathCreateMutable,
                            _CGPathRelease, _CGPointZero,
                            _CGRectApplyAffineTransform, _CGRectEqualToRect,
                            _CGRectGetHeight, _CGRectGetMaxX, _CGRectGetMaxY,
                            _CGRectGetMinX, _CGRectGetMinY, _CGRectGetWidth,
                            _CGRectIntersection, _CGRectIntersectsRect,
                            _CGRectIsEmpty, _CGRectNull, _CGRectOffset, _CGRectUnion,
                            _CGRectZero, _CGSizeZero,
                            _IsParagraphBreakingCharacter,
                            _NSCurrentLocaleDidChangeNotification,
                            _NSInternalInconsistencyException,
                            _NSIntersectionRange, _NSInvalidRange,
                            _NSLocaleUsesMetricSystem, _NSStringFromCGRect,
                            _NSStringFromClass, _NSStringFromRange, _NSUnionRange,
                            _TSALocalizableStringsTableName,
                            _TSARegisterPersistentClasses,
                            _TSCERegisterPersistentClasses,
                            _TSCHRegisterPersistentClasses,
                            _TSDNearestParentInfoOfClassFromInfo,
                            _TSDRegisterPersistentClasses,
                            _TSDRegisterPropertyCommandObjects,
                            _TSDTopmostInfoFromInfo,
                            _TSKRegisterPersistentClasses, _TSPVersionFirst,
                            _TSPVersionG10, _TSPVersionG1_6, _TSPVersionG2_3,
                            _TSPVersionG2_4, _TSPVersionG3_1, _TSPVersionG4,
                            _TSSParagraphStylePresetKind, _TSSPropertyGetType,
                            _TSSRegisterPersistentClasses,
                            _TSSRegisterPropertyCommandObjects,
                            _TSSTOCEntryStylePresetKind,
                            _TSSTOCSettingsPresetKind, _TSSTextStylePresetKind,
                            _TSTRegisterPersistentClasses,
                            _TSTRegisterPropertyCommandObjects,
                            _TSUCGColorCreateDeviceGray,
                            _TSUCheckedClassAndProtocolCast,
                            _TSUCheckedDynamicCast, _TSUCheckedProtocolCast,
                            _TSUClassAndProtocolCast, _TSUCrashBreakpoint,
                            _TSUDefaultCat_init_token, _TSUDefaultCat_log_t,
                            _TSUDynamicCast, _TSUErrorCat_init_token,
                            _TSUErrorCat_log_t, _TSUHasBiDiLanguage,
                            _TSUHashWithSeed, _TSUIsLocaleISO, _TSULogBacktrace,
                            _TSULogCreateCategory, _TSUMultiplySizeScalar,
                            _TSUNearlyContainsRect,
                            _TSUObjectReferenceDescription, _TSUPointNull,
                            _TSUPointsAlmostEqual, _TSUProtocolCast,
                            _TSURectGetMaxPoint, _TSURectWithSize, _TSURound,
                            _TSURoundedSize, _TSUSetCrashReporterInfo,
                            _TSUSystemVersionNumber, _TSUWarningCat_init_token,
                            _TSUWarningCat_log_t, _TSUZeroRange,
                            _TSWPHyperlinkFieldBookmarkLinkPrefix,
                            _TSWPHyperlinkFieldSectionLinkPrefix,
                            _TSWPNumberTypeForLocale,
                            _TSWPPreviousCharIndexFromTextSource,
                            _TSWPRegisterPersistentClasses,
                            _TSWPRegisterPropertyCommandObjects,
                            _TSWPSageDefaultTOCEntryStyleIdentifier,
                            _TSWPTextColorOverrideDidChangeNotification,
                            _TSWPTextContentTagBody1,
                            _TSWPUnityDefaultTOCEntryStyleIdentifier,
                            __Block_copy, __Block_object_assign,
                            __Block_object_dispose, __Block_release,
                            __NSConcreteGlobalBlock, __NSConcreteStackBlock,
                            __Unwind_Resume, __Z17TSPCGFloatToFloatd,
                            __Z19TSPCGFloatFromFloatf,
                            __Z21TSPCGPointFromMessageRKN3TSP5PointE,
                            __Z21TSPNSRangeFromMessageRKN3TSP5RangeE,
                            __Z22TSPCGSizeCopyToMessage6CGSizeRN3TSP4SizeE,
                            __Z23TSPCGPointCopyToMessage7CGPointRN3TSP5PointE,
                            __Z23TSPNSRangeCopyToMessage8_NSRangeRN3TSP5RangeE,
                            __Z26TSPCGSizeCreateFromMessageRKN3TSP4SizeE,
                            __ZN23TSWPParagraphEnumeratorD1Ev,
                            __ZN23TSWPParagraphEnumeratormmEv,
                            __ZN28protobuf_TSAArchives_2eproto14AddDescriptorsEv,
                            __ZN28protobuf_TSAArchives_2eproto24scc_info_DocumentArchiveE,
                            __ZN28protobuf_TSDArchives_2eproto14AddDescriptorsEv,
                            __ZN28protobuf_TSDArchives_2eproto20scc_info_FillArchiveE,
                            __ZN28protobuf_TSKArchives_2eproto14AddDescriptorsEv,
                            __ZN28protobuf_TSKArchives_2eproto29scc_info_SelectionPathArchiveE,
                            __ZN28protobuf_TSPMessages_2eproto13scc_info_SizeE,
                            __ZN28protobuf_TSPMessages_2eproto13scc_info_UUIDE,
                            __ZN28protobuf_TSPMessages_2eproto14AddDescriptorsEv,
                            __ZN28protobuf_TSPMessages_2eproto14scc_info_PointE,
                            __ZN28protobuf_TSPMessages_2eproto14scc_info_RangeE,
                            __ZN28protobuf_TSPMessages_2eproto17scc_info_UUIDPathE,
                            __ZN28protobuf_TSPMessages_2eproto18scc_info_ReferenceE,
                            __ZN28protobuf_TSPMessages_2eproto22scc_info_DataReferenceE,
                            __ZN28protobuf_TSSArchives_2eproto14AddDescriptorsEv,
                            __ZN28protobuf_TSSArchives_2eproto21scc_info_ThemeArchiveE,
                            __ZN29protobuf_TSCHArchives_2eproto14AddDescriptorsEv,
                            __ZN29protobuf_TSCHArchives_2eproto21scc_info_ChartUIStateE,
                            __ZN29protobuf_TSWPArchives_2eproto14AddDescriptorsEv,
                            __ZN29protobuf_TSWPArchives_2eproto25scc_info_ShapeInfoArchiveE,
                            __ZN3TSA15DocumentArchive27MergePartialFromCodedStreamEPN6google8protobuf2io16CodedInputStreamE,
                            __ZN3TSA15DocumentArchive5ClearEv,
                            __ZN3TSA15DocumentArchive9MergeFromERKS0_,
                            __ZN3TSA34_DocumentArchive_default_instance_E,
                            __ZN3TSD11FillArchive27MergePartialFromCodedStreamEPN6google8protobuf2io16CodedInputStreamE,
                            __ZN3TSD11FillArchive5ClearEv,
                            __ZN3TSD11FillArchive9MergeFromERKS0_,
                            __ZN3TSD11FillArchiveC1ERKS0_,
                            __ZN3TSD30_FillArchive_default_instance_E,
                            __ZN3TSK20SelectionPathArchive27MergePartialFromCodedStreamEPN6google8protobuf2io16CodedInputStreamE,
                            __ZN3TSK20SelectionPathArchive5ClearEv,
                            __ZN3TSK20SelectionPathArchive9MergeFromERKS0_,
                            __ZN3TSK39_SelectionPathArchive_default_instance_E,
                            __ZN3TSP13DataReference27MergePartialFromCodedStreamEPN6google8protobuf2io16CodedInputStreamE,
                            __ZN3TSP13DataReference5ClearEv,
                            __ZN3TSP13DataReference9MergeFromERKS0_,
                            __ZN3TSP23_Size_default_instance_E,
                            __ZN3TSP23_UUID_default_instance_E,
                            __ZN3TSP24_Point_default_instance_E,
                            __ZN3TSP24_Range_default_instance_E,
                            __ZN3TSP27_UUIDPath_default_instance_E,
                            __ZN3TSP28_Reference_default_instance_E,
                            __ZN3TSP32_DataReference_default_instance_E,
                            __ZN3TSP4Size27MergePartialFromCodedStreamEPN6google8protobuf2io16CodedInputStreamE,
                            __ZN3TSP4Size5ClearEv, __ZN3TSP4Size9MergeFromERKS0_,
                            __ZN3TSP4UUID27MergePartialFromCodedStreamEPN6google8protobuf2io16CodedInputStreamE,
                            __ZN3TSP4UUID5ClearEv, __ZN3TSP4UUID9MergeFromERKS0_,
                            __ZN3TSP4UUIDC1ERKS0_,
                            __ZN3TSP5Point27MergePartialFromCodedStreamEPN6google8protobuf2io16CodedInputStreamE,
                            __ZN3TSP5Point5ClearEv,
                            __ZN3TSP5Point9MergeFromERKS0_,
                            __ZN3TSP5Range27MergePartialFromCodedStreamEPN6google8protobuf2io16CodedInputStreamE,
                            __ZN3TSP5Range5ClearEv,
                            __ZN3TSP5Range9MergeFromERKS0_,
                            __ZN3TSP8UUIDPath27MergePartialFromCodedStreamEPN6google8protobuf2io16CodedInputStreamE,
                            __ZN3TSP8UUIDPath5ClearEv,
                            __ZN3TSP8UUIDPath9MergeFromERKS0_,
                            __ZN3TSP9Reference27MergePartialFromCodedStreamEPN6google8protobuf2io16CodedInputStreamE,
                            __ZN3TSP9Reference5ClearEv,
                            __ZN3TSP9Reference8CopyFromERKS0_,
                            __ZN3TSP9Reference9MergeFromERKS0_,
                            __ZN3TSP9ReferenceC1ERKS0_,
                            __ZN3TSS12ThemeArchive27MergePartialFromCodedStreamEPN6google8protobuf2io16CodedInputStreamE,
                            __ZN3TSS12ThemeArchive5ClearEv,
                            __ZN3TSS12ThemeArchive9MergeFromERKS0_,
                            __ZN3TSS31_ThemeArchive_default_instance_E,
                            __ZN4TSCH12ChartUIState27MergePartialFromCodedStreamEPN6google8protobuf2io16CodedInputStreamE,
                            __ZN4TSCH12ChartUIState5ClearEv,
                            __ZN4TSCH12ChartUIState9MergeFromERKS0_,
                            __ZN4TSWP16ShapeInfoArchive27MergePartialFromCodedStreamEPN6google8protobuf2io16CodedInputStreamE,
                            __ZN4TSWP16ShapeInfoArchive5ClearEv,
                            __ZN4TSWP16ShapeInfoArchive9MergeFromERKS0_,
                            __ZN4TSWP21CaretAffinity_IsValidEi,
                            __ZN4TSWP21SelectionType_IsValidEi,
                            __ZN4TSWP30StyleInsertionBehavior_IsValidEi,
                            __ZN4TSWP35_ShapeInfoArchive_default_instance_E,
                            __ZN6google8protobuf14DescriptorPool24InternalAddGeneratedFileEPKvi,
                            __ZN6google8protobuf14MessageFactory29InternalRegisterGeneratedFileEPKcPFvRKNSt3__112basic_stringIcNS4_11char_traitsIcEENS4_9allocatorIcEEEEE,
                            __ZN6google8protobuf15UnknownFieldSet13ClearFallbackEv,
                            __ZN6google8protobuf15UnknownFieldSet9AddVarintEiy,
                            __ZN6google8protobuf15UnknownFieldSet9MergeFromERKS1_,
                            __ZN6google8protobuf2io16CodedInputStream15ReadTagFallbackEj,
                            __ZN6google8protobuf2io16CodedInputStream20ReadVarint32FallbackEj,
                            __ZN6google8protobuf2io16CodedInputStream20ReadVarint64FallbackEv,
                            __ZN6google8protobuf2io16CodedInputStream26ReadLittleEndian32FallbackEPj,
                            __ZN6google8protobuf2io16CodedInputStream26ReadLittleEndian64FallbackEPy,
                            __ZN6google8protobuf2io16CodedInputStream27ReadVarintSizeAsIntFallbackEv,
                            __ZN6google8protobuf2io16CodedInputStream34DecrementRecursionDepthAndPopLimitEi,
                            __ZN6google8protobuf2io16CodedInputStream35IncrementRecursionDepthAndPushLimitEi,
                            __ZN6google8protobuf2io16CodedInputStream8PopLimitEi,
                            __ZN6google8protobuf2io16CodedInputStream9PushLimitEi,
                            __ZN6google8protobuf2io17CodedOutputStream26WriteStringWithSizeToArrayERKNSt3__112basic_stringIcNS3_11char_traitsIcEENS3_9allocatorIcEEEEPh,
                            __ZN6google8protobuf5Arena18CreateMaybeMessageIN3TSA15DocumentArchiveEJEEEPT_PS1_DpOT0_,
                            __ZN6google8protobuf5Arena18CreateMaybeMessageIN3TSD11FillArchiveEJEEEPT_PS1_DpOT0_,
                            __ZN6google8protobuf5Arena18CreateMaybeMessageIN3TSK20SelectionPathArchiveEJEEEPT_PS1_DpOT0_,
                            __ZN6google8protobuf5Arena18CreateMaybeMessageIN3TSP13DataReferenceEJEEEPT_PS1_DpOT0_,
                            __ZN6google8protobuf5Arena18CreateMaybeMessageIN3TSP4SizeEJEEEPT_PS1_DpOT0_,
                            __ZN6google8protobuf5Arena18CreateMaybeMessageIN3TSP4UUIDEJEEEPT_PS1_DpOT0_,
                            __ZN6google8protobuf5Arena18CreateMaybeMessageIN3TSP5PointEJEEEPT_PS1_DpOT0_,
                            __ZN6google8protobuf5Arena18CreateMaybeMessageIN3TSP5RangeEJEEEPT_PS1_DpOT0_,
                            __ZN6google8protobuf5Arena18CreateMaybeMessageIN3TSP8UUIDPathEJEEEPT_PS1_DpOT0_,
                            __ZN6google8protobuf5Arena18CreateMaybeMessageIN3TSP9ReferenceEJEEEPT_PS1_DpOT0_,
                            __ZN6google8protobuf5Arena18CreateMaybeMessageIN3TSS12ThemeArchiveEJEEEPT_PS1_DpOT0_,
                            __ZN6google8protobuf5Arena18CreateMaybeMessageIN4TSCH12ChartUIStateEJEEEPT_PS1_DpOT0_,
                            __ZN6google8protobuf5Arena18CreateMaybeMessageIN4TSWP16ShapeInfoArchiveEJEEEPT_PS1_DpOT0_,
                            __ZN6google8protobuf7Message20DiscardUnknownFieldsEv,
                            __ZN6google8protobuf7Message21CheckTypeAndMergeFromERKNS0_11MessageLiteE,
                            __ZN6google8protobuf8internal10WireFormat22SerializeUnknownFieldsERKNS0_15UnknownFieldSetEPNS0_2io17CodedOutputStreamE,
                            __ZN6google8protobuf8internal10WireFormat24ComputeUnknownFieldsSizeERKNS0_15UnknownFieldSetE,
                            __ZN6google8protobuf8internal10WireFormat29SerializeUnknownFieldsToArrayERKNS0_15UnknownFieldSetEPh,
                            __ZN6google8protobuf8internal10WireFormat9SkipFieldEPNS0_2io16CodedInputStreamEjPNS0_15UnknownFieldSetE,
                            __ZN6google8protobuf8internal11InitSCCImplEPNS1_11SCCInfoBaseE,
                            __ZN6google8protobuf8internal13OnShutdownRunEPFvPKvES3_,
                            __ZN6google8protobuf8internal13ReflectionOps5MergeERKNS0_7MessageEPS3_,
                            __ZN6google8protobuf8internal13VerifyVersionEiiPKc,
                            __ZN6google8protobuf8internal14DestroyMessageEPKv,
                            __ZN6google8protobuf8internal14WireFormatLite10UInt32SizeERKNS0_13RepeatedFieldIjEE,
                            __ZN6google8protobuf8internal14WireFormatLite10WriteFloatEifPNS0_2io17CodedOutputStreamE,
                            __ZN6google8protobuf8internal14WireFormatLite10WriteInt32EiiPNS0_2io17CodedOutputStreamE,
                            __ZN6google8protobuf8internal14WireFormatLite11WriteDoubleEidPNS0_2io17CodedOutputStreamE,
                            __ZN6google8protobuf8internal14WireFormatLite11WriteStringEiRKNSt3__112basic_stringIcNS3_11char_traitsIcEENS3_9allocatorIcEEEEPNS0_2io17CodedOutputStreamE,
                            __ZN6google8protobuf8internal14WireFormatLite11WriteUInt32EijPNS0_2io17CodedOutputStreamE,
                            __ZN6google8protobuf8internal14WireFormatLite23WriteStringMaybeAliasedEiRKNSt3__112basic_stringIcNS3_11char_traitsIcEENS3_9allocatorIcEEEEPNS0_2io17CodedOutputStreamE,
                            __ZN6google8protobuf8internal14WireFormatLite24WriteMessageMaybeToArrayEiRKNS0_11MessageLiteEPNS0_2io17CodedOutputStreamE,
                            __ZN6google8protobuf8internal14WireFormatLite9ReadBytesEPNS0_2io16CodedInputStreamEPNSt3__112basic_stringIcNS6_11char_traitsIcEENS6_9allocatorIcEEEE,
                            __ZN6google8protobuf8internal14WireFormatLite9WriteBoolEibPNS0_2io17CodedOutputStreamE,
                            __ZN6google8protobuf8internal14WireFormatLite9WriteEnumEiiPNS0_2io17CodedOutputStreamE,
                            __ZN6google8protobuf8internal16RegisterAllTypesEPKNS0_8MetadataEi,
                            __ZN6google8protobuf8internal17AssignDescriptorsERKNSt3__112basic_stringIcNS2_11char_traitsIcEENS2_9allocatorIcEEEEPKNS1_15MigrationSchemaEPKPKNS0_7MessageEPKjPNS0_8MetadataEPPKNS0_14EnumDescriptorEPPKNS0_17ServiceDescriptorE,
                            __ZN6google8protobuf8internal20RepeatedPtrFieldBase14InternalExtendEi,
                            __ZN6google8protobuf8internal20RepeatedPtrFieldBase7ReserveEi,
                            __ZN6google8protobuf8internal26fixed_address_empty_stringE,
                            __ZN6google8protobuf8internal9ArenaImpl15AllocateAlignedEm,
                            __ZN6google8protobuf8internal9ArenaImpl28AllocateAlignedAndAddCleanupEmPFvPvE,
                            __ZNK18TSWPAttributeArray22rangeForAttributeIndexEm,
                            __ZNK18TSWPAttributeArray23objectForAttributeIndexEm,
                            __ZNK18TSWPAttributeArray26charIndexForAttributeIndexEm,
                            __ZNK18TSWPAttributeArray35effectiveAttributeIndexForCharIndexEm,
                            __ZNK23TSWPParagraphEnumerator16isFirstParagraphEv,
                            __ZNK23TSWPParagraphEnumerator18paragraphTextRangeEv,
                            __ZNK3TSA15DocumentArchive12ByteSizeLongEv,
                            __ZNK3TSA15DocumentArchive13IsInitializedEv,
                            __ZNK3TSA15DocumentArchive39InternalSerializeWithCachedSizesToArrayEbPh,
                            __ZNK3TSD11FillArchive12ByteSizeLongEv,
                            __ZNK3TSD11FillArchive13IsInitializedEv,
                            __ZNK3TSD11FillArchive39InternalSerializeWithCachedSizesToArrayEbPh,
                            __ZNK3TSK20SelectionPathArchive12ByteSizeLongEv,
                            __ZNK3TSK20SelectionPathArchive13IsInitializedEv,
                            __ZNK3TSK20SelectionPathArchive39InternalSerializeWithCachedSizesToArrayEbPh,
                            __ZNK3TSP13DataReference12ByteSizeLongEv,
                            __ZNK3TSP13DataReference13IsInitializedEv,
                            __ZNK3TSP13DataReference39InternalSerializeWithCachedSizesToArrayEbPh,
                            __ZNK3TSP4Size12ByteSizeLongEv,
                            __ZNK3TSP4Size13IsInitializedEv,
                            __ZNK3TSP4Size39InternalSerializeWithCachedSizesToArrayEbPh,
                            __ZNK3TSP4UUID12ByteSizeLongEv,
                            __ZNK3TSP4UUID13IsInitializedEv,
                            __ZNK3TSP4UUID39InternalSerializeWithCachedSizesToArrayEbPh,
                            __ZNK3TSP5Point12ByteSizeLongEv,
                            __ZNK3TSP5Point13IsInitializedEv,
                            __ZNK3TSP5Point39InternalSerializeWithCachedSizesToArrayEbPh,
                            __ZNK3TSP5Range12ByteSizeLongEv,
                            __ZNK3TSP5Range13IsInitializedEv,
                            __ZNK3TSP5Range39InternalSerializeWithCachedSizesToArrayEbPh,
                            __ZNK3TSP8UUIDPath12ByteSizeLongEv,
                            __ZNK3TSP8UUIDPath13IsInitializedEv,
                            __ZNK3TSP8UUIDPath39InternalSerializeWithCachedSizesToArrayEbPh,
                            __ZNK3TSP9Reference12ByteSizeLongEv,
                            __ZNK3TSP9Reference13IsInitializedEv,
                            __ZNK3TSP9Reference39InternalSerializeWithCachedSizesToArrayEbPh,
                            __ZNK3TSS12ThemeArchive12ByteSizeLongEv,
                            __ZNK3TSS12ThemeArchive13IsInitializedEv,
                            __ZNK3TSS12ThemeArchive39InternalSerializeWithCachedSizesToArrayEbPh,
                            __ZNK4TSCH12ChartUIState12ByteSizeLongEv,
                            __ZNK4TSCH12ChartUIState13IsInitializedEv,
                            __ZNK4TSCH12ChartUIState39InternalSerializeWithCachedSizesToArrayEbPh,
                            __ZNK4TSWP16ShapeInfoArchive12ByteSizeLongEv,
                            __ZNK4TSWP16ShapeInfoArchive13IsInitializedEv,
                            __ZNK4TSWP16ShapeInfoArchive39InternalSerializeWithCachedSizesToArrayEbPh,
                            __ZNK6google8protobuf11MessageLite31SerializeWithCachedSizesToArrayEPh,
                            __ZNK6google8protobuf2io16CodedInputStream15BytesUntilLimitEv,
                            __ZNK6google8protobuf5Arena17OnArenaAllocationEPKSt9type_infom,
                            __ZNK6google8protobuf7Message11GetTypeNameEv,
                            __ZNK6google8protobuf7Message13SpaceUsedLongEv,
                            __ZNK6google8protobuf7Message25InitializationErrorStringEv,
                            __ZNKSt3__120__vector_base_commonILb1EE20__throw_length_errorEv,
                            __ZNKSt3__121__basic_string_commonILb1EE20__throw_length_errorEv,
                            __ZNSt11logic_errorC2EPKc, __ZNSt12length_errorD1Ev,
                            __ZNSt3__111__call_onceERVmPvPFvS2_E,
                            __ZNSt3__112basic_stringIcNS_11char_traitsIcEENS_9allocatorIcEEEC1ERKS5_,
                            __ZNSt3__112basic_stringIcNS_11char_traitsIcEENS_9allocatorIcEEEaSERKS5_,
                            __ZSt9terminatev, __ZTIN6google8protobuf7MessageE,
                            __ZTIc, __ZTVN10__cxxabiv117__class_type_infoE,
                            __ZTVN10__cxxabiv120__si_class_type_infoE,
                            __ZTVN10__cxxabiv121__vmi_class_type_infoE,
                            __ZTVSt12length_error, __ZppR20TSWPHeaderFooterType,
                            __ZppR23TSWPHeaderFragmentIndex,
                            ___CFConstantStringClassReference,
                            ___NSArray0__struct, ___NSDictionary0__struct,
                            ___chkstk_darwin, ___cxa_allocate_exception,
                            ___cxa_begin_catch, ___cxa_free_exception,
                            ___cxa_guard_acquire, ___cxa_guard_release,
                            ___cxa_throw, ___dynamic_cast, ___gxx_personality_v0,
                            ___kCFBooleanTrue, ___objc_personality_v0,
                            ___stack_chk_fail, ___stack_chk_guard, ___stderrp,
                            __dispatch_main_q, __objc_empty_cache,
                            __os_log_default, __swiftEmptyArrayStorage,
                            __swiftEmptySetSingleton,
                            __swift_stdlib_reportUnimplementedInitializer,
                            _abort, _bzero, _dispatch_async, _dispatch_once,
                            _dispatch_sync, _fprintf, _free, _kCFAllocatorDefault,
                            _kTSKExportOptionsImageQuality,
                            _kTSKExportOptionsRenderAnnotationsKey,
                            _kTSKExportOptionsRenderBackgroundsKey,
                            _kTSKExportOptionsRenderCommentsKey,
                            _kTSKPencilCanvasViewScaleFactor,
                            _kTSKPreviewDocumentType, _kTSUPaperIDA3,
                            _kTSUPaperIDA4, _kTSUPaperIDEnvelopeDL,
                            _kTSUPaperIDNumber10Envelope, _kTSUPaperIDTabloid,
                            _kTSUPaperIDUSLetter, _kTSUPaperSizeA3Landscape,
                            _kTSUPaperSizeA3Portrait, _kTSUPaperSizeA4Landscape,
                            _kTSUPaperSizeA4Portrait,
                            _kTSUPaperSizeEnvelopeDLLandscape,
                            _kTSUPaperSizeEnvelopeDLPortrait,
                            _kTSUPaperSizeNumber10EnvelopeLandscape,
                            _kTSUPaperSizeNumber10EnvelopePortrait,
                            _kTSUPaperSizeTabloidLandscape,
                            _kTSUPaperSizeTabloidPortrait,
                            _kTSUPaperSizeUSLetterLandscape,
                            _kTSUPaperSizeUSLetterPortrait,
                            _kTSUPrinterIDGeneric,
                            _kTSWPDocVersionMultipleSections,
                            _kTSWPWrapMinContourSize, _kUTTypePDF,
                            _kUTTypePlainText, _kUTTypeRTF, _kUTTypeRTFD, _malloc,
                            _malloc_size, _memcpy, _memmove, _objc_alloc,
                            _objc_allocWithZone, _objc_alloc_init,
                            _objc_autorelease, _objc_autoreleasePoolPop,
                            _objc_autoreleasePoolPush,
                            _objc_autoreleaseReturnValue, _objc_begin_catch,
                            _objc_copyWeak, _objc_destroyWeak, _objc_end_catch,
                            _objc_enumerationMutation, _objc_exception_rethrow,
                            _objc_exception_throw, _objc_getProperty,
                            _objc_initWeak, _objc_loadWeakRetained, _objc_moveWeak,
                            _objc_msgSend, _objc_msgSendSuper2, _objc_opt_class,
                            _objc_opt_isKindOfClass, _objc_opt_new,
                            _objc_opt_respondsToSelector, _objc_opt_self,
                            _objc_release, _objc_retain, _objc_retainAutorelease,
                            _objc_retainAutoreleaseReturnValue,
                            _objc_retainAutoreleasedReturnValue,
                            _objc_retainBlock, _objc_setProperty_nonatomic_copy,
                            _objc_storeStrong, _objc_storeWeak, _objc_sync_enter,
                            _objc_sync_exit,
                            _objc_unsafeClaimAutoreleasedReturnValue, _strlen,
                            _swift_allocObject, _swift_arrayAssignWithTake,
                            _swift_arrayDestroy, _swift_arrayInitWithCopy,
                            _swift_beginAccess, _swift_bridgeObjectRelease,
                            _swift_bridgeObjectRelease_n,
                            _swift_bridgeObjectRetain,
                            _swift_bridgeObjectRetain_n, _swift_deallocObject,
                            _swift_deletedMethodError, _swift_dynamicCast,
                            _swift_dynamicCastObjCClass, _swift_endAccess,
                            _swift_getKeyPath, _swift_getObjCClassMetadata,
                            _swift_getTypeByMangledNameInContext,
                            _swift_getTypeByMangledNameInContextInMetadataState,
                            _swift_getWitnessTable,
                            _swift_isEscapingClosureAtFileLocation,
                            _swift_isUniquelyReferencedNonObjC_nonNull_bridgeObject,
                            _swift_isUniquelyReferenced_nonNull_native,
                            _swift_once, _swift_release, _swift_retain,
                            _swift_unknownObjectRelease,
                            _swift_unknownObjectRetain, dyld_stub_binder ]
    objc-classes:         [ EQKitEnvironment, NSArray, NSBundle, NSCharacterSet,
                            NSConstantArray, NSConstantDoubleNumber,
                            NSConstantFloatNumber, NSDate, NSDateFormatter,
                            NSDictionary, NSEnumerator, NSError, NSException,
                            NSInvocation, NSLocale, NSMapTable, NSMutableArray,
                            NSMutableDictionary, NSMutableIndexSet, NSMutableSet,
                            NSMutableString, NSNotificationCenter, NSNull, NSNumber,
                            NSObject, NSScanner, NSSet, NSString, NSThread, NSTimeZone,
                            NSURL, NSUUID, NSUserDefaults, NSValue, OS_dispatch_queue,
                            TSAApplicationPropertiesProvider,
                            TSABaseApplicationDelegate, TSADocumentRoot,
                            TSAExportableDocumentType, TSAGalleryInfo,
                            TSAImageRenderingExporterDelegate,
                            TSAPdfHyperlinkController,
                            TSAPdfRenderingExporterDelegate,
                            TSARenderingExporter, TSAServerApplicationDelegate,
                            TSATheme, TSCHChartUIState, TSCHConfiguration,
                            TSCHNumberFormat, TSDAbstractLayout, TSDCanvas,
                            TSDCanvasSelection, TSDContainerRep, TSDDrawableInfo,
                            TSDDrawableLayout, TSDDrawableSelection, TSDFill,
                            TSDFreehandDrawingInfo,
                            TSDFreehandDrawingToolkitUIState, TSDGroupInfo,
                            TSDImager, TSDLayout, TSDLayoutController,
                            TSDLayoutGeometry, TSDRootLayout, TSDShapeLayout,
                            TSDWrapSegments, TSKAddedToDocumentContext,
                            TSKCommentFlagAnchorInfo, TSKDocumentModelEnumerator,
                            TSKDocumentSelection, TSKPencilAnnotationUIState,
                            TSKRulerUnits, TSKSelection, TSKSelectionPath, TSPData,
                            TSPLazyReference, TSPObject, TSPRegistry,
                            TSSPropertyCommandObjectRegistry, TSSPropertyMap,
                            TSSStylesheet, TSTConfiguration, TSTTableInfo,
                            TSUAggregateEnumerator, TSUAssertionHandler,
                            TSUBezierPath, TSUColor, TSUDescription, TSUImage,
                            TSULRUCache, TSULocale, TSUMutablePointerSet,
                            TSUMutableRectList, TSUNoCopyDictionary, TSUPair,
                            TSUPointerKeyDictionary,
                            TSURetainedPointerKeyDictionary,
                            TSURetainedPointerSet, TSUUUIDPath, TSWPAttachment,
                            TSWPColumn, TSWPColumns, TSWPDateTimeSmartField,
                            TSWPDirtyRangeArray, TSWPDrawableAttachment,
                            TSWPFilteredStorage, TSWPFloatingCommentInfo,
                            TSWPFlowInfo, TSWPFlowInfoContainer,
                            TSWPFootnoteReferenceAttachment, TSWPHeaderRep,
                            TSWPItemNumbering, TSWPLayout, TSWPLayoutManager,
                            TSWPLinkedLayout, TSWPLinkedTextBoxLayout,
                            TSWPMutableTopicNumberHints, TSWPPageCountAttachment,
                            TSWPPageLayout, TSWPPageNumberAttachment, TSWPPageRep,
                            TSWPParagraphStyle, TSWPPencilAnnotation,
                            TSWPPlaceholderSmartField, TSWPRep, TSWPSelection,
                            TSWPShapeInfo, TSWPShapeLayout, TSWPStorage,
                            TSWPStorageMeasurer, TSWPTOCAttachment,
                            TSWPTOCEntryStyle, TSWPTOCSettings, TSWPTargetHint,
                            TSWPTextWrapper, TSWPTopicNumberEntry,
                            _TtC6TSText16TSWPHeaderLayout ]
    objc-ivars:           [ TSARenderingExporter.mDocumentRoot,
                            TSARenderingExporter.mOptions,
                            TSARenderingExporter.mRenderingExporterDelegate,
                            TSWPLayout._textLayoutValid,
                            TSWPPageLayout._headerFooterLayouts,
                            TSWPSelection._caretAffinity, TSWPSelection._range,
                            TSWPSelection._styleInsertionBehavior,
                            TSWPSelection._type ]
...
