--- !tapi-tbd-v3
archs:                 [ armv7, armv7s, arm64, arm64e ]
platform:              ios
flags:                 [ flat_namespace ]
install-name:          /System/Library/PrivateFrameworks/iWorkImport.framework/Frameworks/TSApplication.framework/TSApplication
current-version:       1
compatibility-version: 1
objc-constraint:       retain_release
exports:
  - archs:                [ armv7, armv7s, arm64, arm64e ]
    symbols:              [ _TSAAnnotationAuthorNameDidChangeNotification,
                            _TSAAnnotationAuthorNameWillChangeNotification,
                            _TSAAnnotationAuthorNewNameKey,
                            _TSAAnnotationAuthorOldNameKey,
                            _TSAApplicationBadgeDefaultsKey,
                            _TSABuildVersionHistoryPrefix,
                            _TSABuildVersionString, _TSABundle,
                            _TSABundleForResource,
                            _TSADocumentEditedAnalyticsDomain,
                            _TSADocumentEditedAnalyticsDurationMaxValue,
                            _TSADocumentEditedAnalyticsIsEditedKey,
                            _TSADocumentEditedAnalyticsIsViewOnlyKey,
                            _TSADocumentExportedAnalyticsDomain,
                            _TSADocumentExportedAnalyticsErrorCodeKey,
                            _TSADocumentExportedAnalyticsErrorDomainKey,
                            _TSADocumentExportedAnalyticsExportFormatTypeKey,
                            _TSADocumentExportedAnalyticsSuccessKey,
                            _TSADocumentOpenedAnalyticsDurationKey,
                            _TSADocumentOpenedAnalyticsErrorCodeKey,
                            _TSADocumentOpenedAnalyticsErrorDomainKey,
                            _TSADocumentOpenedAnalyticsFileFormatKey,
                            _TSADocumentRootExtraInfoCat_init_token,
                            _TSADocumentRootExtraInfoCat_log_t,
                            _TSADocumentRootUpgradeCat_init_token,
                            _TSADocumentRootUpgradeCat_log_t, _TSAErrorDomain,
                            _TSAFileCoordCat, _TSAFileCoordCat_init_token,
                            _TSAFileCoordCat_log_t, _TSAICloudAuthorNameKey,
                            _TSAICloudDocumentPreferenceAuthorColorIndexKey,
                            _TSAICloudDocumentPreferenceShareIDKey,
                            _TSAICloudDocumentPreferenceShowActivityKey,
                            _TSAICloudDocumentPreferenceUpdateNotification,
                            _TSAImportCat, _TSAImportCat_init_token,
                            _TSAImportCat_log_t, _TSAIsTablePresetTextStyle,
                            _TSAIsTextStyleWithRequiredIdentifier,
                            _TSAIsUserTextStyle,
                            _TSALocalizableStringsDateFormatsTable,
                            _TSALocalizableStringsTableName,
                            _TSALocalizableStringsTableValueTable,
                            _TSALocalizedAllStylesKey,
                            _TSALocalizedIdentifiedStylesKey,
                            _TSALocalizedNamedStylesKey,
                            _TSALocalizedPropertiesByValueKey,
                            _TSALocalizedPropertyBaseKey,
                            _TSALocalizedProperyValueKey,
                            _TSALocalizedReplacementPropertiesKey,
                            _TSAObjectCaptionTextBoxStyleIdentifier,
                            _TSAObjectCaptionTextStylePresetContentTag,
                            _TSAObjectCaptionTextStylePresetName,
                            _TSAObjectTitleTextBoxStyleIdentifier,
                            _TSAObjectTitleTextStylePresetContentTag,
                            _TSAObjectTitleTextStylePresetName,
                            _TSAPdfTaggingLogCat,
                            _TSAPdfTaggingLogCat_init_token,
                            _TSAPdfTaggingLogCat_log_t,
                            _TSAPreviewImageExtension,
                            _TSARegisterPersistentClasses,
                            _TSAScalablePreviewName,
                            _TSAStyleIsMatchedByContentTag,
                            _TSAStyleIsMatchedByName, _TSAWebMicroPreviewName,
                            _TSAWebPreviewName,
                            _TSAWebVideoIsAvailableInCurrentLocale,
                            __Z28TSAUpdateBuildVersionHistoryP7NSArray,
                            __ZN28protobuf_TSAArchives_2eproto11TableStruct7offsetsE,
                            __ZN28protobuf_TSAArchives_2eproto12InitDefaultsEv,
                            __ZN28protobuf_TSAArchives_2eproto14AddDescriptorsEv,
                            __ZN28protobuf_TSAArchives_2eproto18AddDescriptorsImplEv,
                            __ZN28protobuf_TSAArchives_2eproto19file_level_metadataE,
                            __ZN28protobuf_TSAArchives_2eproto20scc_info_GalleryInfoE,
                            __ZN28protobuf_TSAArchives_2eproto20scc_info_GalleryItemE,
                            __ZN28protobuf_TSAArchives_2eproto21scc_info_WebVideoInfoE,
                            __ZN28protobuf_TSAArchives_2eproto22protobuf_RegisterTypesERKNSt3__112basic_stringIcNS0_11char_traitsIcEENS0_9allocatorIcEEEE,
                            __ZN28protobuf_TSAArchives_2eproto24scc_info_DocumentArchiveE,
                            __ZN28protobuf_TSAArchives_2eproto26protobuf_AssignDescriptorsEv,
                            __ZN28protobuf_TSAArchives_2eproto27file_level_enum_descriptorsE,
                            __ZN28protobuf_TSAArchives_2eproto27scc_info_CaptionInfoArchiveE,
                            __ZN28protobuf_TSAArchives_2eproto28scc_info_ThemePresetsArchiveE,
                            __ZN28protobuf_TSAArchives_2eproto29scc_info_GalleryItemSelectionE,
                            __ZN28protobuf_TSAArchives_2eproto29static_descriptor_initializerE,
                            __ZN28protobuf_TSAArchives_2eproto30protobuf_AssignDescriptorsOnceEv,
                            __ZN28protobuf_TSAArchives_2eproto31scc_info_ShortcutCommandArchiveE,
                            __ZN28protobuf_TSAArchives_2eproto32scc_info_CaptionPlacementArchiveE,
                            __ZN28protobuf_TSAArchives_2eproto34scc_info_ShortcutControllerArchiveE,
                            __ZN28protobuf_TSAArchives_2eproto35scc_info_GalleryItemSetValueCommandE,
                            __ZN28protobuf_TSAArchives_2eproto36scc_info_FunctionBrowserStateArchiveE,
                            __ZN28protobuf_TSAArchives_2eproto36scc_info_GallerySelectionTransformerE,
                            __ZN28protobuf_TSAArchives_2eproto37scc_info_TitlePlacementCommandArchiveE,
                            __ZN28protobuf_TSAArchives_2eproto38scc_info_AddCustomFormatCommandArchiveE,
                            __ZN28protobuf_TSAArchives_2eproto38scc_info_GalleryItemSetGeometryCommandE,
                            __ZN28protobuf_TSAArchives_2eproto38scc_info_PropagatePresetCommandArchiveE,
                            __ZN28protobuf_TSAArchives_2eproto39scc_info_RemoteDataChangeCommandArchiveE,
                            __ZN28protobuf_TSAArchives_2eproto40scc_info_GalleryItemSelectionTransformerE,
                            __ZN28protobuf_TSAArchives_2eproto41scc_info_UpdateCustomFormatCommandArchiveE,
                            __ZN28protobuf_TSAArchives_2eproto42scc_info_GalleryInfoSetValueCommandArchiveE,
                            __ZN28protobuf_TSAArchives_2eproto42scc_info_ReplaceCustomFormatCommandArchiveE,
                            __ZN28protobuf_TSAArchives_2eproto43scc_info_ChangeDocumentLocaleCommandArchiveE,
                            __ZN28protobuf_TSAArchives_2eproto45scc_info_GalleryInfoInsertItemsCommandArchiveE,
                            __ZN28protobuf_TSAArchives_2eproto45scc_info_GalleryInfoRemoveItemsCommandArchiveE,
                            __ZN28protobuf_TSAArchives_2eproto45scc_info_StyleUpdatePropertyMapCommandArchiveE,
                            __ZN28protobuf_TSAArchives_2eproto46scc_info_GalleryItemSelectionTransformerHelperE,
                            __ZN28protobuf_TSAArchives_2eproto49scc_info_GalleryItemSetValueCommand_PropertyValueE,
                            __ZN28protobuf_TSAArchives_2eproto51scc_info_ShortcutControllerArchive_ShortcutMapEntryE,
                            __ZN28protobuf_TSAArchives_2eproto53scc_info_InducedVerifyObjectsWithServerCommandArchiveE,
                            __ZN28protobuf_TSAArchives_2eproto53scc_info_NeedsMediaCompatibilityUpgradeCommandArchiveE,
                            __ZN28protobuf_TSAArchives_2eproto56scc_info_GalleryInfoSetValueCommandArchive_PropertyValueE,
                            __ZN28protobuf_TSAArchives_2eproto62scc_info_InducedVerifyTransformHistoryWithServerCommandArchiveE,
                            __ZN34protobuf_TSAArchives_2esos_2eproto11TableStruct7offsetsE,
                            __ZN34protobuf_TSAArchives_2esos_2eproto12InitDefaultsEv,
                            __ZN34protobuf_TSAArchives_2esos_2eproto14AddDescriptorsEv,
                            __ZN34protobuf_TSAArchives_2esos_2eproto18AddDescriptorsImplEv,
                            __ZN34protobuf_TSAArchives_2esos_2eproto19file_level_metadataE,
                            __ZN34protobuf_TSAArchives_2esos_2eproto22protobuf_RegisterTypesERKNSt3__112basic_stringIcNS0_11char_traitsIcEENS0_9allocatorIcEEEE,
                            __ZN34protobuf_TSAArchives_2esos_2eproto26protobuf_AssignDescriptorsEv,
                            __ZN34protobuf_TSAArchives_2esos_2eproto29static_descriptor_initializerE,
                            __ZN34protobuf_TSAArchives_2esos_2eproto30protobuf_AssignDescriptorsOnceEv,
                            __ZN34protobuf_TSAArchives_2esos_2eproto34scc_info_DrawableZOrderListArchiveE,
                            __ZN3TSA11GalleryInfo10SharedCtorEv,
                            __ZN3TSA11GalleryInfo10SharedDtorEv,
                            __ZN3TSA11GalleryInfo10descriptorEv,
                            __ZN3TSA11GalleryInfo11clear_itemsEv,
                            __ZN3TSA11GalleryInfo12InternalSwapEPS0_,
                            __ZN3TSA11GalleryInfo12gallery_infoE,
                            __ZN3TSA11GalleryInfo16default_instanceEv,
                            __ZN3TSA11GalleryInfo17kItemsFieldNumberE,
                            __ZN3TSA11GalleryInfo21InitAsDefaultInstanceEv,
                            __ZN3TSA11GalleryInfo21clear_caption_storageEv,
                            __ZN3TSA11GalleryInfo23kCaptionModeFieldNumberE,
                            __ZN3TSA11GalleryInfo23kGalleryInfoFieldNumberE,
                            __ZN3TSA11GalleryInfo26kCaptionStorageFieldNumberE,
                            __ZN3TSA11GalleryInfo27MergePartialFromCodedStreamEPN6google8protobuf2io16CodedInputStreamE,
                            __ZN3TSA11GalleryInfo4SwapEPS0_,
                            __ZN3TSA11GalleryInfo5ClearEv,
                            __ZN3TSA11GalleryInfo8CopyFromERKN6google8protobuf7MessageE,
                            __ZN3TSA11GalleryInfo8CopyFromERKS0_,
                            __ZN3TSA11GalleryInfo9MergeFromERKN6google8protobuf7MessageE,
                            __ZN3TSA11GalleryInfo9MergeFromERKS0_,
                            __ZN3TSA11GalleryInfoC1ERKS0_,
                            __ZN3TSA11GalleryInfoC1Ev,
                            __ZN3TSA11GalleryInfoC2ERKS0_,
                            __ZN3TSA11GalleryInfoC2Ev, __ZN3TSA11GalleryInfoD0Ev,
                            __ZN3TSA11GalleryInfoD1Ev, __ZN3TSA11GalleryInfoD2Ev,
                            __ZN3TSA11GalleryItem10SharedCtorEv,
                            __ZN3TSA11GalleryItem10SharedDtorEv,
                            __ZN3TSA11GalleryItem10descriptorEv,
                            __ZN3TSA11GalleryItem12InternalSwapEPS0_,
                            __ZN3TSA11GalleryItem12clear_offsetEv,
                            __ZN3TSA11GalleryItem16clear_image_dataEv,
                            __ZN3TSA11GalleryItem16default_instanceEv,
                            __ZN3TSA11GalleryItem17kScaleFieldNumberE,
                            __ZN3TSA11GalleryItem18kOffsetFieldNumberE,
                            __ZN3TSA11GalleryItem21InitAsDefaultInstanceEv,
                            __ZN3TSA11GalleryItem21clear_caption_storageEv,
                            __ZN3TSA11GalleryItem21kImageDataFieldNumberE,
                            __ZN3TSA11GalleryItem23clear_image_adjustmentsEv,
                            __ZN3TSA11GalleryItem25clear_adjusted_image_dataEv,
                            __ZN3TSA11GalleryItem26clear_thumbnail_image_dataEv,
                            __ZN3TSA11GalleryItem26kCaptionStorageFieldNumberE,
                            __ZN3TSA11GalleryItem27MergePartialFromCodedStreamEPN6google8protobuf2io16CodedInputStreamE,
                            __ZN3TSA11GalleryItem28kImageAdjustmentsFieldNumberE,
                            __ZN3TSA11GalleryItem29kAdjustedImageDataFieldNumberE,
                            __ZN3TSA11GalleryItem30kThumbnailImageDataFieldNumberE,
                            __ZN3TSA11GalleryItem35clear_thumbnail_adjusted_image_dataEv,
                            __ZN3TSA11GalleryItem36kAccessibilityDescriptionFieldNumberE,
                            __ZN3TSA11GalleryItem38kThumbnailAdjustedImageDataFieldNumberE,
                            __ZN3TSA11GalleryItem4SwapEPS0_,
                            __ZN3TSA11GalleryItem5ClearEv,
                            __ZN3TSA11GalleryItem8CopyFromERKN6google8protobuf7MessageE,
                            __ZN3TSA11GalleryItem8CopyFromERKS0_,
                            __ZN3TSA11GalleryItem9MergeFromERKN6google8protobuf7MessageE,
                            __ZN3TSA11GalleryItem9MergeFromERKS0_,
                            __ZN3TSA11GalleryItemC1ERKS0_,
                            __ZN3TSA11GalleryItemC1Ev,
                            __ZN3TSA11GalleryItemC2ERKS0_,
                            __ZN3TSA11GalleryItemC2Ev, __ZN3TSA11GalleryItemD0Ev,
                            __ZN3TSA11GalleryItemD1Ev, __ZN3TSA11GalleryItemD2Ev,
                            __ZN3TSA12WebVideoInfo10SharedCtorEv,
                            __ZN3TSA12WebVideoInfo10SharedDtorEv,
                            __ZN3TSA12WebVideoInfo10descriptorEv,
                            __ZN3TSA12WebVideoInfo12InternalSwapEPS0_,
                            __ZN3TSA12WebVideoInfo14web_video_infoE,
                            __ZN3TSA12WebVideoInfo15kUrlFieldNumberE,
                            __ZN3TSA12WebVideoInfo16default_instanceEv,
                            __ZN3TSA12WebVideoInfo17clear_attributionEv,
                            __ZN3TSA12WebVideoInfo21InitAsDefaultInstanceEv,
                            __ZN3TSA12WebVideoInfo23clear_poster_image_dataEv,
                            __ZN3TSA12WebVideoInfo23kAttributionFieldNumberE,
                            __ZN3TSA12WebVideoInfo24kWebVideoInfoFieldNumberE,
                            __ZN3TSA12WebVideoInfo27MergePartialFromCodedStreamEPN6google8protobuf2io16CodedInputStreamE,
                            __ZN3TSA12WebVideoInfo27kPosterImageDataFieldNumberE,
                            __ZN3TSA12WebVideoInfo4SwapEPS0_,
                            __ZN3TSA12WebVideoInfo5ClearEv,
                            __ZN3TSA12WebVideoInfo8CopyFromERKN6google8protobuf7MessageE,
                            __ZN3TSA12WebVideoInfo8CopyFromERKS0_,
                            __ZN3TSA12WebVideoInfo9MergeFromERKN6google8protobuf7MessageE,
                            __ZN3TSA12WebVideoInfo9MergeFromERKS0_,
                            __ZN3TSA12WebVideoInfoC1ERKS0_,
                            __ZN3TSA12WebVideoInfoC1Ev,
                            __ZN3TSA12WebVideoInfoC2ERKS0_,
                            __ZN3TSA12WebVideoInfoC2Ev,
                            __ZN3TSA12WebVideoInfoD0Ev,
                            __ZN3TSA12WebVideoInfoD1Ev,
                            __ZN3TSA12WebVideoInfoD2Ev,
                            __ZN3TSA15DocumentArchive10SharedCtorEv,
                            __ZN3TSA15DocumentArchive10SharedDtorEv,
                            __ZN3TSA15DocumentArchive10descriptorEv,
                            __ZN3TSA15DocumentArchive11clear_superEv,
                            __ZN3TSA15DocumentArchive12InternalSwapEPS0_,
                            __ZN3TSA15DocumentArchive16clear_view_stateEv,
                            __ZN3TSA15DocumentArchive16default_instanceEv,
                            __ZN3TSA15DocumentArchive17kSuperFieldNumberE,
                            __ZN3TSA15DocumentArchive21InitAsDefaultInstanceEv,
                            __ZN3TSA15DocumentArchive21kViewStateFieldNumberE,
                            __ZN3TSA15DocumentArchive22kCanUseHevcFieldNumberE,
                            __ZN3TSA15DocumentArchive24clear_calculation_engineEv,
                            __ZN3TSA15DocumentArchive24clear_custom_format_listEv,
                            __ZN3TSA15DocumentArchive25clear_shortcut_controllerEv,
                            __ZN3TSA15DocumentArchive27MergePartialFromCodedStreamEPN6google8protobuf2io16CodedInputStreamE,
                            __ZN3TSA15DocumentArchive27kIsContentMasterFieldNumberE,
                            __ZN3TSA15DocumentArchive28clear_function_browser_stateEv,
                            __ZN3TSA15DocumentArchive28kCustomFormatListFieldNumberE,
                            __ZN3TSA15DocumentArchive28kDocumentLanguageFieldNumberE,
                            __ZN3TSA15DocumentArchive29kCalculationEngineFieldNumberE,
                            __ZN3TSA15DocumentArchive30kShortcutControllerFieldNumberE,
                            __ZN3TSA15DocumentArchive30kTemplateIdentifierFieldNumberE,
                            __ZN3TSA15DocumentArchive31clear_tables_custom_format_listEv,
                            __ZN3TSA15DocumentArchive31clear_text_preset_display_itemsEv,
                            __ZN3TSA15DocumentArchive32kFunctionBrowserStateFieldNumberE,
                            __ZN3TSA15DocumentArchive33clear_annotation_cache_deprecatedEv,
                            __ZN3TSA15DocumentArchive34kTablesCustomFormatListFieldNumberE,
                            __ZN3TSA15DocumentArchive34kTextPresetDisplayItemsFieldNumberE,
                            __ZN3TSA15DocumentArchive35clear_annotation_cache_deprecated_2Ev,
                            __ZN3TSA15DocumentArchive37kAnnotationCacheDeprecatedFieldNumberE,
                            __ZN3TSA15DocumentArchive38kAnnotationCacheDeprecated2FieldNumberE,
                            __ZN3TSA15DocumentArchive42kNeedsMediaCompatibilityUpgradeFieldNumberE,
                            __ZN3TSA15DocumentArchive4SwapEPS0_,
                            __ZN3TSA15DocumentArchive57kCollaborativeMediaCompatibilityUpgradeDidFailFieldNumberE,
                            __ZN3TSA15DocumentArchive5ClearEv,
                            __ZN3TSA15DocumentArchive8CopyFromERKN6google8protobuf7MessageE,
                            __ZN3TSA15DocumentArchive8CopyFromERKS0_,
                            __ZN3TSA15DocumentArchive9MergeFromERKN6google8protobuf7MessageE,
                            __ZN3TSA15DocumentArchive9MergeFromERKS0_,
                            __ZN3TSA15DocumentArchiveC1ERKS0_,
                            __ZN3TSA15DocumentArchiveC1Ev,
                            __ZN3TSA15DocumentArchiveC2ERKS0_,
                            __ZN3TSA15DocumentArchiveC2Ev,
                            __ZN3TSA15DocumentArchiveD0Ev,
                            __ZN3TSA15DocumentArchiveD1Ev,
                            __ZN3TSA15DocumentArchiveD2Ev,
                            __ZN3TSA18CaptionInfoArchive10SharedCtorEv,
                            __ZN3TSA18CaptionInfoArchive10SharedDtorEv,
                            __ZN3TSA18CaptionInfoArchive10descriptorEv,
                            __ZN3TSA18CaptionInfoArchive11clear_superEv,
                            __ZN3TSA18CaptionInfoArchive12InternalSwapEPS0_,
                            __ZN3TSA18CaptionInfoArchive15clear_placementEv,
                            __ZN3TSA18CaptionInfoArchive16default_instanceEv,
                            __ZN3TSA18CaptionInfoArchive17kSuperFieldNumberE,
                            __ZN3TSA18CaptionInfoArchive21InitAsDefaultInstanceEv,
                            __ZN3TSA18CaptionInfoArchive21kPlacementFieldNumberE,
                            __ZN3TSA18CaptionInfoArchive25kChildInfoKindFieldNumberE,
                            __ZN3TSA18CaptionInfoArchive27MergePartialFromCodedStreamEPN6google8protobuf2io16CodedInputStreamE,
                            __ZN3TSA18CaptionInfoArchive4SwapEPS0_,
                            __ZN3TSA18CaptionInfoArchive5ClearEv,
                            __ZN3TSA18CaptionInfoArchive8CopyFromERKN6google8protobuf7MessageE,
                            __ZN3TSA18CaptionInfoArchive8CopyFromERKS0_,
                            __ZN3TSA18CaptionInfoArchive9MergeFromERKN6google8protobuf7MessageE,
                            __ZN3TSA18CaptionInfoArchive9MergeFromERKS0_,
                            __ZN3TSA18CaptionInfoArchiveC1ERKS0_,
                            __ZN3TSA18CaptionInfoArchiveC1Ev,
                            __ZN3TSA18CaptionInfoArchiveC2ERKS0_,
                            __ZN3TSA18CaptionInfoArchiveC2Ev,
                            __ZN3TSA18CaptionInfoArchiveD0Ev,
                            __ZN3TSA18CaptionInfoArchiveD1Ev,
                            __ZN3TSA18CaptionInfoArchiveD2Ev,
                            __ZN3TSA19ThemePresetsArchive10SharedCtorEv,
                            __ZN3TSA19ThemePresetsArchive10SharedDtorEv,
                            __ZN3TSA19ThemePresetsArchive10descriptorEv,
                            __ZN3TSA19ThemePresetsArchive12InternalSwapEPS0_,
                            __ZN3TSA19ThemePresetsArchive16default_instanceEv,
                            __ZN3TSA19ThemePresetsArchive21InitAsDefaultInstanceEv,
                            __ZN3TSA19ThemePresetsArchive21kExtensionFieldNumberE,
                            __ZN3TSA19ThemePresetsArchive27MergePartialFromCodedStreamEPN6google8protobuf2io16CodedInputStreamE,
                            __ZN3TSA19ThemePresetsArchive27clear_caption_style_presetsEv,
                            __ZN3TSA19ThemePresetsArchive31kCaptionStylePresetsFieldNumberE,
                            __ZN3TSA19ThemePresetsArchive4SwapEPS0_,
                            __ZN3TSA19ThemePresetsArchive5ClearEv,
                            __ZN3TSA19ThemePresetsArchive8CopyFromERKN6google8protobuf7MessageE,
                            __ZN3TSA19ThemePresetsArchive8CopyFromERKS0_,
                            __ZN3TSA19ThemePresetsArchive9MergeFromERKN6google8protobuf7MessageE,
                            __ZN3TSA19ThemePresetsArchive9MergeFromERKS0_,
                            __ZN3TSA19ThemePresetsArchive9extensionE,
                            __ZN3TSA19ThemePresetsArchiveC1ERKS0_,
                            __ZN3TSA19ThemePresetsArchiveC1Ev,
                            __ZN3TSA19ThemePresetsArchiveC2ERKS0_,
                            __ZN3TSA19ThemePresetsArchiveC2Ev,
                            __ZN3TSA19ThemePresetsArchiveD0Ev,
                            __ZN3TSA19ThemePresetsArchiveD1Ev,
                            __ZN3TSA19ThemePresetsArchiveD2Ev,
                            __ZN3TSA20GalleryItemSelection10SharedCtorEv,
                            __ZN3TSA20GalleryItemSelection10SharedDtorEv,
                            __ZN3TSA20GalleryItemSelection10descriptorEv,
                            __ZN3TSA20GalleryItemSelection11clear_itemsEv,
                            __ZN3TSA20GalleryItemSelection12InternalSwapEPS0_,
                            __ZN3TSA20GalleryItemSelection16default_instanceEv,
                            __ZN3TSA20GalleryItemSelection17kItemsFieldNumberE,
                            __ZN3TSA20GalleryItemSelection20clear_displayed_itemEv,
                            __ZN3TSA20GalleryItemSelection21InitAsDefaultInstanceEv,
                            __ZN3TSA20GalleryItemSelection25kDisplayedItemFieldNumberE,
                            __ZN3TSA20GalleryItemSelection27MergePartialFromCodedStreamEPN6google8protobuf2io16CodedInputStreamE,
                            __ZN3TSA20GalleryItemSelection4SwapEPS0_,
                            __ZN3TSA20GalleryItemSelection5ClearEv,
                            __ZN3TSA20GalleryItemSelection8CopyFromERKN6google8protobuf7MessageE,
                            __ZN3TSA20GalleryItemSelection8CopyFromERKS0_,
                            __ZN3TSA20GalleryItemSelection9MergeFromERKN6google8protobuf7MessageE,
                            __ZN3TSA20GalleryItemSelection9MergeFromERKS0_,
                            __ZN3TSA20GalleryItemSelectionC1ERKS0_,
                            __ZN3TSA20GalleryItemSelectionC1Ev,
                            __ZN3TSA20GalleryItemSelectionC2ERKS0_,
                            __ZN3TSA20GalleryItemSelectionC2Ev,
                            __ZN3TSA20GalleryItemSelectionD0Ev,
                            __ZN3TSA20GalleryItemSelectionD1Ev,
                            __ZN3TSA20GalleryItemSelectionD2Ev,
                            __ZN3TSA22ShortcutCommandArchive10SharedCtorEv,
                            __ZN3TSA22ShortcutCommandArchive10SharedDtorEv,
                            __ZN3TSA22ShortcutCommandArchive10descriptorEv,
                            __ZN3TSA22ShortcutCommandArchive11clear_superEv,
                            __ZN3TSA22ShortcutCommandArchive12InternalSwapEPS0_,
                            __ZN3TSA22ShortcutCommandArchive15clear_new_styleEv,
                            __ZN3TSA22ShortcutCommandArchive15clear_old_styleEv,
                            __ZN3TSA22ShortcutCommandArchive16default_instanceEv,
                            __ZN3TSA22ShortcutCommandArchive17kSuperFieldNumberE,
                            __ZN3TSA22ShortcutCommandArchive20kNewStyleFieldNumberE,
                            __ZN3TSA22ShortcutCommandArchive20kOldStyleFieldNumberE,
                            __ZN3TSA22ShortcutCommandArchive21InitAsDefaultInstanceEv,
                            __ZN3TSA22ShortcutCommandArchive23kNewShortcutFieldNumberE,
                            __ZN3TSA22ShortcutCommandArchive23kOldShortcutFieldNumberE,
                            __ZN3TSA22ShortcutCommandArchive27MergePartialFromCodedStreamEPN6google8protobuf2io16CodedInputStreamE,
                            __ZN3TSA22ShortcutCommandArchive4SwapEPS0_,
                            __ZN3TSA22ShortcutCommandArchive5ClearEv,
                            __ZN3TSA22ShortcutCommandArchive8CopyFromERKN6google8protobuf7MessageE,
                            __ZN3TSA22ShortcutCommandArchive8CopyFromERKS0_,
                            __ZN3TSA22ShortcutCommandArchive9MergeFromERKN6google8protobuf7MessageE,
                            __ZN3TSA22ShortcutCommandArchive9MergeFromERKS0_,
                            __ZN3TSA22ShortcutCommandArchiveC1ERKS0_,
                            __ZN3TSA22ShortcutCommandArchiveC1Ev,
                            __ZN3TSA22ShortcutCommandArchiveC2ERKS0_,
                            __ZN3TSA22ShortcutCommandArchiveC2Ev,
                            __ZN3TSA22ShortcutCommandArchiveD0Ev,
                            __ZN3TSA22ShortcutCommandArchiveD1Ev,
                            __ZN3TSA22ShortcutCommandArchiveD2Ev,
                            __ZN3TSA23CaptionPlacementArchive10SharedCtorEv,
                            __ZN3TSA23CaptionPlacementArchive10SharedDtorEv,
                            __ZN3TSA23CaptionPlacementArchive10descriptorEv,
                            __ZN3TSA23CaptionPlacementArchive12InternalSwapEPS0_,
                            __ZN3TSA23CaptionPlacementArchive16default_instanceEv,
                            __ZN3TSA23CaptionPlacementArchive21InitAsDefaultInstanceEv,
                            __ZN3TSA23CaptionPlacementArchive27MergePartialFromCodedStreamEPN6google8protobuf2io16CodedInputStreamE,
                            __ZN3TSA23CaptionPlacementArchive33kCaptionAnchorLocationFieldNumberE,
                            __ZN3TSA23CaptionPlacementArchive34kDrawableAnchorLocationFieldNumberE,
                            __ZN3TSA23CaptionPlacementArchive4SwapEPS0_,
                            __ZN3TSA23CaptionPlacementArchive5ClearEv,
                            __ZN3TSA23CaptionPlacementArchive8CopyFromERKN6google8protobuf7MessageE,
                            __ZN3TSA23CaptionPlacementArchive8CopyFromERKS0_,
                            __ZN3TSA23CaptionPlacementArchive9MergeFromERKN6google8protobuf7MessageE,
                            __ZN3TSA23CaptionPlacementArchive9MergeFromERKS0_,
                            __ZN3TSA23CaptionPlacementArchiveC1ERKS0_,
                            __ZN3TSA23CaptionPlacementArchiveC1Ev,
                            __ZN3TSA23CaptionPlacementArchiveC2ERKS0_,
                            __ZN3TSA23CaptionPlacementArchiveC2Ev,
                            __ZN3TSA23CaptionPlacementArchiveD0Ev,
                            __ZN3TSA23CaptionPlacementArchiveD1Ev,
                            __ZN3TSA23CaptionPlacementArchiveD2Ev,
                            __ZN3TSA25DrawableZOrderListArchive10SharedCtorEv,
                            __ZN3TSA25DrawableZOrderListArchive10SharedDtorEv,
                            __ZN3TSA25DrawableZOrderListArchive10descriptorEv,
                            __ZN3TSA25DrawableZOrderListArchive12InternalSwapEPS0_,
                            __ZN3TSA25DrawableZOrderListArchive16default_instanceEv,
                            __ZN3TSA25DrawableZOrderListArchive18clear_container_idEv,
                            __ZN3TSA25DrawableZOrderListArchive21InitAsDefaultInstanceEv,
                            __ZN3TSA25DrawableZOrderListArchive22clear_drawable_id_listEv,
                            __ZN3TSA25DrawableZOrderListArchive23kContainerIdFieldNumberE,
                            __ZN3TSA25DrawableZOrderListArchive26kDrawableIdListFieldNumberE,
                            __ZN3TSA25DrawableZOrderListArchive27MergePartialFromCodedStreamEPN6google8protobuf2io16CodedInputStreamE,
                            __ZN3TSA25DrawableZOrderListArchive35kDrawableIdListUndefinedFieldNumberE,
                            __ZN3TSA25DrawableZOrderListArchive4SwapEPS0_,
                            __ZN3TSA25DrawableZOrderListArchive5ClearEv,
                            __ZN3TSA25DrawableZOrderListArchive8CopyFromERKN6google8protobuf7MessageE,
                            __ZN3TSA25DrawableZOrderListArchive8CopyFromERKS0_,
                            __ZN3TSA25DrawableZOrderListArchive9MergeFromERKN6google8protobuf7MessageE,
                            __ZN3TSA25DrawableZOrderListArchive9MergeFromERKS0_,
                            __ZN3TSA25DrawableZOrderListArchiveC1ERKS0_,
                            __ZN3TSA25DrawableZOrderListArchiveC1Ev,
                            __ZN3TSA25DrawableZOrderListArchiveC2ERKS0_,
                            __ZN3TSA25DrawableZOrderListArchiveC2Ev,
                            __ZN3TSA25DrawableZOrderListArchiveD0Ev,
                            __ZN3TSA25DrawableZOrderListArchiveD1Ev,
                            __ZN3TSA25DrawableZOrderListArchiveD2Ev,
                            __ZN3TSA25ShortcutControllerArchive10SharedCtorEv,
                            __ZN3TSA25ShortcutControllerArchive10SharedDtorEv,
                            __ZN3TSA25ShortcutControllerArchive10descriptorEv,
                            __ZN3TSA25ShortcutControllerArchive12InternalSwapEPS0_,
                            __ZN3TSA25ShortcutControllerArchive16default_instanceEv,
                            __ZN3TSA25ShortcutControllerArchive19kEntriesFieldNumberE,
                            __ZN3TSA25ShortcutControllerArchive21InitAsDefaultInstanceEv,
                            __ZN3TSA25ShortcutControllerArchive27MergePartialFromCodedStreamEPN6google8protobuf2io16CodedInputStreamE,
                            __ZN3TSA25ShortcutControllerArchive4SwapEPS0_,
                            __ZN3TSA25ShortcutControllerArchive5ClearEv,
                            __ZN3TSA25ShortcutControllerArchive8CopyFromERKN6google8protobuf7MessageE,
                            __ZN3TSA25ShortcutControllerArchive8CopyFromERKS0_,
                            __ZN3TSA25ShortcutControllerArchive9MergeFromERKN6google8protobuf7MessageE,
                            __ZN3TSA25ShortcutControllerArchive9MergeFromERKS0_,
                            __ZN3TSA25ShortcutControllerArchiveC1ERKS0_,
                            __ZN3TSA25ShortcutControllerArchiveC1Ev,
                            __ZN3TSA25ShortcutControllerArchiveC2ERKS0_,
                            __ZN3TSA25ShortcutControllerArchiveC2Ev,
                            __ZN3TSA25ShortcutControllerArchiveD0Ev,
                            __ZN3TSA25ShortcutControllerArchiveD1Ev,
                            __ZN3TSA25ShortcutControllerArchiveD2Ev,
                            __ZN3TSA26GalleryCaptionMode_IsValidEi,
                            __ZN3TSA26GalleryItemSetValueCommand10SharedCtorEv,
                            __ZN3TSA26GalleryItemSetValueCommand10SharedDtorEv,
                            __ZN3TSA26GalleryItemSetValueCommand10descriptorEv,
                            __ZN3TSA26GalleryItemSetValueCommand11clear_superEv,
                            __ZN3TSA26GalleryItemSetValueCommand12InternalSwapEPS0_,
                            __ZN3TSA26GalleryItemSetValueCommand16default_instanceEv,
                            __ZN3TSA26GalleryItemSetValueCommand17kSuperFieldNumberE,
                            __ZN3TSA26GalleryItemSetValueCommand17kValueFieldNumberE,
                            __ZN3TSA26GalleryItemSetValueCommand18clear_item_id_pathEv,
                            __ZN3TSA26GalleryItemSetValueCommand20kOldValueFieldNumberE,
                            __ZN3TSA26GalleryItemSetValueCommand20kPropertyFieldNumberE,
                            __ZN3TSA26GalleryItemSetValueCommand21InitAsDefaultInstanceEv,
                            __ZN3TSA26GalleryItemSetValueCommand22kItemIdPathFieldNumberE,
                            __ZN3TSA26GalleryItemSetValueCommand27MergePartialFromCodedStreamEPN6google8protobuf2io16CodedInputStreamE,
                            __ZN3TSA26GalleryItemSetValueCommand4SwapEPS0_,
                            __ZN3TSA26GalleryItemSetValueCommand5ClearEv,
                            __ZN3TSA26GalleryItemSetValueCommand8CopyFromERKN6google8protobuf7MessageE,
                            __ZN3TSA26GalleryItemSetValueCommand8CopyFromERKS0_,
                            __ZN3TSA26GalleryItemSetValueCommand9MergeFromERKN6google8protobuf7MessageE,
                            __ZN3TSA26GalleryItemSetValueCommand9MergeFromERKS0_,
                            __ZN3TSA26GalleryItemSetValueCommandC1ERKS0_,
                            __ZN3TSA26GalleryItemSetValueCommandC1Ev,
                            __ZN3TSA26GalleryItemSetValueCommandC2ERKS0_,
                            __ZN3TSA26GalleryItemSetValueCommandC2Ev,
                            __ZN3TSA26GalleryItemSetValueCommandD0Ev,
                            __ZN3TSA26GalleryItemSetValueCommandD1Ev,
                            __ZN3TSA26GalleryItemSetValueCommandD2Ev,
                            __ZN3TSA27CommandReapplyMasterArchive10SharedCtorEv,
                            __ZN3TSA27CommandReapplyMasterArchive10SharedDtorEv,
                            __ZN3TSA27CommandReapplyMasterArchive10descriptorEv,
                            __ZN3TSA27CommandReapplyMasterArchive11clear_superEv,
                            __ZN3TSA27CommandReapplyMasterArchive12InternalSwapEPS0_,
                            __ZN3TSA27CommandReapplyMasterArchive16default_instanceEv,
                            __ZN3TSA27CommandReapplyMasterArchive17kSuperFieldNumberE,
                            __ZN3TSA27CommandReapplyMasterArchive18kIsUndoFieldNumberE,
                            __ZN3TSA27CommandReapplyMasterArchive20clear_items_to_visitEv,
                            __ZN3TSA27CommandReapplyMasterArchive21InitAsDefaultInstanceEv,
                            __ZN3TSA27CommandReapplyMasterArchive24kItemsToVisitFieldNumberE,
                            __ZN3TSA27CommandReapplyMasterArchive27MergePartialFromCodedStreamEPN6google8protobuf2io16CodedInputStreamE,
                            __ZN3TSA27CommandReapplyMasterArchive33kItemsToVisitUndefinedFieldNumberE,
                            __ZN3TSA27CommandReapplyMasterArchive4SwapEPS0_,
                            __ZN3TSA27CommandReapplyMasterArchive5ClearEv,
                            __ZN3TSA27CommandReapplyMasterArchive8CopyFromERKN6google8protobuf7MessageE,
                            __ZN3TSA27CommandReapplyMasterArchive8CopyFromERKS0_,
                            __ZN3TSA27CommandReapplyMasterArchive9MergeFromERKN6google8protobuf7MessageE,
                            __ZN3TSA27CommandReapplyMasterArchive9MergeFromERKS0_,
                            __ZN3TSA27CommandReapplyMasterArchiveC1ERKS0_,
                            __ZN3TSA27CommandReapplyMasterArchiveC1Ev,
                            __ZN3TSA27CommandReapplyMasterArchiveC2ERKS0_,
                            __ZN3TSA27CommandReapplyMasterArchiveC2Ev,
                            __ZN3TSA27CommandReapplyMasterArchiveD0Ev,
                            __ZN3TSA27CommandReapplyMasterArchiveD1Ev,
                            __ZN3TSA27CommandReapplyMasterArchiveD2Ev,
                            __ZN3TSA27FunctionBrowserStateArchive10SharedCtorEv,
                            __ZN3TSA27FunctionBrowserStateArchive10SharedDtorEv,
                            __ZN3TSA27FunctionBrowserStateArchive10descriptorEv,
                            __ZN3TSA27FunctionBrowserStateArchive12InternalSwapEPS0_,
                            __ZN3TSA27FunctionBrowserStateArchive16default_instanceEv,
                            __ZN3TSA27FunctionBrowserStateArchive21InitAsDefaultInstanceEv,
                            __ZN3TSA27FunctionBrowserStateArchive25kBackFunctionsFieldNumberE,
                            __ZN3TSA27FunctionBrowserStateArchive27MergePartialFromCodedStreamEPN6google8protobuf2io16CodedInputStreamE,
                            __ZN3TSA27FunctionBrowserStateArchive27kCurrentFunctionFieldNumberE,
                            __ZN3TSA27FunctionBrowserStateArchive27kRecentFunctionsFieldNumberE,
                            __ZN3TSA27FunctionBrowserStateArchive28kForwardFunctionsFieldNumberE,
                            __ZN3TSA27FunctionBrowserStateArchive4SwapEPS0_,
                            __ZN3TSA27FunctionBrowserStateArchive5ClearEv,
                            __ZN3TSA27FunctionBrowserStateArchive8CopyFromERKN6google8protobuf7MessageE,
                            __ZN3TSA27FunctionBrowserStateArchive8CopyFromERKS0_,
                            __ZN3TSA27FunctionBrowserStateArchive9MergeFromERKN6google8protobuf7MessageE,
                            __ZN3TSA27FunctionBrowserStateArchive9MergeFromERKS0_,
                            __ZN3TSA27FunctionBrowserStateArchiveC1ERKS0_,
                            __ZN3TSA27FunctionBrowserStateArchiveC1Ev,
                            __ZN3TSA27FunctionBrowserStateArchiveC2ERKS0_,
                            __ZN3TSA27FunctionBrowserStateArchiveC2Ev,
                            __ZN3TSA27FunctionBrowserStateArchiveD0Ev,
                            __ZN3TSA27FunctionBrowserStateArchiveD1Ev,
                            __ZN3TSA27FunctionBrowserStateArchiveD2Ev,
                            __ZN3TSA27GalleryInfoProperty_IsValidEi,
                            __ZN3TSA27GalleryItemProperty_IsValidEi,
                            __ZN3TSA27GallerySelectionTransformer10SharedCtorEv,
                            __ZN3TSA27GallerySelectionTransformer10SharedDtorEv,
                            __ZN3TSA27GallerySelectionTransformer10descriptorEv,
                            __ZN3TSA27GallerySelectionTransformer11clear_superEv,
                            __ZN3TSA27GallerySelectionTransformer12InternalSwapEPS0_,
                            __ZN3TSA27GallerySelectionTransformer16default_instanceEv,
                            __ZN3TSA27GallerySelectionTransformer17kSuperFieldNumberE,
                            __ZN3TSA27GallerySelectionTransformer21InitAsDefaultInstanceEv,
                            __ZN3TSA27GallerySelectionTransformer23clear_gallery_uuid_pathEv,
                            __ZN3TSA27GallerySelectionTransformer27MergePartialFromCodedStreamEPN6google8protobuf2io16CodedInputStreamE,
                            __ZN3TSA27GallerySelectionTransformer27kGalleryUuidPathFieldNumberE,
                            __ZN3TSA27GallerySelectionTransformer31clear_caption_storage_uuid_pathEv,
                            __ZN3TSA27GallerySelectionTransformer34kCaptionStorageUuidPathFieldNumberE,
                            __ZN3TSA27GallerySelectionTransformer4SwapEPS0_,
                            __ZN3TSA27GallerySelectionTransformer5ClearEv,
                            __ZN3TSA27GallerySelectionTransformer8CopyFromERKN6google8protobuf7MessageE,
                            __ZN3TSA27GallerySelectionTransformer8CopyFromERKS0_,
                            __ZN3TSA27GallerySelectionTransformer9MergeFromERKN6google8protobuf7MessageE,
                            __ZN3TSA27GallerySelectionTransformer9MergeFromERKS0_,
                            __ZN3TSA27GallerySelectionTransformerC1ERKS0_,
                            __ZN3TSA27GallerySelectionTransformerC1Ev,
                            __ZN3TSA27GallerySelectionTransformerC2ERKS0_,
                            __ZN3TSA27GallerySelectionTransformerC2Ev,
                            __ZN3TSA27GallerySelectionTransformerD0Ev,
                            __ZN3TSA27GallerySelectionTransformerD1Ev,
                            __ZN3TSA27GallerySelectionTransformerD2Ev,
                            __ZN3TSA28TitlePlacementCommandArchive10SharedCtorEv,
                            __ZN3TSA28TitlePlacementCommandArchive10SharedDtorEv,
                            __ZN3TSA28TitlePlacementCommandArchive10descriptorEv,
                            __ZN3TSA28TitlePlacementCommandArchive11clear_superEv,
                            __ZN3TSA28TitlePlacementCommandArchive12InternalSwapEPS0_,
                            __ZN3TSA28TitlePlacementCommandArchive15clear_placementEv,
                            __ZN3TSA28TitlePlacementCommandArchive16default_instanceEv,
                            __ZN3TSA28TitlePlacementCommandArchive17kSuperFieldNumberE,
                            __ZN3TSA28TitlePlacementCommandArchive19clear_old_placementEv,
                            __ZN3TSA28TitlePlacementCommandArchive21InitAsDefaultInstanceEv,
                            __ZN3TSA28TitlePlacementCommandArchive21kPlacementFieldNumberE,
                            __ZN3TSA28TitlePlacementCommandArchive24kOldPlacementFieldNumberE,
                            __ZN3TSA28TitlePlacementCommandArchive27MergePartialFromCodedStreamEPN6google8protobuf2io16CodedInputStreamE,
                            __ZN3TSA28TitlePlacementCommandArchive32kPlacingChildInfoKindFieldNumberE,
                            __ZN3TSA28TitlePlacementCommandArchive4SwapEPS0_,
                            __ZN3TSA28TitlePlacementCommandArchive5ClearEv,
                            __ZN3TSA28TitlePlacementCommandArchive8CopyFromERKN6google8protobuf7MessageE,
                            __ZN3TSA28TitlePlacementCommandArchive8CopyFromERKS0_,
                            __ZN3TSA28TitlePlacementCommandArchive9MergeFromERKN6google8protobuf7MessageE,
                            __ZN3TSA28TitlePlacementCommandArchive9MergeFromERKS0_,
                            __ZN3TSA28TitlePlacementCommandArchiveC1ERKS0_,
                            __ZN3TSA28TitlePlacementCommandArchiveC1Ev,
                            __ZN3TSA28TitlePlacementCommandArchiveC2ERKS0_,
                            __ZN3TSA28TitlePlacementCommandArchiveC2Ev,
                            __ZN3TSA28TitlePlacementCommandArchiveD0Ev,
                            __ZN3TSA28TitlePlacementCommandArchiveD1Ev,
                            __ZN3TSA28TitlePlacementCommandArchiveD2Ev,
                            __ZN3TSA29AddCustomFormatCommandArchive10SharedCtorEv,
                            __ZN3TSA29AddCustomFormatCommandArchive10SharedDtorEv,
                            __ZN3TSA29AddCustomFormatCommandArchive10descriptorEv,
                            __ZN3TSA29AddCustomFormatCommandArchive11clear_superEv,
                            __ZN3TSA29AddCustomFormatCommandArchive12InternalSwapEPS0_,
                            __ZN3TSA29AddCustomFormatCommandArchive16default_instanceEv,
                            __ZN3TSA29AddCustomFormatCommandArchive17kSuperFieldNumberE,
                            __ZN3TSA29AddCustomFormatCommandArchive19clear_custom_formatEv,
                            __ZN3TSA29AddCustomFormatCommandArchive21InitAsDefaultInstanceEv,
                            __ZN3TSA29AddCustomFormatCommandArchive23clear_custom_format_keyEv,
                            __ZN3TSA29AddCustomFormatCommandArchive24kCustomFormatFieldNumberE,
                            __ZN3TSA29AddCustomFormatCommandArchive27MergePartialFromCodedStreamEPN6google8protobuf2io16CodedInputStreamE,
                            __ZN3TSA29AddCustomFormatCommandArchive27kCustomFormatKeyFieldNumberE,
                            __ZN3TSA29AddCustomFormatCommandArchive4SwapEPS0_,
                            __ZN3TSA29AddCustomFormatCommandArchive5ClearEv,
                            __ZN3TSA29AddCustomFormatCommandArchive8CopyFromERKN6google8protobuf7MessageE,
                            __ZN3TSA29AddCustomFormatCommandArchive8CopyFromERKS0_,
                            __ZN3TSA29AddCustomFormatCommandArchive9MergeFromERKN6google8protobuf7MessageE,
                            __ZN3TSA29AddCustomFormatCommandArchive9MergeFromERKS0_,
                            __ZN3TSA29AddCustomFormatCommandArchiveC1ERKS0_,
                            __ZN3TSA29AddCustomFormatCommandArchiveC1Ev,
                            __ZN3TSA29AddCustomFormatCommandArchiveC2ERKS0_,
                            __ZN3TSA29AddCustomFormatCommandArchiveC2Ev,
                            __ZN3TSA29AddCustomFormatCommandArchiveD0Ev,
                            __ZN3TSA29AddCustomFormatCommandArchiveD1Ev,
                            __ZN3TSA29AddCustomFormatCommandArchiveD2Ev,
                            __ZN3TSA29GalleryCaptionMode_descriptorEv,
                            __ZN3TSA29GalleryItemSetGeometryCommand10SharedCtorEv,
                            __ZN3TSA29GalleryItemSetGeometryCommand10SharedDtorEv,
                            __ZN3TSA29GalleryItemSetGeometryCommand10descriptorEv,
                            __ZN3TSA29GalleryItemSetGeometryCommand11clear_superEv,
                            __ZN3TSA29GalleryItemSetGeometryCommand12InternalSwapEPS0_,
                            __ZN3TSA29GalleryItemSetGeometryCommand12clear_offsetEv,
                            __ZN3TSA29GalleryItemSetGeometryCommand16clear_old_offsetEv,
                            __ZN3TSA29GalleryItemSetGeometryCommand16default_instanceEv,
                            __ZN3TSA29GalleryItemSetGeometryCommand17kScaleFieldNumberE,
                            __ZN3TSA29GalleryItemSetGeometryCommand17kSuperFieldNumberE,
                            __ZN3TSA29GalleryItemSetGeometryCommand18clear_item_id_pathEv,
                            __ZN3TSA29GalleryItemSetGeometryCommand18kOffsetFieldNumberE,
                            __ZN3TSA29GalleryItemSetGeometryCommand20kOldScaleFieldNumberE,
                            __ZN3TSA29GalleryItemSetGeometryCommand21InitAsDefaultInstanceEv,
                            __ZN3TSA29GalleryItemSetGeometryCommand21kOldOffsetFieldNumberE,
                            __ZN3TSA29GalleryItemSetGeometryCommand22kItemIdPathFieldNumberE,
                            __ZN3TSA29GalleryItemSetGeometryCommand27MergePartialFromCodedStreamEPN6google8protobuf2io16CodedInputStreamE,
                            __ZN3TSA29GalleryItemSetGeometryCommand4SwapEPS0_,
                            __ZN3TSA29GalleryItemSetGeometryCommand5ClearEv,
                            __ZN3TSA29GalleryItemSetGeometryCommand8CopyFromERKN6google8protobuf7MessageE,
                            __ZN3TSA29GalleryItemSetGeometryCommand8CopyFromERKS0_,
                            __ZN3TSA29GalleryItemSetGeometryCommand9MergeFromERKN6google8protobuf7MessageE,
                            __ZN3TSA29GalleryItemSetGeometryCommand9MergeFromERKS0_,
                            __ZN3TSA29GalleryItemSetGeometryCommandC1ERKS0_,
                            __ZN3TSA29GalleryItemSetGeometryCommandC1Ev,
                            __ZN3TSA29GalleryItemSetGeometryCommandC2ERKS0_,
                            __ZN3TSA29GalleryItemSetGeometryCommandC2Ev,
                            __ZN3TSA29GalleryItemSetGeometryCommandD0Ev,
                            __ZN3TSA29GalleryItemSetGeometryCommandD1Ev,
                            __ZN3TSA29GalleryItemSetGeometryCommandD2Ev,
                            __ZN3TSA29PropagatePresetCommandArchive10SharedCtorEv,
                            __ZN3TSA29PropagatePresetCommandArchive10SharedDtorEv,
                            __ZN3TSA29PropagatePresetCommandArchive10descriptorEv,
                            __ZN3TSA29PropagatePresetCommandArchive11clear_superEv,
                            __ZN3TSA29PropagatePresetCommandArchive12InternalSwapEPS0_,
                            __ZN3TSA29PropagatePresetCommandArchive16default_instanceEv,
                            __ZN3TSA29PropagatePresetCommandArchive17kSuperFieldNumberE,
                            __ZN3TSA29PropagatePresetCommandArchive21InitAsDefaultInstanceEv,
                            __ZN3TSA29PropagatePresetCommandArchive27MergePartialFromCodedStreamEPN6google8protobuf2io16CodedInputStreamE,
                            __ZN3TSA29PropagatePresetCommandArchive27clear_preset_change_commandEv,
                            __ZN3TSA29PropagatePresetCommandArchive31kPresetChangeCommandFieldNumberE,
                            __ZN3TSA29PropagatePresetCommandArchive36kAlwaysPreserveAppearanceFieldNumberE,
                            __ZN3TSA29PropagatePresetCommandArchive4SwapEPS0_,
                            __ZN3TSA29PropagatePresetCommandArchive5ClearEv,
                            __ZN3TSA29PropagatePresetCommandArchive8CopyFromERKN6google8protobuf7MessageE,
                            __ZN3TSA29PropagatePresetCommandArchive8CopyFromERKS0_,
                            __ZN3TSA29PropagatePresetCommandArchive9MergeFromERKN6google8protobuf7MessageE,
                            __ZN3TSA29PropagatePresetCommandArchive9MergeFromERKS0_,
                            __ZN3TSA29PropagatePresetCommandArchiveC1ERKS0_,
                            __ZN3TSA29PropagatePresetCommandArchiveC1Ev,
                            __ZN3TSA29PropagatePresetCommandArchiveC2ERKS0_,
                            __ZN3TSA29PropagatePresetCommandArchiveC2Ev,
                            __ZN3TSA29PropagatePresetCommandArchiveD0Ev,
                            __ZN3TSA29PropagatePresetCommandArchiveD1Ev,
                            __ZN3TSA29PropagatePresetCommandArchiveD2Ev,
                            __ZN3TSA30GalleryInfoCaptionMode_IsValidEi,
                            __ZN3TSA30GalleryInfoProperty_descriptorEv,
                            __ZN3TSA30GalleryItemProperty_descriptorEv,
                            __ZN3TSA30RemoteDataChangeCommandArchive10SharedCtorEv,
                            __ZN3TSA30RemoteDataChangeCommandArchive10SharedDtorEv,
                            __ZN3TSA30RemoteDataChangeCommandArchive10descriptorEv,
                            __ZN3TSA30RemoteDataChangeCommandArchive11clear_superEv,
                            __ZN3TSA30RemoteDataChangeCommandArchive12InternalSwapEPS0_,
                            __ZN3TSA30RemoteDataChangeCommandArchive12clear_quotesEv,
                            __ZN3TSA30RemoteDataChangeCommandArchive15clear_value_mapEv,
                            __ZN3TSA30RemoteDataChangeCommandArchive16default_instanceEv,
                            __ZN3TSA30RemoteDataChangeCommandArchive17kSuperFieldNumberE,
                            __ZN3TSA30RemoteDataChangeCommandArchive18kQuotesFieldNumberE,
                            __ZN3TSA30RemoteDataChangeCommandArchive20kValueMapFieldNumberE,
                            __ZN3TSA30RemoteDataChangeCommandArchive21InitAsDefaultInstanceEv,
                            __ZN3TSA30RemoteDataChangeCommandArchive27MergePartialFromCodedStreamEPN6google8protobuf2io16CodedInputStreamE,
                            __ZN3TSA30RemoteDataChangeCommandArchive29kRemoteDataSyncKeyFieldNumberE,
                            __ZN3TSA30RemoteDataChangeCommandArchive4SwapEPS0_,
                            __ZN3TSA30RemoteDataChangeCommandArchive5ClearEv,
                            __ZN3TSA30RemoteDataChangeCommandArchive8CopyFromERKN6google8protobuf7MessageE,
                            __ZN3TSA30RemoteDataChangeCommandArchive8CopyFromERKS0_,
                            __ZN3TSA30RemoteDataChangeCommandArchive9MergeFromERKN6google8protobuf7MessageE,
                            __ZN3TSA30RemoteDataChangeCommandArchive9MergeFromERKS0_,
                            __ZN3TSA30RemoteDataChangeCommandArchiveC1ERKS0_,
                            __ZN3TSA30RemoteDataChangeCommandArchiveC1Ev,
                            __ZN3TSA30RemoteDataChangeCommandArchiveC2ERKS0_,
                            __ZN3TSA30RemoteDataChangeCommandArchiveC2Ev,
                            __ZN3TSA30RemoteDataChangeCommandArchiveD0Ev,
                            __ZN3TSA30RemoteDataChangeCommandArchiveD1Ev,
                            __ZN3TSA30RemoteDataChangeCommandArchiveD2Ev,
                            __ZN3TSA30_GalleryInfo_default_instance_E,
                            __ZN3TSA30_GalleryItem_default_instance_E,
                            __ZN3TSA31GalleryItemSelectionTransformer10SharedCtorEv,
                            __ZN3TSA31GalleryItemSelectionTransformer10SharedDtorEv,
                            __ZN3TSA31GalleryItemSelectionTransformer10descriptorEv,
                            __ZN3TSA31GalleryItemSelectionTransformer12InternalSwapEPS0_,
                            __ZN3TSA31GalleryItemSelectionTransformer16default_instanceEv,
                            __ZN3TSA31GalleryItemSelectionTransformer21InitAsDefaultInstanceEv,
                            __ZN3TSA31GalleryItemSelectionTransformer27MergePartialFromCodedStreamEPN6google8protobuf2io16CodedInputStreamE,
                            __ZN3TSA31GalleryItemSelectionTransformer29kTransformerHelperFieldNumberE,
                            __ZN3TSA31GalleryItemSelectionTransformer31clear_caption_storage_uuid_pathEv,
                            __ZN3TSA31GalleryItemSelectionTransformer34kCaptionStorageUuidPathFieldNumberE,
                            __ZN3TSA31GalleryItemSelectionTransformer4SwapEPS0_,
                            __ZN3TSA31GalleryItemSelectionTransformer5ClearEv,
                            __ZN3TSA31GalleryItemSelectionTransformer8CopyFromERKN6google8protobuf7MessageE,
                            __ZN3TSA31GalleryItemSelectionTransformer8CopyFromERKS0_,
                            __ZN3TSA31GalleryItemSelectionTransformer9MergeFromERKN6google8protobuf7MessageE,
                            __ZN3TSA31GalleryItemSelectionTransformer9MergeFromERKS0_,
                            __ZN3TSA31GalleryItemSelectionTransformerC1ERKS0_,
                            __ZN3TSA31GalleryItemSelectionTransformerC1Ev,
                            __ZN3TSA31GalleryItemSelectionTransformerC2ERKS0_,
                            __ZN3TSA31GalleryItemSelectionTransformerC2Ev,
                            __ZN3TSA31GalleryItemSelectionTransformerD0Ev,
                            __ZN3TSA31GalleryItemSelectionTransformerD1Ev,
                            __ZN3TSA31GalleryItemSelectionTransformerD2Ev,
                            __ZN3TSA31_WebVideoInfo_default_instance_E,
                            __ZN3TSA32UpdateCustomFormatCommandArchive10SharedCtorEv,
                            __ZN3TSA32UpdateCustomFormatCommandArchive10SharedDtorEv,
                            __ZN3TSA32UpdateCustomFormatCommandArchive10descriptorEv,
                            __ZN3TSA32UpdateCustomFormatCommandArchive11clear_superEv,
                            __ZN3TSA32UpdateCustomFormatCommandArchive12InternalSwapEPS0_,
                            __ZN3TSA32UpdateCustomFormatCommandArchive16default_instanceEv,
                            __ZN3TSA32UpdateCustomFormatCommandArchive17kSuperFieldNumberE,
                            __ZN3TSA32UpdateCustomFormatCommandArchive19clear_custom_formatEv,
                            __ZN3TSA32UpdateCustomFormatCommandArchive21InitAsDefaultInstanceEv,
                            __ZN3TSA32UpdateCustomFormatCommandArchive23clear_custom_format_keyEv,
                            __ZN3TSA32UpdateCustomFormatCommandArchive23clear_old_custom_formatEv,
                            __ZN3TSA32UpdateCustomFormatCommandArchive24kCustomFormatFieldNumberE,
                            __ZN3TSA32UpdateCustomFormatCommandArchive27MergePartialFromCodedStreamEPN6google8protobuf2io16CodedInputStreamE,
                            __ZN3TSA32UpdateCustomFormatCommandArchive27kCustomFormatKeyFieldNumberE,
                            __ZN3TSA32UpdateCustomFormatCommandArchive27kOldCustomFormatFieldNumberE,
                            __ZN3TSA32UpdateCustomFormatCommandArchive4SwapEPS0_,
                            __ZN3TSA32UpdateCustomFormatCommandArchive5ClearEv,
                            __ZN3TSA32UpdateCustomFormatCommandArchive8CopyFromERKN6google8protobuf7MessageE,
                            __ZN3TSA32UpdateCustomFormatCommandArchive8CopyFromERKS0_,
                            __ZN3TSA32UpdateCustomFormatCommandArchive9MergeFromERKN6google8protobuf7MessageE,
                            __ZN3TSA32UpdateCustomFormatCommandArchive9MergeFromERKS0_,
                            __ZN3TSA32UpdateCustomFormatCommandArchiveC1ERKS0_,
                            __ZN3TSA32UpdateCustomFormatCommandArchiveC1Ev,
                            __ZN3TSA32UpdateCustomFormatCommandArchiveC2ERKS0_,
                            __ZN3TSA32UpdateCustomFormatCommandArchiveC2Ev,
                            __ZN3TSA32UpdateCustomFormatCommandArchiveD0Ev,
                            __ZN3TSA32UpdateCustomFormatCommandArchiveD1Ev,
                            __ZN3TSA32UpdateCustomFormatCommandArchiveD2Ev,
                            __ZN3TSA33GalleryInfoCaptionMode_descriptorEv,
                            __ZN3TSA33GalleryInfoSetValueCommandArchive10SharedCtorEv,
                            __ZN3TSA33GalleryInfoSetValueCommandArchive10SharedDtorEv,
                            __ZN3TSA33GalleryInfoSetValueCommandArchive10descriptorEv,
                            __ZN3TSA33GalleryInfoSetValueCommandArchive11clear_superEv,
                            __ZN3TSA33GalleryInfoSetValueCommandArchive12InternalSwapEPS0_,
                            __ZN3TSA33GalleryInfoSetValueCommandArchive16default_instanceEv,
                            __ZN3TSA33GalleryInfoSetValueCommandArchive17kSuperFieldNumberE,
                            __ZN3TSA33GalleryInfoSetValueCommandArchive17kValueFieldNumberE,
                            __ZN3TSA33GalleryInfoSetValueCommandArchive18clear_info_id_pathEv,
                            __ZN3TSA33GalleryInfoSetValueCommandArchive20kOldValueFieldNumberE,
                            __ZN3TSA33GalleryInfoSetValueCommandArchive20kPropertyFieldNumberE,
                            __ZN3TSA33GalleryInfoSetValueCommandArchive21InitAsDefaultInstanceEv,
                            __ZN3TSA33GalleryInfoSetValueCommandArchive22kInfoIdPathFieldNumberE,
                            __ZN3TSA33GalleryInfoSetValueCommandArchive27MergePartialFromCodedStreamEPN6google8protobuf2io16CodedInputStreamE,
                            __ZN3TSA33GalleryInfoSetValueCommandArchive4SwapEPS0_,
                            __ZN3TSA33GalleryInfoSetValueCommandArchive5ClearEv,
                            __ZN3TSA33GalleryInfoSetValueCommandArchive8CopyFromERKN6google8protobuf7MessageE,
                            __ZN3TSA33GalleryInfoSetValueCommandArchive8CopyFromERKS0_,
                            __ZN3TSA33GalleryInfoSetValueCommandArchive9MergeFromERKN6google8protobuf7MessageE,
                            __ZN3TSA33GalleryInfoSetValueCommandArchive9MergeFromERKS0_,
                            __ZN3TSA33GalleryInfoSetValueCommandArchiveC1ERKS0_,
                            __ZN3TSA33GalleryInfoSetValueCommandArchiveC1Ev,
                            __ZN3TSA33GalleryInfoSetValueCommandArchiveC2ERKS0_,
                            __ZN3TSA33GalleryInfoSetValueCommandArchiveC2Ev,
                            __ZN3TSA33GalleryInfoSetValueCommandArchiveD0Ev,
                            __ZN3TSA33GalleryInfoSetValueCommandArchiveD1Ev,
                            __ZN3TSA33GalleryInfoSetValueCommandArchiveD2Ev,
                            __ZN3TSA33ReplaceCustomFormatCommandArchive10SharedCtorEv,
                            __ZN3TSA33ReplaceCustomFormatCommandArchive10SharedDtorEv,
                            __ZN3TSA33ReplaceCustomFormatCommandArchive10descriptorEv,
                            __ZN3TSA33ReplaceCustomFormatCommandArchive11clear_superEv,
                            __ZN3TSA33ReplaceCustomFormatCommandArchive12InternalSwapEPS0_,
                            __ZN3TSA33ReplaceCustomFormatCommandArchive16default_instanceEv,
                            __ZN3TSA33ReplaceCustomFormatCommandArchive17kSuperFieldNumberE,
                            __ZN3TSA33ReplaceCustomFormatCommandArchive19clear_custom_formatEv,
                            __ZN3TSA33ReplaceCustomFormatCommandArchive21InitAsDefaultInstanceEv,
                            __ZN3TSA33ReplaceCustomFormatCommandArchive23clear_custom_format_keyEv,
                            __ZN3TSA33ReplaceCustomFormatCommandArchive24clear_replacement_formatEv,
                            __ZN3TSA33ReplaceCustomFormatCommandArchive24kCustomFormatFieldNumberE,
                            __ZN3TSA33ReplaceCustomFormatCommandArchive27MergePartialFromCodedStreamEPN6google8protobuf2io16CodedInputStreamE,
                            __ZN3TSA33ReplaceCustomFormatCommandArchive27kCustomFormatKeyFieldNumberE,
                            __ZN3TSA33ReplaceCustomFormatCommandArchive29kReplacementFormatFieldNumberE,
                            __ZN3TSA33ReplaceCustomFormatCommandArchive4SwapEPS0_,
                            __ZN3TSA33ReplaceCustomFormatCommandArchive5ClearEv,
                            __ZN3TSA33ReplaceCustomFormatCommandArchive8CopyFromERKN6google8protobuf7MessageE,
                            __ZN3TSA33ReplaceCustomFormatCommandArchive8CopyFromERKS0_,
                            __ZN3TSA33ReplaceCustomFormatCommandArchive9MergeFromERKN6google8protobuf7MessageE,
                            __ZN3TSA33ReplaceCustomFormatCommandArchive9MergeFromERKS0_,
                            __ZN3TSA33ReplaceCustomFormatCommandArchiveC1ERKS0_,
                            __ZN3TSA33ReplaceCustomFormatCommandArchiveC1Ev,
                            __ZN3TSA33ReplaceCustomFormatCommandArchiveC2ERKS0_,
                            __ZN3TSA33ReplaceCustomFormatCommandArchiveC2Ev,
                            __ZN3TSA33ReplaceCustomFormatCommandArchiveD0Ev,
                            __ZN3TSA33ReplaceCustomFormatCommandArchiveD1Ev,
                            __ZN3TSA33ReplaceCustomFormatCommandArchiveD2Ev,
                            __ZN3TSA34ChangeDocumentLocaleCommandArchive10SharedCtorEv,
                            __ZN3TSA34ChangeDocumentLocaleCommandArchive10SharedDtorEv,
                            __ZN3TSA34ChangeDocumentLocaleCommandArchive10descriptorEv,
                            __ZN3TSA34ChangeDocumentLocaleCommandArchive11clear_superEv,
                            __ZN3TSA34ChangeDocumentLocaleCommandArchive12InternalSwapEPS0_,
                            __ZN3TSA34ChangeDocumentLocaleCommandArchive16default_instanceEv,
                            __ZN3TSA34ChangeDocumentLocaleCommandArchive17kSuperFieldNumberE,
                            __ZN3TSA34ChangeDocumentLocaleCommandArchive21InitAsDefaultInstanceEv,
                            __ZN3TSA34ChangeDocumentLocaleCommandArchive23kNewLocaleIdFieldNumberE,
                            __ZN3TSA34ChangeDocumentLocaleCommandArchive23kOldLocaleIdFieldNumberE,
                            __ZN3TSA34ChangeDocumentLocaleCommandArchive27MergePartialFromCodedStreamEPN6google8protobuf2io16CodedInputStreamE,
                            __ZN3TSA34ChangeDocumentLocaleCommandArchive28clear_new_formatting_symbolsEv,
                            __ZN3TSA34ChangeDocumentLocaleCommandArchive28clear_old_formatting_symbolsEv,
                            __ZN3TSA34ChangeDocumentLocaleCommandArchive32kNewFormattingSymbolsFieldNumberE,
                            __ZN3TSA34ChangeDocumentLocaleCommandArchive32kOldFormattingSymbolsFieldNumberE,
                            __ZN3TSA34ChangeDocumentLocaleCommandArchive4SwapEPS0_,
                            __ZN3TSA34ChangeDocumentLocaleCommandArchive5ClearEv,
                            __ZN3TSA34ChangeDocumentLocaleCommandArchive8CopyFromERKN6google8protobuf7MessageE,
                            __ZN3TSA34ChangeDocumentLocaleCommandArchive8CopyFromERKS0_,
                            __ZN3TSA34ChangeDocumentLocaleCommandArchive9MergeFromERKN6google8protobuf7MessageE,
                            __ZN3TSA34ChangeDocumentLocaleCommandArchive9MergeFromERKS0_,
                            __ZN3TSA34ChangeDocumentLocaleCommandArchiveC1ERKS0_,
                            __ZN3TSA34ChangeDocumentLocaleCommandArchiveC1Ev,
                            __ZN3TSA34ChangeDocumentLocaleCommandArchiveC2ERKS0_,
                            __ZN3TSA34ChangeDocumentLocaleCommandArchiveC2Ev,
                            __ZN3TSA34ChangeDocumentLocaleCommandArchiveD0Ev,
                            __ZN3TSA34ChangeDocumentLocaleCommandArchiveD1Ev,
                            __ZN3TSA34ChangeDocumentLocaleCommandArchiveD2Ev,
                            __ZN3TSA34_DocumentArchive_default_instance_E,
                            __ZN3TSA35PropagateMasterChangeCommandArchive10SharedCtorEv,
                            __ZN3TSA35PropagateMasterChangeCommandArchive10SharedDtorEv,
                            __ZN3TSA35PropagateMasterChangeCommandArchive10descriptorEv,
                            __ZN3TSA35PropagateMasterChangeCommandArchive11clear_superEv,
                            __ZN3TSA35PropagateMasterChangeCommandArchive12InternalSwapEPS0_,
                            __ZN3TSA35PropagateMasterChangeCommandArchive16default_instanceEv,
                            __ZN3TSA35PropagateMasterChangeCommandArchive17kSuperFieldNumberE,
                            __ZN3TSA35PropagateMasterChangeCommandArchive21InitAsDefaultInstanceEv,
                            __ZN3TSA35PropagateMasterChangeCommandArchive27MergePartialFromCodedStreamEPN6google8protobuf2io16CodedInputStreamE,
                            __ZN3TSA35PropagateMasterChangeCommandArchive41clear_uuids_of_previously_visited_objectsEv,
                            __ZN3TSA35PropagateMasterChangeCommandArchive43kUuidsOfPreviouslyVisitedObjectsFieldNumberE,
                            __ZN3TSA35PropagateMasterChangeCommandArchive4SwapEPS0_,
                            __ZN3TSA35PropagateMasterChangeCommandArchive52kUuidsOfPreviouslyVisitedObjectsUndefinedFieldNumberE,
                            __ZN3TSA35PropagateMasterChangeCommandArchive5ClearEv,
                            __ZN3TSA35PropagateMasterChangeCommandArchive8CopyFromERKN6google8protobuf7MessageE,
                            __ZN3TSA35PropagateMasterChangeCommandArchive8CopyFromERKS0_,
                            __ZN3TSA35PropagateMasterChangeCommandArchive9MergeFromERKN6google8protobuf7MessageE,
                            __ZN3TSA35PropagateMasterChangeCommandArchive9MergeFromERKS0_,
                            __ZN3TSA35PropagateMasterChangeCommandArchiveC1ERKS0_,
                            __ZN3TSA35PropagateMasterChangeCommandArchiveC1Ev,
                            __ZN3TSA35PropagateMasterChangeCommandArchiveC2ERKS0_,
                            __ZN3TSA35PropagateMasterChangeCommandArchiveC2Ev,
                            __ZN3TSA35PropagateMasterChangeCommandArchiveD0Ev,
                            __ZN3TSA35PropagateMasterChangeCommandArchiveD1Ev,
                            __ZN3TSA35PropagateMasterChangeCommandArchiveD2Ev,
                            __ZN3TSA36GalleryInfoInsertItemsCommandArchive10SharedCtorEv,
                            __ZN3TSA36GalleryInfoInsertItemsCommandArchive10SharedDtorEv,
                            __ZN3TSA36GalleryInfoInsertItemsCommandArchive10descriptorEv,
                            __ZN3TSA36GalleryInfoInsertItemsCommandArchive11clear_itemsEv,
                            __ZN3TSA36GalleryInfoInsertItemsCommandArchive11clear_superEv,
                            __ZN3TSA36GalleryInfoInsertItemsCommandArchive12InternalSwapEPS0_,
                            __ZN3TSA36GalleryInfoInsertItemsCommandArchive16default_instanceEv,
                            __ZN3TSA36GalleryInfoInsertItemsCommandArchive17kItemsFieldNumberE,
                            __ZN3TSA36GalleryInfoInsertItemsCommandArchive17kSuperFieldNumberE,
                            __ZN3TSA36GalleryInfoInsertItemsCommandArchive21InitAsDefaultInstanceEv,
                            __ZN3TSA36GalleryInfoInsertItemsCommandArchive27MergePartialFromCodedStreamEPN6google8protobuf2io16CodedInputStreamE,
                            __ZN3TSA36GalleryInfoInsertItemsCommandArchive4SwapEPS0_,
                            __ZN3TSA36GalleryInfoInsertItemsCommandArchive5ClearEv,
                            __ZN3TSA36GalleryInfoInsertItemsCommandArchive8CopyFromERKN6google8protobuf7MessageE,
                            __ZN3TSA36GalleryInfoInsertItemsCommandArchive8CopyFromERKS0_,
                            __ZN3TSA36GalleryInfoInsertItemsCommandArchive9MergeFromERKN6google8protobuf7MessageE,
                            __ZN3TSA36GalleryInfoInsertItemsCommandArchive9MergeFromERKS0_,
                            __ZN3TSA36GalleryInfoInsertItemsCommandArchiveC1ERKS0_,
                            __ZN3TSA36GalleryInfoInsertItemsCommandArchiveC1Ev,
                            __ZN3TSA36GalleryInfoInsertItemsCommandArchiveC2ERKS0_,
                            __ZN3TSA36GalleryInfoInsertItemsCommandArchiveC2Ev,
                            __ZN3TSA36GalleryInfoInsertItemsCommandArchiveD0Ev,
                            __ZN3TSA36GalleryInfoInsertItemsCommandArchiveD1Ev,
                            __ZN3TSA36GalleryInfoInsertItemsCommandArchiveD2Ev,
                            __ZN3TSA36GalleryInfoRemoveItemsCommandArchive10SharedCtorEv,
                            __ZN3TSA36GalleryInfoRemoveItemsCommandArchive10SharedDtorEv,
                            __ZN3TSA36GalleryInfoRemoveItemsCommandArchive10descriptorEv,
                            __ZN3TSA36GalleryInfoRemoveItemsCommandArchive11clear_superEv,
                            __ZN3TSA36GalleryInfoRemoveItemsCommandArchive12InternalSwapEPS0_,
                            __ZN3TSA36GalleryInfoRemoveItemsCommandArchive16default_instanceEv,
                            __ZN3TSA36GalleryInfoRemoveItemsCommandArchive17kSuperFieldNumberE,
                            __ZN3TSA36GalleryInfoRemoveItemsCommandArchive21InitAsDefaultInstanceEv,
                            __ZN3TSA36GalleryInfoRemoveItemsCommandArchive27MergePartialFromCodedStreamEPN6google8protobuf2io16CodedInputStreamE,
                            __ZN3TSA36GalleryInfoRemoveItemsCommandArchive4SwapEPS0_,
                            __ZN3TSA36GalleryInfoRemoveItemsCommandArchive5ClearEv,
                            __ZN3TSA36GalleryInfoRemoveItemsCommandArchive8CopyFromERKN6google8protobuf7MessageE,
                            __ZN3TSA36GalleryInfoRemoveItemsCommandArchive8CopyFromERKS0_,
                            __ZN3TSA36GalleryInfoRemoveItemsCommandArchive9MergeFromERKN6google8protobuf7MessageE,
                            __ZN3TSA36GalleryInfoRemoveItemsCommandArchive9MergeFromERKS0_,
                            __ZN3TSA36GalleryInfoRemoveItemsCommandArchiveC1ERKS0_,
                            __ZN3TSA36GalleryInfoRemoveItemsCommandArchiveC1Ev,
                            __ZN3TSA36GalleryInfoRemoveItemsCommandArchiveC2ERKS0_,
                            __ZN3TSA36GalleryInfoRemoveItemsCommandArchiveC2Ev,
                            __ZN3TSA36GalleryInfoRemoveItemsCommandArchiveD0Ev,
                            __ZN3TSA36GalleryInfoRemoveItemsCommandArchiveD1Ev,
                            __ZN3TSA36GalleryInfoRemoveItemsCommandArchiveD2Ev,
                            __ZN3TSA36StyleUpdatePropertyMapCommandArchive10SharedCtorEv,
                            __ZN3TSA36StyleUpdatePropertyMapCommandArchive10SharedDtorEv,
                            __ZN3TSA36StyleUpdatePropertyMapCommandArchive10descriptorEv,
                            __ZN3TSA36StyleUpdatePropertyMapCommandArchive11clear_superEv,
                            __ZN3TSA36StyleUpdatePropertyMapCommandArchive12InternalSwapEPS0_,
                            __ZN3TSA36StyleUpdatePropertyMapCommandArchive16default_instanceEv,
                            __ZN3TSA36StyleUpdatePropertyMapCommandArchive17kSuperFieldNumberE,
                            __ZN3TSA36StyleUpdatePropertyMapCommandArchive21InitAsDefaultInstanceEv,
                            __ZN3TSA36StyleUpdatePropertyMapCommandArchive27MergePartialFromCodedStreamEPN6google8protobuf2io16CodedInputStreamE,
                            __ZN3TSA36StyleUpdatePropertyMapCommandArchive4SwapEPS0_,
                            __ZN3TSA36StyleUpdatePropertyMapCommandArchive5ClearEv,
                            __ZN3TSA36StyleUpdatePropertyMapCommandArchive8CopyFromERKN6google8protobuf7MessageE,
                            __ZN3TSA36StyleUpdatePropertyMapCommandArchive8CopyFromERKS0_,
                            __ZN3TSA36StyleUpdatePropertyMapCommandArchive9MergeFromERKN6google8protobuf7MessageE,
                            __ZN3TSA36StyleUpdatePropertyMapCommandArchive9MergeFromERKS0_,
                            __ZN3TSA36StyleUpdatePropertyMapCommandArchiveC1ERKS0_,
                            __ZN3TSA36StyleUpdatePropertyMapCommandArchiveC1Ev,
                            __ZN3TSA36StyleUpdatePropertyMapCommandArchiveC2ERKS0_,
                            __ZN3TSA36StyleUpdatePropertyMapCommandArchiveC2Ev,
                            __ZN3TSA36StyleUpdatePropertyMapCommandArchiveD0Ev,
                            __ZN3TSA36StyleUpdatePropertyMapCommandArchiveD1Ev,
                            __ZN3TSA36StyleUpdatePropertyMapCommandArchiveD2Ev,
                            __ZN3TSA37GalleryItemSelectionTransformerHelper10SharedCtorEv,
                            __ZN3TSA37GalleryItemSelectionTransformerHelper10SharedDtorEv,
                            __ZN3TSA37GalleryItemSelectionTransformerHelper10descriptorEv,
                            __ZN3TSA37GalleryItemSelectionTransformerHelper12InternalSwapEPS0_,
                            __ZN3TSA37GalleryItemSelectionTransformerHelper16default_instanceEv,
                            __ZN3TSA37GalleryItemSelectionTransformerHelper21InitAsDefaultInstanceEv,
                            __ZN3TSA37GalleryItemSelectionTransformerHelper21clear_item_uuid_pathsEv,
                            __ZN3TSA37GalleryItemSelectionTransformerHelper25kItemUuidPathsFieldNumberE,
                            __ZN3TSA37GalleryItemSelectionTransformerHelper27MergePartialFromCodedStreamEPN6google8protobuf2io16CodedInputStreamE,
                            __ZN3TSA37GalleryItemSelectionTransformerHelper30clear_displayed_item_uuid_pathEv,
                            __ZN3TSA37GalleryItemSelectionTransformerHelper33kDisplayedItemUuidPathFieldNumberE,
                            __ZN3TSA37GalleryItemSelectionTransformerHelper4SwapEPS0_,
                            __ZN3TSA37GalleryItemSelectionTransformerHelper5ClearEv,
                            __ZN3TSA37GalleryItemSelectionTransformerHelper8CopyFromERKN6google8protobuf7MessageE,
                            __ZN3TSA37GalleryItemSelectionTransformerHelper8CopyFromERKS0_,
                            __ZN3TSA37GalleryItemSelectionTransformerHelper9MergeFromERKN6google8protobuf7MessageE,
                            __ZN3TSA37GalleryItemSelectionTransformerHelper9MergeFromERKS0_,
                            __ZN3TSA37GalleryItemSelectionTransformerHelperC1ERKS0_,
                            __ZN3TSA37GalleryItemSelectionTransformerHelperC1Ev,
                            __ZN3TSA37GalleryItemSelectionTransformerHelperC2ERKS0_,
                            __ZN3TSA37GalleryItemSelectionTransformerHelperC2Ev,
                            __ZN3TSA37GalleryItemSelectionTransformerHelperD0Ev,
                            __ZN3TSA37GalleryItemSelectionTransformerHelperD1Ev,
                            __ZN3TSA37GalleryItemSelectionTransformerHelperD2Ev,
                            __ZN3TSA37VerifyObjectsWithServerCommandArchive10SharedCtorEv,
                            __ZN3TSA37VerifyObjectsWithServerCommandArchive10SharedDtorEv,
                            __ZN3TSA37VerifyObjectsWithServerCommandArchive10descriptorEv,
                            __ZN3TSA37VerifyObjectsWithServerCommandArchive11clear_superEv,
                            __ZN3TSA37VerifyObjectsWithServerCommandArchive12InternalSwapEPS0_,
                            __ZN3TSA37VerifyObjectsWithServerCommandArchive16default_instanceEv,
                            __ZN3TSA37VerifyObjectsWithServerCommandArchive17kSuperFieldNumberE,
                            __ZN3TSA37VerifyObjectsWithServerCommandArchive20clear_object_id_listEv,
                            __ZN3TSA37VerifyObjectsWithServerCommandArchive21InitAsDefaultInstanceEv,
                            __ZN3TSA37VerifyObjectsWithServerCommandArchive24kObjectIdListFieldNumberE,
                            __ZN3TSA37VerifyObjectsWithServerCommandArchive27MergePartialFromCodedStreamEPN6google8protobuf2io16CodedInputStreamE,
                            __ZN3TSA37VerifyObjectsWithServerCommandArchive33kObjectIdListUndefinedFieldNumberE,
                            __ZN3TSA37VerifyObjectsWithServerCommandArchive4SwapEPS0_,
                            __ZN3TSA37VerifyObjectsWithServerCommandArchive5ClearEv,
                            __ZN3TSA37VerifyObjectsWithServerCommandArchive8CopyFromERKN6google8protobuf7MessageE,
                            __ZN3TSA37VerifyObjectsWithServerCommandArchive8CopyFromERKS0_,
                            __ZN3TSA37VerifyObjectsWithServerCommandArchive9MergeFromERKN6google8protobuf7MessageE,
                            __ZN3TSA37VerifyObjectsWithServerCommandArchive9MergeFromERKS0_,
                            __ZN3TSA37VerifyObjectsWithServerCommandArchiveC1ERKS0_,
                            __ZN3TSA37VerifyObjectsWithServerCommandArchiveC1Ev,
                            __ZN3TSA37VerifyObjectsWithServerCommandArchiveC2ERKS0_,
                            __ZN3TSA37VerifyObjectsWithServerCommandArchiveC2Ev,
                            __ZN3TSA37VerifyObjectsWithServerCommandArchiveD0Ev,
                            __ZN3TSA37VerifyObjectsWithServerCommandArchiveD1Ev,
                            __ZN3TSA37VerifyObjectsWithServerCommandArchiveD2Ev,
                            __ZN3TSA37_CaptionInfoArchive_default_instance_E,
                            __ZN3TSA38VerifyDocumentWithServerCommandArchive10SharedCtorEv,
                            __ZN3TSA38VerifyDocumentWithServerCommandArchive10SharedDtorEv,
                            __ZN3TSA38VerifyDocumentWithServerCommandArchive10descriptorEv,
                            __ZN3TSA38VerifyDocumentWithServerCommandArchive11clear_superEv,
                            __ZN3TSA38VerifyDocumentWithServerCommandArchive12InternalSwapEPS0_,
                            __ZN3TSA38VerifyDocumentWithServerCommandArchive16default_instanceEv,
                            __ZN3TSA38VerifyDocumentWithServerCommandArchive17kSuperFieldNumberE,
                            __ZN3TSA38VerifyDocumentWithServerCommandArchive21InitAsDefaultInstanceEv,
                            __ZN3TSA38VerifyDocumentWithServerCommandArchive27MergePartialFromCodedStreamEPN6google8protobuf2io16CodedInputStreamE,
                            __ZN3TSA38VerifyDocumentWithServerCommandArchive4SwapEPS0_,
                            __ZN3TSA38VerifyDocumentWithServerCommandArchive5ClearEv,
                            __ZN3TSA38VerifyDocumentWithServerCommandArchive8CopyFromERKN6google8protobuf7MessageE,
                            __ZN3TSA38VerifyDocumentWithServerCommandArchive8CopyFromERKS0_,
                            __ZN3TSA38VerifyDocumentWithServerCommandArchive9MergeFromERKN6google8protobuf7MessageE,
                            __ZN3TSA38VerifyDocumentWithServerCommandArchive9MergeFromERKS0_,
                            __ZN3TSA38VerifyDocumentWithServerCommandArchiveC1ERKS0_,
                            __ZN3TSA38VerifyDocumentWithServerCommandArchiveC1Ev,
                            __ZN3TSA38VerifyDocumentWithServerCommandArchiveC2ERKS0_,
                            __ZN3TSA38VerifyDocumentWithServerCommandArchiveC2Ev,
                            __ZN3TSA38VerifyDocumentWithServerCommandArchiveD0Ev,
                            __ZN3TSA38VerifyDocumentWithServerCommandArchiveD1Ev,
                            __ZN3TSA38VerifyDocumentWithServerCommandArchiveD2Ev,
                            __ZN3TSA38_ThemePresetsArchive_default_instance_E,
                            __ZN3TSA39_GalleryItemSelection_default_instance_E,
                            __ZN3TSA40GalleryItemSetValueCommand_PropertyValue10SharedCtorEv,
                            __ZN3TSA40GalleryItemSetValueCommand_PropertyValue10SharedDtorEv,
                            __ZN3TSA40GalleryItemSetValueCommand_PropertyValue10descriptorEv,
                            __ZN3TSA40GalleryItemSetValueCommand_PropertyValue12InternalSwapEPS0_,
                            __ZN3TSA40GalleryItemSetValueCommand_PropertyValue16clear_image_dataEv,
                            __ZN3TSA40GalleryItemSetValueCommand_PropertyValue16default_instanceEv,
                            __ZN3TSA40GalleryItemSetValueCommand_PropertyValue21InitAsDefaultInstanceEv,
                            __ZN3TSA40GalleryItemSetValueCommand_PropertyValue21kImageDataFieldNumberE,
                            __ZN3TSA40GalleryItemSetValueCommand_PropertyValue27MergePartialFromCodedStreamEPN6google8protobuf2io16CodedInputStreamE,
                            __ZN3TSA40GalleryItemSetValueCommand_PropertyValue36kAccessibilityDescriptionFieldNumberE,
                            __ZN3TSA40GalleryItemSetValueCommand_PropertyValue4SwapEPS0_,
                            __ZN3TSA40GalleryItemSetValueCommand_PropertyValue5ClearEv,
                            __ZN3TSA40GalleryItemSetValueCommand_PropertyValue8CopyFromERKN6google8protobuf7MessageE,
                            __ZN3TSA40GalleryItemSetValueCommand_PropertyValue8CopyFromERKS0_,
                            __ZN3TSA40GalleryItemSetValueCommand_PropertyValue9MergeFromERKN6google8protobuf7MessageE,
                            __ZN3TSA40GalleryItemSetValueCommand_PropertyValue9MergeFromERKS0_,
                            __ZN3TSA40GalleryItemSetValueCommand_PropertyValueC1ERKS0_,
                            __ZN3TSA40GalleryItemSetValueCommand_PropertyValueC1Ev,
                            __ZN3TSA40GalleryItemSetValueCommand_PropertyValueC2ERKS0_,
                            __ZN3TSA40GalleryItemSetValueCommand_PropertyValueC2Ev,
                            __ZN3TSA40GalleryItemSetValueCommand_PropertyValueD0Ev,
                            __ZN3TSA40GalleryItemSetValueCommand_PropertyValueD1Ev,
                            __ZN3TSA40GalleryItemSetValueCommand_PropertyValueD2Ev,
                            __ZN3TSA41_ShortcutCommandArchive_default_instance_E,
                            __ZN3TSA42ShortcutControllerArchive_ShortcutMapEntry10SharedCtorEv,
                            __ZN3TSA42ShortcutControllerArchive_ShortcutMapEntry10SharedDtorEv,
                            __ZN3TSA42ShortcutControllerArchive_ShortcutMapEntry10descriptorEv,
                            __ZN3TSA42ShortcutControllerArchive_ShortcutMapEntry11clear_styleEv,
                            __ZN3TSA42ShortcutControllerArchive_ShortcutMapEntry12InternalSwapEPS0_,
                            __ZN3TSA42ShortcutControllerArchive_ShortcutMapEntry16default_instanceEv,
                            __ZN3TSA42ShortcutControllerArchive_ShortcutMapEntry17kStyleFieldNumberE,
                            __ZN3TSA42ShortcutControllerArchive_ShortcutMapEntry20kShortcutFieldNumberE,
                            __ZN3TSA42ShortcutControllerArchive_ShortcutMapEntry21InitAsDefaultInstanceEv,
                            __ZN3TSA42ShortcutControllerArchive_ShortcutMapEntry27MergePartialFromCodedStreamEPN6google8protobuf2io16CodedInputStreamE,
                            __ZN3TSA42ShortcutControllerArchive_ShortcutMapEntry4SwapEPS0_,
                            __ZN3TSA42ShortcutControllerArchive_ShortcutMapEntry5ClearEv,
                            __ZN3TSA42ShortcutControllerArchive_ShortcutMapEntry8CopyFromERKN6google8protobuf7MessageE,
                            __ZN3TSA42ShortcutControllerArchive_ShortcutMapEntry8CopyFromERKS0_,
                            __ZN3TSA42ShortcutControllerArchive_ShortcutMapEntry9MergeFromERKN6google8protobuf7MessageE,
                            __ZN3TSA42ShortcutControllerArchive_ShortcutMapEntry9MergeFromERKS0_,
                            __ZN3TSA42ShortcutControllerArchive_ShortcutMapEntryC1ERKS0_,
                            __ZN3TSA42ShortcutControllerArchive_ShortcutMapEntryC1Ev,
                            __ZN3TSA42ShortcutControllerArchive_ShortcutMapEntryC2ERKS0_,
                            __ZN3TSA42ShortcutControllerArchive_ShortcutMapEntryC2Ev,
                            __ZN3TSA42ShortcutControllerArchive_ShortcutMapEntryD0Ev,
                            __ZN3TSA42ShortcutControllerArchive_ShortcutMapEntryD1Ev,
                            __ZN3TSA42ShortcutControllerArchive_ShortcutMapEntryD2Ev,
                            __ZN3TSA42_CaptionPlacementArchive_default_instance_E,
                            __ZN3TSA44InducedVerifyObjectsWithServerCommandArchive10SharedCtorEv,
                            __ZN3TSA44InducedVerifyObjectsWithServerCommandArchive10SharedDtorEv,
                            __ZN3TSA44InducedVerifyObjectsWithServerCommandArchive10descriptorEv,
                            __ZN3TSA44InducedVerifyObjectsWithServerCommandArchive11clear_superEv,
                            __ZN3TSA44InducedVerifyObjectsWithServerCommandArchive12InternalSwapEPS0_,
                            __ZN3TSA44InducedVerifyObjectsWithServerCommandArchive16default_instanceEv,
                            __ZN3TSA44InducedVerifyObjectsWithServerCommandArchive17kSuperFieldNumberE,
                            __ZN3TSA44InducedVerifyObjectsWithServerCommandArchive20clear_object_id_listEv,
                            __ZN3TSA44InducedVerifyObjectsWithServerCommandArchive21InitAsDefaultInstanceEv,
                            __ZN3TSA44InducedVerifyObjectsWithServerCommandArchive24kObjectIdListFieldNumberE,
                            __ZN3TSA44InducedVerifyObjectsWithServerCommandArchive25kPendingRecalcFieldNumberE,
                            __ZN3TSA44InducedVerifyObjectsWithServerCommandArchive27MergePartialFromCodedStreamEPN6google8protobuf2io16CodedInputStreamE,
                            __ZN3TSA44InducedVerifyObjectsWithServerCommandArchive29kRemoteDataSyncKeyFieldNumberE,
                            __ZN3TSA44InducedVerifyObjectsWithServerCommandArchive33kObjectIdListUndefinedFieldNumberE,
                            __ZN3TSA44InducedVerifyObjectsWithServerCommandArchive37kServerObjectSOSStringListFieldNumberE,
                            __ZN3TSA44InducedVerifyObjectsWithServerCommandArchive46kServerObjectSOSStringListUndefinedFieldNumberE,
                            __ZN3TSA44InducedVerifyObjectsWithServerCommandArchive4SwapEPS0_,
                            __ZN3TSA44InducedVerifyObjectsWithServerCommandArchive5ClearEv,
                            __ZN3TSA44InducedVerifyObjectsWithServerCommandArchive8CopyFromERKN6google8protobuf7MessageE,
                            __ZN3TSA44InducedVerifyObjectsWithServerCommandArchive8CopyFromERKS0_,
                            __ZN3TSA44InducedVerifyObjectsWithServerCommandArchive9MergeFromERKN6google8protobuf7MessageE,
                            __ZN3TSA44InducedVerifyObjectsWithServerCommandArchive9MergeFromERKS0_,
                            __ZN3TSA44InducedVerifyObjectsWithServerCommandArchiveC1ERKS0_,
                            __ZN3TSA44InducedVerifyObjectsWithServerCommandArchiveC1Ev,
                            __ZN3TSA44InducedVerifyObjectsWithServerCommandArchiveC2ERKS0_,
                            __ZN3TSA44InducedVerifyObjectsWithServerCommandArchiveC2Ev,
                            __ZN3TSA44InducedVerifyObjectsWithServerCommandArchiveD0Ev,
                            __ZN3TSA44InducedVerifyObjectsWithServerCommandArchiveD1Ev,
                            __ZN3TSA44InducedVerifyObjectsWithServerCommandArchiveD2Ev,
                            __ZN3TSA44NeedsMediaCompatibilityUpgradeCommandArchive10SharedCtorEv,
                            __ZN3TSA44NeedsMediaCompatibilityUpgradeCommandArchive10SharedDtorEv,
                            __ZN3TSA44NeedsMediaCompatibilityUpgradeCommandArchive10descriptorEv,
                            __ZN3TSA44NeedsMediaCompatibilityUpgradeCommandArchive11clear_superEv,
                            __ZN3TSA44NeedsMediaCompatibilityUpgradeCommandArchive12InternalSwapEPS0_,
                            __ZN3TSA44NeedsMediaCompatibilityUpgradeCommandArchive16default_instanceEv,
                            __ZN3TSA44NeedsMediaCompatibilityUpgradeCommandArchive17kSuperFieldNumberE,
                            __ZN3TSA44NeedsMediaCompatibilityUpgradeCommandArchive21InitAsDefaultInstanceEv,
                            __ZN3TSA44NeedsMediaCompatibilityUpgradeCommandArchive22kCanUseHevcFieldNumberE,
                            __ZN3TSA44NeedsMediaCompatibilityUpgradeCommandArchive25kOldCanUseHevcFieldNumberE,
                            __ZN3TSA44NeedsMediaCompatibilityUpgradeCommandArchive27MergePartialFromCodedStreamEPN6google8protobuf2io16CodedInputStreamE,
                            __ZN3TSA44NeedsMediaCompatibilityUpgradeCommandArchive42kNeedsMediaCompatibilityUpgradeFieldNumberE,
                            __ZN3TSA44NeedsMediaCompatibilityUpgradeCommandArchive45kOldNeedsMediaCompatibilityUpgradeFieldNumberE,
                            __ZN3TSA44NeedsMediaCompatibilityUpgradeCommandArchive4SwapEPS0_,
                            __ZN3TSA44NeedsMediaCompatibilityUpgradeCommandArchive57kCollaborativeMediaCompatibilityUpgradeDidFailFieldNumberE,
                            __ZN3TSA44NeedsMediaCompatibilityUpgradeCommandArchive5ClearEv,
                            __ZN3TSA44NeedsMediaCompatibilityUpgradeCommandArchive60kOldCollaborativeMediaCompatibilityUpgradeDidFailFieldNumberE,
                            __ZN3TSA44NeedsMediaCompatibilityUpgradeCommandArchive8CopyFromERKN6google8protobuf7MessageE,
                            __ZN3TSA44NeedsMediaCompatibilityUpgradeCommandArchive8CopyFromERKS0_,
                            __ZN3TSA44NeedsMediaCompatibilityUpgradeCommandArchive9MergeFromERKN6google8protobuf7MessageE,
                            __ZN3TSA44NeedsMediaCompatibilityUpgradeCommandArchive9MergeFromERKS0_,
                            __ZN3TSA44NeedsMediaCompatibilityUpgradeCommandArchiveC1ERKS0_,
                            __ZN3TSA44NeedsMediaCompatibilityUpgradeCommandArchiveC1Ev,
                            __ZN3TSA44NeedsMediaCompatibilityUpgradeCommandArchiveC2ERKS0_,
                            __ZN3TSA44NeedsMediaCompatibilityUpgradeCommandArchiveC2Ev,
                            __ZN3TSA44NeedsMediaCompatibilityUpgradeCommandArchiveD0Ev,
                            __ZN3TSA44NeedsMediaCompatibilityUpgradeCommandArchiveD1Ev,
                            __ZN3TSA44NeedsMediaCompatibilityUpgradeCommandArchiveD2Ev,
                            __ZN3TSA44_DrawableZOrderListArchive_default_instance_E,
                            __ZN3TSA44_ShortcutControllerArchive_default_instance_E,
                            __ZN3TSA45VerifyDrawableZOrdersWithServerCommandArchive10SharedCtorEv,
                            __ZN3TSA45VerifyDrawableZOrdersWithServerCommandArchive10SharedDtorEv,
                            __ZN3TSA45VerifyDrawableZOrdersWithServerCommandArchive10descriptorEv,
                            __ZN3TSA45VerifyDrawableZOrdersWithServerCommandArchive11clear_superEv,
                            __ZN3TSA45VerifyDrawableZOrdersWithServerCommandArchive12InternalSwapEPS0_,
                            __ZN3TSA45VerifyDrawableZOrdersWithServerCommandArchive16default_instanceEv,
                            __ZN3TSA45VerifyDrawableZOrdersWithServerCommandArchive17kSuperFieldNumberE,
                            __ZN3TSA45VerifyDrawableZOrdersWithServerCommandArchive21InitAsDefaultInstanceEv,
                            __ZN3TSA45VerifyDrawableZOrdersWithServerCommandArchive22clear_drawable_id_listEv,
                            __ZN3TSA45VerifyDrawableZOrdersWithServerCommandArchive26kDrawableIdListFieldNumberE,
                            __ZN3TSA45VerifyDrawableZOrdersWithServerCommandArchive27MergePartialFromCodedStreamEPN6google8protobuf2io16CodedInputStreamE,
                            __ZN3TSA45VerifyDrawableZOrdersWithServerCommandArchive35kDrawableIdListUndefinedFieldNumberE,
                            __ZN3TSA45VerifyDrawableZOrdersWithServerCommandArchive4SwapEPS0_,
                            __ZN3TSA45VerifyDrawableZOrdersWithServerCommandArchive5ClearEv,
                            __ZN3TSA45VerifyDrawableZOrdersWithServerCommandArchive8CopyFromERKN6google8protobuf7MessageE,
                            __ZN3TSA45VerifyDrawableZOrdersWithServerCommandArchive8CopyFromERKS0_,
                            __ZN3TSA45VerifyDrawableZOrdersWithServerCommandArchive9MergeFromERKN6google8protobuf7MessageE,
                            __ZN3TSA45VerifyDrawableZOrdersWithServerCommandArchive9MergeFromERKS0_,
                            __ZN3TSA45VerifyDrawableZOrdersWithServerCommandArchiveC1ERKS0_,
                            __ZN3TSA45VerifyDrawableZOrdersWithServerCommandArchiveC1Ev,
                            __ZN3TSA45VerifyDrawableZOrdersWithServerCommandArchiveC2ERKS0_,
                            __ZN3TSA45VerifyDrawableZOrdersWithServerCommandArchiveC2Ev,
                            __ZN3TSA45VerifyDrawableZOrdersWithServerCommandArchiveD0Ev,
                            __ZN3TSA45VerifyDrawableZOrdersWithServerCommandArchiveD1Ev,
                            __ZN3TSA45VerifyDrawableZOrdersWithServerCommandArchiveD2Ev,
                            __ZN3TSA45_GalleryItemSetValueCommand_default_instance_E,
                            __ZN3TSA46VerifyTransformHistoryWithServerCommandArchive10SharedCtorEv,
                            __ZN3TSA46VerifyTransformHistoryWithServerCommandArchive10SharedDtorEv,
                            __ZN3TSA46VerifyTransformHistoryWithServerCommandArchive10descriptorEv,
                            __ZN3TSA46VerifyTransformHistoryWithServerCommandArchive11clear_superEv,
                            __ZN3TSA46VerifyTransformHistoryWithServerCommandArchive12InternalSwapEPS0_,
                            __ZN3TSA46VerifyTransformHistoryWithServerCommandArchive16default_instanceEv,
                            __ZN3TSA46VerifyTransformHistoryWithServerCommandArchive17kSuperFieldNumberE,
                            __ZN3TSA46VerifyTransformHistoryWithServerCommandArchive21InitAsDefaultInstanceEv,
                            __ZN3TSA46VerifyTransformHistoryWithServerCommandArchive23kSequenceEndFieldNumberE,
                            __ZN3TSA46VerifyTransformHistoryWithServerCommandArchive25kSequenceStartFieldNumberE,
                            __ZN3TSA46VerifyTransformHistoryWithServerCommandArchive27MergePartialFromCodedStreamEPN6google8protobuf2io16CodedInputStreamE,
                            __ZN3TSA46VerifyTransformHistoryWithServerCommandArchive4SwapEPS0_,
                            __ZN3TSA46VerifyTransformHistoryWithServerCommandArchive5ClearEv,
                            __ZN3TSA46VerifyTransformHistoryWithServerCommandArchive8CopyFromERKN6google8protobuf7MessageE,
                            __ZN3TSA46VerifyTransformHistoryWithServerCommandArchive8CopyFromERKS0_,
                            __ZN3TSA46VerifyTransformHistoryWithServerCommandArchive9MergeFromERKN6google8protobuf7MessageE,
                            __ZN3TSA46VerifyTransformHistoryWithServerCommandArchive9MergeFromERKS0_,
                            __ZN3TSA46VerifyTransformHistoryWithServerCommandArchiveC1ERKS0_,
                            __ZN3TSA46VerifyTransformHistoryWithServerCommandArchiveC1Ev,
                            __ZN3TSA46VerifyTransformHistoryWithServerCommandArchiveC2ERKS0_,
                            __ZN3TSA46VerifyTransformHistoryWithServerCommandArchiveC2Ev,
                            __ZN3TSA46VerifyTransformHistoryWithServerCommandArchiveD0Ev,
                            __ZN3TSA46VerifyTransformHistoryWithServerCommandArchiveD1Ev,
                            __ZN3TSA46VerifyTransformHistoryWithServerCommandArchiveD2Ev,
                            __ZN3TSA46_CommandReapplyMasterArchive_default_instance_E,
                            __ZN3TSA46_FunctionBrowserStateArchive_default_instance_E,
                            __ZN3TSA46_GallerySelectionTransformer_default_instance_E,
                            __ZN3TSA47GalleryInfoSetValueCommandArchive_PropertyValue10SharedCtorEv,
                            __ZN3TSA47GalleryInfoSetValueCommandArchive_PropertyValue10SharedDtorEv,
                            __ZN3TSA47GalleryInfoSetValueCommandArchive_PropertyValue10descriptorEv,
                            __ZN3TSA47GalleryInfoSetValueCommandArchive_PropertyValue12InternalSwapEPS0_,
                            __ZN3TSA47GalleryInfoSetValueCommandArchive_PropertyValue16default_instanceEv,
                            __ZN3TSA47GalleryInfoSetValueCommandArchive_PropertyValue21InitAsDefaultInstanceEv,
                            __ZN3TSA47GalleryInfoSetValueCommandArchive_PropertyValue23kCaptionModeFieldNumberE,
                            __ZN3TSA47GalleryInfoSetValueCommandArchive_PropertyValue27MergePartialFromCodedStreamEPN6google8protobuf2io16CodedInputStreamE,
                            __ZN3TSA47GalleryInfoSetValueCommandArchive_PropertyValue4SwapEPS0_,
                            __ZN3TSA47GalleryInfoSetValueCommandArchive_PropertyValue5ClearEv,
                            __ZN3TSA47GalleryInfoSetValueCommandArchive_PropertyValue8CopyFromERKN6google8protobuf7MessageE,
                            __ZN3TSA47GalleryInfoSetValueCommandArchive_PropertyValue8CopyFromERKS0_,
                            __ZN3TSA47GalleryInfoSetValueCommandArchive_PropertyValue9MergeFromERKN6google8protobuf7MessageE,
                            __ZN3TSA47GalleryInfoSetValueCommandArchive_PropertyValue9MergeFromERKS0_,
                            __ZN3TSA47GalleryInfoSetValueCommandArchive_PropertyValueC1ERKS0_,
                            __ZN3TSA47GalleryInfoSetValueCommandArchive_PropertyValueC1Ev,
                            __ZN3TSA47GalleryInfoSetValueCommandArchive_PropertyValueC2ERKS0_,
                            __ZN3TSA47GalleryInfoSetValueCommandArchive_PropertyValueC2Ev,
                            __ZN3TSA47GalleryInfoSetValueCommandArchive_PropertyValueD0Ev,
                            __ZN3TSA47GalleryInfoSetValueCommandArchive_PropertyValueD1Ev,
                            __ZN3TSA47GalleryInfoSetValueCommandArchive_PropertyValueD2Ev,
                            __ZN3TSA47_TitlePlacementCommandArchive_default_instance_E,
                            __ZN3TSA48_AddCustomFormatCommandArchive_default_instance_E,
                            __ZN3TSA48_GalleryItemSetGeometryCommand_default_instance_E,
                            __ZN3TSA48_PropagatePresetCommandArchive_default_instance_E,
                            __ZN3TSA49_RemoteDataChangeCommandArchive_default_instance_E,
                            __ZN3TSA50_GalleryItemSelectionTransformer_default_instance_E,
                            __ZN3TSA51_UpdateCustomFormatCommandArchive_default_instance_E,
                            __ZN3TSA52InducedVerifyDrawableZOrdersWithServerCommandArchive10SharedCtorEv,
                            __ZN3TSA52InducedVerifyDrawableZOrdersWithServerCommandArchive10SharedDtorEv,
                            __ZN3TSA52InducedVerifyDrawableZOrdersWithServerCommandArchive10descriptorEv,
                            __ZN3TSA52InducedVerifyDrawableZOrdersWithServerCommandArchive11clear_superEv,
                            __ZN3TSA52InducedVerifyDrawableZOrdersWithServerCommandArchive12InternalSwapEPS0_,
                            __ZN3TSA52InducedVerifyDrawableZOrdersWithServerCommandArchive16default_instanceEv,
                            __ZN3TSA52InducedVerifyDrawableZOrdersWithServerCommandArchive17kSuperFieldNumberE,
                            __ZN3TSA52InducedVerifyDrawableZOrdersWithServerCommandArchive21InitAsDefaultInstanceEv,
                            __ZN3TSA52InducedVerifyDrawableZOrdersWithServerCommandArchive27MergePartialFromCodedStreamEPN6google8protobuf2io16CodedInputStreamE,
                            __ZN3TSA52InducedVerifyDrawableZOrdersWithServerCommandArchive35clear_server_drawable_z_order_listsEv,
                            __ZN3TSA52InducedVerifyDrawableZOrdersWithServerCommandArchive37kServerDrawableZOrderListsFieldNumberE,
                            __ZN3TSA52InducedVerifyDrawableZOrdersWithServerCommandArchive46kServerDrawableZOrderListsUndefinedFieldNumberE,
                            __ZN3TSA52InducedVerifyDrawableZOrdersWithServerCommandArchive4SwapEPS0_,
                            __ZN3TSA52InducedVerifyDrawableZOrdersWithServerCommandArchive5ClearEv,
                            __ZN3TSA52InducedVerifyDrawableZOrdersWithServerCommandArchive8CopyFromERKN6google8protobuf7MessageE,
                            __ZN3TSA52InducedVerifyDrawableZOrdersWithServerCommandArchive8CopyFromERKS0_,
                            __ZN3TSA52InducedVerifyDrawableZOrdersWithServerCommandArchive9MergeFromERKN6google8protobuf7MessageE,
                            __ZN3TSA52InducedVerifyDrawableZOrdersWithServerCommandArchive9MergeFromERKS0_,
                            __ZN3TSA52InducedVerifyDrawableZOrdersWithServerCommandArchiveC1ERKS0_,
                            __ZN3TSA52InducedVerifyDrawableZOrdersWithServerCommandArchiveC1Ev,
                            __ZN3TSA52InducedVerifyDrawableZOrdersWithServerCommandArchiveC2ERKS0_,
                            __ZN3TSA52InducedVerifyDrawableZOrdersWithServerCommandArchiveC2Ev,
                            __ZN3TSA52InducedVerifyDrawableZOrdersWithServerCommandArchiveD0Ev,
                            __ZN3TSA52InducedVerifyDrawableZOrdersWithServerCommandArchiveD1Ev,
                            __ZN3TSA52InducedVerifyDrawableZOrdersWithServerCommandArchiveD2Ev,
                            __ZN3TSA52_GalleryInfoSetValueCommandArchive_default_instance_E,
                            __ZN3TSA52_ReplaceCustomFormatCommandArchive_default_instance_E,
                            __ZN3TSA53InducedVerifyTransformHistoryWithServerCommandArchive10SharedCtorEv,
                            __ZN3TSA53InducedVerifyTransformHistoryWithServerCommandArchive10SharedDtorEv,
                            __ZN3TSA53InducedVerifyTransformHistoryWithServerCommandArchive10descriptorEv,
                            __ZN3TSA53InducedVerifyTransformHistoryWithServerCommandArchive11clear_superEv,
                            __ZN3TSA53InducedVerifyTransformHistoryWithServerCommandArchive12InternalSwapEPS0_,
                            __ZN3TSA53InducedVerifyTransformHistoryWithServerCommandArchive16default_instanceEv,
                            __ZN3TSA53InducedVerifyTransformHistoryWithServerCommandArchive17kSuperFieldNumberE,
                            __ZN3TSA53InducedVerifyTransformHistoryWithServerCommandArchive21InitAsDefaultInstanceEv,
                            __ZN3TSA53InducedVerifyTransformHistoryWithServerCommandArchive27MergePartialFromCodedStreamEPN6google8protobuf2io16CodedInputStreamE,
                            __ZN3TSA53InducedVerifyTransformHistoryWithServerCommandArchive38clear_server_operation_storage_entriesEv,
                            __ZN3TSA53InducedVerifyTransformHistoryWithServerCommandArchive41kServerOperationStorageEntriesFieldNumberE,
                            __ZN3TSA53InducedVerifyTransformHistoryWithServerCommandArchive4SwapEPS0_,
                            __ZN3TSA53InducedVerifyTransformHistoryWithServerCommandArchive50kServerOperationStorageEntriesUndefinedFieldNumberE,
                            __ZN3TSA53InducedVerifyTransformHistoryWithServerCommandArchive5ClearEv,
                            __ZN3TSA53InducedVerifyTransformHistoryWithServerCommandArchive8CopyFromERKN6google8protobuf7MessageE,
                            __ZN3TSA53InducedVerifyTransformHistoryWithServerCommandArchive8CopyFromERKS0_,
                            __ZN3TSA53InducedVerifyTransformHistoryWithServerCommandArchive9MergeFromERKN6google8protobuf7MessageE,
                            __ZN3TSA53InducedVerifyTransformHistoryWithServerCommandArchive9MergeFromERKS0_,
                            __ZN3TSA53InducedVerifyTransformHistoryWithServerCommandArchiveC1ERKS0_,
                            __ZN3TSA53InducedVerifyTransformHistoryWithServerCommandArchiveC1Ev,
                            __ZN3TSA53InducedVerifyTransformHistoryWithServerCommandArchiveC2ERKS0_,
                            __ZN3TSA53InducedVerifyTransformHistoryWithServerCommandArchiveC2Ev,
                            __ZN3TSA53InducedVerifyTransformHistoryWithServerCommandArchiveD0Ev,
                            __ZN3TSA53InducedVerifyTransformHistoryWithServerCommandArchiveD1Ev,
                            __ZN3TSA53InducedVerifyTransformHistoryWithServerCommandArchiveD2Ev,
                            __ZN3TSA53_ChangeDocumentLocaleCommandArchive_default_instance_E,
                            __ZN3TSA54_PropagateMasterChangeCommandArchive_default_instance_E,
                            __ZN3TSA55_GalleryInfoInsertItemsCommandArchive_default_instance_E,
                            __ZN3TSA55_GalleryInfoRemoveItemsCommandArchive_default_instance_E,
                            __ZN3TSA55_StyleUpdatePropertyMapCommandArchive_default_instance_E,
                            __ZN3TSA56_GalleryItemSelectionTransformerHelper_default_instance_E,
                            __ZN3TSA56_VerifyObjectsWithServerCommandArchive_default_instance_E,
                            __ZN3TSA57_VerifyDocumentWithServerCommandArchive_default_instance_E,
                            __ZN3TSA59_GalleryItemSetValueCommand_PropertyValue_default_instance_E,
                            __ZN3TSA61_ShortcutControllerArchive_ShortcutMapEntry_default_instance_E,
                            __ZN3TSA63_InducedVerifyObjectsWithServerCommandArchive_default_instance_E,
                            __ZN3TSA63_NeedsMediaCompatibilityUpgradeCommandArchive_default_instance_E,
                            __ZN3TSA64_VerifyDrawableZOrdersWithServerCommandArchive_default_instance_E,
                            __ZN3TSA65_VerifyTransformHistoryWithServerCommandArchive_default_instance_E,
                            __ZN3TSA66_GalleryInfoSetValueCommandArchive_PropertyValue_default_instance_E,
                            __ZN3TSA71_InducedVerifyDrawableZOrdersWithServerCommandArchive_default_instance_E,
                            __ZN3TSA72_InducedVerifyTransformHistoryWithServerCommandArchive_default_instance_E,
                            __ZN41protobuf_TSACommandArchives_2esos_2eproto11TableStruct7offsetsE,
                            __ZN41protobuf_TSACommandArchives_2esos_2eproto12InitDefaultsEv,
                            __ZN41protobuf_TSACommandArchives_2esos_2eproto14AddDescriptorsEv,
                            __ZN41protobuf_TSACommandArchives_2esos_2eproto18AddDescriptorsImplEv,
                            __ZN41protobuf_TSACommandArchives_2esos_2eproto19file_level_metadataE,
                            __ZN41protobuf_TSACommandArchives_2esos_2eproto22protobuf_RegisterTypesERKNSt3__112basic_stringIcNS0_11char_traitsIcEENS0_9allocatorIcEEEE,
                            __ZN41protobuf_TSACommandArchives_2esos_2eproto26protobuf_AssignDescriptorsEv,
                            __ZN41protobuf_TSACommandArchives_2esos_2eproto29static_descriptor_initializerE,
                            __ZN41protobuf_TSACommandArchives_2esos_2eproto30protobuf_AssignDescriptorsOnceEv,
                            __ZN41protobuf_TSACommandArchives_2esos_2eproto36scc_info_CommandReapplyMasterArchiveE,
                            __ZN41protobuf_TSACommandArchives_2esos_2eproto44scc_info_PropagateMasterChangeCommandArchiveE,
                            __ZN41protobuf_TSACommandArchives_2esos_2eproto46scc_info_VerifyObjectsWithServerCommandArchiveE,
                            __ZN41protobuf_TSACommandArchives_2esos_2eproto47scc_info_VerifyDocumentWithServerCommandArchiveE,
                            __ZN41protobuf_TSACommandArchives_2esos_2eproto54scc_info_VerifyDrawableZOrdersWithServerCommandArchiveE,
                            __ZN41protobuf_TSACommandArchives_2esos_2eproto55scc_info_VerifyTransformHistoryWithServerCommandArchiveE,
                            __ZN41protobuf_TSACommandArchives_2esos_2eproto61scc_info_InducedVerifyDrawableZOrdersWithServerCommandArchiveE,
                            __ZN6google8protobuf5Arena18CreateMaybeMessageIN3TSA11GalleryInfoEJEEEPT_PS1_DpOT0_,
                            __ZN6google8protobuf5Arena18CreateMaybeMessageIN3TSA11GalleryItemEJEEEPT_PS1_DpOT0_,
                            __ZN6google8protobuf5Arena18CreateMaybeMessageIN3TSA12WebVideoInfoEJEEEPT_PS1_DpOT0_,
                            __ZN6google8protobuf5Arena18CreateMaybeMessageIN3TSA15DocumentArchiveEJEEEPT_PS1_DpOT0_,
                            __ZN6google8protobuf5Arena18CreateMaybeMessageIN3TSA18CaptionInfoArchiveEJEEEPT_PS1_DpOT0_,
                            __ZN6google8protobuf5Arena18CreateMaybeMessageIN3TSA19ThemePresetsArchiveEJEEEPT_PS1_DpOT0_,
                            __ZN6google8protobuf5Arena18CreateMaybeMessageIN3TSA20GalleryItemSelectionEJEEEPT_PS1_DpOT0_,
                            __ZN6google8protobuf5Arena18CreateMaybeMessageIN3TSA22ShortcutCommandArchiveEJEEEPT_PS1_DpOT0_,
                            __ZN6google8protobuf5Arena18CreateMaybeMessageIN3TSA23CaptionPlacementArchiveEJEEEPT_PS1_DpOT0_,
                            __ZN6google8protobuf5Arena18CreateMaybeMessageIN3TSA25DrawableZOrderListArchiveEJEEEPT_PS1_DpOT0_,
                            __ZN6google8protobuf5Arena18CreateMaybeMessageIN3TSA25ShortcutControllerArchiveEJEEEPT_PS1_DpOT0_,
                            __ZN6google8protobuf5Arena18CreateMaybeMessageIN3TSA26GalleryItemSetValueCommandEJEEEPT_PS1_DpOT0_,
                            __ZN6google8protobuf5Arena18CreateMaybeMessageIN3TSA27CommandReapplyMasterArchiveEJEEEPT_PS1_DpOT0_,
                            __ZN6google8protobuf5Arena18CreateMaybeMessageIN3TSA27FunctionBrowserStateArchiveEJEEEPT_PS1_DpOT0_,
                            __ZN6google8protobuf5Arena18CreateMaybeMessageIN3TSA27GallerySelectionTransformerEJEEEPT_PS1_DpOT0_,
                            __ZN6google8protobuf5Arena18CreateMaybeMessageIN3TSA28TitlePlacementCommandArchiveEJEEEPT_PS1_DpOT0_,
                            __ZN6google8protobuf5Arena18CreateMaybeMessageIN3TSA29AddCustomFormatCommandArchiveEJEEEPT_PS1_DpOT0_,
                            __ZN6google8protobuf5Arena18CreateMaybeMessageIN3TSA29GalleryItemSetGeometryCommandEJEEEPT_PS1_DpOT0_,
                            __ZN6google8protobuf5Arena18CreateMaybeMessageIN3TSA29PropagatePresetCommandArchiveEJEEEPT_PS1_DpOT0_,
                            __ZN6google8protobuf5Arena18CreateMaybeMessageIN3TSA30RemoteDataChangeCommandArchiveEJEEEPT_PS1_DpOT0_,
                            __ZN6google8protobuf5Arena18CreateMaybeMessageIN3TSA31GalleryItemSelectionTransformerEJEEEPT_PS1_DpOT0_,
                            __ZN6google8protobuf5Arena18CreateMaybeMessageIN3TSA32UpdateCustomFormatCommandArchiveEJEEEPT_PS1_DpOT0_,
                            __ZN6google8protobuf5Arena18CreateMaybeMessageIN3TSA33GalleryInfoSetValueCommandArchiveEJEEEPT_PS1_DpOT0_,
                            __ZN6google8protobuf5Arena18CreateMaybeMessageIN3TSA33ReplaceCustomFormatCommandArchiveEJEEEPT_PS1_DpOT0_,
                            __ZN6google8protobuf5Arena18CreateMaybeMessageIN3TSA34ChangeDocumentLocaleCommandArchiveEJEEEPT_PS1_DpOT0_,
                            __ZN6google8protobuf5Arena18CreateMaybeMessageIN3TSA35PropagateMasterChangeCommandArchiveEJEEEPT_PS1_DpOT0_,
                            __ZN6google8protobuf5Arena18CreateMaybeMessageIN3TSA36GalleryInfoInsertItemsCommandArchiveEJEEEPT_PS1_DpOT0_,
                            __ZN6google8protobuf5Arena18CreateMaybeMessageIN3TSA36GalleryInfoRemoveItemsCommandArchiveEJEEEPT_PS1_DpOT0_,
                            __ZN6google8protobuf5Arena18CreateMaybeMessageIN3TSA36StyleUpdatePropertyMapCommandArchiveEJEEEPT_PS1_DpOT0_,
                            __ZN6google8protobuf5Arena18CreateMaybeMessageIN3TSA37GalleryItemSelectionTransformerHelperEJEEEPT_PS1_DpOT0_,
                            __ZN6google8protobuf5Arena18CreateMaybeMessageIN3TSA37VerifyObjectsWithServerCommandArchiveEJEEEPT_PS1_DpOT0_,
                            __ZN6google8protobuf5Arena18CreateMaybeMessageIN3TSA38VerifyDocumentWithServerCommandArchiveEJEEEPT_PS1_DpOT0_,
                            __ZN6google8protobuf5Arena18CreateMaybeMessageIN3TSA40GalleryItemSetValueCommand_PropertyValueEJEEEPT_PS1_DpOT0_,
                            __ZN6google8protobuf5Arena18CreateMaybeMessageIN3TSA42ShortcutControllerArchive_ShortcutMapEntryEJEEEPT_PS1_DpOT0_,
                            __ZN6google8protobuf5Arena18CreateMaybeMessageIN3TSA44InducedVerifyObjectsWithServerCommandArchiveEJEEEPT_PS1_DpOT0_,
                            __ZN6google8protobuf5Arena18CreateMaybeMessageIN3TSA44NeedsMediaCompatibilityUpgradeCommandArchiveEJEEEPT_PS1_DpOT0_,
                            __ZN6google8protobuf5Arena18CreateMaybeMessageIN3TSA45VerifyDrawableZOrdersWithServerCommandArchiveEJEEEPT_PS1_DpOT0_,
                            __ZN6google8protobuf5Arena18CreateMaybeMessageIN3TSA46VerifyTransformHistoryWithServerCommandArchiveEJEEEPT_PS1_DpOT0_,
                            __ZN6google8protobuf5Arena18CreateMaybeMessageIN3TSA47GalleryInfoSetValueCommandArchive_PropertyValueEJEEEPT_PS1_DpOT0_,
                            __ZN6google8protobuf5Arena18CreateMaybeMessageIN3TSA52InducedVerifyDrawableZOrdersWithServerCommandArchiveEJEEEPT_PS1_DpOT0_,
                            __ZN6google8protobuf5Arena18CreateMaybeMessageIN3TSA53InducedVerifyTransformHistoryWithServerCommandArchiveEJEEEPT_PS1_DpOT0_,
                            __ZNK3TSA11GalleryInfo11GetMetadataEv,
                            __ZNK3TSA11GalleryInfo12ByteSizeLongEv,
                            __ZNK3TSA11GalleryInfo13IsInitializedEv,
                            __ZNK3TSA11GalleryInfo13SetCachedSizeEi,
                            __ZNK3TSA11GalleryInfo24SerializeWithCachedSizesEPN6google8protobuf2io17CodedOutputStreamE,
                            __ZNK3TSA11GalleryInfo39InternalSerializeWithCachedSizesToArrayEbPh,
                            __ZNK3TSA11GalleryItem11GetMetadataEv,
                            __ZNK3TSA11GalleryItem12ByteSizeLongEv,
                            __ZNK3TSA11GalleryItem13IsInitializedEv,
                            __ZNK3TSA11GalleryItem13SetCachedSizeEi,
                            __ZNK3TSA11GalleryItem24SerializeWithCachedSizesEPN6google8protobuf2io17CodedOutputStreamE,
                            __ZNK3TSA11GalleryItem39InternalSerializeWithCachedSizesToArrayEbPh,
                            __ZNK3TSA12WebVideoInfo11GetMetadataEv,
                            __ZNK3TSA12WebVideoInfo12ByteSizeLongEv,
                            __ZNK3TSA12WebVideoInfo13IsInitializedEv,
                            __ZNK3TSA12WebVideoInfo13SetCachedSizeEi,
                            __ZNK3TSA12WebVideoInfo24SerializeWithCachedSizesEPN6google8protobuf2io17CodedOutputStreamE,
                            __ZNK3TSA12WebVideoInfo39InternalSerializeWithCachedSizesToArrayEbPh,
                            __ZNK3TSA15DocumentArchive11GetMetadataEv,
                            __ZNK3TSA15DocumentArchive12ByteSizeLongEv,
                            __ZNK3TSA15DocumentArchive13IsInitializedEv,
                            __ZNK3TSA15DocumentArchive13SetCachedSizeEi,
                            __ZNK3TSA15DocumentArchive24SerializeWithCachedSizesEPN6google8protobuf2io17CodedOutputStreamE,
                            __ZNK3TSA15DocumentArchive39InternalSerializeWithCachedSizesToArrayEbPh,
                            __ZNK3TSA18CaptionInfoArchive11GetMetadataEv,
                            __ZNK3TSA18CaptionInfoArchive12ByteSizeLongEv,
                            __ZNK3TSA18CaptionInfoArchive13IsInitializedEv,
                            __ZNK3TSA18CaptionInfoArchive13SetCachedSizeEi,
                            __ZNK3TSA18CaptionInfoArchive24SerializeWithCachedSizesEPN6google8protobuf2io17CodedOutputStreamE,
                            __ZNK3TSA18CaptionInfoArchive39InternalSerializeWithCachedSizesToArrayEbPh,
                            __ZNK3TSA19ThemePresetsArchive11GetMetadataEv,
                            __ZNK3TSA19ThemePresetsArchive12ByteSizeLongEv,
                            __ZNK3TSA19ThemePresetsArchive13IsInitializedEv,
                            __ZNK3TSA19ThemePresetsArchive13SetCachedSizeEi,
                            __ZNK3TSA19ThemePresetsArchive24SerializeWithCachedSizesEPN6google8protobuf2io17CodedOutputStreamE,
                            __ZNK3TSA19ThemePresetsArchive39InternalSerializeWithCachedSizesToArrayEbPh,
                            __ZNK3TSA20GalleryItemSelection11GetMetadataEv,
                            __ZNK3TSA20GalleryItemSelection12ByteSizeLongEv,
                            __ZNK3TSA20GalleryItemSelection13IsInitializedEv,
                            __ZNK3TSA20GalleryItemSelection13SetCachedSizeEi,
                            __ZNK3TSA20GalleryItemSelection24SerializeWithCachedSizesEPN6google8protobuf2io17CodedOutputStreamE,
                            __ZNK3TSA20GalleryItemSelection39InternalSerializeWithCachedSizesToArrayEbPh,
                            __ZNK3TSA22ShortcutCommandArchive11GetMetadataEv,
                            __ZNK3TSA22ShortcutCommandArchive12ByteSizeLongEv,
                            __ZNK3TSA22ShortcutCommandArchive13IsInitializedEv,
                            __ZNK3TSA22ShortcutCommandArchive13SetCachedSizeEi,
                            __ZNK3TSA22ShortcutCommandArchive24SerializeWithCachedSizesEPN6google8protobuf2io17CodedOutputStreamE,
                            __ZNK3TSA22ShortcutCommandArchive39InternalSerializeWithCachedSizesToArrayEbPh,
                            __ZNK3TSA23CaptionPlacementArchive11GetMetadataEv,
                            __ZNK3TSA23CaptionPlacementArchive12ByteSizeLongEv,
                            __ZNK3TSA23CaptionPlacementArchive13IsInitializedEv,
                            __ZNK3TSA23CaptionPlacementArchive13SetCachedSizeEi,
                            __ZNK3TSA23CaptionPlacementArchive24SerializeWithCachedSizesEPN6google8protobuf2io17CodedOutputStreamE,
                            __ZNK3TSA23CaptionPlacementArchive39InternalSerializeWithCachedSizesToArrayEbPh,
                            __ZNK3TSA25DrawableZOrderListArchive11GetMetadataEv,
                            __ZNK3TSA25DrawableZOrderListArchive12ByteSizeLongEv,
                            __ZNK3TSA25DrawableZOrderListArchive13IsInitializedEv,
                            __ZNK3TSA25DrawableZOrderListArchive13SetCachedSizeEi,
                            __ZNK3TSA25DrawableZOrderListArchive24SerializeWithCachedSizesEPN6google8protobuf2io17CodedOutputStreamE,
                            __ZNK3TSA25DrawableZOrderListArchive39InternalSerializeWithCachedSizesToArrayEbPh,
                            __ZNK3TSA25ShortcutControllerArchive11GetMetadataEv,
                            __ZNK3TSA25ShortcutControllerArchive12ByteSizeLongEv,
                            __ZNK3TSA25ShortcutControllerArchive13IsInitializedEv,
                            __ZNK3TSA25ShortcutControllerArchive13SetCachedSizeEi,
                            __ZNK3TSA25ShortcutControllerArchive24SerializeWithCachedSizesEPN6google8protobuf2io17CodedOutputStreamE,
                            __ZNK3TSA25ShortcutControllerArchive39InternalSerializeWithCachedSizesToArrayEbPh,
                            __ZNK3TSA26GalleryItemSetValueCommand11GetMetadataEv,
                            __ZNK3TSA26GalleryItemSetValueCommand12ByteSizeLongEv,
                            __ZNK3TSA26GalleryItemSetValueCommand13IsInitializedEv,
                            __ZNK3TSA26GalleryItemSetValueCommand13SetCachedSizeEi,
                            __ZNK3TSA26GalleryItemSetValueCommand24SerializeWithCachedSizesEPN6google8protobuf2io17CodedOutputStreamE,
                            __ZNK3TSA26GalleryItemSetValueCommand39InternalSerializeWithCachedSizesToArrayEbPh,
                            __ZNK3TSA27CommandReapplyMasterArchive11GetMetadataEv,
                            __ZNK3TSA27CommandReapplyMasterArchive12ByteSizeLongEv,
                            __ZNK3TSA27CommandReapplyMasterArchive13IsInitializedEv,
                            __ZNK3TSA27CommandReapplyMasterArchive13SetCachedSizeEi,
                            __ZNK3TSA27CommandReapplyMasterArchive24SerializeWithCachedSizesEPN6google8protobuf2io17CodedOutputStreamE,
                            __ZNK3TSA27CommandReapplyMasterArchive30RequiredFieldsByteSizeFallbackEv,
                            __ZNK3TSA27CommandReapplyMasterArchive39InternalSerializeWithCachedSizesToArrayEbPh,
                            __ZNK3TSA27FunctionBrowserStateArchive11GetMetadataEv,
                            __ZNK3TSA27FunctionBrowserStateArchive12ByteSizeLongEv,
                            __ZNK3TSA27FunctionBrowserStateArchive13IsInitializedEv,
                            __ZNK3TSA27FunctionBrowserStateArchive13SetCachedSizeEi,
                            __ZNK3TSA27FunctionBrowserStateArchive24SerializeWithCachedSizesEPN6google8protobuf2io17CodedOutputStreamE,
                            __ZNK3TSA27FunctionBrowserStateArchive39InternalSerializeWithCachedSizesToArrayEbPh,
                            __ZNK3TSA27GallerySelectionTransformer11GetMetadataEv,
                            __ZNK3TSA27GallerySelectionTransformer12ByteSizeLongEv,
                            __ZNK3TSA27GallerySelectionTransformer13IsInitializedEv,
                            __ZNK3TSA27GallerySelectionTransformer13SetCachedSizeEi,
                            __ZNK3TSA27GallerySelectionTransformer24SerializeWithCachedSizesEPN6google8protobuf2io17CodedOutputStreamE,
                            __ZNK3TSA27GallerySelectionTransformer39InternalSerializeWithCachedSizesToArrayEbPh,
                            __ZNK3TSA28TitlePlacementCommandArchive11GetMetadataEv,
                            __ZNK3TSA28TitlePlacementCommandArchive12ByteSizeLongEv,
                            __ZNK3TSA28TitlePlacementCommandArchive13IsInitializedEv,
                            __ZNK3TSA28TitlePlacementCommandArchive13SetCachedSizeEi,
                            __ZNK3TSA28TitlePlacementCommandArchive24SerializeWithCachedSizesEPN6google8protobuf2io17CodedOutputStreamE,
                            __ZNK3TSA28TitlePlacementCommandArchive39InternalSerializeWithCachedSizesToArrayEbPh,
                            __ZNK3TSA29AddCustomFormatCommandArchive11GetMetadataEv,
                            __ZNK3TSA29AddCustomFormatCommandArchive12ByteSizeLongEv,
                            __ZNK3TSA29AddCustomFormatCommandArchive13IsInitializedEv,
                            __ZNK3TSA29AddCustomFormatCommandArchive13SetCachedSizeEi,
                            __ZNK3TSA29AddCustomFormatCommandArchive24SerializeWithCachedSizesEPN6google8protobuf2io17CodedOutputStreamE,
                            __ZNK3TSA29AddCustomFormatCommandArchive39InternalSerializeWithCachedSizesToArrayEbPh,
                            __ZNK3TSA29GalleryItemSetGeometryCommand11GetMetadataEv,
                            __ZNK3TSA29GalleryItemSetGeometryCommand12ByteSizeLongEv,
                            __ZNK3TSA29GalleryItemSetGeometryCommand13IsInitializedEv,
                            __ZNK3TSA29GalleryItemSetGeometryCommand13SetCachedSizeEi,
                            __ZNK3TSA29GalleryItemSetGeometryCommand24SerializeWithCachedSizesEPN6google8protobuf2io17CodedOutputStreamE,
                            __ZNK3TSA29GalleryItemSetGeometryCommand39InternalSerializeWithCachedSizesToArrayEbPh,
                            __ZNK3TSA29PropagatePresetCommandArchive11GetMetadataEv,
                            __ZNK3TSA29PropagatePresetCommandArchive12ByteSizeLongEv,
                            __ZNK3TSA29PropagatePresetCommandArchive13IsInitializedEv,
                            __ZNK3TSA29PropagatePresetCommandArchive13SetCachedSizeEi,
                            __ZNK3TSA29PropagatePresetCommandArchive24SerializeWithCachedSizesEPN6google8protobuf2io17CodedOutputStreamE,
                            __ZNK3TSA29PropagatePresetCommandArchive30RequiredFieldsByteSizeFallbackEv,
                            __ZNK3TSA29PropagatePresetCommandArchive39InternalSerializeWithCachedSizesToArrayEbPh,
                            __ZNK3TSA30RemoteDataChangeCommandArchive11GetMetadataEv,
                            __ZNK3TSA30RemoteDataChangeCommandArchive12ByteSizeLongEv,
                            __ZNK3TSA30RemoteDataChangeCommandArchive13IsInitializedEv,
                            __ZNK3TSA30RemoteDataChangeCommandArchive13SetCachedSizeEi,
                            __ZNK3TSA30RemoteDataChangeCommandArchive24SerializeWithCachedSizesEPN6google8protobuf2io17CodedOutputStreamE,
                            __ZNK3TSA30RemoteDataChangeCommandArchive30RequiredFieldsByteSizeFallbackEv,
                            __ZNK3TSA30RemoteDataChangeCommandArchive39InternalSerializeWithCachedSizesToArrayEbPh,
                            __ZNK3TSA31GalleryItemSelectionTransformer11GetMetadataEv,
                            __ZNK3TSA31GalleryItemSelectionTransformer12ByteSizeLongEv,
                            __ZNK3TSA31GalleryItemSelectionTransformer13IsInitializedEv,
                            __ZNK3TSA31GalleryItemSelectionTransformer13SetCachedSizeEi,
                            __ZNK3TSA31GalleryItemSelectionTransformer24SerializeWithCachedSizesEPN6google8protobuf2io17CodedOutputStreamE,
                            __ZNK3TSA31GalleryItemSelectionTransformer39InternalSerializeWithCachedSizesToArrayEbPh,
                            __ZNK3TSA32UpdateCustomFormatCommandArchive11GetMetadataEv,
                            __ZNK3TSA32UpdateCustomFormatCommandArchive12ByteSizeLongEv,
                            __ZNK3TSA32UpdateCustomFormatCommandArchive13IsInitializedEv,
                            __ZNK3TSA32UpdateCustomFormatCommandArchive13SetCachedSizeEi,
                            __ZNK3TSA32UpdateCustomFormatCommandArchive24SerializeWithCachedSizesEPN6google8protobuf2io17CodedOutputStreamE,
                            __ZNK3TSA32UpdateCustomFormatCommandArchive39InternalSerializeWithCachedSizesToArrayEbPh,
                            __ZNK3TSA33GalleryInfoSetValueCommandArchive11GetMetadataEv,
                            __ZNK3TSA33GalleryInfoSetValueCommandArchive12ByteSizeLongEv,
                            __ZNK3TSA33GalleryInfoSetValueCommandArchive13IsInitializedEv,
                            __ZNK3TSA33GalleryInfoSetValueCommandArchive13SetCachedSizeEi,
                            __ZNK3TSA33GalleryInfoSetValueCommandArchive24SerializeWithCachedSizesEPN6google8protobuf2io17CodedOutputStreamE,
                            __ZNK3TSA33GalleryInfoSetValueCommandArchive39InternalSerializeWithCachedSizesToArrayEbPh,
                            __ZNK3TSA33ReplaceCustomFormatCommandArchive11GetMetadataEv,
                            __ZNK3TSA33ReplaceCustomFormatCommandArchive12ByteSizeLongEv,
                            __ZNK3TSA33ReplaceCustomFormatCommandArchive13IsInitializedEv,
                            __ZNK3TSA33ReplaceCustomFormatCommandArchive13SetCachedSizeEi,
                            __ZNK3TSA33ReplaceCustomFormatCommandArchive24SerializeWithCachedSizesEPN6google8protobuf2io17CodedOutputStreamE,
                            __ZNK3TSA33ReplaceCustomFormatCommandArchive39InternalSerializeWithCachedSizesToArrayEbPh,
                            __ZNK3TSA34ChangeDocumentLocaleCommandArchive11GetMetadataEv,
                            __ZNK3TSA34ChangeDocumentLocaleCommandArchive12ByteSizeLongEv,
                            __ZNK3TSA34ChangeDocumentLocaleCommandArchive13IsInitializedEv,
                            __ZNK3TSA34ChangeDocumentLocaleCommandArchive13SetCachedSizeEi,
                            __ZNK3TSA34ChangeDocumentLocaleCommandArchive24SerializeWithCachedSizesEPN6google8protobuf2io17CodedOutputStreamE,
                            __ZNK3TSA34ChangeDocumentLocaleCommandArchive39InternalSerializeWithCachedSizesToArrayEbPh,
                            __ZNK3TSA35PropagateMasterChangeCommandArchive11GetMetadataEv,
                            __ZNK3TSA35PropagateMasterChangeCommandArchive12ByteSizeLongEv,
                            __ZNK3TSA35PropagateMasterChangeCommandArchive13IsInitializedEv,
                            __ZNK3TSA35PropagateMasterChangeCommandArchive13SetCachedSizeEi,
                            __ZNK3TSA35PropagateMasterChangeCommandArchive24SerializeWithCachedSizesEPN6google8protobuf2io17CodedOutputStreamE,
                            __ZNK3TSA35PropagateMasterChangeCommandArchive39InternalSerializeWithCachedSizesToArrayEbPh,
                            __ZNK3TSA36GalleryInfoInsertItemsCommandArchive11GetMetadataEv,
                            __ZNK3TSA36GalleryInfoInsertItemsCommandArchive12ByteSizeLongEv,
                            __ZNK3TSA36GalleryInfoInsertItemsCommandArchive13IsInitializedEv,
                            __ZNK3TSA36GalleryInfoInsertItemsCommandArchive13SetCachedSizeEi,
                            __ZNK3TSA36GalleryInfoInsertItemsCommandArchive24SerializeWithCachedSizesEPN6google8protobuf2io17CodedOutputStreamE,
                            __ZNK3TSA36GalleryInfoInsertItemsCommandArchive39InternalSerializeWithCachedSizesToArrayEbPh,
                            __ZNK3TSA36GalleryInfoRemoveItemsCommandArchive11GetMetadataEv,
                            __ZNK3TSA36GalleryInfoRemoveItemsCommandArchive12ByteSizeLongEv,
                            __ZNK3TSA36GalleryInfoRemoveItemsCommandArchive13IsInitializedEv,
                            __ZNK3TSA36GalleryInfoRemoveItemsCommandArchive13SetCachedSizeEi,
                            __ZNK3TSA36GalleryInfoRemoveItemsCommandArchive24SerializeWithCachedSizesEPN6google8protobuf2io17CodedOutputStreamE,
                            __ZNK3TSA36GalleryInfoRemoveItemsCommandArchive39InternalSerializeWithCachedSizesToArrayEbPh,
                            __ZNK3TSA36StyleUpdatePropertyMapCommandArchive11GetMetadataEv,
                            __ZNK3TSA36StyleUpdatePropertyMapCommandArchive12ByteSizeLongEv,
                            __ZNK3TSA36StyleUpdatePropertyMapCommandArchive13IsInitializedEv,
                            __ZNK3TSA36StyleUpdatePropertyMapCommandArchive13SetCachedSizeEi,
                            __ZNK3TSA36StyleUpdatePropertyMapCommandArchive24SerializeWithCachedSizesEPN6google8protobuf2io17CodedOutputStreamE,
                            __ZNK3TSA36StyleUpdatePropertyMapCommandArchive39InternalSerializeWithCachedSizesToArrayEbPh,
                            __ZNK3TSA37GalleryItemSelectionTransformerHelper11GetMetadataEv,
                            __ZNK3TSA37GalleryItemSelectionTransformerHelper12ByteSizeLongEv,
                            __ZNK3TSA37GalleryItemSelectionTransformerHelper13IsInitializedEv,
                            __ZNK3TSA37GalleryItemSelectionTransformerHelper13SetCachedSizeEi,
                            __ZNK3TSA37GalleryItemSelectionTransformerHelper24SerializeWithCachedSizesEPN6google8protobuf2io17CodedOutputStreamE,
                            __ZNK3TSA37GalleryItemSelectionTransformerHelper39InternalSerializeWithCachedSizesToArrayEbPh,
                            __ZNK3TSA37VerifyObjectsWithServerCommandArchive11GetMetadataEv,
                            __ZNK3TSA37VerifyObjectsWithServerCommandArchive12ByteSizeLongEv,
                            __ZNK3TSA37VerifyObjectsWithServerCommandArchive13IsInitializedEv,
                            __ZNK3TSA37VerifyObjectsWithServerCommandArchive13SetCachedSizeEi,
                            __ZNK3TSA37VerifyObjectsWithServerCommandArchive24SerializeWithCachedSizesEPN6google8protobuf2io17CodedOutputStreamE,
                            __ZNK3TSA37VerifyObjectsWithServerCommandArchive39InternalSerializeWithCachedSizesToArrayEbPh,
                            __ZNK3TSA38VerifyDocumentWithServerCommandArchive11GetMetadataEv,
                            __ZNK3TSA38VerifyDocumentWithServerCommandArchive12ByteSizeLongEv,
                            __ZNK3TSA38VerifyDocumentWithServerCommandArchive13IsInitializedEv,
                            __ZNK3TSA38VerifyDocumentWithServerCommandArchive13SetCachedSizeEi,
                            __ZNK3TSA38VerifyDocumentWithServerCommandArchive24SerializeWithCachedSizesEPN6google8protobuf2io17CodedOutputStreamE,
                            __ZNK3TSA38VerifyDocumentWithServerCommandArchive39InternalSerializeWithCachedSizesToArrayEbPh,
                            __ZNK3TSA40GalleryItemSetValueCommand_PropertyValue11GetMetadataEv,
                            __ZNK3TSA40GalleryItemSetValueCommand_PropertyValue12ByteSizeLongEv,
                            __ZNK3TSA40GalleryItemSetValueCommand_PropertyValue13IsInitializedEv,
                            __ZNK3TSA40GalleryItemSetValueCommand_PropertyValue13SetCachedSizeEi,
                            __ZNK3TSA40GalleryItemSetValueCommand_PropertyValue24SerializeWithCachedSizesEPN6google8protobuf2io17CodedOutputStreamE,
                            __ZNK3TSA40GalleryItemSetValueCommand_PropertyValue39InternalSerializeWithCachedSizesToArrayEbPh,
                            __ZNK3TSA42ShortcutControllerArchive_ShortcutMapEntry11GetMetadataEv,
                            __ZNK3TSA42ShortcutControllerArchive_ShortcutMapEntry12ByteSizeLongEv,
                            __ZNK3TSA42ShortcutControllerArchive_ShortcutMapEntry13IsInitializedEv,
                            __ZNK3TSA42ShortcutControllerArchive_ShortcutMapEntry13SetCachedSizeEi,
                            __ZNK3TSA42ShortcutControllerArchive_ShortcutMapEntry24SerializeWithCachedSizesEPN6google8protobuf2io17CodedOutputStreamE,
                            __ZNK3TSA42ShortcutControllerArchive_ShortcutMapEntry30RequiredFieldsByteSizeFallbackEv,
                            __ZNK3TSA42ShortcutControllerArchive_ShortcutMapEntry39InternalSerializeWithCachedSizesToArrayEbPh,
                            __ZNK3TSA44InducedVerifyObjectsWithServerCommandArchive11GetMetadataEv,
                            __ZNK3TSA44InducedVerifyObjectsWithServerCommandArchive12ByteSizeLongEv,
                            __ZNK3TSA44InducedVerifyObjectsWithServerCommandArchive13IsInitializedEv,
                            __ZNK3TSA44InducedVerifyObjectsWithServerCommandArchive13SetCachedSizeEi,
                            __ZNK3TSA44InducedVerifyObjectsWithServerCommandArchive24SerializeWithCachedSizesEPN6google8protobuf2io17CodedOutputStreamE,
                            __ZNK3TSA44InducedVerifyObjectsWithServerCommandArchive30RequiredFieldsByteSizeFallbackEv,
                            __ZNK3TSA44InducedVerifyObjectsWithServerCommandArchive39InternalSerializeWithCachedSizesToArrayEbPh,
                            __ZNK3TSA44NeedsMediaCompatibilityUpgradeCommandArchive11GetMetadataEv,
                            __ZNK3TSA44NeedsMediaCompatibilityUpgradeCommandArchive12ByteSizeLongEv,
                            __ZNK3TSA44NeedsMediaCompatibilityUpgradeCommandArchive13IsInitializedEv,
                            __ZNK3TSA44NeedsMediaCompatibilityUpgradeCommandArchive13SetCachedSizeEi,
                            __ZNK3TSA44NeedsMediaCompatibilityUpgradeCommandArchive24SerializeWithCachedSizesEPN6google8protobuf2io17CodedOutputStreamE,
                            __ZNK3TSA44NeedsMediaCompatibilityUpgradeCommandArchive39InternalSerializeWithCachedSizesToArrayEbPh,
                            __ZNK3TSA45VerifyDrawableZOrdersWithServerCommandArchive11GetMetadataEv,
                            __ZNK3TSA45VerifyDrawableZOrdersWithServerCommandArchive12ByteSizeLongEv,
                            __ZNK3TSA45VerifyDrawableZOrdersWithServerCommandArchive13IsInitializedEv,
                            __ZNK3TSA45VerifyDrawableZOrdersWithServerCommandArchive13SetCachedSizeEi,
                            __ZNK3TSA45VerifyDrawableZOrdersWithServerCommandArchive24SerializeWithCachedSizesEPN6google8protobuf2io17CodedOutputStreamE,
                            __ZNK3TSA45VerifyDrawableZOrdersWithServerCommandArchive39InternalSerializeWithCachedSizesToArrayEbPh,
                            __ZNK3TSA46VerifyTransformHistoryWithServerCommandArchive11GetMetadataEv,
                            __ZNK3TSA46VerifyTransformHistoryWithServerCommandArchive12ByteSizeLongEv,
                            __ZNK3TSA46VerifyTransformHistoryWithServerCommandArchive13IsInitializedEv,
                            __ZNK3TSA46VerifyTransformHistoryWithServerCommandArchive13SetCachedSizeEi,
                            __ZNK3TSA46VerifyTransformHistoryWithServerCommandArchive24SerializeWithCachedSizesEPN6google8protobuf2io17CodedOutputStreamE,
                            __ZNK3TSA46VerifyTransformHistoryWithServerCommandArchive30RequiredFieldsByteSizeFallbackEv,
                            __ZNK3TSA46VerifyTransformHistoryWithServerCommandArchive39InternalSerializeWithCachedSizesToArrayEbPh,
                            __ZNK3TSA47GalleryInfoSetValueCommandArchive_PropertyValue11GetMetadataEv,
                            __ZNK3TSA47GalleryInfoSetValueCommandArchive_PropertyValue12ByteSizeLongEv,
                            __ZNK3TSA47GalleryInfoSetValueCommandArchive_PropertyValue13IsInitializedEv,
                            __ZNK3TSA47GalleryInfoSetValueCommandArchive_PropertyValue13SetCachedSizeEi,
                            __ZNK3TSA47GalleryInfoSetValueCommandArchive_PropertyValue24SerializeWithCachedSizesEPN6google8protobuf2io17CodedOutputStreamE,
                            __ZNK3TSA47GalleryInfoSetValueCommandArchive_PropertyValue39InternalSerializeWithCachedSizesToArrayEbPh,
                            __ZNK3TSA52InducedVerifyDrawableZOrdersWithServerCommandArchive11GetMetadataEv,
                            __ZNK3TSA52InducedVerifyDrawableZOrdersWithServerCommandArchive12ByteSizeLongEv,
                            __ZNK3TSA52InducedVerifyDrawableZOrdersWithServerCommandArchive13IsInitializedEv,
                            __ZNK3TSA52InducedVerifyDrawableZOrdersWithServerCommandArchive13SetCachedSizeEi,
                            __ZNK3TSA52InducedVerifyDrawableZOrdersWithServerCommandArchive24SerializeWithCachedSizesEPN6google8protobuf2io17CodedOutputStreamE,
                            __ZNK3TSA52InducedVerifyDrawableZOrdersWithServerCommandArchive39InternalSerializeWithCachedSizesToArrayEbPh,
                            __ZNK3TSA53InducedVerifyTransformHistoryWithServerCommandArchive11GetMetadataEv,
                            __ZNK3TSA53InducedVerifyTransformHistoryWithServerCommandArchive12ByteSizeLongEv,
                            __ZNK3TSA53InducedVerifyTransformHistoryWithServerCommandArchive13IsInitializedEv,
                            __ZNK3TSA53InducedVerifyTransformHistoryWithServerCommandArchive13SetCachedSizeEi,
                            __ZNK3TSA53InducedVerifyTransformHistoryWithServerCommandArchive24SerializeWithCachedSizesEPN6google8protobuf2io17CodedOutputStreamE,
                            __ZNK3TSA53InducedVerifyTransformHistoryWithServerCommandArchive39InternalSerializeWithCachedSizesToArrayEbPh,
                            __ZTIN3TSA11GalleryInfoE, __ZTIN3TSA11GalleryItemE,
                            __ZTIN3TSA12WebVideoInfoE,
                            __ZTIN3TSA15DocumentArchiveE,
                            __ZTIN3TSA18CaptionInfoArchiveE,
                            __ZTIN3TSA19ThemePresetsArchiveE,
                            __ZTIN3TSA20GalleryItemSelectionE,
                            __ZTIN3TSA22ShortcutCommandArchiveE,
                            __ZTIN3TSA23CaptionPlacementArchiveE,
                            __ZTIN3TSA25DrawableZOrderListArchiveE,
                            __ZTIN3TSA25ShortcutControllerArchiveE,
                            __ZTIN3TSA26GalleryItemSetValueCommandE,
                            __ZTIN3TSA27CommandReapplyMasterArchiveE,
                            __ZTIN3TSA27FunctionBrowserStateArchiveE,
                            __ZTIN3TSA27GallerySelectionTransformerE,
                            __ZTIN3TSA28TitlePlacementCommandArchiveE,
                            __ZTIN3TSA29AddCustomFormatCommandArchiveE,
                            __ZTIN3TSA29GalleryItemSetGeometryCommandE,
                            __ZTIN3TSA29PropagatePresetCommandArchiveE,
                            __ZTIN3TSA30RemoteDataChangeCommandArchiveE,
                            __ZTIN3TSA31GalleryItemSelectionTransformerE,
                            __ZTIN3TSA32UpdateCustomFormatCommandArchiveE,
                            __ZTIN3TSA33GalleryInfoSetValueCommandArchiveE,
                            __ZTIN3TSA33ReplaceCustomFormatCommandArchiveE,
                            __ZTIN3TSA34ChangeDocumentLocaleCommandArchiveE,
                            __ZTIN3TSA35PropagateMasterChangeCommandArchiveE,
                            __ZTIN3TSA36GalleryInfoInsertItemsCommandArchiveE,
                            __ZTIN3TSA36GalleryInfoRemoveItemsCommandArchiveE,
                            __ZTIN3TSA36StyleUpdatePropertyMapCommandArchiveE,
                            __ZTIN3TSA37GalleryItemSelectionTransformerHelperE,
                            __ZTIN3TSA37VerifyObjectsWithServerCommandArchiveE,
                            __ZTIN3TSA38VerifyDocumentWithServerCommandArchiveE,
                            __ZTIN3TSA40GalleryItemSetValueCommand_PropertyValueE,
                            __ZTIN3TSA42ShortcutControllerArchive_ShortcutMapEntryE,
                            __ZTIN3TSA44InducedVerifyObjectsWithServerCommandArchiveE,
                            __ZTIN3TSA44NeedsMediaCompatibilityUpgradeCommandArchiveE,
                            __ZTIN3TSA45VerifyDrawableZOrdersWithServerCommandArchiveE,
                            __ZTIN3TSA46VerifyTransformHistoryWithServerCommandArchiveE,
                            __ZTIN3TSA47GalleryInfoSetValueCommandArchive_PropertyValueE,
                            __ZTIN3TSA52InducedVerifyDrawableZOrdersWithServerCommandArchiveE,
                            __ZTIN3TSA53InducedVerifyTransformHistoryWithServerCommandArchiveE,
                            __ZTSN3TSA11GalleryInfoE, __ZTSN3TSA11GalleryItemE,
                            __ZTSN3TSA12WebVideoInfoE,
                            __ZTSN3TSA15DocumentArchiveE,
                            __ZTSN3TSA18CaptionInfoArchiveE,
                            __ZTSN3TSA19ThemePresetsArchiveE,
                            __ZTSN3TSA20GalleryItemSelectionE,
                            __ZTSN3TSA22ShortcutCommandArchiveE,
                            __ZTSN3TSA23CaptionPlacementArchiveE,
                            __ZTSN3TSA25DrawableZOrderListArchiveE,
                            __ZTSN3TSA25ShortcutControllerArchiveE,
                            __ZTSN3TSA26GalleryItemSetValueCommandE,
                            __ZTSN3TSA27CommandReapplyMasterArchiveE,
                            __ZTSN3TSA27FunctionBrowserStateArchiveE,
                            __ZTSN3TSA27GallerySelectionTransformerE,
                            __ZTSN3TSA28TitlePlacementCommandArchiveE,
                            __ZTSN3TSA29AddCustomFormatCommandArchiveE,
                            __ZTSN3TSA29GalleryItemSetGeometryCommandE,
                            __ZTSN3TSA29PropagatePresetCommandArchiveE,
                            __ZTSN3TSA30RemoteDataChangeCommandArchiveE,
                            __ZTSN3TSA31GalleryItemSelectionTransformerE,
                            __ZTSN3TSA32UpdateCustomFormatCommandArchiveE,
                            __ZTSN3TSA33GalleryInfoSetValueCommandArchiveE,
                            __ZTSN3TSA33ReplaceCustomFormatCommandArchiveE,
                            __ZTSN3TSA34ChangeDocumentLocaleCommandArchiveE,
                            __ZTSN3TSA35PropagateMasterChangeCommandArchiveE,
                            __ZTSN3TSA36GalleryInfoInsertItemsCommandArchiveE,
                            __ZTSN3TSA36GalleryInfoRemoveItemsCommandArchiveE,
                            __ZTSN3TSA36StyleUpdatePropertyMapCommandArchiveE,
                            __ZTSN3TSA37GalleryItemSelectionTransformerHelperE,
                            __ZTSN3TSA37VerifyObjectsWithServerCommandArchiveE,
                            __ZTSN3TSA38VerifyDocumentWithServerCommandArchiveE,
                            __ZTSN3TSA40GalleryItemSetValueCommand_PropertyValueE,
                            __ZTSN3TSA42ShortcutControllerArchive_ShortcutMapEntryE,
                            __ZTSN3TSA44InducedVerifyObjectsWithServerCommandArchiveE,
                            __ZTSN3TSA44NeedsMediaCompatibilityUpgradeCommandArchiveE,
                            __ZTSN3TSA45VerifyDrawableZOrdersWithServerCommandArchiveE,
                            __ZTSN3TSA46VerifyTransformHistoryWithServerCommandArchiveE,
                            __ZTSN3TSA47GalleryInfoSetValueCommandArchive_PropertyValueE,
                            __ZTSN3TSA52InducedVerifyDrawableZOrdersWithServerCommandArchiveE,
                            __ZTSN3TSA53InducedVerifyTransformHistoryWithServerCommandArchiveE,
                            __ZTVN3TSA11GalleryInfoE, __ZTVN3TSA11GalleryItemE,
                            __ZTVN3TSA12WebVideoInfoE,
                            __ZTVN3TSA15DocumentArchiveE,
                            __ZTVN3TSA18CaptionInfoArchiveE,
                            __ZTVN3TSA19ThemePresetsArchiveE,
                            __ZTVN3TSA20GalleryItemSelectionE,
                            __ZTVN3TSA22ShortcutCommandArchiveE,
                            __ZTVN3TSA23CaptionPlacementArchiveE,
                            __ZTVN3TSA25DrawableZOrderListArchiveE,
                            __ZTVN3TSA25ShortcutControllerArchiveE,
                            __ZTVN3TSA26GalleryItemSetValueCommandE,
                            __ZTVN3TSA27CommandReapplyMasterArchiveE,
                            __ZTVN3TSA27FunctionBrowserStateArchiveE,
                            __ZTVN3TSA27GallerySelectionTransformerE,
                            __ZTVN3TSA28TitlePlacementCommandArchiveE,
                            __ZTVN3TSA29AddCustomFormatCommandArchiveE,
                            __ZTVN3TSA29GalleryItemSetGeometryCommandE,
                            __ZTVN3TSA29PropagatePresetCommandArchiveE,
                            __ZTVN3TSA30RemoteDataChangeCommandArchiveE,
                            __ZTVN3TSA31GalleryItemSelectionTransformerE,
                            __ZTVN3TSA32UpdateCustomFormatCommandArchiveE,
                            __ZTVN3TSA33GalleryInfoSetValueCommandArchiveE,
                            __ZTVN3TSA33ReplaceCustomFormatCommandArchiveE,
                            __ZTVN3TSA34ChangeDocumentLocaleCommandArchiveE,
                            __ZTVN3TSA35PropagateMasterChangeCommandArchiveE,
                            __ZTVN3TSA36GalleryInfoInsertItemsCommandArchiveE,
                            __ZTVN3TSA36GalleryInfoRemoveItemsCommandArchiveE,
                            __ZTVN3TSA36StyleUpdatePropertyMapCommandArchiveE,
                            __ZTVN3TSA37GalleryItemSelectionTransformerHelperE,
                            __ZTVN3TSA37VerifyObjectsWithServerCommandArchiveE,
                            __ZTVN3TSA38VerifyDocumentWithServerCommandArchiveE,
                            __ZTVN3TSA40GalleryItemSetValueCommand_PropertyValueE,
                            __ZTVN3TSA42ShortcutControllerArchive_ShortcutMapEntryE,
                            __ZTVN3TSA44InducedVerifyObjectsWithServerCommandArchiveE,
                            __ZTVN3TSA44NeedsMediaCompatibilityUpgradeCommandArchiveE,
                            __ZTVN3TSA45VerifyDrawableZOrdersWithServerCommandArchiveE,
                            __ZTVN3TSA46VerifyTransformHistoryWithServerCommandArchiveE,
                            __ZTVN3TSA47GalleryInfoSetValueCommandArchive_PropertyValueE,
                            __ZTVN3TSA52InducedVerifyDrawableZOrdersWithServerCommandArchiveE,
                            __ZTVN3TSA53InducedVerifyTransformHistoryWithServerCommandArchiveE,
                            _kTextStyleNameLocalizationTable ]
    objc-classes:         [ TSAAnnotationReference,
                            TSAApplicationPropertiesProvider,
                            TSAArchivedGalleryItemSelection,
                            TSABaseApplicationDelegate, TSACaptionInfo,
                            TSACaptionLayout, TSACaptionPlacement, TSACaptionRep,
                            TSACirrusDocument, TSADocumentRoot,
                            TSAExportableDocumentType, TSAFunctionBrowserState,
                            TSAGalleryCaptionLayout, TSAGalleryInfo,
                            TSAGalleryItem, TSAGalleryItemSelection,
                            TSAGalleryLayout, TSAGalleryRep,
                            TSAImageRenderingExporterDelegate,
                            TSAImportController,
                            TSAManagedTemporarySupportDirectory,
                            TSAPdfHyperlinkController,
                            TSAPdfRenderingExporterDelegate, TSAPdfTagInfo,
                            TSAPdfTagger, TSAPdfTaggerAncillaryTextRunContext,
                            TSAPdfTaggerCheckboxCellContext,
                            TSAPdfTaggerCommentContext, TSAPdfTaggerContext,
                            TSAPdfTaggerDrawableContext,
                            TSAPdfTaggerLineFragmentContext,
                            TSAPdfTaggerListLabelContext,
                            TSAPdfTaggerListParagraphLevelResolver,
                            TSAPdfTaggerOneColumnTextOwnerContext,
                            TSAPdfTaggerParagraphContext,
                            TSAPdfTaggerParagraphLevelResolver,
                            TSAPdfTaggerPencilAnnotationContext,
                            TSAPdfTaggerPrimaryTextRunContext,
                            TSAPdfTaggerRatingCellContext,
                            TSAPdfTaggerRubyTextRunContext,
                            TSAPdfTaggerSecondaryTextRunContext,
                            TSAPdfTaggerState, TSAPdfTaggerTableCellContext,
                            TSAPdfTaggerTableChunkContext,
                            TSAPdfTaggerTableLayoutSpaceContext,
                            TSAPdfTaggerTableNameContext,
                            TSAPdfTaggerTateChuYokoTextRunContext,
                            TSAPdfTaggerTextColumnContext,
                            TSAPdfTaggerTextColumnOwnerContext,
                            TSAPdfTaggerTextStorageChunkContext,
                            TSAPdfTaggerTocChunkContext,
                            TSAPdfTaggerTocParagraphLevelResolver,
                            TSAPreviewImageUtility, TSARenderingExporter,
                            TSAServerApplicationDelegate, TSAShortcutController,
                            TSAStyleMapper, TSATemporaryDocumentSupportManager,
                            TSATheme, TSAWebVideoInfo, TSAWebVideoLayout,
                            TSAWebVideoRep ]
    objc-ivars:           [ TSAGalleryInfo._captionMode,
                            TSAGalleryInfo._captionStorage,
                            TSAGalleryInfo._items,
                            TSAGalleryItem._accessibilityDescription,
                            TSAGalleryItem._adjustedImageData,
                            TSAGalleryItem._captionStorage,
                            TSAGalleryItem._definedAccessibilityDescription,
                            TSAGalleryItem._definedAdjustedImageData,
                            TSAGalleryItem._definedImageAdjustments,
                            TSAGalleryItem._definedOffset,
                            TSAGalleryItem._definedScale,
                            TSAGalleryItem._definedThumbnailAdjustedImageData,
                            TSAGalleryItem._definedThumbnailImageData,
                            TSAGalleryItem._imageAdjustments,
                            TSAGalleryItem._imageData, TSAGalleryItem._offset,
                            TSAGalleryItem._scale,
                            TSAGalleryItem._thumbnailAdjustedImageData,
                            TSAGalleryItem._thumbnailImageData,
                            TSAImageRenderingExporterDelegate.mCompressionFactor,
                            TSAImageRenderingExporterDelegate.mHeight,
                            TSAImageRenderingExporterDelegate.mImageType,
                            TSAImageRenderingExporterDelegate.mRenderingExporter,
                            TSAImageRenderingExporterDelegate.mScaleToFit,
                            TSAImageRenderingExporterDelegate.mURL,
                            TSAImageRenderingExporterDelegate.mWidth,
                            TSAPdfHyperlinkController.mDestinations,
                            TSAPdfHyperlinkController.mHyperlinks,
                            TSAPdfRenderingExporterDelegate.mPassphraseOpen,
                            TSAPdfRenderingExporterDelegate.mPassphrasePrintCopy,
                            TSAPdfRenderingExporterDelegate.mRenderingExporter,
                            TSAPdfRenderingExporterDelegate.mRenderingQuality,
                            TSAPdfRenderingExporterDelegate.mRequireCopyPassword,
                            TSAPdfRenderingExporterDelegate.mRequireOpenPassword,
                            TSAPdfRenderingExporterDelegate.mRequirePrintPassword,
                            TSAPdfRenderingExporterDelegate.mTaggingCondition,
                            TSARenderingExporter.mBitmapRenderingQualityInfo,
                            TSARenderingExporter.mDocumentRoot,
                            TSARenderingExporter.mDoesDrawAllPages,
                            TSARenderingExporter.mImager,
                            TSARenderingExporter.mImagerAccessLock,
                            TSARenderingExporter.mIsCancelled,
                            TSARenderingExporter.mIsQuit,
                            TSARenderingExporter.mOptions,
                            TSARenderingExporter.mPaginate,
                            TSARenderingExporter.mPdfTagger,
                            TSARenderingExporter.mProgressContext,
                            TSARenderingExporter.mRenderingExporterDelegate ]
    weak-def-symbols:     [ __ZTIN6google8protobuf8internal29InternalMetadataWithArenaBaseINS0_15UnknownFieldSetENS1_25InternalMetadataWithArenaEE9ContainerE,
                            __ZTINSt3__112basic_stringIcNS_11char_traitsIcEENS_9allocatorIcEEEE,
                            __ZTINSt3__121__basic_string_commonILb1EEE,
                            __ZTSN6google8protobuf8internal29InternalMetadataWithArenaBaseINS0_15UnknownFieldSetENS1_25InternalMetadataWithArenaEE9ContainerE,
                            __ZTSNSt3__112basic_stringIcNS_11char_traitsIcEENS_9allocatorIcEEEE,
                            __ZTSNSt3__121__basic_string_commonILb1EEE ]
...
