--- !tapi-tbd-v3
archs:                 [ armv7, armv7s, arm64, arm64e ]
platform:              ios
flags:                 [ flat_namespace ]
install-name:          /System/Library/PrivateFrameworks/CoreHandwriting.framework/CoreHandwriting
current-version:       0
compatibility-version: 1
objc-constraint:       retain_release
exports:
  - archs:                [ armv7, armv7s, arm64, arm64e ]
    symbols:              [ _CHConvertFloat16BufferToFloat32Buffer,
                            _CHConvertFloat32BufferToFloat16Buffer,
                            _CHCreateIOSurface, _CHDebugBufferFP32Description,
                            _CHDebugIOSurfaceFP16Description,
                            _CHDescriptionForCorrectionResultType,
                            _CHGetPersonalizedSynthesisSupportState,
                            _CHGetPersonalizedSynthesisSupportStateForLocale,
                            _CHGetSynthesisModelVersionForLocale,
                            _CHGroupingPostProcessingManagerOptionExplicitOperators,
                            _CHHasHandwritingGenerationAllowed,
                            _CHHasPersonalizedSynthesisModelReady,
                            _CHHasPersonalizedSynthesisModelReadyForLocale,
                            _CHHasPersonalizedSynthesisSupport,
                            _CHHasPersonalizedSynthesisSupportForLocale,
                            _CHHashtagPrefix, _CHMathPostProcessingOptionLocales,
                            _CHMathPostProcessingWrapTextResult,
                            _CHMathRecognitionOptionActiveAlphabet,
                            _CHMathRecognitionOptionActiveAlphabetMode,
                            _CHMentionPrefix, _CHOSLogForCategory,
                            _CHPKCopyAsTextUsedKey, _CHPKDataDetectorUsedKey,
                            _CHPKInsertSpaceUsedKey, _CHPKSmartSelectionUsedKey,
                            _CHPKSmartShapesUsedKey, _CHPKStrokesDrawnKey,
                            _CHPKTextLineStraighteningUsedKey,
                            _CHPostProcessingStepOptionAdjustColumns,
                            _CHRecognitionOptionDrawingAnchorPoint,
                            _CHRecognitionOptionFrameContext,
                            _CHRecognitionOptionInferenceCache,
                            _CHRecognitionOptionIsPreviousResultCharacterLevel,
                            _CHRecognitionOptionIsRunningSecondaryLocale,
                            _CHRecognitionOptionMinSizeForReliableRescaling,
                            _CHRecognitionOptionPrecedingSpaceBehavior,
                            _CHRecognitionOptionShouldConsumeAllStrokes,
                            _CHRecognitionOptionShouldRefineCandidates,
                            _CHRecognitionOptionTextAfter,
                            _CHRecognitionOptionTextBefore,
                            _CHRecognitionTaskSkipPopulatingStyleInventory,
                            _CHResetInventory,
                            _CHTextSynthesisOptionBackwardProcessRatio,
                            _CHTextSynthesisOptionDistanceBetweenDigitCenters,
                            _CHTextSynthesisOptionFastPath,
                            _CHTextSynthesisOptionFastPathAsXZero,
                            _CHTextSynthesisOptionFastPathUseDefaultStyle,
                            _CHTextSynthesisOptionFitHeight,
                            _CHTextSynthesisOptionFitWidth,
                            _CHTextSynthesisOptionForwardProcessRatio,
                            _CHTextSynthesisOptionSaveStyleSample,
                            _CHTextSynthesisOptionSkipStyleInventoryLookup,
                            _CHTextSynthesisOptionStyleContent,
                            _CHTextSynthesisOptionStyleDrawing,
                            _CHTextSynthesisOptionStylePrediction,
                            _CHTextSynthesisOptionStyleStrength,
                            _CHTextSynthesisOptionSupportedCharactersStrict,
                            _CHTextSynthesisOptionSynthesizeCharacterInventory,
                            _CHTextSynthesisOptionXZeroDrawing,
                            _CHTextSynthesisStyleInventoryDebugView,
                            _PRErrorModelKey, __Z10runCommandP8NSString,
                            __Z12editDistanceP8NSStringS0_,
                            __Z12editDistancePjmS_m, __Z12rectToString6CGRect,
                            __Z12sizeToString6CGSize,
                            __Z13getAlphaShapeP7NSArrayIP7NSValueEd,
                            __Z13pointDistance7CGPointS_24CHGroupingDistanceMetric,
                            __Z13pointToString7CGPoint, __Z13propertyIsSetmm,
                            __Z13trimIndexPathP11NSIndexPath8_NSRange,
                            __Z14characterCodesP8NSString,
                            __Z14isStringNumberP8NSString,
                            __Z14rectFromStringP8NSString,
                            __Z14scoreStemEntryP13CHStrokeGroupS0_dbb,
                            __Z14sizeFromStringP8NSString,
                            __Z15modifyIndexPathP11NSIndexPathmm,
                            __Z15pathForResourcePKcS0_Pc,
                            __Z15pointFromStringP8NSString,
                            __Z15sigmoidFunctiond, __Z16deviceANESubTypev,
                            __Z16isSymbolOperatorP8NSString,
                            __Z16lastWordInStringP8NSString,
                            __Z16normalizeFeaturePflllddP10NSIndexSet,
                            __Z17insertToIndexPathP11NSIndexPathmm,
                            __Z17isLocaleSupportedP8NSLocale,
                            __Z17isMixedCaseStringP8NSString,
                            __Z17unicodeToNSStringj,
                            __Z18isSymbolStructuralP8NSString,
                            __Z19clearStyleInventoryv,
                            __Z19uncompressLZFSEDataP6NSDatal,
                            __Z19useDefaultInventoryv,
                            __Z20isCharacterFullWidthP8NSString,
                            __Z20isCharacterHanScriptP8NSString,
                            __Z20lowercaseFirstLetterP8NSString,
                            __Z20uppercaseFirstLetterP8NSString,
                            __Z21NSStringFromUInt32PtrPjm8_NSRange,
                            __Z21isCharacterKanaScriptP8NSString,
                            __Z21isStringPatternedTextP8NSString,
                            __Z21parseFloatsFromStringP8NSString,
                            __Z22compareCellsByPositionP11objc_objectS0_Pv,
                            __Z22isCharacterLatinScriptP8NSString,
                            __Z23affineTransformToString17CGAffineTransform,
                            __Z23chunkStringForSynthesisP8NSStringm,
                            __Z23commonIndexSetsFromSetsP7NSArrayIP10NSIndexSetES3_,
                            __Z23compareRangesByPositionP11objc_objectS0_Pv,
                            __Z23isCharacterArabicScriptP8NSString,
                            __Z23isStringEntirelyFromSetP8NSStringP14NSCharacterSet,
                            __Z23isStringJapaneseZipcodeP8NSString,
                            __Z23symbolHeightCoefficientP8NSStringl,
                            __Z24convertLMTokenIDToStringjPK10_LXLexicon,
                            __Z24halfWidthToFullWidthCodei,
                            __Z24isValidVerticalMathEntryP21CHTokenizedMathResultl,
                            __Z24phraseMatchingCandidatesP8NSStringPK10_LXLexicon8_NSRangeS4_llPl,
                            __Z24previousOrientationIndexiii,
                            __Z24rangeOfCharactersFromSetP8NSStringP14NSCharacterSetb,
                            __Z25affineTransformFromStringP8NSString,
                            __Z25compareCellsByProbabilityP11objc_objectS0_Pv,
                            __Z25isCharacterCyrillicScriptP8NSString,
                            __Z25isSymbolLeadingStructuralP8NSString,
                            __Z25symbolTextTransliterationP8NSString,
                            __Z26isSymbolTrailingStructuralP8NSString,
                            __Z26latestStyleInventoryStatusv,
                            __Z26shouldForbidSpaceInBetweenP8NSStringS0_,
                            __Z27createUInt32PtrWithNSStringP8NSStringmmRmRb,
                            __Z27findStemsAndEntryCandidatesP31CHGroupingAndRecognitionResultsPU27objcproto16CHStrokeProvider11objc_object,
                            __Z27halfWidthFullWidthTransformP8NSStringP14NSCharacterSetS0_bb,
                            __Z28useInventoryWithRelativePathP8NSString,
                            __Z29rangeFromRangeRemovingIndexes8_NSRangeP10NSIndexSet,
                            __Z30firstMatchingResourceForLocaleP8NSLocaleP8NSStringS2_Pc,
                            __Z30isCharacterLatinOrCommonScriptP8NSString,
                            __Z30isUndetectableAddressCandidateP8NSString,
                            __Z31candidateResultSortingCriterion17CHCandidateResultS_,
                            __Z31isStylePersonalizationAvailablev,
                            __Z31reformatToBetterAddressMatchingP8NSStringPU15__autoreleasingP10NSIndexSet,
                            __Z32stringHasEmoticonStartingAtIndexmP8NSStringmb,
                            __Z33isCharacterCJKSymbolsPunctuationsP8NSString,
                            __Z35rankedCandidateIdentifiersForLocaleP8NSLocale,
                            __Z36doesStringContainDataDetectorEntriesP8NSStringPU15__autoreleasingP7NSArrayIP7NSValueE,
                            __Z37spatialSegmentationNetworkFromDrawingPK9CHDrawing,
                            __Z38useInventoryWithRelativePathWithChecksP8NSString,
                            __Z39indicesWithPersonalizedSynthesisSupportP8NSString33CHTextSynthesizerCharacterSupport,
                            __Z3d2sd, __Z3i2si, __Z3i2sl, __Z3p2sPKv,
                            __Z41compatibilityJamoFromComposedHangulStringP8NSString,
                            __Z45replaceUnsupportedCharactersByTransliterationP8NSString33CHTextSynthesizerCharacterSupport,
                            __Z46ratioHorizontalOverlapOfSubjectToReferenceRect6CGRectS_,
                            __Z49CHLocalizedDescriptionForRecognitionSessionStatus26CHRecognitionSessionStatus,
                            __Z4i2shi, __Z4iv2sPKtm, __Z4ul2sm, __Z5ul2shm,
                            __Z60castCHRemoteSynthesisOptionInventoryRequestTypeFromNSIntegerl,
                            __Z8short2sht, __ZN10CHTriangle11alignToAxisEv,
                            __ZN10CHTriangle23fitXAxisAlignedTriangleEi,
                            __ZN10CHTriangle23fitYAxisAlignedTriangleEi,
                            __ZN10CHTriangle25areVerticalIsoscelesSidesEii,
                            __ZN10CHTriangle27areHorizontalIsoscelesSidesEii,
                            __ZN10CHTriangle27fitAxisAlignedRightTriangleEii,
                            __ZN10CHTriangle6HalignEi, __ZN10CHTriangle6ValignEi,
                            __ZN10VariantMap15VariantsForCodeEi,
                            __ZN10VariantMap19SerializeToFilenameEPKc,
                            __ZN10VariantMapC1EPKc, __ZN10VariantMapC2EPKc,
                            __ZN10VariantMapD1Ev, __ZN10VariantMapD2Ev,
                            __ZN10delaunator10Delaunator12add_triangleEmmmmmm,
                            __ZN10delaunator10Delaunator13get_hull_areaEv,
                            __ZN10delaunator10Delaunator4linkEmm,
                            __ZN10delaunator10Delaunator8legalizeEm,
                            __ZN12CHBezierLine11alignToAxisEff,
                            __ZN13CHLineSegmentC1E7CGPointS0_,
                            __ZN13CHLineSegmentC2E7CGPointS0_,
                            __ZN13LineRegressor15provideAnAnswerEv,
                            __ZN13LineRegressor22detectForwardPointTypeEv,
                            __ZN13LineRegressor22detectMiddlePointIndexEii,
                            __ZN13LineRegressor23detectBackwardPointTypeEv,
                            __ZN13LineRegressor23detectForwardPointIndexEv,
                            __ZN13LineRegressor24detectBackwardPointIndexEv,
                            __ZN13LineRegressor25performArrowHeadDetectionEv,
                            __ZN13LineRegressor28initialiseArrowHeadDetectionEv,
                            __ZN13LineRegressor8fillBodyEv,
                            __ZN13LineRegressorC1EP9CHDrawingP6HTMLog,
                            __ZN13LineRegressorC2EP9CHDrawingP6HTMLog,
                            __ZN13StarRegressorC1EP9CHDrawingP6HTMLog,
                            __ZN13StarRegressorC2EP9CHDrawingP6HTMLog,
                            __ZN14CHStraightLine11alignToAxisEff,
                            __ZN14CloudRegressorC1EP9CHDrawingP6HTMLog,
                            __ZN14CloudRegressorC2EP9CHDrawingP6HTMLog,
                            __ZN14HeartRegressor15provideAnAnswerEP9CHDrawing,
                            __ZN14HeartRegressorC1EP9CHDrawingP6HTMLog,
                            __ZN14HeartRegressorC2EP9CHDrawingP6HTMLog,
                            __ZN15CHCanvasHeatmap17nextHeatmapItemIDEv,
                            __ZN15CHCanvasHeatmap18_isHighDensityItemEm,
                            __ZN15CHCanvasHeatmap18cleanCanvasHeatmapEv,
                            __ZN15CHCanvasHeatmap41itemIDsInCellsIntersectingRectangleRegionERK6CGRectb,
                            __ZN15CHCanvasHeatmapC1ERKS_,
                            __ZN15CHCanvasHeatmapC2ERKS_,
                            __ZN15CHNeuralNetwork11feedforwardEP27MLDictionaryFeatureProvider,
                            __ZN15CHNeuralNetwork14supportedCodesEv,
                            __ZN15CHNeuralNetwork17ClassifyCHDrawingEP9CHDrawingP14NSCharacterSetm6CGRectb,
                            __ZN15CHNeuralNetwork22feedforwardFromBatchesEP27MLDictionaryFeatureProvider,
                            __ZN15CHNeuralNetwork28ClassifyCHDrawingFromBatchesEP7NSArrayIP21CHClassifiableDrawingE,
                            __ZN15CHNeuralNetwork29computeClassificationFeaturesEP7NSArrayIP21CHClassifiableDrawingE,
                            __ZN15CHNeuralNetworkD1Ev, __ZN15CHNeuralNetworkD2Ev,
                            __ZN15CoreHandwriting10InkMapping21getStrokePointMappingEm,
                            __ZN15CoreHandwriting10InkMapping25resizeToAtLeastNumStrokesEm,
                            __ZN15CoreHandwriting11BoundingBox9translateEdd,
                            __ZN15CoreHandwriting11BoundingBox9unionWithERKS0_,
                            __ZN15CoreHandwriting11BoundingBoxC1Ev,
                            __ZN15CoreHandwriting11BoundingBoxC2Ev,
                            __ZN15CoreHandwriting11getPointSetEP7NSArrayIPU18objcproto8CHStroke11objc_objectE,
                            __ZN15CoreHandwriting11getPointSetERKNS_5ImageE,
                            __ZN15CoreHandwriting11merge_linesERKNS_14PrincipalLinesES2_,
                            __ZN15CoreHandwriting12FeatureArray6concatERKS0_,
                            __ZN15CoreHandwriting12FeatureArray7getDataEv,
                            __ZN15CoreHandwriting12drawingToInkEP9CHDrawing,
                            __ZN15CoreHandwriting12drawingToInkEP9CHDrawingRK7CGPoint,
                            __ZN15CoreHandwriting12inkToDrawingERKNS_3InkE,
                            __ZN15CoreHandwriting12lineAtHeightEdd,
                            __ZN15CoreHandwriting12loadPointSetEP5NSURL,
                            __ZN15CoreHandwriting14PrincipalLines3logEv,
                            __ZN15CoreHandwriting17CHMathBeamDecoder20setLatexSyntaxScorerEv,
                            __ZN15CoreHandwriting17CHMathBeamDecoder22setLanguageModelScorerEv,
                            __ZN15CoreHandwriting17boundingBoxAsRectERKNS_11BoundingBoxE,
                            __ZN15CoreHandwriting18adjust_for_scalingERKNS_14PrincipalLinesENS_11BoundingBoxE,
                            __ZN15CoreHandwriting19boundingBoxFromRectERK6CGRect,
                            __ZN15CoreHandwriting19getMLMultiArrayViewERNS_12FeatureArrayE,
                            __ZN15CoreHandwriting20EspressoModelWrapper10bindOutputEP17espresso_buffer_tPKcb,
                            __ZN15CoreHandwriting20EspressoModelWrapper7destroyEv,
                            __ZN15CoreHandwriting20EspressoModelWrapper7executeEv,
                            __ZN15CoreHandwriting20EspressoModelWrapperD1Ev,
                            __ZN15CoreHandwriting20EspressoModelWrapperD2Ev,
                            __ZN15CoreHandwriting20PreprocessingManager7addStepEPNS_25AbstractPreprocessingStepE,
                            __ZN15CoreHandwriting20PreprocessingManager9pyAddStepEPNS_25AbstractPreprocessingStepE,
                            __ZN15CoreHandwriting20PreprocessingManagerC1ERKS0_,
                            __ZN15CoreHandwriting20PreprocessingManagerC2ERKS0_,
                            __ZN15CoreHandwriting20PreprocessingManageraSERKS0_,
                            __ZN15CoreHandwriting21CPDAffineRegistration11expectationEv,
                            __ZN15CoreHandwriting21CPDAffineRegistration12maximizationEv,
                            __ZN15CoreHandwriting21CPDAffineRegistration15update_varianceEv,
                            __ZN15CoreHandwriting21CPDAffineRegistration16update_transformEv,
                            __ZN15CoreHandwriting21CPDAffineRegistration17initialize_sigma2Ev,
                            __ZN15CoreHandwriting21CPDAffineRegistration21transform_point_cloudEv,
                            __ZN15CoreHandwriting21CPDAffineRegistration25initialize_transformationEv,
                            __ZN15CoreHandwriting21CPDAffineRegistration3runEv,
                            __ZN15CoreHandwriting21getUnprocessedDrawingEP7NSArrayIP25CHEncodedStrokeIdentifierEPU27objcproto16CHStrokeProvider11objc_object,
                            __ZN15CoreHandwriting21getUnprocessedDrawingEP7NSArrayIPU18objcproto8CHStroke11objc_objectE,
                            __ZN15CoreHandwriting21pointProjectionToLineERK15CHPrincipalLined,
                            __ZN15CoreHandwriting22getPointSetFromStringsEP7NSArrayIP8NSStringE,
                            __ZN15CoreHandwriting23adjust_back_for_scalingERKNS_14PrincipalLinesENS_11BoundingBoxE,
                            __ZN15CoreHandwriting23getAffineTransformationERKNS_14PrincipalLinesES2_,
                            __ZN15CoreHandwriting23transformPrincipalLinesERKNS_14PrincipalLinesERK17CGAffineTransform,
                            __ZN15CoreHandwriting24getDesiredPrincipalLinesEP21CHTransformedTextLined,
                            __ZN15CoreHandwriting25CHEncoderDecoderBeamState11copyTensorsERKS0_,
                            __ZN15CoreHandwriting25CHEncoderDecoderBeamState14scorersAppliedEv,
                            __ZN15CoreHandwriting25CHEncoderDecoderBeamState19updatePastAttentionERS0_,
                            __ZN15CoreHandwriting25deformImagePointsAndLinesERKNS_23PointsAndPrincipalLinesEddd,
                            __ZN15CoreHandwriting25principalLinesDescriptionERKNS_14PrincipalLinesE,
                            __ZN15CoreHandwriting25writeObjectToFileInFolderEP11objc_objectP5NSURLP8NSString,
                            __ZN15CoreHandwriting26FeatureExtractionProcessor7addStepEPNS_29AbstractFeatureExtractionStepE,
                            __ZN15CoreHandwriting26FeatureExtractionProcessor9pyAddStepEPNS_29AbstractFeatureExtractionStepE,
                            __ZN15CoreHandwriting26FeatureExtractionProcessorC1ERKS0_,
                            __ZN15CoreHandwriting26FeatureExtractionProcessorC2ERKS0_,
                            __ZN15CoreHandwriting26FeatureExtractionProcessoraSERKS0_,
                            __ZN15CoreHandwriting28getRenderedTextSizeForStringEP8NSStringi,
                            __ZN15CoreHandwriting30AttentionBasedMathSegmentationC1Ef,
                            __ZN15CoreHandwriting30AttentionBasedMathSegmentationC2Ef,
                            __ZN15CoreHandwriting32getImageAndPrincipalLinesForTextEP8NSStringi,
                            __ZN15CoreHandwriting33getPointsAndPrincipalLinesForTextEP8NSStringi,
                            __ZN15CoreHandwriting35InkToImageBaseFeatureExtractionStep18setPadToMultipleOfEi,
                            __ZN15CoreHandwriting35InkToImageBaseFeatureExtractionStep19setEnlargeSingleDotEi,
                            __ZN15CoreHandwriting35getUnprocessedDrawingForStrokeGroupEP13CHStrokeGroupPU27objcproto16CHStrokeProvider11objc_object,
                            __ZN15CoreHandwriting36filter_delaunay_edges_for_alphashapeEdRN10delaunator10DelaunatorE,
                            __ZN15CoreHandwriting3Ink5scaleEd,
                            __ZN15CoreHandwriting3Ink5scaleEdd,
                            __ZN15CoreHandwriting3Ink6rotateEd,
                            __ZN15CoreHandwriting3Ink9translateEdd,
                            __ZN15CoreHandwriting3logERKNS_11BoundingBoxEP8NSString,
                            __ZN15CoreHandwriting5clampEddd,
                            __ZN15CoreHandwriting5scaleE7CGPointNS_11BoundingBoxE6CGSize,
                            __ZN15CoreHandwriting8describeERKNS_11BoundingBoxE,
                            __ZN15CoreHandwriting9angle_degERK7CGPointS2_,
                            __ZN15CoreHandwriting9angle_radERK7CGPointS2_,
                            __ZN15CoreHandwriting9synthesis11loadCodemapEv,
                            __ZN15CoreHandwriting9synthesis13DDIMScheduler12setTimestepsEii,
                            __ZN15CoreHandwriting9synthesis13DDIMSchedulerC1Eii,
                            __ZN15CoreHandwriting9synthesis13DDIMSchedulerC2Eii,
                            __ZN15CoreHandwriting9synthesis18CHDiffusionSampler15setForwardRatioEf,
                            __ZN15CoreHandwriting9synthesis18CHDiffusionSampler16setBackwardRatioEf,
                            __ZN15CoreHandwriting9synthesis21multiArrayWithContentEP7NSArrayIP8NSNumberES5_,
                            __ZN15CoreHandwriting9synthesis21multiArrayWithContentEP7NSArrayIP8NSNumberES5_f,
                            __ZN15CoreHandwriting9synthesis24inplaceLinearCombinationEfP12MLMultiArrayfS2_,
                            __ZN15CoreHandwriting9synthesis24multiArrayWithFixedValueEfP7NSArrayIP8NSNumberE,
                            __ZN15CoreHandwriting9synthesis25CHDiffusionSynthesisModel12getModelHashEv,
                            __ZN15CoreHandwriting9synthesis25CHDiffusionSynthesisModel12predictStyleEPU28objcproto17MLFeatureProvider11objc_object,
                            __ZN15CoreHandwriting9synthesis25CHDiffusionSynthesisModel32switchModelConfigurationForWidthEm,
                            __ZN15CoreHandwriting9synthesis25CHDiffusionSynthesisModel7predictEPU28objcproto17MLFeatureProvider11objc_object,
                            __ZN15CoreHandwriting9synthesis25CHDiffusionSynthesisModelC1Ev,
                            __ZN15CoreHandwriting9synthesis25CHDiffusionSynthesisModelC2Ev,
                            __ZN15CoreHandwriting9synthesis27DPMSolverMultistepScheduler12setTimestepsEii,
                            __ZN15CoreHandwriting9synthesis27DPMSolverMultistepSchedulerC1Eii,
                            __ZN15CoreHandwriting9synthesis27DPMSolverMultistepSchedulerC2Eii,
                            __ZN15CoreHandwriting9synthesis29getCosineScheduleTrainedBetasEii,
                            __ZN15CoreHandwriting9synthesis30createDrawingFromDeltaFeaturesEP12MLMultiArrayS2_m,
                            __ZN15CoreHandwriting9synthesis48generateMLMultiArrayWithGaussianNoiseWithPaddingEP7NSArrayIP8NSNumberEmi,
                            __ZN15CoreHandwriting9synthesis50CHDiffusionSynthesisSetOfSupportedCharacterByModelEv,
                            __ZN15CoreHandwriting9synthesis52CHDiffusionSynthesisApplyAllowedUnicodeDecompositionEj33CHTextSynthesizerCharacterSupport,
                            __ZN15CoreHandwriting9synthesis56CHDiffusionSynthesisTransliterationCharacterExtensionMapEv,
                            __ZN15CoreHandwriting9synthesis59CHDiffusionSynthesisStringWithAllSupportedCharactersByModelEv,
                            __ZN15CoreHandwriting9synthesis7loadPPCEv,
                            __ZN15CoreHandwriting9synthesis9fast_path19CHFastPathCharacterC1EP9CHDrawingij,
                            __ZN15CoreHandwriting9synthesis9fast_path19CHFastPathCharacterC2EP9CHDrawingij,
                            __ZN15CoreHandwriting9synthesis9fast_path19renormalizedDrawingEPK9CHDrawingfffff,
                            __ZN15CoreHandwriting9synthesis9fast_path28CHFastPathCharacterInventory22getSupportedCharactersEv,
                            __ZN15CoreHandwriting9synthesis9fast_path28CHFastPathCharacterInventoryC1Ev,
                            __ZN15CoreHandwriting9synthesis9fast_path28CHFastPathCharacterInventoryC2Ev,
                            __ZN15CoreHandwriting9synthesis9fast_path28uncompressInventoryFromLZFSEEP8NSString,
                            __ZN15CoreHandwriting9synthesis9fast_path30CHFastPathCharacterHolderLZFSE14doAddCharacterERKNS1_19CHFastPathCharacterEi,
                            __ZN15CoreHandwriting9synthesis9fast_path30CHFastPathCharacterHolderLZFSE27reloadAllCharactersIfNeededEv,
                            __ZN15CoreHandwriting9synthesis9fast_path30CHFastPathCharacterHolderLZFSEC1ENS1_34CHFastPathCharacterHolderStyleTypeEi,
                            __ZN15CoreHandwriting9synthesis9fast_path30CHFastPathCharacterHolderLZFSEC2ENS1_34CHFastPathCharacterHolderStyleTypeEi,
                            __ZN15CoreHandwriting9synthesis9fast_path33CHAbstractFastPathCharacterHolder12addCharacterERKNS1_19CHFastPathCharacterEi,
                            __ZN15CoreHandwriting9synthesis9fast_path33CHAbstractFastPathCharacterHolder26getSupportedCharactersInfoEv,
                            __ZN15CoreHandwriting9synthesis9fast_path33CHAbstractFastPathCharacterHolder27getCharacterRepresentationsEj,
                            __ZN15CoreHandwriting9synthesis9fast_path35CHFastPathCharacterHolderAppleStyle14doAddCharacterERKNS1_19CHFastPathCharacterEi,
                            __ZN15CoreHandwriting9synthesis9fast_path35CHFastPathCharacterHolderAppleStyle27reloadAllCharactersIfNeededEv,
                            __ZN15CoreHandwriting9synthesis9fast_path35CHFastPathCharacterHolderAppleStyle9setLocaleEP8NSLocale,
                            __ZN15CoreHandwriting9synthesis9fast_path35CHFastPathCharacterHolderAppleStyleC1ENS1_34CHFastPathCharacterHolderStyleTypeEi,
                            __ZN15CoreHandwriting9synthesis9fast_path35CHFastPathCharacterHolderAppleStyleC2ENS1_34CHFastPathCharacterHolderStyleTypeEi,
                            __ZN15CoreHandwriting9synthesis9fast_path39CHFastPathCharacterHolderStyleInventory14doAddCharacterERKNS1_19CHFastPathCharacterEi,
                            __ZN15CoreHandwriting9synthesis9fast_path39CHFastPathCharacterHolderStyleInventory27reloadAllCharactersIfNeededEv,
                            __ZN15CoreHandwriting9synthesis9fast_path39CHFastPathCharacterHolderStyleInventoryC1ENS1_34CHFastPathCharacterHolderStyleTypeEiP25CHSynthesisStyleInventory,
                            __ZN15CoreHandwriting9synthesis9fast_path39CHFastPathCharacterHolderStyleInventoryC2ENS1_34CHFastPathCharacterHolderStyleTypeEiP25CHSynthesisStyleInventory,
                            __ZN15CoreHandwriting9synthesis9fast_path42createCHFastPathCharacterFromSegmentedDataEP12NSDictionaryji,
                            __ZN15CoreHandwriting9synthesis9fast_path44createCHFastPathCharacterFromSynthesizedDataEP9CHDrawingffji,
                            __ZN15CoreHandwriting9synthesis9fast_path48CHFastPathCharacterInventoryExtensionSuperscriptC1Ev,
                            __ZN15CoreHandwriting9synthesis9fast_path48CHFastPathCharacterInventoryExtensionSuperscriptC2Ev,
                            __ZN15CoreHandwriting9synthesis9fast_path52CHFastPathCharacterInventoryExtensionTransliterationC1Ev,
                            __ZN15CoreHandwriting9synthesis9fast_path52CHFastPathCharacterInventoryExtensionTransliterationC2Ev,
                            __ZN15CoreHandwriting9synthesis9fast_path58CHFastPathCharacterPersonalizerWithPrefixForStyleInventory18runPersonalizationEU13block_pointerFP17CHSynthesisResultP8NSString24CHStyleSamplingAlgorithmmU13block_pointerFvS4_P7NSErrorEU13block_pointerFP7NSArrayIP24CHRemoteSynthesisRequestEPSC_IP22CHSynthesisStyleSampleEEEb,
                            __ZN15CoreHandwriting9synthesis9fast_path58CHFastPathCharacterPersonalizerWithPrefixForStyleInventory20processRequestResultERKNS1_35CHFastPathCharacterSynthesisRequestEP17CHSynthesisResult,
                            __ZN15CoreHandwriting9synthesis9fast_path58CHFastPathCharacterPersonalizerWithPrefixForStyleInventory33getCharactersRequestsToSynthesizeEb,
                            __ZN15CoreHandwriting9synthesis9fast_path58CHFastPathCharacterPersonalizerWithPrefixForStyleInventoryC1EP5NSSetIP8NSStringEP25CHSynthesisStyleInventory,
                            __ZN15CoreHandwriting9synthesis9fast_path58CHFastPathCharacterPersonalizerWithPrefixForStyleInventoryC2EP5NSSetIP8NSStringEP25CHSynthesisStyleInventory,
                            __ZN15CoreHandwriting9synthesis9loadModelEv,
                            __ZN15CoreHandwriting9transformEP9CHDrawingU13block_pointerF7CGPointS2_E,
                            __ZN16CHDrawingStrokes11translateByEdd,
                            __ZN16CHDrawingStrokes13readCharacterEPKc,
                            __ZN16CHDrawingStrokes14generateBitmapEii,
                            __ZN16CHDrawingStrokes14getBoundingBoxEv,
                            __ZN16CHDrawingStrokes19generateOrientationEii,
                            __ZN16CHDrawingStrokes23getBoundingBoxForStrokeEl,
                            __ZN16CHDrawingStrokes27computeBoundingBoxForStrokeEl,
                            __ZN16CHDrawingStrokes28computeSparseBitmapBresenhamEi,
                            __ZN16CHDrawingStrokes51computeSpatialFeaturesWithNoOverlapFromSparseBitmapERS_j,
                            __ZN16CHDrawingStrokes6centerEv,
                            __ZN16CHDrawingStrokes7cleanupERS_d,
                            __ZN16CHDrawingStrokes7scaleToEd,
                            __ZN16EllipseRegressor11ePolarCoordE7CGPoint,
                            __ZN16EllipseRegressor11fitToCircleE7CGPointS0_S0_,
                            __ZN16EllipseRegressor14pointFromAngleEf,
                            __ZN16EllipseRegressor17performRegressionEv,
                            __ZN16EllipseRegressor31confidenceLevelVersusBezierLineEv,
                            __ZN16EllipseRegressorC1EP9CHDrawingP6HTMLog,
                            __ZN16EllipseRegressorC2EP9CHDrawingP6HTMLog,
                            __ZN17PentagonRegressor15provideAnAnswerEP9CHDrawing,
                            __ZN17PentagonRegressor28confidenceLevelVersusEllipseEv,
                            __ZN17PentagonRegressorC1EP9CHDrawingP6HTMLog,
                            __ZN17PentagonRegressorC2EP9CHDrawingP6HTMLog,
                            __ZN17TriangleRegressor15provideAnAnswerEP9CHDrawing,
                            __ZN17TriangleRegressorC1EP9CHDrawingP6HTMLogffff,
                            __ZN17TriangleRegressorC2EP9CHDrawingP6HTMLogffff,
                            __ZN18RectangleRegressor13writeFeaturesEPPf,
                            __ZN18RectangleRegressor15provideAnAnswerEP9CHDrawing,
                            __ZN18RectangleRegressorC1EP9CHDrawingP6HTMLog,
                            __ZN18RectangleRegressorC2EP9CHDrawingP6HTMLog,
                            __ZN19BezierLineRegressor14timeEstimationE7CGPoint,
                            __ZN19BezierLineRegressor14timeEstimationEc,
                            __ZN19BezierLineRegressor22controlPointEstimationEv,
                            __ZN19BezierLineRegressor2MME,
                            __ZN19BezierLineRegressor3MMME,
                            __ZN19BezierLineRegressor3iMME,
                            __ZN19BezierLineRegressor4iMMME,
                            __ZN19BezierLineRegressor4initEv,
                            __ZN19BezierLineRegressor8getErrorE7CGPoint,
                            __ZN19BezierLineRegressorC1ER7CHPointP9CHDrawingS1_P6HTMLog,
                            __ZN19BezierLineRegressorC1Ev,
                            __ZN19BezierLineRegressorC2ER7CHPointP9CHDrawingS1_P6HTMLog,
                            __ZN19BezierLineRegressorC2Ev,
                            __ZN19BezierLineRegressorD1Ev,
                            __ZN19BezierLineRegressorD2Ev,
                            __ZN19ChatBubbleRegressor15provideAnAnswerEP9CHDrawing,
                            __ZN19ChatBubbleRegressor15regressLollipopEiii,
                            __ZN19ChatBubbleRegressorC1EP9CHDrawingP6HTMLog,
                            __ZN19ChatBubbleRegressorC2EP9CHDrawingP6HTMLog,
                            __ZN21CHFastGroupingCluster12mergeClusterERKS_,
                            __ZN21CHFastGroupingCluster16unionWithClusterEPS_,
                            __ZN21CHFastGroupingCluster19containsStrokeIndexEm,
                            __ZN21CHFastGroupingCluster24computeGlobalAnchorPointEv,
                            __ZN21CHFastGroupingCluster7explodeEv,
                            __ZN21CHFastGroupingCluster8findRootEv,
                            __ZN21CHFastGroupingClusterC1Ev,
                            __ZN21CHFastGroupingClusterC2Ev,
                            __ZN21StraightLineRegressor15provideAnAnswerEv,
                            __ZN21StraightLineRegressorC1EP9CHDrawingR7CHPointS1_S3_P6HTMLog,
                            __ZN21StraightLineRegressorC2EP9CHDrawingR7CHPointS1_S3_P6HTMLog,
                            __ZN22CHFastGroupingClusters13mergeClustersEmm,
                            __ZN22CHFastGroupingClusters21computeDistanceMatrixEv,
                            __ZN22CHFastGroupingClusters21updateClosestClustersEv,
                            __ZN22ManhattanLineRegressor15provideAnAnswerEv,
                            __ZN22ManhattanLineRegressor22detectMiddlePointIndexEv,
                            __ZN22ManhattanLineRegressor23manhattanLineRegressionEv,
                            __ZN22ManhattanLineRegressor29confidenceScoreVersusFreeformEv,
                            __ZN22ManhattanLineRegressor30manhattanLineArrowheadDetectorEb,
                            __ZN22ManhattanLineRegressorC1EP9CHDrawingP6HTMLogb,
                            __ZN22ManhattanLineRegressorC2EP9CHDrawingP6HTMLogb,
                            __ZN22OutlinedArrowRegressor15provideAnAnswerEP9CHDrawing,
                            __ZN22OutlinedArrowRegressor29confidenceLevelVersusPentagonEv,
                            __ZN22OutlinedArrowRegressor31confidenceLevelVersusChatBubbleEv,
                            __ZN22OutlinedArrowRegressorC1EP9CHDrawingP6HTMLog,
                            __ZN22OutlinedArrowRegressorC2EP9CHDrawingP6HTMLog,
                            __ZN26CHRSketchRecognitionResult17isConsideredEqualEfff,
                            __ZN26CHRSketchRecognitionResult6HscoreEf,
                            __ZN26CHRSketchRecognitionResult6VscoreEf,
                            __ZN6HTMLog11writeHeaderEv,
                            __ZN6HTMLog12openPolylineEv,
                            __ZN6HTMLog14addTextAtPointE7CGPointPKcz,
                            __ZN6HTMLog14pushInPolylineE7CGPoint,
                            __ZN6HTMLog2pyEPKcz, __ZN6HTMLog4pushEPKcz,
                            __ZN6HTMLog6pushH1EPKcz, __ZN6HTMLog6pushH2EPKcz,
                            __ZN6HTMLog7py_execEv, __ZN6HTMLog8pushInfoEPKcz,
                            __ZN6HTMLog8py_startEv, __ZN6HTMLogD1Ev,
                            __ZN6HTMLogD2Ev,
                            __ZN7Network10kBestPathsEmmmPK10_LXLexiconPK9_LXCursorPS0_S5_P16CHPatternNetworkP13NetworkCursor24CHRecognitionContentTypePvbU13block_pointerFdRK11NetworkEdgeEU13block_pointerFdP11LatticePathEbbbb,
                            __ZN7Network11deserializeEPKc,
                            __ZN7Network11readOneEdgeEPKcR11NetworkEdge,
                            __ZN7Network12readDataFileEv,
                            __ZN7Network12unionNetworkERKS_S1_,
                            __ZN7Network13applyDiscountEf,
                            __ZN7Network13trimDeadEdgesERS_,
                            __ZN7Network14prepareNetworkEv,
                            __ZN7Network20removeEpsOutputEdgesERS_b,
                            __ZN7Network21applyInsertionPenaltyEf,
                            __ZN7Network22composeTrimAndSimplifyERKS_RS_S2_bb,
                            __ZN7Network23convertAllEdgesToScoresEv,
                            __ZN7Network24findFirstEdgeGivenSymbolEmm,
                            __ZN7Network24makeFinalNodeTheLastNodeEv,
                            __ZN7Network25pushWeightsFromEmptyEdgesEb,
                            __ZN7Network32guaranteeThatEdgesAreNonNegativeEv,
                            __ZN7Network35checkSingleEmptyIncomingEdgeForNodeEmRm,
                            __ZN7Network39guaranteeSingleEmptyIncomingEdgePerNodeEv,
                            __ZN7Network7composeERKS_RS_b,
                            __ZN7Network8bestPathEmm, __ZN7Network9serializeEPKc,
                            __ZN7Segment16mergeIntoSegmentERKS_,
                            __ZN7Segment18mergeBoundingBoxesERKS_l,
                            __ZN7SegmentC1EPK9CHDrawingl, __ZN7SegmentC1ERKS_,
                            __ZN7SegmentC1ERS_, __ZN7SegmentC1Ev,
                            __ZN7SegmentC2EPK9CHDrawingl, __ZN7SegmentC2ERKS_,
                            __ZN7SegmentC2ERS_, __ZN7SegmentC2Ev,
                            __ZN7SegmentaSERKS_,
                            __ZN9CHCodeMap22serializeCodeMapToFileEP8NSStringS1_,
                            __ZN9CHCodeMapD1Ev, __ZN9CHCodeMapD2Ev,
                            __ZN9CHEllipse10isCoveringE7CGPoint,
                            __ZN9Projector11unitDotProdERKS_,
                            __ZN9Projector16intersectionWithERKS_R7CGPoint,
                            __ZN9Projector7dotProdERKS_,
                            __ZNK11NetworkEdge9serializeEPK7Network,
                            __ZNK13CHLineSegment25intersectionPointWithLineERKS_,
                            __ZNK13CHLineSegment25intersectsWithLineSegmentERKS_,
                            __ZNK13CHLineSegment6getEndEv,
                            __ZNK13CHLineSegment8getStartEv,
                            __ZNK15CHCanvasHeatmap19isHighDensityItemIDEm,
                            __ZNK15CHCanvasHeatmap28computeMinMaxGridCoordinatesERlS0_S0_S0_Rm,
                            __ZNK15CoreHandwriting10InkMapping11composeWithERKS0_,
                            __ZNK15CoreHandwriting10InkMapping19getMappedPointIndexEmm,
                            __ZNK15CoreHandwriting10InkMapping21getStrokePointMappingEm,
                            __ZNK15CoreHandwriting10InkPadding14processInplaceEPNS_3InkEPNS_10InkMappingE,
                            __ZNK15CoreHandwriting12FeatureArray13totalDataSizeEv,
                            __ZNK15CoreHandwriting12FeatureArray7getDataEv,
                            __ZNK15CoreHandwriting14AnchorClipping14processInplaceEPNS_3InkEPNS_10InkMappingE,
                            __ZNK15CoreHandwriting17CHMathBeamDecoder12initialStateEPU28objcproto17MLFeatureProvider11objc_object,
                            __ZNK15CoreHandwriting17CHMathBeamDecoder16applyBeamScorersERNS_25CHEncoderDecoderBeamStateE,
                            __ZNK15CoreHandwriting17CHMathBeamDecoder19getMaxDecodingStepsEi,
                            __ZNK15CoreHandwriting17CHMathBeamDecoder25prepareActiveAlphabetMaskEP23CHEncoderDecoderNetwork,
                            __ZNK15CoreHandwriting17CHMathBeamDecoder6expandERNS_25CHEncoderDecoderBeamStateEiPK12NSDictionaryii,
                            __ZNK15CoreHandwriting17LaTeXSyntaxHelper22checkCompatibleSymbolsEii,
                            __ZNK15CoreHandwriting17SpatialResampling14processInplaceEPNS_3InkEPNS_10InkMappingE,
                            __ZNK15CoreHandwriting19InputCoverageScorer5applyERNS_25CHEncoderDecoderBeamStateEPb,
                            __ZNK15CoreHandwriting19LanguageModelScorer5applyERNS_25CHEncoderDecoderBeamStateEPb,
                            __ZNK15CoreHandwriting19LegacyStrokePadding14processInplaceEPNS_3InkEPNS_10InkMappingE,
                            __ZNK15CoreHandwriting19SimpleStrokePadding14processInplaceEPNS_3InkEPNS_10InkMappingE,
                            __ZNK15CoreHandwriting20PreprocessingManager14processInplaceEPNS_3InkEPNS_10InkMappingE,
                            __ZNK15CoreHandwriting20PreprocessingManager7processERKNS_3InkEPNS_10InkMappingE,
                            __ZNK15CoreHandwriting21CPDAffineRegistration12getTransformEv,
                            __ZNK15CoreHandwriting21CPDAffineRegistration14point_distanceERKNS_6MatrixIdEEmS4_m,
                            __ZNK15CoreHandwriting21DeltaFeatureExtractor7processERKNS_3InkE,
                            __ZNK15CoreHandwriting21LatexSyntaxBeamScorer5applyERNS_25CHEncoderDecoderBeamStateEPb,
                            __ZNK15CoreHandwriting21PenUpFeatureExtractor7processERKNS_3InkE,
                            __ZNK15CoreHandwriting23StrokeDirectionReversal14processInplaceEPNS_3InkEPNS_10InkMappingE,
                            __ZNK15CoreHandwriting25CHEncoderDecoderBeamState24getNormalizedProbabilityEv,
                            __ZNK15CoreHandwriting25CHEncoderDecoderBeamStategtERKS0_,
                            __ZNK15CoreHandwriting25ExpectedStringsBeamScorer10isCurrencyERKNS_25CHEncoderDecoderBeamStateE,
                            __ZNK15CoreHandwriting25ExpectedStringsBeamScorer10isFullUnitERKNS_25CHEncoderDecoderBeamStateE,
                            __ZNK15CoreHandwriting25ExpectedStringsBeamScorer12isUnitPrefixERKNS_25CHEncoderDecoderBeamStateEb,
                            __ZNK15CoreHandwriting25ExpectedStringsBeamScorer19normalizeStringCaseERNS_25CHEncoderDecoderBeamStateEmm,
                            __ZNK15CoreHandwriting25ExpectedStringsBeamScorer20evaluatePrefixStringERNS_25CHEncoderDecoderBeamStateEPb,
                            __ZNK15CoreHandwriting25ExpectedStringsBeamScorer20isCurrencyUnitPrefixERKNS_25CHEncoderDecoderBeamStateE,
                            __ZNK15CoreHandwriting25ExpectedStringsBeamScorer21validStateForFullUnitERKNS_25CHEncoderDecoderBeamStateE,
                            __ZNK15CoreHandwriting25ExpectedStringsBeamScorer22evaluateCompleteStringERNS_25CHEncoderDecoderBeamStateEPb,
                            __ZNK15CoreHandwriting25ExpectedStringsBeamScorer23validStateForUnitPrefixERKNS_25CHEncoderDecoderBeamStateE,
                            __ZNK15CoreHandwriting25ExpectedStringsBeamScorer30evaluateConcatenationOfStringsERNS_25CHEncoderDecoderBeamStateEb,
                            __ZNK15CoreHandwriting25ExpectedStringsBeamScorer31getStringDecodingWithSubscriptsERKNS_25CHEncoderDecoderBeamStateE,
                            __ZNK15CoreHandwriting25ExpectedStringsBeamScorer32checkVariablePrefixWithSubscriptERKNS_25CHEncoderDecoderBeamStateE,
                            __ZNK15CoreHandwriting25ExpectedStringsBeamScorer5applyERNS_25CHEncoderDecoderBeamStateEPb,
                            __ZNK15CoreHandwriting26FeatureExtractionProcessor7processERKNS_3InkE,
                            __ZNK15CoreHandwriting27EndOfStrokeFeatureExtractor7processERKNS_3InkE,
                            __ZNK15CoreHandwriting29DistanceFeatureExtractionStep7processERKNS_3InkE,
                            __ZNK15CoreHandwriting29RamerDouglasPeuckerResampling14processInplaceEPNS_3InkEPNS_10InkMappingE,
                            __ZNK15CoreHandwriting29TrigonometricFeatureExtractor7processERKNS_3InkE,
                            __ZNK15CoreHandwriting31RescaleByAverageCharacterHeight14processInplaceEPNS_3InkEPNS_10InkMappingE,
                            __ZNK15CoreHandwriting31RescaleByAverageCharacterHeight30estimateAverageCharacterHeightERKNS_3InkE,
                            __ZNK15CoreHandwriting31StrokeDirectionFeatureExtractor7processERKNS_3InkE,
                            __ZNK15CoreHandwriting35InkToImageBaseFeatureExtractionStep7processERKNS_3InkE,
                            __ZNK15CoreHandwriting35LeftToRightByCenterStrokeReordering14processInplaceEPNS_3InkEPNS_10InkMappingE,
                            __ZNK15CoreHandwriting38SpatialResamplingToFixedNumberOfPoints14processInplaceEPNS_3InkEPNS_10InkMappingE,
                            __ZNK15CoreHandwriting38SpatialResamplingToFixedNumberOfPoints22calcNumPointsPerStrokeERKNS_3InkEm,
                            __ZNK15CoreHandwriting39InkToImageByHeightFeatureExtractionStep13numDimensionsEv,
                            __ZNK15CoreHandwriting39InkToImageByHeightFeatureExtractionStep21getDimensionsToRenderERKNS_3InkE,
                            __ZNK15CoreHandwriting3Ink10numStrokesEv,
                            __ZNK15CoreHandwriting3Ink25getCumulativeStrokeLengthEv,
                            __ZNK15CoreHandwriting3Ink6boundsEv,
                            __ZNK15CoreHandwriting3Ink9numPointsEv,
                            __ZNK15CoreHandwriting3InkeqERKS0_,
                            __ZNK15CoreHandwriting40RightToLeftByHorizontalOverlapReordering14processInplaceEPNS_3InkEPNS_10InkMappingE,
                            __ZNK15CoreHandwriting43InkToImageByStrokeSizeFeatureExtractionStep13numDimensionsEv,
                            __ZNK15CoreHandwriting43InkToImageByStrokeSizeFeatureExtractionStep21estimateInkSymbolSizeERKNS_3InkE,
                            __ZNK15CoreHandwriting43InkToImageByStrokeSizeFeatureExtractionStep21getDimensionsToRenderERKNS_3InkE,
                            __ZNK15CoreHandwriting9Rescaling14processInplaceEPNS_3InkEPNS_10InkMappingE,
                            __ZNK15CoreHandwriting9synthesis13DDIMScheduler22getForwardCoefficientsEi,
                            __ZNK15CoreHandwriting9synthesis18CHDiffusionSampler6sampleEP19NSMutableDictionaryPKNS0_26AbstractDiffusionSchedulerEPNS0_25CHDiffusionSynthesisModelEU13block_pointerFbvE,
                            __ZNK15CoreHandwriting9synthesis19CHDiffusionPipeline11isSupportedEP8NSString,
                            __ZNK15CoreHandwriting9synthesis19CHDiffusionPipeline15getPreprocessorEm,
                            __ZNK15CoreHandwriting9synthesis19CHDiffusionPipeline17calculateFeaturesEP9CHDrawingP8NSStringii,
                            __ZNK15CoreHandwriting9synthesis19CHDiffusionPipeline18getSegmentedResultEP9CHDrawingP8NSString,
                            __ZNK15CoreHandwriting9synthesis19CHDiffusionPipeline19getFeatureExtractorEv,
                            __ZNK15CoreHandwriting9synthesis19CHDiffusionPipeline20createModelInputDataEP8NSStringP25CHSynthesisRequestOptionsRKNS0_28CHDiffusionPipelineRunConfigE,
                            __ZNK15CoreHandwriting9synthesis19CHDiffusionPipeline21predictStyleEmbeddingEP8NSStringP9CHDrawingU13block_pointerFbvE,
                            __ZNK15CoreHandwriting9synthesis19CHDiffusionPipeline3runEP8NSStringP25CHSynthesisRequestOptionsU13block_pointerFbvERKNS0_28CHDiffusionPipelineRunConfigE,
                            __ZNK15CoreHandwriting9synthesis25CHDiffusionSynthesisModel12encodeStringEP8NSString,
                            __ZNK15CoreHandwriting9synthesis25CHDiffusionSynthesisModel15canEncodeStringEP8NSString,
                            __ZNK15CoreHandwriting9synthesis25CHDiffusionSynthesisModel32getComposerMaskForBeautificationEv,
                            __ZNK15CoreHandwriting9synthesis25CHDiffusionSynthesisModel38getComposerConditionsForBeautificationEv,
                            __ZNK15CoreHandwriting9synthesis26AbstractDiffusionScheduler12getTimestepsEv,
                            __ZNK15CoreHandwriting9synthesis26AbstractDiffusionScheduler12timeStepsEndEf,
                            __ZNK15CoreHandwriting9synthesis26AbstractDiffusionScheduler14timeStepsBeginEf,
                            __ZNK15CoreHandwriting9synthesis26AbstractDiffusionScheduler18getClosestTimeStepEf,
                            __ZNK15CoreHandwriting9synthesis26AbstractDiffusionScheduler24getNumInferenceTimestepsEv,
                            __ZNK15CoreHandwriting9synthesis27DPMSolverMultistepScheduler22getForwardCoefficientsEi,
                            __ZNK15CoreHandwriting9synthesis9fast_path19CHFastPathCharacter20getNormalizedDrawingEfff,
                            __ZNK15CoreHandwriting9synthesis9fast_path28CHFastPathCharacterInventory18lookupInAllHoldersEjNS1_34CHFastPathCharacterHolderStyleTypeE,
                            __ZNK15CoreHandwriting9synthesis9fast_path28CHFastPathCharacterInventory36collectFastPathCharactersFromHoldersEjNS1_34CHFastPathCharacterHolderStyleTypeE,
                            __ZNK15CoreHandwriting9synthesis9fast_path48CHFastPathCharacterInventoryExtensionSuperscript28hasExtensionRulesToCharacterEj,
                            __ZNK15CoreHandwriting9synthesis9fast_path48CHFastPathCharacterInventoryExtensionSuperscript42getCharactersWhichCanBeExtendedToCodepointEj,
                            __ZNK15CoreHandwriting9synthesis9fast_path48CHFastPathCharacterInventoryExtensionSuperscript6extendEjjRKNS1_19CHFastPathCharacterE,
                            __ZNK15CoreHandwriting9synthesis9fast_path52CHFastPathCharacterInventoryExtensionTransliteration28hasExtensionRulesToCharacterEj,
                            __ZNK15CoreHandwriting9synthesis9fast_path52CHFastPathCharacterInventoryExtensionTransliteration42getCharactersWhichCanBeExtendedToCodepointEj,
                            __ZNK15CoreHandwriting9synthesis9fast_path52CHFastPathCharacterInventoryExtensionTransliteration6extendEjjRKNS1_19CHFastPathCharacterE,
                            __ZNK15CoreHandwriting9synthesis9fast_path70CHFastPathCharacterPersonalizerWithSuffixForInitAndForDigitsVariations20proceedRequestResultERKNS1_35CHFastPathCharacterSynthesisRequestEP17CHSynthesisResult,
                            __ZNK15CoreHandwriting9synthesis9fast_path70CHFastPathCharacterPersonalizerWithSuffixForInitAndForDigitsVariations33getCharactersRequestsToSynthesizeEb,
                            __ZNK15CoreHandwriting9synthesis9fast_path80CHFastPathCharacterPersonalizerWithSuffixForInitAndRefinementForDigitsVariations20proceedRequestResultERKNS1_35CHFastPathCharacterSynthesisRequestEP17CHSynthesisResult,
                            __ZNK15CoreHandwriting9synthesis9fast_path80CHFastPathCharacterPersonalizerWithSuffixForInitAndRefinementForDigitsVariations33getCharactersRequestsToSynthesizeEb,
                            __ZNK16CHDrawingStrokes10pathLengthEl,
                            __ZNK16CHDrawingStrokes10pathLengthEv,
                            __ZNK16CHDrawingStrokes13computeCenterEv,
                            __ZNK16CHDrawingStrokes14totalNumPointsEv,
                            __ZNK16CHDrawingStrokes27resampleStrokesEqualInSpaceERS_f,
                            __ZNK16CHDrawingStrokes27resampleStrokesEqualInSpaceERS_fl,
                            __ZNK16CHDrawingStrokes48resampleStrokesWithCatmullRomSplineInterpolationERS_f,
                            __ZNK21CHFastGroupingCluster15getAnchorPointsEv,
                            __ZNK21CHFastGroupingCluster16getStrokeIndexesEv,
                            __ZNK21CHFastGroupingCluster20getDistanceToClusterERKS_24CHGroupingDistanceMetric32CHAgglomerativeClusteringLinkage,
                            __ZNK21CHFastGroupingCluster20getGlobalAnchorPointEv,
                            __ZNK21CHFastGroupingCluster6isRootEv,
                            __ZNK22CHFastGroupingClusters11getClustersEv,
                            __ZNK22CHFastGroupingClusters15getClusterCountEv,
                            __ZNK22CHFastGroupingClusters24getClosestClusterIndexesEv,
                            __ZNK22CHFastGroupingClusters25getClosestClusterDistanceEv,
                            __ZNK7Network13pathsCoincideE11LatticePathS0_,
                            __ZNK7Network24getTotalNumberOfSegmentsEmm,
                            __ZNK7Segment11sameSegmentERKS_i,
                            __ZNK7Segment15verticalOverlapERKS_,
                            __ZNK7Segment16findIntersectionERKS_,
                            __ZNK7Segment17horizontalOverlapERKS_i,
                            __ZNK7Segment17verticalSeperatedERKS_,
                            __ZNK9CHCodeMapixEm, __ZTI12CHBezierLine,
                            __ZTI14CHStraightLine, __ZTI18RectangleRegressor,
                            __ZTIN15CoreHandwriting10InkPaddingE,
                            __ZTIN15CoreHandwriting14AnchorClippingE,
                            __ZTIN15CoreHandwriting17SpatialResamplingE,
                            __ZTIN15CoreHandwriting19InputCoverageScorerE,
                            __ZTIN15CoreHandwriting19LanguageModelScorerE,
                            __ZTIN15CoreHandwriting19LegacyStrokePaddingE,
                            __ZTIN15CoreHandwriting19SimpleStrokePaddingE,
                            __ZTIN15CoreHandwriting21DeltaFeatureExtractorE,
                            __ZTIN15CoreHandwriting21LatexSyntaxBeamScorerE,
                            __ZTIN15CoreHandwriting21PenUpFeatureExtractorE,
                            __ZTIN15CoreHandwriting23StrokeDirectionReversalE,
                            __ZTIN15CoreHandwriting25ExpectedStringsBeamScorerE,
                            __ZTIN15CoreHandwriting27EndOfStrokeFeatureExtractorE,
                            __ZTIN15CoreHandwriting29DistanceFeatureExtractionStepE,
                            __ZTIN15CoreHandwriting29RamerDouglasPeuckerResamplingE,
                            __ZTIN15CoreHandwriting29TrigonometricFeatureExtractorE,
                            __ZTIN15CoreHandwriting31RescaleByAverageCharacterHeightE,
                            __ZTIN15CoreHandwriting31StrokeDirectionFeatureExtractorE,
                            __ZTIN15CoreHandwriting35InkToImageBaseFeatureExtractionStepE,
                            __ZTIN15CoreHandwriting35LeftToRightByCenterStrokeReorderingE,
                            __ZTIN15CoreHandwriting38SpatialResamplingToFixedNumberOfPointsE,
                            __ZTIN15CoreHandwriting39InkToImageByHeightFeatureExtractionStepE,
                            __ZTIN15CoreHandwriting40RightToLeftByHorizontalOverlapReorderingE,
                            __ZTIN15CoreHandwriting43InkToImageByStrokeSizeFeatureExtractionStepE,
                            __ZTIN15CoreHandwriting9RescalingE,
                            __ZTIN15CoreHandwriting9synthesis13DDIMSchedulerE,
                            __ZTIN15CoreHandwriting9synthesis26AbstractDiffusionSchedulerE,
                            __ZTIN15CoreHandwriting9synthesis27DPMSolverMultistepSchedulerE,
                            __ZTIN15CoreHandwriting9synthesis9fast_path30CHFastPathCharacterHolderLZFSEE,
                            __ZTIN15CoreHandwriting9synthesis9fast_path35CHFastPathCharacterHolderAppleStyleE,
                            __ZTIN15CoreHandwriting9synthesis9fast_path39CHFastPathCharacterHolderStyleInventoryE,
                            __ZTIN15CoreHandwriting9synthesis9fast_path48CHFastPathCharacterInventoryExtensionSuperscriptE,
                            __ZTIN15CoreHandwriting9synthesis9fast_path52CHFastPathCharacterInventoryExtensionTransliterationE,
                            __ZTIN15CoreHandwriting9synthesis9fast_path65CHFastPathStitchingStrategyRandomCharacterRepresentationPerSampleE,
                            __ZTIN15CoreHandwriting9synthesis9fast_path70CHFastPathCharacterPersonalizerWithSuffixForInitAndForDigitsVariationsE,
                            __ZTIN15CoreHandwriting9synthesis9fast_path80CHFastPathCharacterPersonalizerWithSuffixForInitAndRefinementForDigitsVariationsE,
                            __ZTS12CHBezierLine, __ZTS14CHStraightLine,
                            __ZTS18RectangleRegressor,
                            __ZTSN15CoreHandwriting10InkPaddingE,
                            __ZTSN15CoreHandwriting14AnchorClippingE,
                            __ZTSN15CoreHandwriting17SpatialResamplingE,
                            __ZTSN15CoreHandwriting19InputCoverageScorerE,
                            __ZTSN15CoreHandwriting19LanguageModelScorerE,
                            __ZTSN15CoreHandwriting19LegacyStrokePaddingE,
                            __ZTSN15CoreHandwriting19SimpleStrokePaddingE,
                            __ZTSN15CoreHandwriting21DeltaFeatureExtractorE,
                            __ZTSN15CoreHandwriting21LatexSyntaxBeamScorerE,
                            __ZTSN15CoreHandwriting21PenUpFeatureExtractorE,
                            __ZTSN15CoreHandwriting23StrokeDirectionReversalE,
                            __ZTSN15CoreHandwriting25ExpectedStringsBeamScorerE,
                            __ZTSN15CoreHandwriting27EndOfStrokeFeatureExtractorE,
                            __ZTSN15CoreHandwriting29DistanceFeatureExtractionStepE,
                            __ZTSN15CoreHandwriting29RamerDouglasPeuckerResamplingE,
                            __ZTSN15CoreHandwriting29TrigonometricFeatureExtractorE,
                            __ZTSN15CoreHandwriting31RescaleByAverageCharacterHeightE,
                            __ZTSN15CoreHandwriting31StrokeDirectionFeatureExtractorE,
                            __ZTSN15CoreHandwriting35InkToImageBaseFeatureExtractionStepE,
                            __ZTSN15CoreHandwriting35LeftToRightByCenterStrokeReorderingE,
                            __ZTSN15CoreHandwriting38SpatialResamplingToFixedNumberOfPointsE,
                            __ZTSN15CoreHandwriting39InkToImageByHeightFeatureExtractionStepE,
                            __ZTSN15CoreHandwriting40RightToLeftByHorizontalOverlapReorderingE,
                            __ZTSN15CoreHandwriting43InkToImageByStrokeSizeFeatureExtractionStepE,
                            __ZTSN15CoreHandwriting9RescalingE,
                            __ZTSN15CoreHandwriting9synthesis13DDIMSchedulerE,
                            __ZTSN15CoreHandwriting9synthesis26AbstractDiffusionSchedulerE,
                            __ZTSN15CoreHandwriting9synthesis27DPMSolverMultistepSchedulerE,
                            __ZTSN15CoreHandwriting9synthesis9fast_path30CHFastPathCharacterHolderLZFSEE,
                            __ZTSN15CoreHandwriting9synthesis9fast_path35CHFastPathCharacterHolderAppleStyleE,
                            __ZTSN15CoreHandwriting9synthesis9fast_path39CHFastPathCharacterHolderStyleInventoryE,
                            __ZTSN15CoreHandwriting9synthesis9fast_path48CHFastPathCharacterInventoryExtensionSuperscriptE,
                            __ZTSN15CoreHandwriting9synthesis9fast_path52CHFastPathCharacterInventoryExtensionTransliterationE,
                            __ZTSN15CoreHandwriting9synthesis9fast_path65CHFastPathStitchingStrategyRandomCharacterRepresentationPerSampleE,
                            __ZTSN15CoreHandwriting9synthesis9fast_path70CHFastPathCharacterPersonalizerWithSuffixForInitAndForDigitsVariationsE,
                            __ZTSN15CoreHandwriting9synthesis9fast_path80CHFastPathCharacterPersonalizerWithSuffixForInitAndRefinementForDigitsVariationsE,
                            __ZTV12CHBezierLine, __ZTV14CHStraightLine,
                            __ZTV18RectangleRegressor,
                            __ZTVN15CoreHandwriting10InkPaddingE,
                            __ZTVN15CoreHandwriting14AnchorClippingE,
                            __ZTVN15CoreHandwriting17SpatialResamplingE,
                            __ZTVN15CoreHandwriting19InputCoverageScorerE,
                            __ZTVN15CoreHandwriting19LanguageModelScorerE,
                            __ZTVN15CoreHandwriting19LegacyStrokePaddingE,
                            __ZTVN15CoreHandwriting19SimpleStrokePaddingE,
                            __ZTVN15CoreHandwriting21DeltaFeatureExtractorE,
                            __ZTVN15CoreHandwriting21LatexSyntaxBeamScorerE,
                            __ZTVN15CoreHandwriting21PenUpFeatureExtractorE,
                            __ZTVN15CoreHandwriting23StrokeDirectionReversalE,
                            __ZTVN15CoreHandwriting25ExpectedStringsBeamScorerE,
                            __ZTVN15CoreHandwriting27EndOfStrokeFeatureExtractorE,
                            __ZTVN15CoreHandwriting29DistanceFeatureExtractionStepE,
                            __ZTVN15CoreHandwriting29RamerDouglasPeuckerResamplingE,
                            __ZTVN15CoreHandwriting29TrigonometricFeatureExtractorE,
                            __ZTVN15CoreHandwriting31RescaleByAverageCharacterHeightE,
                            __ZTVN15CoreHandwriting31StrokeDirectionFeatureExtractorE,
                            __ZTVN15CoreHandwriting35InkToImageBaseFeatureExtractionStepE,
                            __ZTVN15CoreHandwriting35LeftToRightByCenterStrokeReorderingE,
                            __ZTVN15CoreHandwriting38SpatialResamplingToFixedNumberOfPointsE,
                            __ZTVN15CoreHandwriting39InkToImageByHeightFeatureExtractionStepE,
                            __ZTVN15CoreHandwriting40RightToLeftByHorizontalOverlapReorderingE,
                            __ZTVN15CoreHandwriting43InkToImageByStrokeSizeFeatureExtractionStepE,
                            __ZTVN15CoreHandwriting9RescalingE,
                            __ZTVN15CoreHandwriting9synthesis13DDIMSchedulerE,
                            __ZTVN15CoreHandwriting9synthesis26AbstractDiffusionSchedulerE,
                            __ZTVN15CoreHandwriting9synthesis27DPMSolverMultistepSchedulerE,
                            __ZTVN15CoreHandwriting9synthesis9fast_path30CHFastPathCharacterHolderLZFSEE,
                            __ZTVN15CoreHandwriting9synthesis9fast_path35CHFastPathCharacterHolderAppleStyleE,
                            __ZTVN15CoreHandwriting9synthesis9fast_path39CHFastPathCharacterHolderStyleInventoryE,
                            __ZTVN15CoreHandwriting9synthesis9fast_path48CHFastPathCharacterInventoryExtensionSuperscriptE,
                            __ZTVN15CoreHandwriting9synthesis9fast_path52CHFastPathCharacterInventoryExtensionTransliterationE,
                            __ZTVN15CoreHandwriting9synthesis9fast_path65CHFastPathStitchingStrategyRandomCharacterRepresentationPerSampleE,
                            __ZTVN15CoreHandwriting9synthesis9fast_path70CHFastPathCharacterPersonalizerWithSuffixForInitAndForDigitsVariationsE,
                            __ZTVN15CoreHandwriting9synthesis9fast_path80CHFastPathCharacterPersonalizerWithSuffixForInitAndRefinementForDigitsVariationsE,
                            __Zeq11NodePairPtrS_, __Zeq14LatticePathPtrS_,
                            __ZeqRK12TokenPathPtrS1_, __Zge11NodePairPtrS_,
                            __Zge14LatticePathPtrS_, __Zgt11NodePairPtrS_,
                            __Zgt14LatticePathPtrS_, __Zle11NodePairPtrS_,
                            __Zle14LatticePathPtrS_, __Zlt11NodePairPtrS_,
                            __Zlt14LatticePathPtrS_, __ZltRK12TokenPathPtrS1_,
                            _kArchiveEncodedStrokeIdentifierKey,
                            _kCHRequestOptionContributeToStyle, _kDataHashLength,
                            _kDefaultInterSectionTimeInterval,
                            _kDefaultInterStrokeInterval,
                            _kDefaultPointSamplingRate, _kInfinity,
                            _kMaxAcceptableTitleRejectionRate,
                            _kMinAcceptableMathTitleScore, _kNoEdgeIndex,
                            _kNoNodeID, _kRootNode ]
    objc-classes:         [ CHActivationMatrix, CHAutoRefineQuery,
                            CHAutoRefineQueryItem,
                            CHBottomUpStrokeGroupingResult,
                            CHBottomUpStrokeGroupingStrategy,
                            CHBoxcarFilterPointFIFO, CHBracketsMatchingStep,
                            CHCTCRecognitionModel, CHCTLD, CHCalculateWrapper,
                            CHCandidateRefinementStep, CHCharacterSetRules,
                            CHChatBubbleRecognitionResult, CHClassifiableDrawing,
                            CHCleanUpSpacesStep,
                            CHClientCalculateDocumentProvider,
                            CHClientDataSource, CHClientStroke,
                            CHClientStrokeProvider, CHCloudRecognitionResult,
                            CHCombineAlternativesStep, CHContextLookupQuery,
                            CHContextualCharacterTransliteration,
                            CHContextualTextResult, CHContextualTextResults,
                            CHCornerDetector, CHCutPoint,
                            CHCyrillicAddAlternativeScriptCandidatesStep,
                            CHCyrillicRecoverConfusableWordsStep,
                            CHDataDetectorQuery, CHDataDetectorQueryItem,
                            CHDecodeMathFunctionStep,
                            CHDecorateSpecialSymbolsStep, CHDiffusionModelE5ML,
                            CHDiffusionModelE5MLExecutionContext,
                            CHDiffusionTextSynthesizer, CHDotTransliterationStep,
                            CHDrawing, CHDrawingContext, CHDrawingSegmentGroup,
                            CHE5MLExecutionContext, CHE5MLModel,
                            CHE5MLProgramLibrary, CHE5MLUtilities,
                            CHEllipseRecognitionResult,
                            CHEncodedStrokeIdentifier, CHEncoderDecoderNetwork,
                            CHFastPathCharacterPersonalizerInterface,
                            CHFastPathTextSynthesizer,
                            CHFastStrokeGroupingStrategy,
                            CHFreeformRecognitionResult, CHGrammar,
                            CHGroupBoundsVisualization,
                            CHGroupOversegmentationMergingStep,
                            CHGroupingAndRecognitionResults, CHGroupingModel,
                            CHGroupingPostProcessingManager,
                            CHGroupingPostprocessingStep,
                            CHHeartRecognitionResult,
                            CHHorizontalUndersegmentationSplittingStep,
                            CHIdentifyLowAlignmentConfidenceColumnsStep,
                            CHIndexableContentQuery,
                            CHInputContextLexiconManager,
                            CHInsertPrecedingSpaceForUnitsStep,
                            CHJapaneseTokenizationAndConversionStep,
                            CHLanguageUtilities, CHLatexParseTree, CHLatexParser,
                            CHLexiconCorrectionStep,
                            CHLineSketchRecognitionResult, CHLineWrappableGroup,
                            CHLineWrappableLine, CHLineWrapper,
                            CHLineWrappingResult, CHManagedConfigurations,
                            CHManhattanLineSketchRecognitionResult,
                            CHMarkNoWhiteSpaceColumnsChangeableStep,
                            CHMathPostProcessingManager,
                            CHMathPostprocessingStep, CHMathRecognizer,
                            CHMathResultWithContext,
                            CHMathStrokeGroupingStrategy, CHMathUtilities,
                            CHMecabraWrapper, CHMergeColumnsStep,
                            CHMergedStrokeGroupingResults, CHModelCatalog,
                            CHMultiLocaleResultProcessor,
                            CHMultiWordOVSFilteringStep,
                            CHMutableNonTextCandidateStroke,
                            CHMutableStrokeClassificationResult,
                            CHMutableTextInputTargetContentInfo,
                            CHMutableTokenizedMathResultToken,
                            CHMutableTokenizedResultColumn,
                            CHMutableTokenizedTextResult,
                            CHMutableTokenizedTextResultToken, CHNonTerminal,
                            CHNonTextCandidateStroke,
                            CHNormalizedDrawingAllVisualization,
                            CHNormalizedDrawingVisualization,
                            CHNumberFieldResultReorderingStep,
                            CHOpeningClosingCharacterMatchingStep,
                            CHOrderedStrokeGroup,
                            CHOutlinedArrowSketchRecognitionResult, CHParseTable,
                            CHParseTableCell, CHParseTree, CHParseTreeNode,
                            CHPatternNetwork, CHPentagonRecognitionResult,
                            CHPointFIFO, CHPointStrokeFIFO, CHPolygon,
                            CHPostProcessingManager, CHPostprocessingStep,
                            CHPostprocessingStepModifyingOriginalTokens,
                            CHPowerLogger, CHPrefixQuery, CHPrefixQueryItem,
                            CHPreserveOriginalRecognitionStep,
                            CHPrincipalLinesVisualization, CHProductionRule,
                            CHPromoteInLexiconCandidatesStep,
                            CHPruneCandidatesComparingColumnScoresStep,
                            CHPutOriginalRecognitionResultFirstStep,
                            CHQuadCurvePointFIFO, CHQuery, CHRecognitionInsight,
                            CHRecognitionInsightRequest, CHRecognitionResult,
                            CHRecognitionSession,
                            CHRecognitionSessionAutoRefineResult,
                            CHRecognitionSessionIndexableContent,
                            CHRecognitionSessionResult, CHRecognitionSessionTask,
                            CHRecognitionSessionTextInputTask,
                            CHRecognitionSessionVersion, CHRecognizer,
                            CHRecognizerConfiguration,
                            CHRecognizerInferenceCache, CHRecognizerOptions,
                            CHRecognizerResultCache,
                            CHRectangleSketchRecognitionResult,
                            CHRecurrentNeuralNetwork,
                            CHRecurrentNeuralNetworkCoreML, CHReflowQuery,
                            CHReflowableSynthesisResultToken,
                            CHReflowableTextLine, CHReflowableTextResultToken,
                            CHReflowableTextToken, CHRemoteInventoryRequest,
                            CHRemoteLineWrapper, CHRemoteLineWrappingRequest,
                            CHRemoteMathRecognizer, CHRemotePowerLogger,
                            CHRemotePowerLoggingInferenceRequest,
                            CHRemotePowerLoggingLoadingRequest,
                            CHRemotePowerLoggingRequest,
                            CHRemotePowerLoggingUnloadingRequest,
                            CHRemoteRecognitionMathRequest,
                            CHRemoteRecognitionRequest,
                            CHRemoteRecognitionSketchRequest,
                            CHRemoteRecognitionTextRequest, CHRemoteRecognizer,
                            CHRemoteSketchRecognizer, CHRemoteSynthesisRequest,
                            CHRemoteTextRecognizer, CHRemoteTextSynthesizer,
                            CHRemoveIdenticalCandidatesStep,
                            CHRemoveInvalidArabicDiacriticsStep,
                            CHRemoveInvalidExpressionCandidatesStep,
                            CHRemoveInvalidSegmentationCandidatesStep,
                            CHRemoveInvalidStringCandidatesStep,
                            CHRemoveSpacesFromEnglishAndKoreanParticlesStep,
                            CHRemoveSpacesFromHashtagsAndMentionsStep,
                            CHRemoveSpacesFromSpecialFieldsStep,
                            CHRemoveSpacesFromStrongURLsAndEmailsStep,
                            CHRemoveSpacingAlternativesStep,
                            CHRemoveSubscriptFromVariableStep,
                            CHRemoveVariableCasingAlternativesStep,
                            CHReorderSCTCConfusionStep,
                            CHResultRenderingAllVisualization,
                            CHResultRenderingVisualization, CHResultWithContext,
                            CHScratchOutRecognitionResult,
                            CHScribbleRecognitionResult,
                            CHScriptClassificationRawResult, CHSearchQuery,
                            CHSearchQueryItem, CHSegmentDescriptor,
                            CHSemanticTokenizerStep, CHSessionStateCounter,
                            CHSessionStateTracker, CHSingletonMLModel,
                            CHSketchRecognitionResult, CHSketchRecognizer,
                            CHSpellChecker, CHSpellCheckerErrorModel,
                            CHSpellCorrectionCandidatesStep,
                            CHStarRecognitionResult, CHStringOVSChecker,
                            CHStrokeClassificationModel,
                            CHStrokeClassificationResult,
                            CHStrokeClassificationResultDifference,
                            CHStrokeClassifier, CHStrokeClutterFilter,
                            CHStrokeFastGroupingResult, CHStrokeGroup,
                            CHStrokeGroupBasedVisualization,
                            CHStrokeGroupBaselineLegacyVisualization,
                            CHStrokeGroupBaselineVisualization,
                            CHStrokeGroupClassificationVisualization,
                            CHStrokeGroupQuery, CHStrokeGroupQueryItem,
                            CHStrokeGroupRecognitionResult,
                            CHStrokeGroupTextCorrectionResult,
                            CHStrokeGroupingManager, CHStrokeGroupingResult,
                            CHStrokeGroupingStrategy,
                            CHStrokeGroupingVisualization,
                            CHStrokePointsVisualization, CHStrokeUtilities,
                            CHStrokeVisualization, CHStyleEncoderModelE5ML,
                            CHStyleEncoderModelE5MLExecutionContext, CHSubstroke,
                            CHSubstrokeBoundsVisualization, CHSubstrokePlacement,
                            CHSynthesisContractViolation,
                            CHSynthesisRequestOptions, CHSynthesisResult,
                            CHSynthesisStyleInventory,
                            CHSynthesisStyleInventoryStatus,
                            CHSynthesisStyleSample, CHTerminal,
                            CHTextCheckingQuery, CHTextCheckingQueryItem,
                            CHTextCorrectionRecognizer, CHTextCorrectionResult,
                            CHTextFieldTypeSwitchStep, CHTextInputGesture,
                            CHTextInputInsertionCaretGesture,
                            CHTextInputProtoSettings, CHTextInputQuery,
                            CHTextInputQueryItem, CHTextInputScriptSpec,
                            CHTextInputTarget, CHTextInputTargetContentInfo,
                            CHTextLineStrokeGroup, CHTextRecognitionResult,
                            CHTextSize, CHTextStrokeTransformationQuery,
                            CHTextSynthesisQuery, CHTextSynthesizer,
                            CHTextSynthesizerDataChunk,
                            CHTextSynthesizerWithLocaleFallback,
                            CHTextToMathResultTransformationStep,
                            CHTextTransformationManager, CHTimeWindowStrokeGroup,
                            CHTimeWindowStrokeGroupingStrategy, CHTitleQuery,
                            CHTokenizedMathResult, CHTokenizedMathResultToken,
                            CHTokenizedResult, CHTokenizedResultColumn,
                            CHTokenizedResultToken, CHTokenizedStrokeResult,
                            CHTokenizedTextResult, CHTokenizedTextResultToken,
                            CHTopDownStrokeGroupingStrategy,
                            CHTopDownStrokeSplit, CHTranscriptionQuery,
                            CHTransformationParameters, CHTransformedTextLine,
                            CHTransformedTextSegment,
                            CHTransliterateChineseJapaneseStep,
                            CHTransliterateConfusableCharactersArabicStep,
                            CHTransliterateConfusableCharactersStep,
                            CHTransliterateExponentsStep,
                            CHTransliterateHalfWidthPunctuationStep,
                            CHTransliterateIsolatedConfusableCharactersStep,
                            CHTriangleRecognitionResult,
                            CHUpdateTokenPropertyForUnitConversionStep,
                            CHUpdateTokenPropertyForVariableAssignmentStep,
                            CHVerticalMathLinkingStep,
                            CHVerticalUndersegmentationSplittingStep,
                            CHVisualToLogicalTransformStep, CHVisualization,
                            CHVisualizationManager, NetworkCursor ]
    objc-ivars:           [ CHBracketsMatchingStep._bracketSymbols,
                            CHBracketsMatchingStep.latexHelper,
                            CHDecodeMathFunctionStep._decoratedFunctions,
                            CHDecodeMathFunctionStep._mathFunctionNameMapping,
                            CHDecodeMathFunctionStep._stemFunctionMappings,
                            CHDecorateSpecialSymbolsStep._symbols,
                            CHGroupOversegmentationMergingStep._unitConversionPostProcessor,
                            CHGroupOversegmentationMergingStep._variableAssignmentPostProcessor,
                            CHGroupingAndRecognitionResults._intermediateCachedRecognitionResults,
                            CHGroupingAndRecognitionResults._refreshedCachedResultsFromPostProcessing,
                            CHHorizontalUndersegmentationSplittingStep._additionalMathRecognitionBlock,
                            CHMutableTokenizedMathResultToken._bounds,
                            CHMutableTokenizedMathResultToken._string,
                            CHMutableTokenizedMathResultToken._strokeIndexes,
                            CHMutableTokenizedTextResultToken._bounds,
                            CHMutableTokenizedTextResultToken._string,
                            CHMutableTokenizedTextResultToken._strokeIndexes,
                            CHNonTextCandidateStroke._fallbackClassification,
                            CHNonTextCandidateStroke._sizeRatioByStrokeIdentifier,
                            CHNonTextCandidateStroke._support,
                            CHNonTextCandidateStroke._supportByStrokeIdentifier,
                            CHRemoteLineWrapper._connection,
                            CHRemoteLineWrapper._enableCachingIfAvailable,
                            CHRemotePowerLogger.__connection,
                            CHRemoteRecognizer.__connection,
                            CHRemoteSketchRecognizer.__connection,
                            CHRemoteTextSynthesizer.__connection,
                            CHRemoveInvalidExpressionCandidatesStep._latexSyntaxHelper,
                            CHSearchQueryItem._strokeBoundsByIdentifier,
                            CHSessionStateTracker.__connection,
                            CHSessionStateTracker._state,
                            CHTextInputTargetContentInfo._activePreviewRange,
                            CHTextInputTargetContentInfo._autoCapitalizationMode,
                            CHTextInputTargetContentInfo._autoCorrectionMode,
                            CHTextInputTargetContentInfo._baseWritingDirection,
                            CHTextInputTargetContentInfo._characterRectsInReferenceSubstring,
                            CHTextInputTargetContentInfo._containsCommittedStrokes,
                            CHTextInputTargetContentInfo._contentType,
                            CHTextInputTargetContentInfo._isCursorStrong,
                            CHTextInputTargetContentInfo._isSingleLine,
                            CHTextInputTargetContentInfo._lastCharacterLevelPosition,
                            CHTextInputTargetContentInfo._protectedCharacterIndexes,
                            CHTextInputTargetContentInfo._referenceSubstring,
                            CHTextInputTargetContentInfo._referenceSubstringRange,
                            CHTextInputTargetContentInfo._selectedTextRange,
                            CHTextInputTargetContentInfo._strokeCoveredTextRange,
                            CHTextInputTargetContentInfo._supportsAutoLineBreaks,
                            CHTextInputTargetContentInfo._textContentLength,
                            CHTextInputTargetContentInfo._textInputTarget,
                            CHTextToMathResultTransformationStep._additionalMathRecognitionBlock,
                            CHTextToMathResultTransformationStep._numericalSymbols,
                            CHTextToMathResultTransformationStep._textToMathTransliterations,
                            CHTokenizedMathResult._baseCharacterHeight,
                            CHTokenizedMathResult._correctedLatex,
                            CHTokenizedMathResult._declaredVariablesWhileRecognized,
                            CHTokenizedMathResult._didAttemptParsing,
                            CHTokenizedMathResult._parseTree,
                            CHTokenizedMathResult._selectedTranscriptionPathIndex,
                            CHTokenizedMathResult._tokenColumns,
                            CHTokenizedMathResultToken._maskedAlternative,
                            CHTokenizedMathResultToken._maskedAlternativeScore,
                            CHTokenizedMathResultToken._properties,
                            CHTokenizedMathResultToken._score,
                            CHTokenizedResultColumn._tokenRows,
                            CHTokenizedResultToken._bounds,
                            CHTokenizedResultToken._string,
                            CHTokenizedResultToken._strokeIndexes,
                            CHTokenizedTextResult._baseWritingDirection,
                            CHTokenizedTextResult._changeableCount,
                            CHTokenizedTextResult._inputStrokeIdentifiers,
                            CHTokenizedTextResult._locale,
                            CHTokenizedTextResult._precedingLineBreaks,
                            CHTokenizedTextResult._recognizerGenerationIdentifier,
                            CHTokenizedTextResult._tokenColumns,
                            CHTokenizedTextResult._transcriptionPathScores,
                            CHTokenizedTextResult._transcriptionPaths,
                            CHTokenizedTextResultToken._alignmentScore,
                            CHTokenizedTextResultToken._combinedScore,
                            CHTokenizedTextResultToken._inputSources,
                            CHTokenizedTextResultToken._modelScore,
                            CHTokenizedTextResultToken._originalBounds,
                            CHTokenizedTextResultToken._principalLines,
                            CHTokenizedTextResultToken._properties,
                            CHTokenizedTextResultToken._recognitionScore,
                            CHTokenizedTextResultToken._recognizerSourceLocale,
                            CHTokenizedTextResultToken._substrokeCount,
                            CHTokenizedTextResultToken._wordID,
                            CHTransliterateExponentsStep._exponentTransliterations,
                            CHTransliterateExponentsStep._tokenPropertiesHelper ]
    weak-def-symbols:     [ __ZGVZNK15CoreRecognition7decoder17LexiconBeamScorerINS0_12LexiconStateEE11expandStateEPKS2_mPS2_mE16CONTEXT_LOG_PROB,
                            __ZGVZNK15CoreRecognition7decoder17LexiconBeamScorerINS0_12LexiconStateEE11expandStateEPKS2_mPS2_mE17WORD_MIN_LOG_PROB,
                            __ZN15CoreHandwriting9synthesis19CHDiffusionPipeline13REFINE_CONFIGE,
                            __ZN15CoreHandwriting9synthesis19CHDiffusionPipeline14DEFAULT_CONFIGE,
                            __ZZNK15CoreRecognition7decoder17LexiconBeamScorerINS0_12LexiconStateEE11expandStateEPKS2_mPS2_mE16CONTEXT_LOG_PROB,
                            __ZZNK15CoreRecognition7decoder17LexiconBeamScorerINS0_12LexiconStateEE11expandStateEPKS2_mPS2_mE17WORD_MIN_LOG_PROB ]
...
