--- !tapi-tbd-v3
archs:                 [ armv7, armv7s, arm64, arm64e ]
platform:              ios
flags:                 [ flat_namespace ]
install-name:          /System/Library/TextInput/TextInput_fr.bundle/TextInput_fr
current-version:       1
compatibility-version: 1
objc-constraint:       retain_release
exports:
  - archs:                [ armv7, armv7s, arm64, arm64e ]
    symbols:              [ __ZN2KB18CandidateFilter_fr20do_filter_candidatesERNSt3__16vectorINS_9CandidateENS1_9allocatorIS3_EEEERKS3_RKNS1_8functionIFNS_10ByteStringERKNS_6StringEEEEP10__CFString,
                            __ZN2KB29InputManagerSpecialization_frC1EPK10__CFLocaleRKNS_6StringE,
                            __ZN2KB29InputManagerSpecialization_frC2EPK10__CFLocaleRKNS_6StringE,
                            __ZNK2KB29InputManagerSpecialization_fr27create_input_segment_filterEN3WTF10PassRefPtrIN2TI8Favonius14KeyboardLayoutEEE,
                            __ZTVN2KB18CandidateFilter_frE,
                            __ZTVN2KB29InputManagerSpecialization_frE ]
    objc-classes:         [ TIKeyboardFeatureSpecialization_fr ]
undefineds:
  - archs:                [ armv7, armv7s, arm64, arm64e ]
    symbols:              [ _CFRelease, _TILexiconIDForLocaleIdentifier,
                            __NSConcreteGlobalBlock, __NSConcreteStackBlock,
                            __ZN14TIInputManager36set_candidate_quality_filter_factoryEU13block_pointerFNSt3__110shared_ptrI19TICandQualityFilterEERKN2KB19CandidateCollectionENS4_10LookupTypeEE,
                            __ZN14TIInputManagerC1Ev,
                            __ZN19TICandQualityFilter17set_custom_filterERKNSt3__110shared_ptrIN2KB15CandidateFilterEEE,
                            __ZN19TICandQualityFilter37set_word_medial_punctuation_predicateEU13block_pointerFbjE,
                            __ZN27TIFavoniusCandQualityFilter6createERKN2KB19CandidateCollectionENS0_10LookupTypeERKNSt3__110shared_ptrINS0_25CandidateFilterParametersEEEPK10__CFLocaleb,
                            __ZN2KB10ByteStringaSEOS0_,
                            __ZN2KB11utf8_stringEP8NSString,
                            __ZN2KB13append_formatEP10__CFStringPKcz,
                            __ZN2KB18compose_diacriticsERKNS_6StringEPK4USet,
                            __ZN2KB20decompose_diacriticsERKNS_6StringERKNSt3__16vectorIjNS3_9allocatorIjEEEEPK4USet,
                            __ZN2KB25CandidateFilterParametersC1EPK10__CFLocaleNS_10LookupTypeEb,
                            __ZN2KB26InputManagerSpecializationC2EPK10__CFLocale,
                            __ZN2KB26InputManagerSpecializationD2Ev,
                            __ZN2KB36character_is_word_medial_punctuationEj,
                            __ZN2KB6String8iterator10initializeEv,
                            __ZN2KB6String8iteratorppEv, __ZN2KB6StringC1ERKS0_,
                            __ZN2KB6StringD1Ev, __ZN2KB6StringaSEOS0_,
                            __ZN2KB9CandidateD1Ev,
                            __ZN2KB9ns_stringERKNS_6StringE,
                            __ZNK14TIInputManager15favonius_layoutEv,
                            __ZNK2KB18InputSegmentFilter19allows_substitutionEjjPb,
                            __ZNK2KB18InputSegmentFilter20character_is_digraphEj,
                            __ZNK2KB18InputSegmentFilter28allows_composed_substitutionEjjj,
                            __ZNK2KB18InputSegmentFilter28character_is_letter_modifierEj,
                            __ZNK2KB18InputSegmentFilter28word_is_acceptable_for_inputERNS_4WordERKNS_6StringE,
                            __ZNK2KB18InputSegmentFilter39letter_combines_with_selective_modifierEjj,
                            __ZNK2KB18InputSegmentFilter41character_is_precomposed_diacritic_letterEj,
                            __ZNK2KB6String5countEj,
                            __ZNK2KB9Candidate18capitalized_stringEv,
                            __ZNK2KB9Candidate6stringEv,
                            __ZNK2TI8Favonius14KeyboardLayout12key_for_charEj,
                            __ZNKSt3__119__shared_weak_count13__get_deleterERKSt9type_info,
                            __ZNSt3__119__shared_weak_count14__release_weakEv,
                            __ZNSt3__119__shared_weak_countD2Ev,
                            __ZTVN2KB27AccentKeyInputSegmentFilterE,
                            ___CFConstantStringClassReference, ___cxa_atexit,
                            ___cxa_guard_acquire, ___cxa_guard_release,
                            ___stack_chk_fail, ___stack_chk_guard,
                            __objc_empty_cache, _dispatch_once, _objc_alloc,
                            _objc_autoreleaseReturnValue, _objc_msgSend,
                            _objc_msgSendSuper2, _objc_release, _objc_retain,
                            _objc_retainAutorelease,
                            _objc_retainAutoreleasedReturnValue,
                            _objc_retainBlock, dyld_stub_binder ]
    objc-classes:         [ NSCharacterSet, NSConstantArray, NSObject, NSSet,
                            TICharacterSetDescription,
                            TIKeyboardQuickTypeSpecialization ]
...
