--- !tapi-tbd-v3
archs:           [ armv7, armv7s, arm64, arm64e ]
uuids:           [ 'armv7: 98EDFA7C-D257-33DB-A86D-2BAE1A39BFED', 'armv7s: 8A63A2DB-8B00-3098-BBE8-9F1634410494', 
                   'arm64: 5CE49760-0BA3-3C69-AE7D-F6B9D025A6B9', 'arm64e: 27785638-01E6-33B4-8A84-52233F689DD1' ]
platform:        ios
install-name:    '/usr/lib/libBasebandManager.dylib'
exports:         
  - archs:           [ armv7, armv7s ]
    symbols:         [ _ETLEFSDUmpCopyCrashLocationDetails, _ETLEFSDumpCopyCrashHeaderDetails, 
                       _ETLEFSDumpCopySoftwareVersion, _ETLEFSDumpInfoFree, _ETLEFSDumpInterpret, 
                       __ZN10ServerMain10getProfileEv, __ZN10ServerMain10getRunLoopEv, 
                       __ZN10ServerMain21create_default_globalEv, __ZN10ServerMain22registerCommandHandlerENSt3__112basic_stringIcNS0_11char_traitsIcEENS0_9allocatorIcEEEEN8dispatch5blockIU13block_pointerFv17ServerClientStateN3xpc4dictENS8_IU13block_pointerFviSB_EEEEEE, 
                       __ZN10ServerMain24previousShutdownWasCleanEv, __ZN10ServerMain4initENSt3__112basic_stringIcNS0_11char_traitsIcEENS0_9allocatorIcEEEE, 
                       __ZN10ServerMain4stopEP16dispatch_group_s, __ZN10ServerMain5startEP16dispatch_group_s, 
                       __ZN10ServerMain8shutdownEP16dispatch_group_s, __ZN10ServerMain9broadcastENSt3__112basic_stringIcNS0_11char_traitsIcEENS0_9allocatorIcEEEEN3ctu2cf11CFSharedRefIK14__CFDictionaryEEN8dispatch5blockIU13block_pointerFvvEEE, 
                       __ZN10ServerMainC1Ev, __ZN10ServerMainC2Ev, __ZN18DataStallDetection5startEP11__CFRunLoop, 
                       __ZN18ServerMainInternal10getRunLoopEv, __ZN18ServerMainInternal10start_syncEN8dispatch13group_sessionE, 
                       __ZN18ServerMainInternal12unicast_syncEN3xpc10connectionENSt3__112basic_stringIcNS2_11char_traitsIcEENS2_9allocatorIcEEEEN3ctu2cf11CFSharedRefIK14__CFDictionaryEEN8dispatch5blockIU13block_pointerFvvEEE, 
                       __ZN18ServerMainInternal13getState_syncEv, __ZN18ServerMainInternal13shutdown_syncEN8dispatch13group_sessionE, 
                       __ZN18ServerMainInternal14broadcast_syncENSt3__112basic_stringIcNS0_11char_traitsIcEENS0_9allocatorIcEEEEN3ctu2cf11CFSharedRefIK14__CFDictionaryEEN8dispatch5blockIU13block_pointerFvvEEE, 
                       __ZN18ServerMainInternal15finishStop_syncEv, __ZN18ServerMainInternal16changeState_syncE11ServerState, 
                       __ZN18ServerMainInternal16stopRunLoop_syncEv, __ZN18ServerMainInternal17startRunLoop_syncEv, 
                       __ZN18ServerMainInternal18checkShutdown_syncEN8dispatch13group_sessionE, 
                       __ZN18ServerMainInternal18handleMessage_syncEN3xpc10connectionENS0_4dictE, 
                       __ZN18ServerMainInternal19finishShutdown_syncEv, __ZN18ServerMainInternal19getClientState_syncEN3xpc10connectionE, 
                       __ZN18ServerMainInternal20handleNewClient_syncEN3xpc10connectionE, 
                       __ZN18ServerMainInternal20registerNotificationEN3xpc10connectionEbN3ctu2cf11CFSharedRefIK9__CFArrayEE, 
                       __ZN18ServerMainInternal22handleClientError_syncEN3xpc10connectionENS0_6objectE, 
                       __ZN18ServerMainInternal22handleServerError_syncEN3xpc6objectE, 
                       __ZN18ServerMainInternal22registerCommandHandlerENSt3__112basic_stringIcNS0_11char_traitsIcEENS0_9allocatorIcEEEEN8dispatch5blockIU13block_pointerFv17ServerClientStateN3xpc4dictENS8_IU13block_pointerFviSB_EEEEEE, 
                       __ZN18ServerMainInternal24handlePublicMessage_syncEN3xpc10connectionERNS0_4dictE, 
                       __ZN18ServerMainInternal25broadcastServerState_syncENSt3__112basic_stringIcNS0_11char_traitsIcEENS0_9allocatorIcEEEE, 
                       __ZN18ServerMainInternal26handleInternalMessage_syncEN3xpc10connectionERNS0_4dictE, 
                       __ZN18ServerMainInternal27registerCommandHandler_syncERKNSt3__112basic_stringIcNS0_11char_traitsIcEENS0_9allocatorIcEEEEN8dispatch5blockIU13block_pointerFv17ServerClientStateN3xpc4dictENSA_IU13block_pointerFviSD_EEEEEE, 
                       __ZN18ServerMainInternal4initENSt3__112basic_stringIcNS0_11char_traitsIcEENS0_9allocatorIcEEEE, 
                       __ZN18ServerMainInternal4stopEP16dispatch_group_s, __ZN18ServerMainInternal5startEP16dispatch_group_s, 
                       __ZN18ServerMainInternal6createEv, __ZN18ServerMainInternal8shutdownEP16dispatch_group_s, 
                       __ZN18ServerMainInternal9broadcastENSt3__112basic_stringIcNS0_11char_traitsIcEENS0_9allocatorIcEEEEN3ctu2cf11CFSharedRefIK14__CFDictionaryEEN8dispatch5blockIU13block_pointerFvvEEE, 
                       __ZN18ServerMainInternal9stop_syncEN8dispatch13group_sessionE, 
                       __ZN18ServerMainInternalC1Ev, __ZN18ServerMainInternalC2Ev, 
                       __ZN18ServerMainInternalD0Ev, __ZN18ServerMainInternalD1Ev, 
                       __ZN18ServerMainInternalD2Ev, __ZN4coex6Module5State14getSubPropertyEPK10__CFStringb, 
                       __ZN4coex6Module5State14setPolicy_syncEv, __ZN4coex6Module5State18sendWWANState_syncEv, 
                       __ZN4coex6Module5State20sendLinkQuality_syncEv, __ZN4coex6Module5State22handleSetWCI2Mode_syncEN3xpc4dictE, 
                       __ZN4coex6Module5State22sendFailCondition_syncEv, __ZN4coex6Module5State23setLinkQualityMode_syncEj, 
                       __ZN4coex6Module5State26handleSetTxPowerLimit_syncEN3xpc6objectE, 
                       __ZN4coex6Module5State29handleSetLinkQualityMode_syncEN3xpc4dictE, 
                       __ZN4coex6Module5State30handleSetWCI2TxPowerLimit_syncEN3xpc6objectE, 
                       __ZN4coex6Module5State32handleGetScanFreqBandFilter_syncEv, 
                       __ZN4coex6Module5State32handleSetScanFreqBandFilter_syncEN3xpc5arrayE, 
                       __ZN4coex6Module5State33handleSetWCI2CalibrationInfo_syncEN3xpc4dictE, 
                       __ZN4coex6Module5State35handleCommandDriverStateUpdate_syncEN3ctu2cf11CFSharedRefIK14__CFDictionaryEE, 
                       __ZN4coex6Module5State37handleSetNetworkConfigOfInterest_syncEN3xpc5arrayE, 
                       __ZN4coex6Module5State6createENSt3__110shared_ptrIN3ctu9LogServerEEE, 
                       __ZN4coex6Module5StateC1ENSt3__110shared_ptrIN3ctu9LogServerEEENS3_INS_13CommandDriverEEE, 
                       __ZN4coex6Module5StateC2ENSt3__110shared_ptrIN3ctu9LogServerEEENS3_INS_13CommandDriverEEE, 
                       __ZN4coex6ModuleC1ENSt3__110shared_ptrIN3ctu9LogServerEEERKNS1_12basic_stringIcNS1_11char_traitsIcEENS1_9allocatorIcEEEE, 
                       __ZN4coex6ModuleC1Ev, __ZN4coex6ModuleC2ENSt3__110shared_ptrIN3ctu9LogServerEEERKNS1_12basic_stringIcNS1_11char_traitsIcEENS1_9allocatorIcEEEE, 
                       __ZN4coex6ModuleC2Ev, __ZN4diag6config14kStopReaderKeyE, __ZN4diag6config17getDefaultEnabledEv, 
                       __ZN4diag6config18kDefaultStopReaderE, __ZN4diag7Service12updateConfigEN3ctu2cf11CFSharedRefIK14__CFDictionaryEE, 
                       __ZN4diag7Service13stateAsStringENS0_5StateE, __ZN4diag7Service4stopEN8dispatch8callbackIU13block_pointerFvNS0_5StateENSt3__112basic_stringIcNS4_11char_traitsIcEENS4_9allocatorIcEEEEEEE, 
                       __ZN4diag7Service4wakeEN8dispatch8callbackIU13block_pointerFvNS0_5StateENSt3__112basic_stringIcNS4_11char_traitsIcEENS4_9allocatorIcEEEEEEE, 
                       __ZN4diag7Service5abortEv, __ZN4diag7Service5resetEN8dispatch8callbackIU13block_pointerFvNS0_5StateENSt3__112basic_stringIcNS4_11char_traitsIcEENS4_9allocatorIcEEEEEEE, 
                       __ZN4diag7Service5sleepEN8dispatch8callbackIU13block_pointerFvNS0_5StateENSt3__112basic_stringIcNS4_11char_traitsIcEENS4_9allocatorIcEEEEEEE, 
                       __ZN4diag7Service5startEN8dispatch8callbackIU13block_pointerFvNS0_5StateENSt3__112basic_stringIcNS4_11char_traitsIcEENS4_9allocatorIcEEEEEEE, 
                       __ZN4diag7Service8Internal6createENSt3__110shared_ptrIN3ctu9LogServerEEENS3_IS0_EE, 
                       __ZN4diag7Service8Internal6createENSt3__110shared_ptrIN3ctu9LogServerEEENS_6config4ModeENS3_INS_4InfoEEEN8dispatch8callbackIU13block_pointerFvNS0_5StateENS2_12basic_stringIcNS2_11char_traitsIcEENS2_9allocatorIcEEEEEEE, 
                       __ZN4diag7Service8snapshotENSt3__112basic_stringIcNS1_11char_traitsIcEENS1_9allocatorIcEEEEbN8dispatch8callbackIU13block_pointerFvNS0_5StateES7_EEE, 
                       __ZN4diag7ServiceC1ENSt3__110shared_ptrIN3ctu9LogServerEEENS2_IS0_EE, 
                       __ZN4diag7ServiceC1ENSt3__110shared_ptrIN3ctu9LogServerEEENS_6config4ModeENS2_INS_4InfoEEEN8dispatch8callbackIU13block_pointerFvNS0_5StateENS1_12basic_stringIcNS1_11char_traitsIcEENS1_9allocatorIcEEEEEEE, 
                       __ZN4diag7ServiceC2ENSt3__110shared_ptrIN3ctu9LogServerEEENS2_IS0_EE, 
                       __ZN4diag7ServiceC2ENSt3__110shared_ptrIN3ctu9LogServerEEENS_6config4ModeENS2_INS_4InfoEEEN8dispatch8callbackIU13block_pointerFvNS0_5StateENS1_12basic_stringIcNS1_11char_traitsIcEENS1_9allocatorIcEEEEEEE, 
                       __ZN4diag7ServiceD1Ev, __ZN4diag7ServiceD2Ev, __ZN4logs12FileLogStore10clear_syncEv, 
                       __ZN4logs12FileLogStore10close_syncEv, __ZN4logs12FileLogStore10handleDataENSt3__110shared_ptrINS1_6vectorIhNS1_9allocatorIhEEEEEE, 
                       __ZN4logs12FileLogStore11getFilePathEv, __ZN4logs12FileLogStore11isOpen_syncEv, 
                       __ZN4logs12FileLogStore15handleData_syncENSt3__110shared_ptrINS1_6vectorIhNS1_9allocatorIhEEEEEE, 
                       __ZN4logs12FileLogStore4openEv, __ZN4logs12FileLogStore5clearEv, 
                       __ZN4logs12FileLogStore5closeEv, __ZN4logs12FileLogStore6isOpenEv, 
                       __ZN4logs12FileLogStoreC2ENSt3__110shared_ptrIN3ctu9LogServerEEENS1_12basic_stringIcNS1_11char_traitsIcEENS1_9allocatorIcEEEESB_, 
                       __ZN4logs13LogCollection10collectLogEN8dispatch5blockIU13block_pointerFvbEEEN3ctu2cf11CFSharedRefIK14__CFDictionaryEE, 
                       __ZN4logs13LogCollection11performWorkEN8dispatch5blockIU13block_pointerFvvEEE, 
                       __ZN4logs13LogCollection19stopCollection_syncEbb, __ZN4logs13LogCollection19workInProgress_syncEv, 
                       __ZN4logs13LogCollection19workIsComplete_syncEb, __ZN4logs13LogCollection4initEN3ctu2cf11CFSharedRefIK14__CFDictionaryEE, 
                       __ZN4logs13LogCollection6enableEN8dispatch5blockIU13block_pointerFvbEEE, 
                       __ZN4logs13LogCollection7disableEN8dispatch5blockIU13block_pointerFvbEEE, 
                       __ZN4logs13LogCollection9LogDriver10collectLogEN8dispatch8callbackIU13block_pointerFvbEEE, 
                       __ZN4logs13LogCollection9LogDriver5resetEv, __ZN4logs13LogCollection9LogDriver6createENSt3__110shared_ptrIN3ctu9LogServerEEEN8dispatch8callbackIU13block_pointerFvNS_15CollectionStateEEEENS8_IU13block_pointerFvNS3_INS2_6vectorIhNS2_9allocatorIhEEEEEEbEEENS4_2cf11CFSharedRefIK14__CFDictionaryEENS2_12basic_stringIcNS2_11char_traitsIcEENSE_IcEEEE, 
                       __ZN4logs13LogCollection9LogDriver6enableEN8dispatch8callbackIU13block_pointerFvbEEE, 
                       __ZN4logs13LogCollection9LogDriver6reinitEb, __ZN4logs13LogCollection9LogDriver7disableEN8dispatch8callbackIU13block_pointerFvbEEE, 
                       __ZN4logs13LogCollection9LogDriverC1ENSt3__110shared_ptrIN3ctu9LogServerEEEN8dispatch8callbackIU13block_pointerFvNS_15CollectionStateEEEENS8_IU13block_pointerFvNS3_INS2_6vectorIhNS2_9allocatorIhEEEEEEbEEENS4_2cf11CFSharedRefIK14__CFDictionaryEENS2_12basic_stringIcNS2_11char_traitsIcEENSE_IcEEEE, 
                       __ZN4logs13LogCollection9LogDriverC2ENSt3__110shared_ptrIN3ctu9LogServerEEEN8dispatch8callbackIU13block_pointerFvNS_15CollectionStateEEEENS8_IU13block_pointerFvNS3_INS2_6vectorIhNS2_9allocatorIhEEEEEEbEEENS4_2cf11CFSharedRefIK14__CFDictionaryEENS2_12basic_stringIcNS2_11char_traitsIcEENSE_IcEEEE, 
                       __ZN4logs13LogCollectionC1ENSt3__110shared_ptrIN3ctu9LogServerEEENS2_INS_8LogStoreEEENS1_12basic_stringIcNS1_11char_traitsIcEENS1_9allocatorIcEEEEb, 
                       __ZN4logs13LogCollectionC2ENSt3__110shared_ptrIN3ctu9LogServerEEENS2_INS_8LogStoreEEENS1_12basic_stringIcNS1_11char_traitsIcEENS1_9allocatorIcEEEEb, 
                       __ZN7antenna15CMOnBodyManager6createEv, __ZN7antenna15CMOnBodyManagerC1Ev, 
                       __ZN7antenna15CMOnBodyManagerC2Ev, __ZN7antenna7Service10ratChangedERKN3xpc4dictE, 
                       __ZN7antenna7Service25setFileTransferInProgressEN3xpc4dictE, 
                       __ZN7antenna7Service8Internal10getE75TypeEv, __ZN7antenna7Service8Internal10ratChangedERKN3xpc4dictE, 
                       __ZN7antenna7Service8Internal11getE75StateEv, __ZN7antenna7Service8Internal12setupTxPowerEv, 
                       __ZN7antenna7Service8Internal13configTxPowerENS_14TxPowerSvcTypeE, 
                       __ZN7antenna7Service8Internal14getHACTxOffsetENS_14TxPowerSvcTypeE, 
                       __ZN7antenna7Service8Internal16getE75TypeStringEj, __ZN7antenna7Service8Internal16lteCounterNotifyEv, 
                       __ZN7antenna7Service8Internal16mesaNotificationEjPv, __ZN7antenna7Service8Internal17getE75StateStringEb, 
                       __ZN7antenna7Service8Internal17setCLTMLTECounterEv, __ZN7antenna7Service8Internal17setTxEndTime_syncEj, 
                       __ZN7antenna7Service8Internal17videoNotificationEjPv, __ZN7antenna7Service8Internal18sendAudioAccessoryEv, 
                       __ZN7antenna7Service8Internal18sendHACStatus_syncEv, __ZN7antenna7Service8Internal18sendVideoAccessoryEb, 
                       __ZN7antenna7Service8Internal19getTxDutyCycle_syncEj, __ZN7antenna7Service8Internal19setTxStartTime_syncEj, 
                       __ZN7antenna7Service8Internal20enableTxPowerCappingEb, __ZN7antenna7Service8Internal20motionDetectCallbackENS_15CMOnBodyManager14CMOnBodyResultENS2_24CMOnBodyResultConfidenceE, 
                       __ZN7antenna7Service8Internal21accessoryNotificationEjPv, 
                       __ZN7antenna7Service8Internal21proximityNotificationEi, __ZN7antenna7Service8Internal22cltmRFReportIndicationEN3xpc4dictE, 
                       __ZN7antenna7Service8Internal22handleDumpTxPower_syncEPKcNS_14TxPowerSvcTypeE, 
                       __ZN7antenna7Service8Internal22handleDumpTxPower_syncEv, __ZN7antenna7Service8Internal22setCLTMLTECounter_syncEv, 
                       __ZN7antenna7Service8Internal23setCLTMRFReportIntervalEv, 
                       __ZN7antenna7Service8Internal24cltmLTECounterIndicationENS_14LTECounterDataE, 
                       __ZN7antenna7Service8Internal24handleTxPowerConfig_syncERKN3xpc4dictENSt3__112basic_stringIcNS6_11char_traitsIcEENS6_9allocatorIcEEEE, 
                       __ZN7antenna7Service8Internal24setTxPowerPlayAlert_syncEj, 
                       __ZN7antenna7Service8Internal24transmitStateNotify_syncEb, 
                       __ZN7antenna7Service8Internal25antennaTransmitIndicationENS_14BBTransmitModeE, 
                       __ZN7antenna7Service8Internal25resetTxPowerConfig2G_syncEv, 
                       __ZN7antenna7Service8Internal25setFileTransferInProgressEN3xpc4dictE, 
                       __ZN7antenna7Service8Internal26handleTxPowerConfig2G_syncEj, 
                       __ZN7antenna7Service8Internal26proximityNotification_syncEi, 
                       __ZN7antenna7Service8Internal26resetTxPowerConfigC2K_syncEv, 
                       __ZN7antenna7Service8Internal26resetTxPowerConfigLTE_syncEv, 
                       __ZN7antenna7Service8Internal27copyLTECounterInternal_syncEv, 
                       __ZN7antenna7Service8Internal27getTxDutyCycleInternal_syncEjj, 
                       __ZN7antenna7Service8Internal27handleTxPowerConfigC2K_syncEj, 
                       __ZN7antenna7Service8Internal27handleTxPowerConfigLTE_syncEj, 
                       __ZN7antenna7Service8Internal27resetTxPowerConfigUMTS_syncEv, 
                       __ZN7antenna7Service8Internal28enableCLTMRFReportIndicationEv, 
                       __ZN7antenna7Service8Internal28handleTxPowerConfigUMTS_syncEj, 
                       __ZN7antenna7Service8Internal28handleTxPowerTechConfig_syncERKN3xpc4dictENSt3__112basic_stringIcNS6_11char_traitsIcEENS6_9allocatorIcEEEE, 
                       __ZN7antenna7Service8Internal28queryLTECounterInternal_syncEv, 
                       __ZN7antenna7Service8Internal30enableCLTMLTECounterIndicationEv, 
                       __ZN7antenna7Service8Internal30enableTxPowerCappingIndicationEv, 
                       __ZN7antenna7Service8Internal30iPadTxPowerCappingTimerExpiredENS0_22TxPowerCappingIPadModeE, 
                       __ZN7antenna7Service8Internal32enableTxPowerCappingNotificationENS_21TxPwrNotificationTypeE, 
                       __ZN7antenna7Service8Internal32resetTxPowerTechConfigTxPwr_syncEv, 
                       __ZN7antenna7Service8Internal32stopTxPowerCappingIPadTimer_syncEv, 
                       __ZN7antenna7Service8Internal33getTxPowerIPadWithProxCappingModeEi, 
                       __ZN7antenna7Service8Internal33handleTxPowerTechConfigTxPwr_syncEj, 
                       __ZN7antenna7Service8Internal33releasePowerAssertionIPadWithProxEv, 
                       __ZN7antenna7Service8Internal33startTxPowerCappingIPadTimer_syncEv, 
                       __ZN7antenna7Service8Internal35setTxPowerCLTMRFReportInterval_syncERKN3xpc4dictE, 
                       __ZN7antenna7Service8Internal35stopTxPowerCappingIPadWithProx_syncEv, 
                       __ZN7antenna7Service8Internal36startTxPowerCappingIPadWithProx_syncEv, 
                       __ZN7antenna7Service8Internal37createPowerAssertionIPadWithProx_syncEv, 
                       __ZN7antenna7Service8Internal37enableTxPowerCappingNotification_syncENS_21TxPwrNotificationTypeE, 
                       __ZN7antenna7Service8Internal37handleTxPowerCappingIPadResponse_syncEb, 
                       __ZN7antenna7Service8Internal38getTxPowerCappingIPhoneModeString_syncERKj, 
                       __ZN7antenna7Service8Internal38resetTxPowerTechConfigTxDutyCycle_syncEv, 
                       __ZN7antenna7Service8Internal39handleTxPowerTechConfigTxDutyCycle_syncEj, 
                       __ZN7antenna7Service8Internal40handleTxPowerCappingIPadTimerExpiry_syncEv, 
                       __ZN7antenna7Service8Internal6createENSt3__110shared_ptrIN3ctu9LogServerEEEN8dispatch8callbackIU13block_pointerFvN3xpc4dictEEEE, 
                       __ZN7antenna7Service8InternalC1ENSt3__110shared_ptrIN3ctu9LogServerEEEN8dispatch8callbackIU13block_pointerFvN3xpc4dictEEEE, 
                       __ZN7antenna7Service8InternalC2ENSt3__110shared_ptrIN3ctu9LogServerEEEN8dispatch8callbackIU13block_pointerFvN3xpc4dictEEEE, 
                       __ZN7antenna7ServiceC1ENSt3__110shared_ptrIN3ctu9LogServerEEEN8dispatch8callbackIU13block_pointerFvN3xpc4dictEEEE, 
                       __ZN7antenna7ServiceC2ENSt3__110shared_ptrIN3ctu9LogServerEEEN8dispatch8callbackIU13block_pointerFvN3xpc4dictEEEE, 
                       __ZNK4diag7Service8getStateEv, __ZTI18ServerMainInternal, 
                       __ZTIN4logs12FileLogStoreE, __ZTIN4logs13LogCollectionE, __ZTS18ServerMainInternal, 
                       __ZTSN4logs12FileLogStoreE, __ZTSN4logs13LogCollectionE, __ZTV18ServerMainInternal, 
                       __ZTVN4logs12FileLogStoreE, __ZTVN4logs13LogCollectionE, __ZThn32_N18ServerMainInternalD0Ev, 
                       __ZThn32_N18ServerMainInternalD1Ev ]
    weak-def-symbols: [ __ZGVN3ctu9SingletonI10ServerMainS1_NS_23PthreadMutexGuardPolicyIS1_EEE9sInstanceE, 
                        __ZGVN3ctu9SingletonINS_9LogServerEN4atcs9LogServerENS_23PthreadMutexGuardPolicyIS1_EEE9sInstanceE, 
                        __ZN3ctu9SingletonI10ServerMainS1_NS_23PthreadMutexGuardPolicyIS1_EEE9sInstanceE, 
                        __ZN3ctu9SingletonINS_9LogServerEN4atcs9LogServerENS_23PthreadMutexGuardPolicyIS1_EEE9sInstanceE, 
                        __ZTIFbPvE, __ZTIN19ATCSRouterIPCDriver12ErrorHandlerE, __ZTIN27ATCSFileDescriptorIPCDriver12ErrorHandlerE, 
                        __ZTIN3ctu14SharedLoggableI18DataStallDetectionNS_10LoggerBaseINSt3__110shared_ptrINS_9LogServerEEEEEEE, 
                        __ZTIN3ctu14SharedLoggableIN4coex6Module5StateENS_10LoggerBaseINSt3__110shared_ptrINS_9LogServerEEEEEEE, 
                        __ZTIN3ctu14SharedLoggableIN4diag7Service8InternalENS_10LoggerBaseINSt3__110shared_ptrINS_9LogServerEEEEEEE, 
                        __ZTIN3ctu14SharedLoggableIN4logs12FileLogStoreENS_10LoggerBaseINSt3__110shared_ptrINS_9LogServerEEEEEEE, 
                        __ZTIN3ctu14SharedLoggableIN4logs13LogCollectionENS_10LoggerBaseINSt3__110shared_ptrINS_9LogServerEEEEEEE, 
                        __ZTIN3ctu14SharedLoggableIN7antenna7Service8InternalENS_10LoggerBaseINSt3__110shared_ptrINS_9LogServerEEEEEEE, 
                        __ZTIN3ctu8LoggableI18DataStallDetectionNS_10LoggerBaseINSt3__110shared_ptrINS_9LogServerEEEEEEE, 
                        __ZTIN3ctu8LoggableIN4coex6Module5StateENS_10LoggerBaseINSt3__110shared_ptrINS_9LogServerEEEEEEE, 
                        __ZTIN3ctu8LoggableIN4diag7Service8InternalENS_10LoggerBaseINSt3__110shared_ptrINS_9LogServerEEEEEEE, 
                        __ZTIN3ctu8LoggableIN4logs12FileLogStoreENS_10LoggerBaseINSt3__110shared_ptrINS_9LogServerEEEEEEE, 
                        __ZTIN3ctu8LoggableIN4logs13LogCollection9LogDriverENS_10LoggerBaseINSt3__110shared_ptrINS_9LogServerEEEEEEE, 
                        __ZTIN3ctu8LoggableIN4logs13LogCollectionENS_10LoggerBaseINSt3__110shared_ptrINS_9LogServerEEEEEEE, 
                        __ZTIN3ctu8LoggableIN7antenna7Service8InternalENS_10LoggerBaseINSt3__110shared_ptrINS_9LogServerEEEEEEE, 
                        __ZTIN4diag7Service8InternalE, __ZTIN4logs13LogCollection9LogDriverE, 
                        __ZTIN4logs8LogStoreE, __ZTIN5boost16exception_detail10clone_baseE, 
                        __ZTIN5boost9exceptionE, __ZTIN7antenna7Service8InternalE, 
                        __ZTINSt3__113basic_filebufIcNS_11char_traitsIcEEEE, __ZTINSt3__114basic_ifstreamIcNS_11char_traitsIcEEEE, 
                        __ZTINSt3__114basic_ofstreamIcNS_11char_traitsIcEEEE, __ZTINSt3__115basic_stringbufIcNS_11char_traitsIcEENS_9allocatorIcEEEE, 
                        __ZTINSt3__118basic_stringstreamIcNS_11char_traitsIcEENS_9allocatorIcEEEE, 
                        __ZTINSt3__119basic_ostringstreamIcNS_11char_traitsIcEENS_9allocatorIcEEEE, 
                        __ZTINSt3__123enable_shared_from_thisI18DataStallDetectionEE, 
                        __ZTINSt3__123enable_shared_from_thisIN4coex6Module5StateEEE, 
                        __ZTINSt3__123enable_shared_from_thisIN4diag7Service8InternalEEE, 
                        __ZTINSt3__123enable_shared_from_thisIN4logs12FileLogStoreEEE, 
                        __ZTINSt3__123enable_shared_from_thisIN4logs13LogCollectionEEE, 
                        __ZTINSt3__123enable_shared_from_thisIN5radio13HealthService5StateEEE, 
                        __ZTINSt3__123enable_shared_from_thisIN7antenna7Service8InternalEEE, 
                        __ZTIPFbPvE, __ZTSFbPvE, __ZTSN19ATCSRouterIPCDriver12ErrorHandlerE, 
                        __ZTSN27ATCSFileDescriptorIPCDriver12ErrorHandlerE, __ZTSN3ctu14SharedLoggableI18DataStallDetectionNS_10LoggerBaseINSt3__110shared_ptrINS_9LogServerEEEEEEE, 
                        __ZTSN3ctu14SharedLoggableIN4coex6Module5StateENS_10LoggerBaseINSt3__110shared_ptrINS_9LogServerEEEEEEE, 
                        __ZTSN3ctu14SharedLoggableIN4diag7Service8InternalENS_10LoggerBaseINSt3__110shared_ptrINS_9LogServerEEEEEEE, 
                        __ZTSN3ctu14SharedLoggableIN4logs12FileLogStoreENS_10LoggerBaseINSt3__110shared_ptrINS_9LogServerEEEEEEE, 
                        __ZTSN3ctu14SharedLoggableIN4logs13LogCollectionENS_10LoggerBaseINSt3__110shared_ptrINS_9LogServerEEEEEEE, 
                        __ZTSN3ctu14SharedLoggableIN7antenna7Service8InternalENS_10LoggerBaseINSt3__110shared_ptrINS_9LogServerEEEEEEE, 
                        __ZTSN3ctu8LoggableI18DataStallDetectionNS_10LoggerBaseINSt3__110shared_ptrINS_9LogServerEEEEEEE, 
                        __ZTSN3ctu8LoggableIN4coex6Module5StateENS_10LoggerBaseINSt3__110shared_ptrINS_9LogServerEEEEEEE, 
                        __ZTSN3ctu8LoggableIN4diag7Service8InternalENS_10LoggerBaseINSt3__110shared_ptrINS_9LogServerEEEEEEE, 
                        __ZTSN3ctu8LoggableIN4logs12FileLogStoreENS_10LoggerBaseINSt3__110shared_ptrINS_9LogServerEEEEEEE, 
                        __ZTSN3ctu8LoggableIN4logs13LogCollection9LogDriverENS_10LoggerBaseINSt3__110shared_ptrINS_9LogServerEEEEEEE, 
                        __ZTSN3ctu8LoggableIN4logs13LogCollectionENS_10LoggerBaseINSt3__110shared_ptrINS_9LogServerEEEEEEE, 
                        __ZTSN3ctu8LoggableIN7antenna7Service8InternalENS_10LoggerBaseINSt3__110shared_ptrINS_9LogServerEEEEEEE, 
                        __ZTSN4diag7Service8InternalE, __ZTSN4logs13LogCollection9LogDriverE, 
                        __ZTSN4logs8LogStoreE, __ZTSN5boost16exception_detail10clone_baseE, 
                        __ZTSN5boost9exceptionE, __ZTSN7antenna7Service8InternalE, 
                        __ZTSNSt3__113basic_filebufIcNS_11char_traitsIcEEEE, __ZTSNSt3__114basic_ifstreamIcNS_11char_traitsIcEEEE, 
                        __ZTSNSt3__114basic_ofstreamIcNS_11char_traitsIcEEEE, __ZTSNSt3__114default_deleteI10ServerMainEE, 
                        __ZTSNSt3__114default_deleteIN3ctu10LogMessageEEE, __ZTSNSt3__114default_deleteIN4diag7ServiceEEE, 
                        __ZTSNSt3__114default_deleteIN4logs13LogCollection9LogDriverEEE, 
                        __ZTSNSt3__114default_deleteIN5radio13HealthServiceEEE, __ZTSNSt3__114default_deleteIN7antenna7ServiceEEE, 
                        __ZTSNSt3__114default_deleteINS_3mapIjN5radio19HealthCommandDriver9LinkStatsENS_4lessIjEENS_9allocatorINS_4pairIKjS4_EEEEEEEE, 
                        __ZTSNSt3__114default_deleteIyEE, __ZTSNSt3__115basic_stringbufIcNS_11char_traitsIcEENS_9allocatorIcEEEE, 
                        __ZTSNSt3__118basic_stringstreamIcNS_11char_traitsIcEENS_9allocatorIcEEEE, 
                        __ZTSNSt3__119basic_ostringstreamIcNS_11char_traitsIcEENS_9allocatorIcEEEE, 
                        __ZTSNSt3__123enable_shared_from_thisI18DataStallDetectionEE, 
                        __ZTSNSt3__123enable_shared_from_thisIN4coex6Module5StateEEE, 
                        __ZTSNSt3__123enable_shared_from_thisIN4diag7Service8InternalEEE, 
                        __ZTSNSt3__123enable_shared_from_thisIN4logs12FileLogStoreEEE, 
                        __ZTSNSt3__123enable_shared_from_thisIN4logs13LogCollectionEEE, 
                        __ZTSNSt3__123enable_shared_from_thisIN5radio13HealthService5StateEEE, 
                        __ZTSNSt3__123enable_shared_from_thisIN7antenna7Service8InternalEEE, 
                        __ZTSPFbPvE, __ZTSU13block_pointerFvPN7antenna15CMOnBodyManagerEE ]
  - archs:           [ arm64, arm64e ]
    symbols:         [ __Z15GetABMLogServerv, __Z15GetGlobalLoggerNSt3__110shared_ptrIN3ctu9LogServerEEE, 
                       __Z15GetOsLogContextv, __Z18ClientGetLogServerv, __Z20ABMGetProjectVersionv, 
                       __Z21GetMaxTransportIOSizev, __Z22hasBasebandEntitlementRKN3xpc4dictE, 
                       __Z23ABMGetRootVersionStringv, __Z8asString13ShutdownStage, 
                       __Z8asStringRK10PowerState, __Z8asStringRK10SleepState, __Z8asStringRK7LogInfo, 
                       __ZN10BootModule10initializeEN8dispatch13group_sessionE, __ZN10BootModule13shutdown_syncEN8dispatch5blockIU13block_pointerFviNSt3__112basic_stringIcNS2_11char_traitsIcEENS2_9allocatorIcEEEEEEE, 
                       __ZN10BootModule14hardReset_syncE9ResetInfoN8dispatch5blockIU13block_pointerFviNSt3__112basic_stringIcNS3_11char_traitsIcEENS3_9allocatorIcEEEEEEE, 
                       __ZN10BootModule14softReset_syncE9ResetInfoN8dispatch5blockIU13block_pointerFviNSt3__112basic_stringIcNS3_11char_traitsIcEENS3_9allocatorIcEEEEEEE, 
                       __ZN10BootModule16changeState_syncENS_5StateE, __ZN10BootModule16handleReset_syncE9ResetInfoN8dispatch5blockIU13block_pointerFviNSt3__112basic_stringIcNS3_11char_traitsIcEENS3_9allocatorIcEEEEEEE, 
                       __ZN10BootModule17requestReset_syncE9ResetInfoN8dispatch5blockIU13block_pointerFviNSt3__112basic_stringIcNS3_11char_traitsIcEENS3_9allocatorIcEEEEEEE, 
                       __ZN10BootModule17submitMetric_syncEjyb, __ZN10BootModule21handleBootFailed_syncENSt3__112basic_stringIcNS0_11char_traitsIcEENS0_9allocatorIcEEEE, 
                       __ZN10BootModule22checkFSSyncStatus_syncEN8dispatch5blockIU13block_pointerFvbbEEE, 
                       __ZN10BootModule25finishInitialization_syncEv, __ZN10BootModule28calculateBootStatistics_syncEv, 
                       __ZN10BootModule31reportStatisticsBootUpTime_syncEv, __ZN10BootModule34reportStatisticsHardResetTime_syncEv, 
                       __ZN10BootModule4initEv, __ZN10BootModule5startEN8dispatch13group_sessionE, 
                       __ZN10BootModule6createENSt3__18weak_ptrI14ServiceManagerEE, 
                       __ZN10BootModule8shutdownE13ShutdownStageN8dispatch13group_sessionE, 
                       __ZN10BootModule9boot_syncEv, __ZN10BootModuleC1ENSt3__18weak_ptrI14ServiceManagerEE, 
                       __ZN10BootModuleC2ENSt3__18weak_ptrI14ServiceManagerEE, __ZN10BootModuleD0Ev, 
                       __ZN10BootModuleD1Ev, __ZN10BootModuleD2Ev, __ZN10BudgetData3getE15BudgetTimeScale, 
                       __ZN10BudgetData3setE15BudgetTimeScalej, __ZN10BudgetData5clearEv, 
                       __ZN10BudgetDataC1EOS_, __ZN10BudgetDataC1ERKS_, __ZN10BudgetDataC1Ev, 
                       __ZN10BudgetDataC2EOS_, __ZN10BudgetDataC2ERKS_, __ZN10BudgetDataC2Ev, 
                       __ZN10BudgetDataD1Ev, __ZN10BudgetDataD2Ev, __ZN10BudgetDataaSERKS_, 
                       __ZN10CPMSModule10initializeEN8dispatch13group_sessionE, __ZN10CPMSModule11getErrorMsgEP7NSError, 
                       __ZN10CPMSModule20initPowerConfig_syncEv, __ZN10CPMSModule22evaluateBrickMode_syncER11PowerBudget, 
                       __ZN10CPMSModule24sendPowerBudgetToBB_syncER11PowerBudget, 
                       __ZN10CPMSModule25ackPowerBudgetToCPMS_syncER11PowerBudget, 
                       __ZN10CPMSModule25finishInitialization_syncEv, __ZN10CPMSModule26reportPowerBudgetNeed_syncER11PowerBudget, 
                       __ZN10CPMSModule27debounceConnectedState_syncEv, __ZN10CPMSModule28evaluatePowerBudgetNeed_syncEv, 
                       __ZN10CPMSModule6createENSt3__18weak_ptrI14ServiceManagerEE, 
                       __ZN10CPMSModule8shutdownEN8dispatch13group_sessionE, __ZN10CPMSModuleC1ENSt3__18weak_ptrI14ServiceManagerEE, 
                       __ZN10CPMSModuleC2ENSt3__18weak_ptrI14ServiceManagerEE, __ZN10CPMSModuleD0Ev, 
                       __ZN10CPMSModuleD1Ev, __ZN10CPMSModuleD2Ev, __ZN10LogTracker10initializeEN8dispatch13group_sessionE, 
                       __ZN10LogTracker11ddtLog_syncEN8dispatch13group_sessionEN3xpc4dictE, 
                       __ZN10LogTracker14copyPreferenceEv, __ZN10LogTracker14systemLog_syncEN8dispatch13group_sessionEN3xpc4dictENSt3__18functionIFvbS3_EEE, 
                       __ZN10LogTracker16archiveLogs_syncEN8dispatch13group_sessionEN3xpc4dictE, 
                       __ZN10LogTracker16getConfigurationEv, __ZN10LogTracker16getLoggingConfigEv, 
                       __ZN10LogTracker16jsonSummary_syncEN8dispatch13group_sessionEN3xpc4dictE, 
                       __ZN10LogTracker16setProperty_syncEN3xpc4dictEN8dispatch5blockIU13block_pointerFviS1_EEE, 
                       __ZN10LogTracker23isInternalProperty_syncEN3xpc4dictERS1_Ri, 
                       __ZN10LogTracker24checkLoggingVersion_syncEv, __ZN10LogTracker25finishInitialization_syncEv, 
                       __ZN10LogTracker26postLogCollectionSupportedEv, __ZN10LogTracker26updateLoggingSettings_syncEN3abm6helper13LoggingConfigEN3xpc4dictE, 
                       __ZN10LogTracker28initializeCommonSummary_syncEv, __ZN10LogTracker30postLogCollectionExternal_syncEN3xpc4dictE, 
                       __ZN10LogTracker30postLogCollectionInternal_syncEN3xpc4dictE, 
                       __ZN10LogTracker32isDefaultCarrierProfileInstalledEv, __ZN10LogTracker6createENSt3__18weak_ptrI14ServiceManagerEE, 
                       __ZN10LogTracker8shutdownEN8dispatch13group_sessionE, __ZN10LogTrackerC1ENSt3__18weak_ptrI14ServiceManagerEE, 
                       __ZN10LogTrackerC2ENSt3__18weak_ptrI14ServiceManagerEE, __ZN10LogTrackerD0Ev, 
                       __ZN10LogTrackerD1Ev, __ZN10LogTrackerD2Ev, __ZN10PowerStats11reportStatsEj, 
                       __ZN10PowerStats12gotAssertionENSt3__112basic_stringIcNS0_11char_traitsIcEENS0_9allocatorIcEEEEN3ctu5power9assertion6StatusE, 
                       __ZN10PowerStats18noPendingAssertionEv, __ZN10PowerStats19setPowerdownMessageEN3xpc4dictE, 
                       __ZN10PowerStats20registerStatsHandlerEN8dispatch8callbackIU13block_pointerFvN3xpc4dictEEEE, 
                       __ZN10PowerStats23reportSystemStateChangeE11SystemStateS0_, 
                       __ZN10PowerStats5clearEv, __ZN10PowerStats6createEv, __ZN10PowerStats9dumpStateEv, 
                       __ZN10PowerStatsC1Ev, __ZN10PowerStatsC2Ev, __ZN10PowerStatsD0Ev, 
                       __ZN10PowerStatsD1Ev, __ZN10PowerStatsD2Ev, __ZN10TapToRadar21createRadarIfPossibleEN3xpc4dictERKNSt3__112basic_stringIcNS2_11char_traitsIcEENS2_9allocatorIcEEEE, 
                       __ZN10TapToRadar7getModeEv, __ZN10TapToRadar7setModeENS_4ModeE, 
                       __ZN11PowerBudget3getE15BudgetTimeScale, __ZN11PowerBudget3setE15BudgetTimeScalej, 
                       __ZN11PowerBudget4fillEO10BudgetData, __ZN11PowerBudget4fillEPK12NSDictionary, 
                       __ZN11PowerBudget4fillER10BudgetData, __ZN11PowerBudget7getDataEv, 
                       __ZN11PowerBudget9getNSDictEv, __ZN11PowerBudgetC1EO10BudgetData, 
                       __ZN11PowerBudgetC1EOS_, __ZN11PowerBudgetC1EPK12NSDictionary, 
                       __ZN11PowerBudgetC1ER10BudgetData, __ZN11PowerBudgetC1ERKS_, 
                       __ZN11PowerBudgetC1Ev, __ZN11PowerBudgetC2EO10BudgetData, 
                       __ZN11PowerBudgetC2EOS_, __ZN11PowerBudgetC2EPK12NSDictionary, 
                       __ZN11PowerBudgetC2ER10BudgetData, __ZN11PowerBudgetC2ERKS_, 
                       __ZN11PowerBudgetC2Ev, __ZN11PowerBudgetD1Ev, __ZN11PowerBudgetD2Ev, 
                       __ZN11PowerBudgetaSERKS_, __ZN11RadioModule10initializeEN8dispatch13group_sessionE, 
                       __ZN11RadioModule14setRegion_syncEv, __ZN11RadioModule15getVersion_syncEN8dispatch5blockIU13block_pointerFvNSt3__112basic_stringIcNS2_11char_traitsIcEENS2_9allocatorIcEEEEEEE, 
                       __ZN11RadioModule21getOperatingMode_syncEN8dispatch5blockIU13block_pointerFviEEE, 
                       __ZN11RadioModule21setOperatingMode_syncEjN5radio13OperatingModeEN8dispatch5blockIU13block_pointerFvbEEE, 
                       __ZN11RadioModule23startHealthService_syncEv, __ZN11RadioModule25finishInitialization_syncEv, 
                       __ZN11RadioModule25queryFieldTestConfig_syncEv, __ZN11RadioModule29queryRFCalibrationStatus_syncEv, 
                       __ZN11RadioModule34queryFactoryCalibrationStatus_syncEv, __ZN11RadioModule4initEv, 
                       __ZN11RadioModule4wakeEN8dispatch13group_sessionE, __ZN11RadioModule5sleepEN8dispatch13group_sessionE, 
                       __ZN11RadioModule5startEN8dispatch13group_sessionE, __ZN11RadioModule6createENSt3__18weak_ptrI14ServiceManagerEE, 
                       __ZN11RadioModule8shutdownE13ShutdownStageN8dispatch13group_sessionE, 
                       __ZN11RadioModuleC1ENSt3__18weak_ptrI14ServiceManagerEEN8dispatch8workloopE, 
                       __ZN11RadioModuleC2ENSt3__18weak_ptrI14ServiceManagerEEN8dispatch8workloopE, 
                       __ZN11RadioModuleD0Ev, __ZN11RadioModuleD1Ev, __ZN11RadioModuleD2Ev, 
                       __ZN11StatsModule10initializeEN8dispatch13group_sessionE, 
                       __ZN11StatsModule14reportAWD_syncEjN3xpc6objectE, __ZN11StatsModule15updateData_syncEN3abm5stats7StatsIDEN3xpc4dictE, 
                       __ZN11StatsModule16getAllStats_syncEv, __ZN11StatsModule16reportStats_syncEN3abm5stats7StatsIDEN3xpc4dictE, 
                       __ZN11StatsModule20initializeStats_syncEv, __ZN11StatsModule21addStatsToModule_syncEN3abm5stats7StatsIDE, 
                       __ZN11StatsModule4initEv, __ZN11StatsModule5startEN8dispatch13group_sessionE, 
                       __ZN11StatsModule6createENSt3__18weak_ptrI14ServiceManagerEE, 
                       __ZN11StatsModule8shutdownE13ShutdownStageN8dispatch13group_sessionE, 
                       __ZN11StatsModuleC1ENSt3__18weak_ptrI14ServiceManagerEE, __ZN11StatsModuleC2ENSt3__18weak_ptrI14ServiceManagerEE, 
                       __ZN11StatsModuleD0Ev, __ZN11StatsModuleD1Ev, __ZN11StatsModuleD2Ev, 
                       __ZN11SystemState13getPowerStateEv, __ZN11SystemState13getSleepStateEv, 
                       __ZN11SystemState21getSystemNotificationEv, __ZN11SystemState24acceptSystemNotificationEj, 
                       __ZN11SystemStateC1Ev, __ZN11SystemStateC2Ev, __ZN11SystemStateD1Ev, 
                       __ZN11SystemStateD2Ev, __ZN11TraceFilter12removeFilterEN3xpc4dictE, 
                       __ZN11TraceFilter21determineFilterActionERNSt3__112basic_stringIcNS0_11char_traitsIcEENS0_9allocatorIcEEEE, 
                       __ZN11TraceFilter9addFilterEN3xpc4dictE, __ZN11TraceFilter9getFilterERN3xpc4dictE, 
                       __ZN12BBLogTracker10getLastLogEj, __ZN12BBLogTracker5countEv, 
                       __ZN12BBLogTracker6addLogERKNSt3__112basic_stringIcNS0_11char_traitsIcEENS0_9allocatorIcEEEEN3abm6helper14SystemLogsModeES8_, 
                       __ZN12BBLogTracker6getLogERKNSt3__112basic_stringIcNS0_11char_traitsIcEENS0_9allocatorIcEEEE, 
                       __ZN12BBLogTracker9limitLogsEj, __ZN12Capabilities10isMaverickEv, 
                       __ZN12Capabilities10shouldBootEv, __ZN12Capabilities14getFusingStateENSt3__16vectorIhNS0_9allocatorIhEEEEj, 
                       __ZN12Capabilities14isETBSupportedEv, __ZN12Capabilities15getTUDebugFlagsEv, 
                       __ZN12Capabilities15isCoexSupportedEv, __ZN12Capabilities15shouldSetRegionEv, 
                       __ZN12Capabilities16getABMLogEnabledEv, __ZN12Capabilities16getABMLogHistoryEv, 
                       __ZN12Capabilities17getFusingStateStrEN3ctu29TelephonyUtilRadioFusingStateE, 
                       __ZN12Capabilities17getLogScratchPathEv, __ZN12Capabilities17shouldBlockResetsEv, 
                       __ZN12Capabilities18getLogSnapshotPathEv, __ZN12Capabilities21create_default_globalEv, 
                       __ZN12Capabilities22isRadioHealthSupportedEv, __ZN12Capabilities23getCPMSDebounceTimerSecEv, 
                       __ZN12Capabilities23getFileSystemForcedSyncEv, __ZN12Capabilities24isNetworkPolicySupportedEv, 
                       __ZN12Capabilities24shouldReleaseResetDetectEv, __ZN12Capabilities25isChargerDesenseSupportedEv, 
                       __ZN12Capabilities26isFieldTestConfigSupportedEv, __ZN12Capabilities26shouldPanicOnBasebandResetEv, 
                       __ZN12Capabilities27isCalibrationQuerySupportedEv, __ZN12Capabilities27isCoexGPSReportingSupportedEv, 
                       __ZN12Capabilities29isCPMSConnectedStateSupportedEv, __ZN12Capabilities32getFileSystemFlushTimeoutSecondsEv, 
                       __ZN12Capabilities33getBEDLogCollectionTimeoutSecondsEv, __ZN12Capabilities33getFileSystemFlushIntervalSecondsEv, 
                       __ZN12Capabilities39shouldTriggerCoreDumpOnSoftResetTimeoutEv, 
                       __ZN12Capabilities39shouldTriggerStackshotOnShutdownTimeoutEv, 
                       __ZN12Capabilities7isWatchEv, __ZN12CapabilitiesC1Ev, __ZN12CapabilitiesC2Ev, 
                       __ZN12PowerManager10initializeEv, __ZN12PowerManager20createPowerAssertionENSt3__112basic_stringIcNS0_11char_traitsIcEENS0_9allocatorIcEEEENS0_6chrono8durationIxNS0_5ratioILl1ELl1000EEEEE, 
                       __ZN12PowerManager21releasePowerAssertionENSt3__112basic_stringIcNS0_11char_traitsIcEENS0_9allocatorIcEEEE, 
                       __ZN12PowerManager22registerForPowerEventsEN8dispatch5blockIU13block_pointerFv10PowerStateNS0_13group_sessionEEEE, 
                       __ZN12PowerManager6createENSt3__18weak_ptrI14ServiceManagerEE, 
                       __ZN12PowerManager8shutdownEv, __ZN12PowerManagerC1ENSt3__18weak_ptrI14ServiceManagerEE, 
                       __ZN12PowerManagerC2ENSt3__18weak_ptrI14ServiceManagerEE, 
                       __ZN12QMIXpcServer10disconnectEv, __ZN12QMIXpcServer15initialize_syncEv, 
                       __ZN12QMIXpcServer17loadMappings_syncERNSt3__13setI4QMuxNS0_4lessIS2_EENS0_9allocatorIS2_EEEE, 
                       __ZN12QMIXpcServer6createERNSt3__13setI4QMuxNS0_4lessIS2_EENS0_9allocatorIS2_EEEE, 
                       __ZN12QMIXpcServerC1ERNSt3__13setI4QMuxNS0_4lessIS2_EENS0_9allocatorIS2_EEEE, 
                       __ZN12QMIXpcServerC2ERNSt3__13setI4QMuxNS0_4lessIS2_EENS0_9allocatorIS2_EEEE, 
                       __ZN12QMIXpcServerD0Ev, __ZN12QMIXpcServerD1Ev, __ZN12QMIXpcServerD2Ev, 
                       __ZN12TraceManager10initializeEN8dispatch13group_sessionE, 
                       __ZN12TraceManager16collectLogs_syncEN3xpc4dictEN8dispatch5blockIU13block_pointerFviS1_EEE, 
                       __ZN12TraceManager20initTraceHelper_syncEv, __ZN12TraceManager20updateBasebandFWInfoEv, 
                       __ZN12TraceManager21runOnTraceHelper_syncEPKcjbN3xpc4dictEN8dispatch13group_sessionENS4_8callbackIU13block_pointerFvN12TelephonyXPC6ResultES3_EEE, 
                       __ZN12TraceManager24collectBasebandLogs_syncEN3xpc4dictEN8dispatch5blockIU13block_pointerFviS1_EEE, 
                       __ZN12TraceManager25finishInitialization_syncEv, __ZN12TraceManager28setupDumpLogsIndication_syncEv, 
                       __ZN12TraceManager29handleDumpLogsIndication_syncEN3ctu2cf11CFSharedRefIK14__CFDictionaryEE, 
                       __ZN12TraceManager4initEv, __ZN12TraceManager4wakeEN8dispatch13group_sessionE, 
                       __ZN12TraceManager5sleepEN8dispatch13group_sessionE, __ZN12TraceManager5startEN8dispatch13group_sessionE, 
                       __ZN12TraceManager6createENSt3__18weak_ptrI14ServiceManagerEE, 
                       __ZN12TraceManager8shutdownE13ShutdownStageN8dispatch13group_sessionE, 
                       __ZN12TraceManagerC1ENSt3__18weak_ptrI14ServiceManagerEE, 
                       __ZN12TraceManagerC2ENSt3__18weak_ptrI14ServiceManagerEE, 
                       __ZN12TraceManagerD0Ev, __ZN12TraceManagerD1Ev, __ZN12TraceManagerD2Ev, 
                       __ZN13AntennaModule10initializeEN8dispatch13group_sessionE, 
                       __ZN13AntennaModule15processCallbackERKN3xpc4dictE, __ZN13AntennaModule16setProperty_syncERKN3xpc4dictE, 
                       __ZN13AntennaModule18initializePropertyEv, __ZN13AntennaModule19reportTransmitStateERKN3xpc4dictE, 
                       __ZN13AntennaModule20createPowerAssertionEv, __ZN13AntennaModule21releasePowerAssertionEv, 
                       __ZN13AntennaModule23initializeProperty_syncERKNSt3__112basic_stringIcNS0_11char_traitsIcEENS0_9allocatorIcEEEE, 
                       __ZN13AntennaModule25finishInitialization_syncEv, __ZN13AntennaModule4initEv, 
                       __ZN13AntennaModule4wakeEN8dispatch13group_sessionE, __ZN13AntennaModule5sleepEN8dispatch13group_sessionE, 
                       __ZN13AntennaModule5startEN8dispatch13group_sessionE, __ZN13AntennaModule6createENSt3__18weak_ptrI14ServiceManagerEE, 
                       __ZN13AntennaModule8shutdownE13ShutdownStageN8dispatch13group_sessionE, 
                       __ZN13AntennaModuleC1ENSt3__18weak_ptrI14ServiceManagerEEN8dispatch8workloopE, 
                       __ZN13AntennaModuleC2ENSt3__18weak_ptrI14ServiceManagerEEN8dispatch8workloopE, 
                       __ZN13AntennaModuleD0Ev, __ZN13AntennaModuleD1Ev, __ZN13AntennaModuleD2Ev, 
                       __ZN13DriverFactory10initializeEN8dispatch13group_sessionE, 
                       __ZN13DriverFactory13weakRFSDriverEv, __ZN13DriverFactory15createAwdDriverEv, 
                       __ZN13DriverFactory15createRFSDriverEv, __ZN13DriverFactory15weakRadioDriverEv, 
                       __ZN13DriverFactory16createCPMSDriverEv, __ZN13DriverFactory16createCoexDriverEv, 
                       __ZN13DriverFactory16getRadioWorkloopEv, __ZN13DriverFactory17createRadioDriverEN8dispatch8workloopE, 
                       __ZN13DriverFactory18createHealthDriverENSt3__16vectorIjNS0_9allocatorIjEEEE, 
                       __ZN13DriverFactory19createAntennaDriverEN8dispatch8workloopE, 
                       __ZN13DriverFactory22createLogCommandDriverEN8dispatch8callbackIU13block_pointerFvN4logs15CollectionStateEEEENS1_IU13block_pointerFvNSt3__110shared_ptrINS7_6vectorIhNS7_9allocatorIhEEEEEEbEEEN3ctu2cf11CFSharedRefIK14__CFDictionaryEENS7_12basic_stringIcNS7_11char_traitsIcEENSA_IcEEEE, 
                       __ZN13DriverFactory5startEN8dispatch13group_sessionE, __ZN13DriverFactory6createENSt3__18weak_ptrI14ServiceManagerEE, 
                       __ZN13DriverFactory8shutdownE13ShutdownStageN8dispatch13group_sessionE, 
                       __ZN13DriverFactory9sInstanceE, __ZN13DriverFactoryC1ENSt3__18weak_ptrI14ServiceManagerEE, 
                       __ZN13DriverFactoryC2ENSt3__18weak_ptrI14ServiceManagerEE, 
                       __ZN13ServerLogging13snapshot_syncEN3ctu2cf11CFSharedRefIK14__CFDictionaryEE, 
                       __ZN13ServerLogging17registerLogServerENSt3__110shared_ptrIN3ctu9LogServerEEE, 
                       __ZN13ServerLogging18backupFolders_syncERKNSt3__112basic_stringIcNS0_11char_traitsIcEENS0_9allocatorIcEEEES8_, 
                       __ZN13ServerLogging24clearScratchFolders_syncEv, __ZN13ServerLogging24monitorSnapshotPath_syncEv, 
                       __ZN13ServerLogging4initEv, __ZN13ServerLogging8snapshotEN3ctu2cf11CFSharedRefIK14__CFDictionaryEE, 
                       __ZN13ServerLogging9init_syncEv, __ZN13ServerLoggingC1ERKNSt3__112basic_stringIcNS0_11char_traitsIcEENS0_9allocatorIcEEEES8_, 
                       __ZN13ServerLoggingC2ERKNSt3__112basic_stringIcNS0_11char_traitsIcEENS0_9allocatorIcEEEES8_, 
                       __ZN13ServerLoggingD1Ev, __ZN13ServerLoggingD2Ev, __ZN14BootController10resetModemEv, 
                       __ZN14BootController13powerOffModemEv, __ZN14BootController15getManagerStateER12ManagerState, 
                       __ZN14BootController15powerCycleModemEv, __ZN14BootController15setManagerStateE12ManagerState, 
                       __ZN14BootController25markNonvolatileDataErasedEv, __ZN14BootController7prepareERNSt3__112basic_stringIcNS0_11char_traitsIcEENS0_9allocatorIcEEEE, 
                       __ZN14BootControllerC2Ev, __ZN14EmptyLogWriter5closeEv, __ZN14EmptyLogWriter5writeENSt3__110shared_ptrIN3ctu10LogMessageEEE, 
                       __ZN14EmptyLogWriterC1Ev, __ZN14EmptyLogWriterC2Ev, __ZN14ResetDetection16addToBlocks_syncENSt3__112basic_stringIcNS0_11char_traitsIcEENS0_9allocatorIcEEEEN8dispatch5blockIU13block_pointerFviEEERNS0_3mapIS6_NS0_4pairIP17dispatch_source_sSB_EENS0_4lessIS6_EENS4_INSD_IKS6_SG_EEEEEEy, 
                       __ZN14ResetDetection16invokeBlock_syncERNSt3__14pairIKNS0_12basic_stringIcNS0_11char_traitsIcEENS0_9allocatorIcEEEENS1_IP17dispatch_source_sN8dispatch5blockIU13block_pointerFviEEEEEEEi, 
                       __ZN14ResetDetection19resetDetectCallbackEPvjjS0_, __ZN14ResetDetection20sResetDetectCallbackEPvjjS0_, 
                       __ZN14ResetDetection28notifyResetDetectBlocks_syncERNSt3__13mapINS0_12basic_stringIcNS0_11char_traitsIcEENS0_9allocatorIcEEEENS0_4pairIP17dispatch_source_sN8dispatch5blockIU13block_pointerFviEEEEENS0_4lessIS7_EENS5_INS8_IKS7_SG_EEEEEE, 
                       __ZN14ResetDetection3addENSt3__112basic_stringIcNS0_11char_traitsIcEENS0_9allocatorIcEEEEbN8dispatch5blockIU13block_pointerFviEEEy, 
                       __ZN14ResetDetection5startEv, __ZN14ResetDetection6createEN8dispatch5queueENSt3__110shared_ptrIN3ctu9LogServerEEEP11__CFRunLoop, 
                       __ZN14ResetDetectionC1EN8dispatch5queueENSt3__110shared_ptrIN3ctu9LogServerEEEP11__CFRunLoop, 
                       __ZN14ResetDetectionC2EN8dispatch5queueENSt3__110shared_ptrIN3ctu9LogServerEEEP11__CFRunLoop, 
                       __ZN14ResetDetectionD0Ev, __ZN14ResetDetectionD1Ev, __ZN14ResetDetectionD2Ev, 
                       __ZN14ServiceManager20createPowerAssertionENSt3__112basic_stringIcNS0_11char_traitsIcEENS0_9allocatorIcEEEENS0_6chrono8durationIxNS0_5ratioILl1ELl1000EEEEE, 
                       __ZN14ServiceManager21releasePowerAssertionENSt3__112basic_stringIcNS0_11char_traitsIcEENS0_9allocatorIcEEEE, 
                       __ZN14ServiceManager22shutdownGlobalServicesEv, __ZN14ServiceManager23registerEventDispatcherEN8dispatch5blockIU13block_pointerFvNSt3__112basic_stringIcNS2_11char_traitsIcEENS2_9allocatorIcEEEEN3ctu2cf11CFSharedRefIK14__CFDictionaryEENS1_IU13block_pointerFvvEEEEEE, 
                       __ZN14ServiceManager23shutdownDynamicServicesEv, __ZN14ServiceManager24initializeGlobalServicesEv, 
                       __ZN14ServiceManager25initializeDynamicServicesEv, __ZN14ServiceManager4initENSt3__110shared_ptrI14PowerInterfaceEE, 
                       __ZN14ServiceManager4wakeEN8dispatch13group_sessionE, __ZN14ServiceManager5sleepEN8dispatch13group_sessionE, 
                       __ZN14ServiceManagerC2EPKc, __ZN14ServiceManagerD0Ev, __ZN14ServiceManagerD1Ev, 
                       __ZN14ServiceManagerD2Ev, __ZN15IPCDriverCommon15kQMuxNamePrefixE, 
                       __ZN15IPCDriverCommon16kQMuxControlNameE, __ZN15RouterIPCDriver12exitLowPowerEv, 
                       __ZN15RouterIPCDriver13enterLowPowerEv, __ZN15RouterIPCDriver16configureLogSizeEj, 
                       __ZN15RouterIPCDriver19getFatalErrorReasonEv, __ZN15RouterIPCDriver20triggerFatalError_nlEPKc, 
                       __ZN15RouterIPCDriver21hasFatalErrorOccurredEv, __ZN15RouterIPCDriver22getFatalErrorReason_nlEv, 
                       __ZN15RouterIPCDriver24hasFatalErrorOccurred_nlEv, __ZN15RouterIPCDriver5flushEv, 
                       __ZN15RouterIPCDriver6engageEv, __ZN15RouterIPCDriver7getTimeERjS0_, 
                       __ZN15RouterIPCDriver7recoverEv, __ZN15RouterIPCDriver8snapshotENSt3__112basic_stringIcNS0_11char_traitsIcEENS0_9allocatorIcEEEE, 
                       __ZN15RouterIPCDriver8tearDownEv, __ZN15RouterIPCDriver9disengageEv, 
                       __ZN15RouterIPCDriverC2ENSt3__18weak_ptrI16ATCSResetInvokerEENS0_10shared_ptrIN3ctu9LogServerEEENS0_12basic_stringIcNS0_11char_traitsIcEENS0_9allocatorIcEEEE, 
                       __ZN15RouterIPCDriverD0Ev, __ZN15RouterIPCDriverD1Ev, __ZN15RouterIPCDriverD2Ev, 
                       __ZN15TransportModule10initializeEN8dispatch13group_sessionE, 
                       __ZN15TransportModule20claimSystemWake_syncEv, __ZN15TransportModule25finishInitialization_syncEv, 
                       __ZN15TransportModule28configureDataThrottling_syncEN3xpc4dictES1_, 
                       __ZN15TransportModule4initEv, __ZN15TransportModule4wakeEN8dispatch13group_sessionE, 
                       __ZN15TransportModule5sleepEN8dispatch13group_sessionE, __ZN15TransportModule5startEN8dispatch13group_sessionE, 
                       __ZN15TransportModule6createENSt3__18weak_ptrI14ServiceManagerEE, 
                       __ZN15TransportModule8shutdownE13ShutdownStageN8dispatch13group_sessionE, 
                       __ZN15TransportModuleC1ENSt3__18weak_ptrI14ServiceManagerEE, 
                       __ZN15TransportModuleC2ENSt3__18weak_ptrI14ServiceManagerEE, 
                       __ZN15TransportModuleD0Ev, __ZN15TransportModuleD1Ev, __ZN15TransportModuleD2Ev, 
                       __ZN16NetworkingModule10initializeEN8dispatch13group_sessionE, 
                       __ZN16NetworkingModule18sendVisitInfo_syncEjj, __ZN16NetworkingModule24applyLQMAbortPolicy_syncEv, 
                       __ZN16NetworkingModule25finishInitialization_syncEv, __ZN16NetworkingModule4initEv, 
                       __ZN16NetworkingModule6createENSt3__18weak_ptrI14ServiceManagerEE, 
                       __ZN16NetworkingModule8shutdownEN8dispatch13group_sessionE, 
                       __ZN16NetworkingModuleC1ENSt3__18weak_ptrI14ServiceManagerEE, 
                       __ZN16NetworkingModuleC2ENSt3__18weak_ptrI14ServiceManagerEE, 
                       __ZN16NetworkingModuleD0Ev, __ZN16NetworkingModuleD1Ev, __ZN16NetworkingModuleD2Ev, 
                       __ZN16TransportService6createENSt3__110shared_ptrIN3ctu9LogServerEEENS1_I20AppleBasebandManagerEENS0_8weak_ptrI15TransportModuleEE, 
                       __ZN17ABMServerInternal10getRunLoopEv, __ZN17ABMServerInternal10start_syncEN8dispatch13group_sessionE, 
                       __ZN17ABMServerInternal12unicast_syncEN3xpc10connectionENSt3__112basic_stringIcNS2_11char_traitsIcEENS2_9allocatorIcEEEEN3ctu2cf11CFSharedRefIK14__CFDictionaryEEN8dispatch5blockIU13block_pointerFvvEEE, 
                       __ZN17ABMServerInternal13getState_syncEv, __ZN17ABMServerInternal13shutdown_syncEN8dispatch13group_sessionE, 
                       __ZN17ABMServerInternal14broadcast_syncENSt3__112basic_stringIcNS0_11char_traitsIcEENS0_9allocatorIcEEEEN3ctu2cf11CFSharedRefIK14__CFDictionaryEEN8dispatch5blockIU13block_pointerFvvEEE, 
                       __ZN17ABMServerInternal15finishStop_syncEv, __ZN17ABMServerInternal16changeState_syncE11ServerState, 
                       __ZN17ABMServerInternal16stopRunLoop_syncEv, __ZN17ABMServerInternal17startRunLoop_syncEv, 
                       __ZN17ABMServerInternal18checkShutdown_syncEN8dispatch13group_sessionE, 
                       __ZN17ABMServerInternal18handleMessage_syncEN3xpc10connectionENS0_4dictE, 
                       __ZN17ABMServerInternal19finishShutdown_syncEv, __ZN17ABMServerInternal19getClientState_syncEN3xpc10connectionE, 
                       __ZN17ABMServerInternal20handleNewClient_syncEN3xpc10connectionE, 
                       __ZN17ABMServerInternal20registerNotificationEN3xpc10connectionEbN3ctu2cf11CFSharedRefIK9__CFArrayEE, 
                       __ZN17ABMServerInternal22handleClientError_syncEN3xpc10connectionENS0_6objectE, 
                       __ZN17ABMServerInternal22handleServerError_syncEN3xpc6objectE, 
                       __ZN17ABMServerInternal24handlePublicMessage_syncEN3xpc10connectionERNS0_4dictE, 
                       __ZN17ABMServerInternal25broadcastServerState_syncENSt3__112basic_stringIcNS0_11char_traitsIcEENS0_9allocatorIcEEEE, 
                       __ZN17ABMServerInternal26handleInternalMessage_syncEN3xpc10connectionERNS0_4dictE, 
                       __ZN17ABMServerInternal4initENSt3__112basic_stringIcNS0_11char_traitsIcEENS0_9allocatorIcEEEENS0_10shared_ptrI14ServiceManagerEE, 
                       __ZN17ABMServerInternal4stopEP16dispatch_group_s, __ZN17ABMServerInternal5startEP16dispatch_group_s, 
                       __ZN17ABMServerInternal6createEv, __ZN17ABMServerInternal8shutdownEP16dispatch_group_s, 
                       __ZN17ABMServerInternal9broadcastENSt3__112basic_stringIcNS0_11char_traitsIcEENS0_9allocatorIcEEEEN3ctu2cf11CFSharedRefIK14__CFDictionaryEEN8dispatch5blockIU13block_pointerFvvEEE, 
                       __ZN17ABMServerInternal9stop_syncEN8dispatch13group_sessionE, 
                       __ZN17ABMServerInternalC1Ev, __ZN17ABMServerInternalC2Ev, 
                       __ZN17ABMServerInternalD0Ev, __ZN17ABMServerInternalD1Ev, 
                       __ZN17ABMServerInternalD2Ev, __ZN17ABMServiceManager17getInitTimeoutSecEv, 
                       __ZN17ABMServiceManager18getSleepTimeoutSecEv, __ZN17ABMServiceManager18getStartTimeoutSecEv, 
                       __ZN17ABMServiceManager21getShutdownTimeoutSecE13ShutdownStage, 
                       __ZN17ABMServiceManager22registerGlobalServicesEv, __ZN17ABMServiceManager23registerDynamicServicesEv, 
                       __ZN17ABMServiceManager28getDefaultShutdownTimeoutSecEv, __ZN17ABMServiceManager4initEv, 
                       __ZN17ABMServiceManager6createEv, __ZN17ABMServiceManagerC1Ev, 
                       __ZN17ABMServiceManagerC2Ev, __ZN17BasebandTransport10Parameters8toStringEv, 
                       __ZN17BasebandTransport10close_syncEv, __ZN17BasebandTransport10stopReaderEv, 
                       __ZN17BasebandTransport12openPCI_syncEv, __ZN17BasebandTransport12reportStatusEjN8dispatch5blockIU13block_pointerFvNS_6StatusEEEE, 
                       __ZN17BasebandTransport12timerOn_syncEv, __ZN17BasebandTransport13openHSIC_syncEv, 
                       __ZN17BasebandTransport13timerOff_syncEv, __ZN17BasebandTransport14queueRead_syncEv, 
                       __ZN17BasebandTransport15switchDIAG_syncEv, __ZN17BasebandTransport16startReader_syncEv, 
                       __ZN17BasebandTransport17updateDeltas_syncEv, __ZN17BasebandTransport4initEv, 
                       __ZN17BasebandTransport4openENS_10ParametersEN8dispatch5blockIU13block_pointerFvPhjEEE, 
                       __ZN17BasebandTransport4readEPhmPjbj, __ZN17BasebandTransport5closeEv, 
                       __ZN17BasebandTransport5writeEPKhmPjbj, __ZN17BasebandTransport6Status4initEv, 
                       __ZN17BasebandTransport6Status8toStringEv, __ZN17BasebandTransport6StatusC1Ev, 
                       __ZN17BasebandTransport6StatusC2Ev, __ZN17BasebandTransport6createENSt3__110shared_ptrIN3ctu9LogServerEEEN8dispatch5queueE, 
                       __ZN17BasebandTransport7getNameEv, __ZN17BasebandTransport8asStringENS_5StateE, 
                       __ZN17BasebandTransport8asStringENS_8ProtocolE, __ZN17BasebandTransport9dumpStateEb, 
                       __ZN17BasebandTransport9getStatusEv, __ZN17BasebandTransport9read_syncEN8dispatch13group_sessionE, 
                       __ZN17BasebandTransportC1ENSt3__110shared_ptrIN3ctu9LogServerEEEN8dispatch5queueE, 
                       __ZN17BasebandTransportC2ENSt3__110shared_ptrIN3ctu9LogServerEEEN8dispatch5queueE, 
                       __ZN17BasebandTransportD0Ev, __ZN17BasebandTransportD1Ev, 
                       __ZN17BasebandTransportD2Ev, __ZN17BasebandTransportdeEv, 
                       __ZN17ServerClientState12setCheckedInERKNSt3__112basic_stringIcNS0_11char_traitsIcEENS0_9allocatorIcEEEE, 
                       __ZN17ServerClientState25registerNotification_syncEbN3ctu2cf11CFSharedRefIK9__CFArrayEE, 
                       __ZN17ServerClientState29isNotificationRegistered_syncERKNSt3__112basic_stringIcNS0_11char_traitsIcEENS0_9allocatorIcEEEE, 
                       __ZN17ServerClientStateC1ERKNSt3__112basic_stringIcNS0_11char_traitsIcEENS0_9allocatorIcEEEE, 
                       __ZN17ServerClientStateC1Ev, __ZN17ServerClientStateC2ERKNSt3__112basic_stringIcNS0_11char_traitsIcEENS0_9allocatorIcEEEE, 
                       __ZN17ServerClientStateC2Ev, __ZN17WorkLoopIPCDriver10assignWorkEPNS_4WorkE, 
                       __ZN17WorkLoopIPCDriver12completeWorkEPNS_4WorkEb, __ZN17WorkLoopIPCDriver16processWorkQueueEPv, 
                       __ZN17WorkLoopIPCDriverC2Ev, __ZN17WorkLoopIPCDriverD0Ev, 
                       __ZN17WorkLoopIPCDriverD1Ev, __ZN17WorkLoopIPCDriverD2Ev, 
                       __ZN18DataStallDetection5startEv, __ZN18EURRouterIPCDriver10workEngageEv, 
                       __ZN18EURRouterIPCDriver11kStateNamesE, __ZN18EURRouterIPCDriver11processWorkEPN17WorkLoopIPCDriver4WorkE, 
                       __ZN18EURRouterIPCDriver11workRecoverEv, __ZN18EURRouterIPCDriver12workTearDownEv, 
                       __ZN18EURRouterIPCDriver16workExitLowPowerEv, __ZN18EURRouterIPCDriver17workEnterLowPowerEv, 
                       __ZN18EURRouterIPCDriver18createQMuxChannelsERKNSt3__112basic_stringIcNS0_11char_traitsIcEENS0_9allocatorIcEEEEbb, 
                       __ZN18EURRouterIPCDriver19changeStateInternalENS_5StateE, 
                       __ZN18EURRouterIPCDriver19handleInternalErrorEPKc, __ZN18EURRouterIPCDriver19stopWorkersInternalEv, 
                       __ZN18EURRouterIPCDriver20startWorkersInternalEv, __ZN18EURRouterIPCDriver22prepareWorkersInternalEv, 
                       __ZN18EURRouterIPCDriver4initEv, __ZN18EURRouterIPCDriver6createENSt3__18weak_ptrI16ATCSResetInvokerEE, 
                       __ZN18EURRouterIPCDriver7EURWorkC1EjPN17WorkLoopIPCDriver12WorkCallbackEPv, 
                       __ZN18EURRouterIPCDriver7EURWorkC2EjPN17WorkLoopIPCDriver12WorkCallbackEPv, 
                       __ZN18EURRouterIPCDriver8activateEv, __ZN18EURRouterIPCDriverC1ENSt3__18weak_ptrI16ATCSResetInvokerEE, 
                       __ZN18EURRouterIPCDriverC2ENSt3__18weak_ptrI16ATCSResetInvokerEE, 
                       __ZN18EURRouterIPCDriverD0Ev, __ZN18EURRouterIPCDriverD1Ev, 
                       __ZN18EURRouterIPCDriverD2Ev, __ZN19QMITransportService12enableBypassEb, 
                       __ZN19QMITransportService12exitLowPowerEN8dispatch13group_sessionE, 
                       __ZN19QMITransportService13enterLowPowerEN8dispatch13group_sessionE, 
                       __ZN19QMITransportService13shutdown_syncEv, __ZN19QMITransportService18getWakeReason_syncEj, 
                       __ZN19QMITransportService20configureHistorySizeEj, __ZN19QMITransportService21registerForWakeReasonEN8dispatch8callbackIU13block_pointerFv10WakeReasonEEE, 
                       __ZN19QMITransportService21updateWakeReason_syncEv, __ZN19QMITransportService22cancelWakeRequest_syncEv, 
                       __ZN19QMITransportService25shouldTeardownOnWillResetEv, __ZN19QMITransportService28reportPowerDownMessages_syncEv, 
                       __ZN19QMITransportService4initEv, __ZN19QMITransportService6engageEv, 
                       __ZN19QMITransportService7recoverEv, __ZN19QMITransportService8shutdownEv, 
                       __ZN19QMITransportService8snapshotENSt3__112basic_stringIcNS0_11char_traitsIcEENS0_9allocatorIcEEEE, 
                       __ZN19QMITransportService8tearDownEv, __ZN19QMITransportService9dumpStateEv, 
                       __ZN19QMITransportServiceC1ENSt3__110shared_ptrIN3ctu9LogServerEEENS1_I20AppleBasebandManagerEENS0_8weak_ptrI15TransportModuleEE, 
                       __ZN19QMITransportServiceC2ENSt3__110shared_ptrIN3ctu9LogServerEEENS1_I20AppleBasebandManagerEENS0_8weak_ptrI15TransportModuleEE, 
                       __ZN19QMITransportServiceD0Ev, __ZN19QMITransportServiceD1Ev, 
                       __ZN19QMITransportServiceD2Ev, __ZN20BasebandTransportMAV15switchDIAG_syncEv, 
                       __ZN20BasebandTransportMAVC1ENSt3__110shared_ptrIN3ctu9LogServerEEEN8dispatch5queueE, 
                       __ZN20BasebandTransportMAVC2ENSt3__110shared_ptrIN3ctu9LogServerEEEN8dispatch5queueE, 
                       __ZN20BasebandTransportMAVD0Ev, __ZN20BasebandTransportMAVD1Ev, 
                       __ZN20BasebandTransportMAVD2Ev, __ZN21CircularFileLogWriter10clear_syncEv, 
                       __ZN21CircularFileLogWriter10close_syncEv, __ZN21CircularFileLogWriter10write_syncENSt3__110shared_ptrIN3ctu10LogMessageEEE, 
                       __ZN21CircularFileLogWriter10write_syncEPKcm, __ZN21CircularFileLogWriter11setCapacityEm, 
                       __ZN21CircularFileLogWriter15openNewLog_syncEv, __ZN21CircularFileLogWriter17clearOldLogs_syncEv, 
                       __ZN21CircularFileLogWriter17getFileIndex_syncERjS0_, __ZN21CircularFileLogWriter20closeRunningLog_syncEv, 
                       __ZN21CircularFileLogWriter4openEv, __ZN21CircularFileLogWriter5clearEv, 
                       __ZN21CircularFileLogWriter5closeEv, __ZN21CircularFileLogWriter5writeENSt3__110shared_ptrIN3ctu10LogMessageEEE, 
                       __ZN21CircularFileLogWriter5writeEPKcm, __ZN21CircularFileLogWriter6createERKNS_6ParamsE, 
                       __ZN21CircularFileLogWriterC1ERKNS_6ParamsE, __ZN21CircularFileLogWriterC2ERKNS_6ParamsE, 
                       __ZN21NetworkStatsInterface5queryEv, __ZN21NetworkStatsInterface6createENSt3__110shared_ptrIN3ctu9LogServerEEE, 
                       __ZN21NetworkStatsInterfaceC1ENSt3__110shared_ptrIN3ctu9LogServerEEE, 
                       __ZN21NetworkStatsInterfaceC2ENSt3__110shared_ptrIN3ctu9LogServerEEE, 
                       __ZN23FlashlessBootController10sHandleLogEPviPKc, __ZN23FlashlessBootController11handleErrorEP9__CFError, 
                       __ZN23FlashlessBootController11printOutputEPK14__CFDictionary, 
                       __ZN23FlashlessBootController7prepareERNSt3__112basic_stringIcNS0_11char_traitsIcEENS0_9allocatorIcEEEE, 
                       __ZN23FlashlessBootController9bootModemERNSt3__112basic_stringIcNS0_11char_traitsIcEENS0_9allocatorIcEEEE, 
                       __ZN23FlashlessBootController9handleLogEiPKc, __ZN23FlashlessBootControllerC1Ev, 
                       __ZN23FlashlessBootControllerC2Ev, __ZN3abm15ParseWakeDataIPEN3xpc4dictERS1_, 
                       __ZN3abm15kGetWorkoutInfoE, __ZN3abm15kKeyWorkoutTypeE, __ZN3abm15kSetWorkoutInfoE, 
                       __ZN3abm16kKeySwimLocationE, __ZN3abm16kKeyWorkoutStateE, 
                       __ZN3abm19ParseWakeDataEurekaEN3xpc4dictERS1_, __ZN3abm19kKeyWorkoutLocationE, 
                       __ZN3abm22AWDHelperGetConnectionEv, __ZN3abm22AWDHelperSetConnectionENSt3__110shared_ptrIN3awd19AWDServerConnectionEEE, 
                       __ZN3abm23kKeyWorkoutInfoOverrideE, __ZN3abm5stats12typeAsStringENS0_7StatsIDE, 
                       __ZN3abm8asStringENS_11WorkoutTypeE, __ZN3abm8asStringENS_12SwimLocationE, 
                       __ZN3abm8asStringENS_12WorkoutStateE, __ZN3abm8asStringENS_15WorkoutLocationE, 
                       __ZN3awd7metrics15CrashReasonType10SharedCtorEv, __ZN3awd7metrics15CrashReasonType10SharedDtorEv, 
                       __ZN3awd7metrics15CrashReasonType16default_instanceEv, __ZN3awd7metrics15CrashReasonType17default_instance_E, 
                       __ZN3awd7metrics15CrashReasonType20kFileNameFieldNumberE, 
                       __ZN3awd7metrics15CrashReasonType21CheckTypeAndMergeFromERKN20wireless_diagnostics6google8protobuf11MessageLiteE, 
                       __ZN3awd7metrics15CrashReasonType21InitAsDefaultInstanceEv, 
                       __ZN3awd7metrics15CrashReasonType22kLineNumberFieldNumberE, 
                       __ZN3awd7metrics15CrashReasonType23kCrashReasonFieldNumberE, 
                       __ZN3awd7metrics15CrashReasonType27MergePartialFromCodedStreamEPN20wireless_diagnostics6google8protobuf2io16CodedInputStreamE, 
                       __ZN3awd7metrics15CrashReasonType4SwapEPS1_, __ZN3awd7metrics15CrashReasonType5ClearEv, 
                       __ZN3awd7metrics15CrashReasonType8CopyFromERKS1_, __ZN3awd7metrics15CrashReasonType9MergeFromERKS1_, 
                       __ZN3awd7metrics15CrashReasonTypeC1ERKS1_, __ZN3awd7metrics15CrashReasonTypeC1Ev, 
                       __ZN3awd7metrics15CrashReasonTypeC2ERKS1_, __ZN3awd7metrics15CrashReasonTypeC2Ev, 
                       __ZN3awd7metrics15CrashReasonTypeD0Ev, __ZN3awd7metrics15CrashReasonTypeD1Ev, 
                       __ZN3awd7metrics15CrashReasonTypeD2Ev, __ZN3awd7metrics17CommCenterNVMSync10SharedCtorEv, 
                       __ZN3awd7metrics17CommCenterNVMSync10SharedDtorEv, __ZN3awd7metrics17CommCenterNVMSync16default_instanceEv, 
                       __ZN3awd7metrics17CommCenterNVMSync17default_instance_E, __ZN3awd7metrics17CommCenterNVMSync18kReasonFieldNumberE, 
                       __ZN3awd7metrics17CommCenterNVMSync19kSuccessFieldNumberE, 
                       __ZN3awd7metrics17CommCenterNVMSync20kDurationFieldNumberE, 
                       __ZN3awd7metrics17CommCenterNVMSync21CheckTypeAndMergeFromERKN20wireless_diagnostics6google8protobuf11MessageLiteE, 
                       __ZN3awd7metrics17CommCenterNVMSync21InitAsDefaultInstanceEv, 
                       __ZN3awd7metrics17CommCenterNVMSync21kTimestampFieldNumberE, 
                       __ZN3awd7metrics17CommCenterNVMSync25kNothingToSyncFieldNumberE, 
                       __ZN3awd7metrics17CommCenterNVMSync27MergePartialFromCodedStreamEPN20wireless_diagnostics6google8protobuf2io16CodedInputStreamE, 
                       __ZN3awd7metrics17CommCenterNVMSync4SwapEPS1_, __ZN3awd7metrics17CommCenterNVMSync5ClearEv, 
                       __ZN3awd7metrics17CommCenterNVMSync8CopyFromERKS1_, __ZN3awd7metrics17CommCenterNVMSync9MergeFromERKS1_, 
                       __ZN3awd7metrics17CommCenterNVMSyncC1ERKS1_, __ZN3awd7metrics17CommCenterNVMSyncC1Ev, 
                       __ZN3awd7metrics17CommCenterNVMSyncC2ERKS1_, __ZN3awd7metrics17CommCenterNVMSyncC2Ev, 
                       __ZN3awd7metrics17CommCenterNVMSyncD0Ev, __ZN3awd7metrics17CommCenterNVMSyncD1Ev, 
                       __ZN3awd7metrics17CommCenterNVMSyncD2Ev, __ZN3awd7metrics18CommCenterWakeInfo10SharedCtorEv, 
                       __ZN3awd7metrics18CommCenterWakeInfo10SharedDtorEv, __ZN3awd7metrics18CommCenterWakeInfo16default_instanceEv, 
                       __ZN3awd7metrics18CommCenterWakeInfo17default_instance_E, 
                       __ZN3awd7metrics18CommCenterWakeInfo21CheckTypeAndMergeFromERKN20wireless_diagnostics6google8protobuf11MessageLiteE, 
                       __ZN3awd7metrics18CommCenterWakeInfo21InitAsDefaultInstanceEv, 
                       __ZN3awd7metrics18CommCenterWakeInfo21kTimestampFieldNumberE, 
                       __ZN3awd7metrics18CommCenterWakeInfo25kLastSleepTypeFieldNumberE, 
                       __ZN3awd7metrics18CommCenterWakeInfo27MergePartialFromCodedStreamEPN20wireless_diagnostics6google8protobuf2io16CodedInputStreamE, 
                       __ZN3awd7metrics18CommCenterWakeInfo28kLastWakeDurationFieldNumberE, 
                       __ZN3awd7metrics18CommCenterWakeInfo29kLastSleepDurationFieldNumberE, 
                       __ZN3awd7metrics18CommCenterWakeInfo4SwapEPS1_, __ZN3awd7metrics18CommCenterWakeInfo5ClearEv, 
                       __ZN3awd7metrics18CommCenterWakeInfo8CopyFromERKS1_, __ZN3awd7metrics18CommCenterWakeInfo9MergeFromERKS1_, 
                       __ZN3awd7metrics18CommCenterWakeInfoC1ERKS1_, __ZN3awd7metrics18CommCenterWakeInfoC1Ev, 
                       __ZN3awd7metrics18CommCenterWakeInfoC2ERKS1_, __ZN3awd7metrics18CommCenterWakeInfoC2Ev, 
                       __ZN3awd7metrics18CommCenterWakeInfoD0Ev, __ZN3awd7metrics18CommCenterWakeInfoD1Ev, 
                       __ZN3awd7metrics18CommCenterWakeInfoD2Ev, __ZN3awd7metrics22CommCenterBasebanCrash10SharedCtorEv, 
                       __ZN3awd7metrics22CommCenterBasebanCrash10SharedDtorEv, __ZN3awd7metrics22CommCenterBasebanCrash16default_instanceEv, 
                       __ZN3awd7metrics22CommCenterBasebanCrash17default_instance_E, 
                       __ZN3awd7metrics22CommCenterBasebanCrash21CheckTypeAndMergeFromERKN20wireless_diagnostics6google8protobuf11MessageLiteE, 
                       __ZN3awd7metrics22CommCenterBasebanCrash21InitAsDefaultInstanceEv, 
                       __ZN3awd7metrics22CommCenterBasebanCrash21kTimestampFieldNumberE, 
                       __ZN3awd7metrics22CommCenterBasebanCrash27MergePartialFromCodedStreamEPN20wireless_diagnostics6google8protobuf2io16CodedInputStreamE, 
                       __ZN3awd7metrics22CommCenterBasebanCrash27kCrashReasonTypeFieldNumberE, 
                       __ZN3awd7metrics22CommCenterBasebanCrash4SwapEPS1_, __ZN3awd7metrics22CommCenterBasebanCrash5ClearEv, 
                       __ZN3awd7metrics22CommCenterBasebanCrash8CopyFromERKS1_, __ZN3awd7metrics22CommCenterBasebanCrash9MergeFromERKS1_, 
                       __ZN3awd7metrics22CommCenterBasebanCrashC1ERKS1_, __ZN3awd7metrics22CommCenterBasebanCrashC1Ev, 
                       __ZN3awd7metrics22CommCenterBasebanCrashC2ERKS1_, __ZN3awd7metrics22CommCenterBasebanCrashC2Ev, 
                       __ZN3awd7metrics22CommCenterBasebanCrashD0Ev, __ZN3awd7metrics22CommCenterBasebanCrashD1Ev, 
                       __ZN3awd7metrics22CommCenterBasebanCrashD2Ev, __ZN3awd7metrics23CommCenterBasebandTrace10SharedCtorEv, 
                       __ZN3awd7metrics23CommCenterBasebandTrace10SharedDtorEv, __ZN3awd7metrics23CommCenterBasebandTrace16default_instanceEv, 
                       __ZN3awd7metrics23CommCenterBasebandTrace17default_instance_E, 
                       __ZN3awd7metrics23CommCenterBasebandTrace21CheckTypeAndMergeFromERKN20wireless_diagnostics6google8protobuf11MessageLiteE, 
                       __ZN3awd7metrics23CommCenterBasebandTrace21InitAsDefaultInstanceEv, 
                       __ZN3awd7metrics23CommCenterBasebandTrace21kTimestampFieldNumberE, 
                       __ZN3awd7metrics23CommCenterBasebandTrace23kRequestTypeFieldNumberE, 
                       __ZN3awd7metrics23CommCenterBasebandTrace25kRequestReasonFieldNumberE, 
                       __ZN3awd7metrics23CommCenterBasebandTrace27MergePartialFromCodedStreamEPN20wireless_diagnostics6google8protobuf2io16CodedInputStreamE, 
                       __ZN3awd7metrics23CommCenterBasebandTrace4SwapEPS1_, __ZN3awd7metrics23CommCenterBasebandTrace5ClearEv, 
                       __ZN3awd7metrics23CommCenterBasebandTrace8CopyFromERKS1_, 
                       __ZN3awd7metrics23CommCenterBasebandTrace9MergeFromERKS1_, 
                       __ZN3awd7metrics23CommCenterBasebandTraceC1ERKS1_, __ZN3awd7metrics23CommCenterBasebandTraceC1Ev, 
                       __ZN3awd7metrics23CommCenterBasebandTraceC2ERKS1_, __ZN3awd7metrics23CommCenterBasebandTraceC2Ev, 
                       __ZN3awd7metrics23CommCenterBasebandTraceD0Ev, __ZN3awd7metrics23CommCenterBasebandTraceD1Ev, 
                       __ZN3awd7metrics23CommCenterBasebandTraceD2Ev, __ZN3awd7metrics23CommCenterLowPowerEvent10SharedCtorEv, 
                       __ZN3awd7metrics23CommCenterLowPowerEvent10SharedDtorEv, __ZN3awd7metrics23CommCenterLowPowerEvent16default_instanceEv, 
                       __ZN3awd7metrics23CommCenterLowPowerEvent17default_instance_E, 
                       __ZN3awd7metrics23CommCenterLowPowerEvent18kReasonFieldNumberE, 
                       __ZN3awd7metrics23CommCenterLowPowerEvent21CheckTypeAndMergeFromERKN20wireless_diagnostics6google8protobuf11MessageLiteE, 
                       __ZN3awd7metrics23CommCenterLowPowerEvent21InitAsDefaultInstanceEv, 
                       __ZN3awd7metrics23CommCenterLowPowerEvent21kEventTypeFieldNumberE, 
                       __ZN3awd7metrics23CommCenterLowPowerEvent21kSleepTypeFieldNumberE, 
                       __ZN3awd7metrics23CommCenterLowPowerEvent21kTimestampFieldNumberE, 
                       __ZN3awd7metrics23CommCenterLowPowerEvent27MergePartialFromCodedStreamEPN20wireless_diagnostics6google8protobuf2io16CodedInputStreamE, 
                       __ZN3awd7metrics23CommCenterLowPowerEvent4SwapEPS1_, __ZN3awd7metrics23CommCenterLowPowerEvent5ClearEv, 
                       __ZN3awd7metrics23CommCenterLowPowerEvent8CopyFromERKS1_, 
                       __ZN3awd7metrics23CommCenterLowPowerEvent9MergeFromERKS1_, 
                       __ZN3awd7metrics23CommCenterLowPowerEventC1ERKS1_, __ZN3awd7metrics23CommCenterLowPowerEventC1Ev, 
                       __ZN3awd7metrics23CommCenterLowPowerEventC2ERKS1_, __ZN3awd7metrics23CommCenterLowPowerEventC2Ev, 
                       __ZN3awd7metrics23CommCenterLowPowerEventD0Ev, __ZN3awd7metrics23CommCenterLowPowerEventD1Ev, 
                       __ZN3awd7metrics23CommCenterLowPowerEventD2Ev, __ZN3awd7metrics23CommCenterLowPowerStats10SharedCtorEv, 
                       __ZN3awd7metrics23CommCenterLowPowerStats10SharedDtorEv, __ZN3awd7metrics23CommCenterLowPowerStats16default_instanceEv, 
                       __ZN3awd7metrics23CommCenterLowPowerStats17default_instance_E, 
                       __ZN3awd7metrics23CommCenterLowPowerStats17kWakesFieldNumberE, 
                       __ZN3awd7metrics23CommCenterLowPowerStats21CheckTypeAndMergeFromERKN20wireless_diagnostics6google8protobuf11MessageLiteE, 
                       __ZN3awd7metrics23CommCenterLowPowerStats21InitAsDefaultInstanceEv, 
                       __ZN3awd7metrics23CommCenterLowPowerStats21kTimestampFieldNumberE, 
                       __ZN3awd7metrics23CommCenterLowPowerStats22kIdleSleepsFieldNumberE, 
                       __ZN3awd7metrics23CommCenterLowPowerStats24kForcedSleepsFieldNumberE, 
                       __ZN3awd7metrics23CommCenterLowPowerStats27MergePartialFromCodedStreamEPN20wireless_diagnostics6google8protobuf2io16CodedInputStreamE, 
                       __ZN3awd7metrics23CommCenterLowPowerStats27kLowpowerRevertsFieldNumberE, 
                       __ZN3awd7metrics23CommCenterLowPowerStats27kOperationDefersFieldNumberE, 
                       __ZN3awd7metrics23CommCenterLowPowerStats28kMissedMTMessagesFieldNumberE, 
                       __ZN3awd7metrics23CommCenterLowPowerStats31kNumMissedMTMessagesFieldNumberE, 
                       __ZN3awd7metrics23CommCenterLowPowerStats34kOperationInterruptionsFieldNumberE, 
                       __ZN3awd7metrics23CommCenterLowPowerStats4SwapEPS1_, __ZN3awd7metrics23CommCenterLowPowerStats5ClearEv, 
                       __ZN3awd7metrics23CommCenterLowPowerStats8CopyFromERKS1_, 
                       __ZN3awd7metrics23CommCenterLowPowerStats9MergeFromERKS1_, 
                       __ZN3awd7metrics23CommCenterLowPowerStatsC1ERKS1_, __ZN3awd7metrics23CommCenterLowPowerStatsC1Ev, 
                       __ZN3awd7metrics23CommCenterLowPowerStatsC2ERKS1_, __ZN3awd7metrics23CommCenterLowPowerStatsC2Ev, 
                       __ZN3awd7metrics23CommCenterLowPowerStatsD0Ev, __ZN3awd7metrics23CommCenterLowPowerStatsD1Ev, 
                       __ZN3awd7metrics23CommCenterLowPowerStatsD2Ev, __ZN3awd7metrics25CommCenterMissedMTMessage10SharedCtorEv, 
                       __ZN3awd7metrics25CommCenterMissedMTMessage10SharedDtorEv, 
                       __ZN3awd7metrics25CommCenterMissedMTMessage16default_instanceEv, 
                       __ZN3awd7metrics25CommCenterMissedMTMessage17default_instance_E, 
                       __ZN3awd7metrics25CommCenterMissedMTMessage17kCountFieldNumberE, 
                       __ZN3awd7metrics25CommCenterMissedMTMessage21CheckTypeAndMergeFromERKN20wireless_diagnostics6google8protobuf11MessageLiteE, 
                       __ZN3awd7metrics25CommCenterMissedMTMessage21InitAsDefaultInstanceEv, 
                       __ZN3awd7metrics25CommCenterMissedMTMessage21kMessageIDFieldNumberE, 
                       __ZN3awd7metrics25CommCenterMissedMTMessage23kServiceTypeFieldNumberE, 
                       __ZN3awd7metrics25CommCenterMissedMTMessage24kMissedMTTypeFieldNumberE, 
                       __ZN3awd7metrics25CommCenterMissedMTMessage27MergePartialFromCodedStreamEPN20wireless_diagnostics6google8protobuf2io16CodedInputStreamE, 
                       __ZN3awd7metrics25CommCenterMissedMTMessage4SwapEPS1_, __ZN3awd7metrics25CommCenterMissedMTMessage5ClearEv, 
                       __ZN3awd7metrics25CommCenterMissedMTMessage8CopyFromERKS1_, 
                       __ZN3awd7metrics25CommCenterMissedMTMessage9MergeFromERKS1_, 
                       __ZN3awd7metrics25CommCenterMissedMTMessageC1ERKS1_, __ZN3awd7metrics25CommCenterMissedMTMessageC1Ev, 
                       __ZN3awd7metrics25CommCenterMissedMTMessageC2ERKS1_, __ZN3awd7metrics25CommCenterMissedMTMessageC2Ev, 
                       __ZN3awd7metrics25CommCenterMissedMTMessageD0Ev, __ZN3awd7metrics25CommCenterMissedMTMessageD1Ev, 
                       __ZN3awd7metrics25CommCenterMissedMTMessageD2Ev, __ZN3awd7metrics26CommCenterBasebandBootTime10SharedCtorEv, 
                       __ZN3awd7metrics26CommCenterBasebandBootTime10SharedDtorEv, 
                       __ZN3awd7metrics26CommCenterBasebandBootTime16default_instanceEv, 
                       __ZN3awd7metrics26CommCenterBasebandBootTime17default_instance_E, 
                       __ZN3awd7metrics26CommCenterBasebandBootTime19kAttemptFieldNumberE, 
                       __ZN3awd7metrics26CommCenterBasebandBootTime19kSuccessFieldNumberE, 
                       __ZN3awd7metrics26CommCenterBasebandBootTime20kBootTimeFieldNumberE, 
                       __ZN3awd7metrics26CommCenterBasebandBootTime21CheckTypeAndMergeFromERKN20wireless_diagnostics6google8protobuf11MessageLiteE, 
                       __ZN3awd7metrics26CommCenterBasebandBootTime21InitAsDefaultInstanceEv, 
                       __ZN3awd7metrics26CommCenterBasebandBootTime21kTimestampFieldNumberE, 
                       __ZN3awd7metrics26CommCenterBasebandBootTime24kErrorDetailsFieldNumberE, 
                       __ZN3awd7metrics26CommCenterBasebandBootTime27MergePartialFromCodedStreamEPN20wireless_diagnostics6google8protobuf2io16CodedInputStreamE, 
                       __ZN3awd7metrics26CommCenterBasebandBootTime4SwapEPS1_, __ZN3awd7metrics26CommCenterBasebandBootTime5ClearEv, 
                       __ZN3awd7metrics26CommCenterBasebandBootTime8CopyFromERKS1_, 
                       __ZN3awd7metrics26CommCenterBasebandBootTime9MergeFromERKS1_, 
                       __ZN3awd7metrics26CommCenterBasebandBootTimeC1ERKS1_, __ZN3awd7metrics26CommCenterBasebandBootTimeC1Ev, 
                       __ZN3awd7metrics26CommCenterBasebandBootTimeC2ERKS1_, __ZN3awd7metrics26CommCenterBasebandBootTimeC2Ev, 
                       __ZN3awd7metrics26CommCenterBasebandBootTimeD0Ev, __ZN3awd7metrics26CommCenterBasebandBootTimeD1Ev, 
                       __ZN3awd7metrics26CommCenterBasebandBootTimeD2Ev, __ZN3awd7metrics27CommCenterPowerVotingRecord10SharedCtorEv, 
                       __ZN3awd7metrics27CommCenterPowerVotingRecord10SharedDtorEv, 
                       __ZN3awd7metrics27CommCenterPowerVotingRecord16default_instanceEv, 
                       __ZN3awd7metrics27CommCenterPowerVotingRecord17default_instance_E, 
                       __ZN3awd7metrics27CommCenterPowerVotingRecord21CheckTypeAndMergeFromERKN20wireless_diagnostics6google8protobuf11MessageLiteE, 
                       __ZN3awd7metrics27CommCenterPowerVotingRecord21InitAsDefaultInstanceEv, 
                       __ZN3awd7metrics27CommCenterPowerVotingRecord22kRecordTypeFieldNumberE, 
                       __ZN3awd7metrics27CommCenterPowerVotingRecord26kFilterIdReasonFieldNumberE, 
                       __ZN3awd7metrics27CommCenterPowerVotingRecord27MergePartialFromCodedStreamEPN20wireless_diagnostics6google8protobuf2io16CodedInputStreamE, 
                       __ZN3awd7metrics27CommCenterPowerVotingRecord4SwapEPS1_, __ZN3awd7metrics27CommCenterPowerVotingRecord5ClearEv, 
                       __ZN3awd7metrics27CommCenterPowerVotingRecord8CopyFromERKS1_, 
                       __ZN3awd7metrics27CommCenterPowerVotingRecord9MergeFromERKS1_, 
                       __ZN3awd7metrics27CommCenterPowerVotingRecordC1ERKS1_, __ZN3awd7metrics27CommCenterPowerVotingRecordC1Ev, 
                       __ZN3awd7metrics27CommCenterPowerVotingRecordC2ERKS1_, __ZN3awd7metrics27CommCenterPowerVotingRecordC2Ev, 
                       __ZN3awd7metrics27CommCenterPowerVotingRecordD0Ev, __ZN3awd7metrics27CommCenterPowerVotingRecordD1Ev, 
                       __ZN3awd7metrics27CommCenterPowerVotingRecordD2Ev, __ZN3awd7metrics27CommCenterSleepType_IsValidEi, 
                       __ZN3awd7metrics30CommCenterAccessoryInformation10SharedCtorEv, 
                       __ZN3awd7metrics30CommCenterAccessoryInformation10SharedDtorEv, 
                       __ZN3awd7metrics30CommCenterAccessoryInformation16default_instanceEv, 
                       __ZN3awd7metrics30CommCenterAccessoryInformation17default_instance_E, 
                       __ZN3awd7metrics30CommCenterAccessoryInformation21CheckTypeAndMergeFromERKN20wireless_diagnostics6google8protobuf11MessageLiteE, 
                       __ZN3awd7metrics30CommCenterAccessoryInformation21InitAsDefaultInstanceEv, 
                       __ZN3awd7metrics30CommCenterAccessoryInformation21kTimestampFieldNumberE, 
                       __ZN3awd7metrics30CommCenterAccessoryInformation27MergePartialFromCodedStreamEPN20wireless_diagnostics6google8protobuf2io16CodedInputStreamE, 
                       __ZN3awd7metrics30CommCenterAccessoryInformation34kConnectedAccessoryTypeFieldNumberE, 
                       __ZN3awd7metrics30CommCenterAccessoryInformation35kConnectedAccessoryStateFieldNumberE, 
                       __ZN3awd7metrics30CommCenterAccessoryInformation4SwapEPS1_, 
                       __ZN3awd7metrics30CommCenterAccessoryInformation5ClearEv, 
                       __ZN3awd7metrics30CommCenterAccessoryInformation8CopyFromERKS1_, 
                       __ZN3awd7metrics30CommCenterAccessoryInformation9MergeFromERKS1_, 
                       __ZN3awd7metrics30CommCenterAccessoryInformationC1ERKS1_, 
                       __ZN3awd7metrics30CommCenterAccessoryInformationC1Ev, __ZN3awd7metrics30CommCenterAccessoryInformationC2ERKS1_, 
                       __ZN3awd7metrics30CommCenterAccessoryInformationC2Ev, __ZN3awd7metrics30CommCenterAccessoryInformationD0Ev, 
                       __ZN3awd7metrics30CommCenterAccessoryInformationD1Ev, __ZN3awd7metrics30CommCenterAccessoryInformationD2Ev, 
                       __ZN3awd7metrics30CommCenterMissedMTType_IsValidEi, __ZN3awd7metrics31CommCenterNVMSyncReason_IsValidEi, 
                       __ZN3awd7metrics32CommCenterPowerTransitionFailure10SharedCtorEv, 
                       __ZN3awd7metrics32CommCenterPowerTransitionFailure10SharedDtorEv, 
                       __ZN3awd7metrics32CommCenterPowerTransitionFailure16default_instanceEv, 
                       __ZN3awd7metrics32CommCenterPowerTransitionFailure17default_instance_E, 
                       __ZN3awd7metrics32CommCenterPowerTransitionFailure21CheckTypeAndMergeFromERKN20wireless_diagnostics6google8protobuf11MessageLiteE, 
                       __ZN3awd7metrics32CommCenterPowerTransitionFailure21InitAsDefaultInstanceEv, 
                       __ZN3awd7metrics32CommCenterPowerTransitionFailure21kTimestampFieldNumberE, 
                       __ZN3awd7metrics32CommCenterPowerTransitionFailure25kVotingRecordsFieldNumberE, 
                       __ZN3awd7metrics32CommCenterPowerTransitionFailure26kTransitionTypeFieldNumberE, 
                       __ZN3awd7metrics32CommCenterPowerTransitionFailure27MergePartialFromCodedStreamEPN20wireless_diagnostics6google8protobuf2io16CodedInputStreamE, 
                       __ZN3awd7metrics32CommCenterPowerTransitionFailure27kTriggerIdReasonFieldNumberE, 
                       __ZN3awd7metrics32CommCenterPowerTransitionFailure4SwapEPS1_, 
                       __ZN3awd7metrics32CommCenterPowerTransitionFailure5ClearEv, 
                       __ZN3awd7metrics32CommCenterPowerTransitionFailure8CopyFromERKS1_, 
                       __ZN3awd7metrics32CommCenterPowerTransitionFailure9MergeFromERKS1_, 
                       __ZN3awd7metrics32CommCenterPowerTransitionFailureC1ERKS1_, 
                       __ZN3awd7metrics32CommCenterPowerTransitionFailureC1Ev, __ZN3awd7metrics32CommCenterPowerTransitionFailureC2ERKS1_, 
                       __ZN3awd7metrics32CommCenterPowerTransitionFailureC2Ev, __ZN3awd7metrics32CommCenterPowerTransitionFailureD0Ev, 
                       __ZN3awd7metrics32CommCenterPowerTransitionFailureD1Ev, __ZN3awd7metrics32CommCenterPowerTransitionFailureD2Ev, 
                       __ZN3awd7metrics32CommCenterPowerTransitionSuccess10SharedCtorEv, 
                       __ZN3awd7metrics32CommCenterPowerTransitionSuccess10SharedDtorEv, 
                       __ZN3awd7metrics32CommCenterPowerTransitionSuccess16default_instanceEv, 
                       __ZN3awd7metrics32CommCenterPowerTransitionSuccess17default_instance_E, 
                       __ZN3awd7metrics32CommCenterPowerTransitionSuccess21CheckTypeAndMergeFromERKN20wireless_diagnostics6google8protobuf11MessageLiteE, 
                       __ZN3awd7metrics32CommCenterPowerTransitionSuccess21InitAsDefaultInstanceEv, 
                       __ZN3awd7metrics32CommCenterPowerTransitionSuccess21kTimestampFieldNumberE, 
                       __ZN3awd7metrics32CommCenterPowerTransitionSuccess25kVotingRecordsFieldNumberE, 
                       __ZN3awd7metrics32CommCenterPowerTransitionSuccess26kTransitionTypeFieldNumberE, 
                       __ZN3awd7metrics32CommCenterPowerTransitionSuccess27MergePartialFromCodedStreamEPN20wireless_diagnostics6google8protobuf2io16CodedInputStreamE, 
                       __ZN3awd7metrics32CommCenterPowerTransitionSuccess27kTriggerIdReasonFieldNumberE, 
                       __ZN3awd7metrics32CommCenterPowerTransitionSuccess4SwapEPS1_, 
                       __ZN3awd7metrics32CommCenterPowerTransitionSuccess5ClearEv, 
                       __ZN3awd7metrics32CommCenterPowerTransitionSuccess8CopyFromERKS1_, 
                       __ZN3awd7metrics32CommCenterPowerTransitionSuccess9MergeFromERKS1_, 
                       __ZN3awd7metrics32CommCenterPowerTransitionSuccessC1ERKS1_, 
                       __ZN3awd7metrics32CommCenterPowerTransitionSuccessC1Ev, __ZN3awd7metrics32CommCenterPowerTransitionSuccessC2ERKS1_, 
                       __ZN3awd7metrics32CommCenterPowerTransitionSuccessC2Ev, __ZN3awd7metrics32CommCenterPowerTransitionSuccessD0Ev, 
                       __ZN3awd7metrics32CommCenterPowerTransitionSuccessD1Ev, __ZN3awd7metrics32CommCenterPowerTransitionSuccessD2Ev, 
                       __ZN3awd7metrics35CommCenterLowPowerEventType_IsValidEi, __ZN3awd7metrics37protobuf_AddDesc_CCMetricsABM_2eprotoEv, 
                       __ZN3awd7metrics42protobuf_AddDesc_CCMetricsABMPower_2eprotoEv, 
                       __ZN3awd7metrics42protobuf_ShutdownFile_CCMetricsABM_2eprotoEv, 
                       __ZN3awd7metrics47protobuf_ShutdownFile_CCMetricsABMPower_2eprotoEv, 
                       __ZN3awd7metrics51static_descriptor_initializer_CCMetricsABM_2eproto_E, 
                       __ZN3awd7metrics56static_descriptor_initializer_CCMetricsABMPower_2eproto_E, 
                       __ZN4coex10kKeyPolicyE, __ZN4coex13kKeyWWANStateE, __ZN4coex15kKeyLinkQualityE, 
                       __ZN4coex17kKeyFailConditionE, __ZN4coex17kKeyWLANConnStateE, 
                       __ZN4coex17kKeyWLANScanStateE, __ZN4coex6Module10initializeEN8dispatch13group_sessionE, 
                       __ZN4coex6Module5State14getSubPropertyEPK10__CFStringNS_5SubIdEb, 
                       __ZN4coex6Module5State14setPolicy_syncENS_5SubIdE, __ZN4coex6Module5State18sendWWANState_syncENS_5SubIdE, 
                       __ZN4coex6Module5State20sendLinkQuality_syncENS_5SubIdE, __ZN4coex6Module5State22handleSetWCI2Mode_syncEN3xpc4dictENS_5SubIdE, 
                       __ZN4coex6Module5State22sendFailCondition_syncENS_5SubIdE, 
                       __ZN4coex6Module5State23handleSetLAAConfig_syncEN3xpc4dictENS_5SubIdE, 
                       __ZN4coex6Module5State23setLinkQualityMode_syncEjNS_5SubIdE, 
                       __ZN4coex6Module5State24handleSetWiFiStatus_syncEN3xpc4dictENS_5SubIdE, 
                       __ZN4coex6Module5State26handleSetTxPowerLimit_syncEN3xpc6objectENS_5SubIdE, 
                       __ZN4coex6Module5State29handleSetLinkQualityMode_syncEN3xpc4dictENS_5SubIdE, 
                       __ZN4coex6Module5State30handleSetRC1DurationParam_syncEN3xpc4dictENS_5SubIdE, 
                       __ZN4coex6Module5State30handleSetWCI2TxPowerLimit_syncEN3xpc6objectENS_5SubIdE, 
                       __ZN4coex6Module5State31handleSetFCMBCMAntennaMode_syncEN3xpc4dictENS_5SubIdE, 
                       __ZN4coex6Module5State32handleGetScanFreqBandFilter_syncENS_5SubIdE, 
                       __ZN4coex6Module5State32handleSetScanFreqBandFilter_syncEN3xpc5arrayENS_5SubIdE, 
                       __ZN4coex6Module5State33handleSetWCI2CalibrationInfo_syncEN3xpc4dictENS_5SubIdE, 
                       __ZN4coex6Module5State35handleCommandDriverStateUpdate_syncEN3ctu2cf11CFSharedRefIK14__CFDictionaryEENS_5SubIdE, 
                       __ZN4coex6Module5State37handleSetNetworkConfigOfInterest_syncEN3xpc5arrayENS_5SubIdE, 
                       __ZN4coex6Module5State6createENSt3__110shared_ptrIN3ctu9LogServerEEENS2_8weak_ptrI14ServiceManagerEE, 
                       __ZN4coex6Module5State8shutdownE13ShutdownStageN8dispatch13group_sessionE, 
                       __ZN4coex6Module5StateC1ENSt3__110shared_ptrIN3ctu9LogServerEEENS3_INS_13CommandDriverEEENS2_8weak_ptrI14ServiceManagerEE, 
                       __ZN4coex6Module5StateC2ENSt3__110shared_ptrIN3ctu9LogServerEEENS3_INS_13CommandDriverEEENS2_8weak_ptrI14ServiceManagerEE, 
                       __ZN4coex6Module5StateD0Ev, __ZN4coex6Module5StateD1Ev, __ZN4coex6Module5StateD2Ev, 
                       __ZN4coex6Module5startEN8dispatch13group_sessionE, __ZN4coex6Module6createENSt3__18weak_ptrI14ServiceManagerEE, 
                       __ZN4coex6Module8shutdownE13ShutdownStageN8dispatch13group_sessionE, 
                       __ZN4coex6ModuleC1ENSt3__18weak_ptrI14ServiceManagerEE, __ZN4coex6ModuleC2ENSt3__18weak_ptrI14ServiceManagerEE, 
                       __ZN4coex6ModuleD0Ev, __ZN4coex9XpcClient11sendMessageE19WCMReceiveMessageIdN3xpc6objectENS_5SubIdE, 
                       __ZN4coex9XpcClient13register_syncEv, __ZN4coex9XpcClient18handleMessage_syncEN3xpc4dictE, 
                       __ZN4coex9XpcClient22handleServerError_syncEN3xpc6objectE, 
                       __ZN4coex9XpcClient22registerCommandHandlerE16WCMSendMessageIdN8dispatch5blockIU13block_pointerFvN3xpc6objectENS_5SubIdEEEE, 
                       __ZN4coex9XpcClient4initEv, __ZN4coex9XpcClient5startEv, __ZN4coex9XpcClient6createENSt3__110shared_ptrIN3ctu9LogServerEEERKNS1_12basic_stringIcNS1_11char_traitsIcEENS1_9allocatorIcEEEE, 
                       __ZN4coex9XpcClient7getNameEv, __ZN4coex9XpcClientC1ENSt3__110shared_ptrIN3ctu9LogServerEEERKNS1_12basic_stringIcNS1_11char_traitsIcEENS1_9allocatorIcEEEE, 
                       __ZN4coex9XpcClientC2ENSt3__110shared_ptrIN3ctu9LogServerEEERKNS1_12basic_stringIcNS1_11char_traitsIcEENS1_9allocatorIcEEEE, 
                       __ZN4coex9XpcClientD0Ev, __ZN4coex9XpcClientD1Ev, __ZN4coex9XpcClientD2Ev, 
                       __ZN4diag6config15kADPLScratchDirE, __ZN4diag6config19kDefaultADPLHistoryE, 
                       __ZN4diag6config20kDefaultWatchHistoryE, __ZN4prop10systemlogs3getERKNSt3__112basic_stringIcNS1_11char_traitsIcEENS1_9allocatorIcEEEERS7_, 
                       __ZN4prop10systemlogs3setERKNSt3__112basic_stringIcNS1_11char_traitsIcEENS1_9allocatorIcEEEES9_, 
                       __ZN4prop11compression3getERKNSt3__112basic_stringIcNS1_11char_traitsIcEENS1_9allocatorIcEEEERS7_, 
                       __ZN4prop11compression3setERKNSt3__112basic_stringIcNS1_11char_traitsIcEENS1_9allocatorIcEEEES9_, 
                       __ZN4prop13tracesettings10anyEnabledEv, __ZN4prop13tracesettings12isContinuousEv, 
                       __ZN4prop13tracesettings3getERKNSt3__112basic_stringIcNS1_11char_traitsIcEENS1_9allocatorIcEEEERS7_, 
                       __ZN4prop13tracesettings3setERKNSt3__112basic_stringIcNS1_11char_traitsIcEENS1_9allocatorIcEEEES9_, 
                       __ZN4prop13tracesettings7enabledEPKc, __ZN4prop3ddt3getERKNSt3__112basic_stringIcNS1_11char_traitsIcEENS1_9allocatorIcEEEERS7_, 
                       __ZN4prop3ddt3setERKNSt3__112basic_stringIcNS1_11char_traitsIcEENS1_9allocatorIcEEEES9_, 
                       __ZN4prop3getERKNSt3__112basic_stringIcNS0_11char_traitsIcEENS0_9allocatorIcEEEES8_RS6_, 
                       __ZN4prop3ipc3getERKNSt3__112basic_stringIcNS1_11char_traitsIcEENS1_9allocatorIcEEEERS7_, 
                       __ZN4prop3ipc3setERKNSt3__112basic_stringIcNS1_11char_traitsIcEENS1_9allocatorIcEEEES9_, 
                       __ZN4prop3setERKNSt3__112basic_stringIcNS0_11char_traitsIcEENS0_9allocatorIcEEEES8_S8_, 
                       __ZN4prop3ttr3getERKNSt3__112basic_stringIcNS1_11char_traitsIcEENS1_9allocatorIcEEEERS7_, 
                       __ZN4prop3ttr3setERKNSt3__112basic_stringIcNS1_11char_traitsIcEENS1_9allocatorIcEEEES9_, 
                       __ZN4prop5bbipc3getERKNSt3__112basic_stringIcNS1_11char_traitsIcEENS1_9allocatorIcEEEERS7_, 
                       __ZN4prop5bbipc3setERKNSt3__112basic_stringIcNS1_11char_traitsIcEENS1_9allocatorIcEEEES9_, 
                       __ZN4prop7bbtrace3getERKNSt3__112basic_stringIcNS1_11char_traitsIcEENS1_9allocatorIcEEEERS7_, 
                       __ZN4prop7bbtrace3setERKNSt3__112basic_stringIcNS1_11char_traitsIcEENS1_9allocatorIcEEEES9_, 
                       __ZN4prop7profile3getERKNSt3__112basic_stringIcNS1_11char_traitsIcEENS1_9allocatorIcEEEERS7_, 
                       __ZN4prop7profile3setERKNSt3__112basic_stringIcNS1_11char_traitsIcEENS1_9allocatorIcEEEES9_, 
                       __ZN4prop8coredump3getERKNSt3__112basic_stringIcNS1_11char_traitsIcEENS1_9allocatorIcEEEERS7_, 
                       __ZN4prop8coredump3setERKNSt3__112basic_stringIcNS1_11char_traitsIcEENS1_9allocatorIcEEEES9_, 
                       __ZN4prop9logfilter3getERKNSt3__112basic_stringIcNS1_11char_traitsIcEENS1_9allocatorIcEEEERS7_, 
                       __ZN4prop9logfilter3setERKNSt3__112basic_stringIcNS1_11char_traitsIcEENS1_9allocatorIcEEEES9_, 
                       __ZN4util2fs10fileExistsERKNSt3__112basic_stringIcNS1_11char_traitsIcEENS1_9allocatorIcEEEE, 
                       __ZN4util2fs10removeFileERKNSt3__112basic_stringIcNS1_11char_traitsIcEENS1_9allocatorIcEEEE, 
                       __ZN4util2fs11getBasePathERKNSt3__112basic_stringIcNS1_11char_traitsIcEENS1_9allocatorIcEEEE, 
                       __ZN4util2fs11getFileNameERKNSt3__112basic_stringIcNS1_11char_traitsIcEENS1_9allocatorIcEEEE, 
                       __ZN4util2fs11getFileSizeERKNSt3__112basic_stringIcNS1_11char_traitsIcEENS1_9allocatorIcEEEERm, 
                       __ZN4util2fs11getFileSizeERNSt3__114basic_ifstreamIcNS1_11char_traitsIcEEEERm, 
                       __ZN4util2fs11updateOwnerENSt3__112basic_stringIcNS1_11char_traitsIcEENS1_9allocatorIcEEEEjj, 
                       __ZN4util2fs13moveDirUniqueERKNSt3__112basic_stringIcNS1_11char_traitsIcEENS1_9allocatorIcEEEES9_, 
                       __ZN4util2fs14hashFromStringERKNSt3__112basic_stringIcNS1_11char_traitsIcEENS1_9allocatorIcEEEE, 
                       __ZN4util2fs16createUniquePathENSt3__112basic_stringIcNS1_11char_traitsIcEENS1_9allocatorIcEEEE, 
                       __ZN4util2fs16getFilteredFilesENSt3__112basic_stringIcNS1_11char_traitsIcEENS1_9allocatorIcEEEENS1_11basic_regexIcNS1_12regex_traitsIcEEEERNS1_6vectorIS7_NS5_IS7_EEEEb, 
                       __ZN4util2fs16getLastNumberDirERKNSt3__112basic_stringIcNS1_11char_traitsIcEENS1_9allocatorIcEEEE, 
                       __ZN4util2fs16getPartitionInfoENSt3__112basic_stringIcNS1_11char_traitsIcEENS1_9allocatorIcEEEERmS8_S8_, 
                       __ZN4util2fs17removeDirContentsERKNSt3__112basic_stringIcNS1_11char_traitsIcEENS1_9allocatorIcEEEEm, 
                       __ZN4util2fs17writeToCompletionEP7__sFILEPKhm, __ZN4util2fs17writeToCompletionEiPKhm, 
                       __ZN4util2fs20createUniqueFilenameENSt3__112basic_stringIcNS1_11char_traitsIcEENS1_9allocatorIcEEEE, 
                       __ZN4util2fs23displayUserNotificationERKNSt3__112basic_stringIcNS1_11char_traitsIcEENS1_9allocatorIcEEEES9_bd, 
                       __ZN4util2fs5chmodERKNSt3__112basic_stringIcNS1_11char_traitsIcEENS1_9allocatorIcEEEEt, 
                       __ZN4util2fs5chownERKNSt3__112basic_stringIcNS1_11char_traitsIcEENS1_9allocatorIcEEEEjj, 
                       __ZN4util2fs5isDirERKNSt3__112basic_stringIcNS1_11char_traitsIcEENS1_9allocatorIcEEEE, 
                       __ZN4util2fs6renameERKNSt3__112basic_stringIcNS1_11char_traitsIcEENS1_9allocatorIcEEEES9_, 
                       __ZN4util2fs7lockDirERKNSt3__112basic_stringIcNS1_11char_traitsIcEENS1_9allocatorIcEEEE, 
                       __ZN4util2fs7readDirERKNSt3__112basic_stringIcNS1_11char_traitsIcEENS1_9allocatorIcEEEERNS1_6vectorIS7_NS5_IS7_EEEE, 
                       __ZN4util2fs8copyFileERKNSt3__112basic_stringIcNS1_11char_traitsIcEENS1_9allocatorIcEEEES9_b, 
                       __ZN4util2fs8loadFileERKNSt3__112basic_stringIcNS1_11char_traitsIcEENS1_9allocatorIcEEEERNS1_6vectorIcS6_EE, 
                       __ZN4util2fs8openFileERKNSt3__112basic_stringIcNS1_11char_traitsIcEENS1_9allocatorIcEEEEit, 
                       __ZN4util2fs8toStringENS0_6userIDE, __ZN4util2fs9closeFileEi, 
                       __ZN4util2fs9createDirERKNSt3__112basic_stringIcNS1_11char_traitsIcEENS1_9allocatorIcEEEEtb, 
                       __ZN4util2fs9getUidGidENS0_6userIDERjS2_, __ZN4util2fs9removeDirERKNSt3__112basic_stringIcNS1_11char_traitsIcEENS1_9allocatorIcEEEE, 
                       __ZN4util2fs9unlockDirEi, __ZN5Stats4initEN3abm5stats7StatsIDE, 
                       __ZN5Stats6createEN3abm5stats7StatsIDE, __ZN5StatsC2ENSt3__112basic_stringIcNS0_11char_traitsIcEENS0_9allocatorIcEEEE, 
                       __ZN5StatsD0Ev, __ZN5StatsD1Ev, __ZN5StatsD2Ev, __ZN6config2hw10regionCodeEv, 
                       __ZN6config2hw11getBootArgsEv, __ZN6config2hw14deviceMaterialEv, 
                       __ZN6config2hw3iceEv, __ZN6config2hw3pciEv, __ZN6config2hw4hsicEv, 
                       __ZN6config2hw5watchEv, __ZN6config2hw6eurekaEv, __ZN6config2hw7productEv, 
                       __ZN6config2hw8bbusbmuxEv, __ZN6config2hw9radioTypeEv, __ZN6config5build19internal_or_carrierEv, 
                       __ZN6config5build7carrierEv, __ZN6config5build7versionEv, 
                       __ZN6config5build8internalEv, __ZN7Service17getServiceManagerEv, 
                       __ZN7Service22registerCommandHandlerERKNSt3__112basic_stringIcNS0_11char_traitsIcEENS0_9allocatorIcEEEEN8dispatch5blockIU13block_pointerFvN3xpc4dictENSA_IU13block_pointerFviSC_EEEEEE, 
                       __ZN7ServiceC2ENSt3__18weak_ptrI14ServiceManagerEE, __ZN7ServiceD0Ev, 
                       __ZN7ServiceD1Ev, __ZN7ServiceD2Ev, __ZN7antenna10PPMManager15reportTelemetryEN3xpc4dictE, 
                       __ZN7antenna10PPMManager5startEv, __ZN7antenna10PPMManager6createENSt3__110shared_ptrIN3ctu9LogServerEEE, 
                       __ZN7antenna10PPMManager8shutdownEv, __ZN7antenna10PPMManagerC1ENSt3__110shared_ptrIN3ctu9LogServerEEE, 
                       __ZN7antenna10PPMManagerC2ENSt3__110shared_ptrIN3ctu9LogServerEEE, 
                       __ZN7antenna15CMOnBodyManager6createEN8dispatch5queueE, __ZN7antenna15CMOnBodyManager8shutdownEv, 
                       __ZN7antenna15CMOnBodyManagerC1EN8dispatch5queueE, __ZN7antenna15CMOnBodyManagerC2EN8dispatch5queueE, 
                       __ZN7antenna16HKWorkoutManager16registerCallbackEN8dispatch5blockIU13block_pointerFvN3abm11WorkoutTypeENS3_12WorkoutStateENS3_15WorkoutLocationENS3_12SwimLocationEEEE, 
                       __ZN7antenna16HKWorkoutManager4stopEv, __ZN7antenna16HKWorkoutManager5startEv, 
                       __ZN7antenna16HKWorkoutManager6createEN8dispatch8workloopE, 
                       __ZN7antenna16HKWorkoutManagerC1EN8dispatch8workloopE, __ZN7antenna16HKWorkoutManagerC2EN8dispatch8workloopE, 
                       __ZN7antenna16HKWorkoutManagerD0Ev, __ZN7antenna16HKWorkoutManagerD1Ev, 
                       __ZN7antenna16HKWorkoutManagerD2Ev, __ZN7antenna18IOKitEventNotifier14setMESAQualityEN3ctu5iokit31TelephonyIOKitMesaSignalQualityE, 
                       __ZN7antenna18IOKitEventNotifier16queryPowerSourceEv, __ZN7antenna18IOKitEventNotifier20registerCallbackMesaEN8dispatch8callbackIU13block_pointerFvN3ctu5iokit23TelephonyIOKitMesaEventEEEE, 
                       __ZN7antenna18IOKitEventNotifier21registerCallbackVideoEN8dispatch8callbackIU13block_pointerFvN3ctu5iokit25TelephonyIOKitDisplayLinkEEEE, 
                       __ZN7antenna18IOKitEventNotifier22registerCallbackFaceIDEN8dispatch8callbackIU13block_pointerFvN3ctu5iokit25TelephonyIOKitFaceIDStateEEEE, 
                       __ZN7antenna18IOKitEventNotifier25registerCallbackAccessoryEN8dispatch8callbackIU13block_pointerFvN3ctu5iokit32TelephonyIOKitAccessoryParameterEEEE, 
                       __ZN7antenna18IOKitEventNotifier27registerCallbackPowerSourceEN8dispatch8callbackIU13block_pointerFvN3ctu5iokit25TelephonyIOKitPowerSourceEEEE, 
                       __ZN7antenna18IOKitEventNotifier29getAccessoryPrimaryPortNumberEv, 
                       __ZN7antenna18IOKitEventNotifier5startEv, __ZN7antenna18IOKitEventNotifier6createENSt3__110shared_ptrIN3ctu9LogServerEEEP11__CFRunLoop, 
                       __ZN7antenna18IOKitEventNotifier8shutdownEv, __ZN7antenna18IOKitEventNotifierC1ENSt3__110shared_ptrIN3ctu9LogServerEEEP11__CFRunLoop, 
                       __ZN7antenna18IOKitEventNotifierC2ENSt3__110shared_ptrIN3ctu9LogServerEEEP11__CFRunLoop, 
                       __ZN7antenna18IOKitEventNotifierD0Ev, __ZN7antenna18IOKitEventNotifierD1Ev, 
                       __ZN7antenna18IOKitEventNotifierD2Ev, __ZN7antenna22CMHandDetectionManager11isSupportedEv, 
                       __ZN7antenna22CMHandDetectionManager16registerCallbackEN8dispatch5blockIU13block_pointerFvNS0_21CMHandDetectionResultEEEE, 
                       __ZN7antenna22CMHandDetectionManager4stopEv, __ZN7antenna22CMHandDetectionManager5startEv, 
                       __ZN7antenna22CMHandDetectionManager6createEN8dispatch5queueENS1_8workloopE, 
                       __ZN7antenna22CMHandDetectionManager8shutdownEv, __ZN7antenna22CMHandDetectionManagerC1EN8dispatch5queueENS1_8workloopE, 
                       __ZN7antenna22CMHandDetectionManagerC2EN8dispatch5queueENS1_8workloopE, 
                       __ZN7antenna22CMHandDetectionManagerD1Ev, __ZN7antenna22CMHandDetectionManagerD2Ev, 
                       __ZN7antenna7Service8Internal14enablePPM_syncEb, __ZN7antenna7Service8Internal17setupTxPower_syncEv, 
                       __ZN7antenna7Service8Internal18handDetectCallbackENS_22CMHandDetectionManager21CMHandDetectionResultE, 
                       __ZN7antenna7Service8Internal20reportAccessory_syncENSt3__14pairIN3ctu5iokit29TelephonyIOKitAccessoryStatusENS5_27TelephonyIOKitAccessoryTypeEEE, 
                       __ZN7antenna7Service8Internal20sendPowerSource_syncEv, __ZN7antenna7Service8Internal20sendWorkoutInfo_syncEv, 
                       __ZN7antenna7Service8Internal20transmitStateHandlerENS_15BBTransmitStateENS_17BBTransmitTriggerE, 
                       __ZN7antenna7Service8Internal21isAccessoryOverriddenEv, __ZN7antenna7Service8Internal21isHandednessConditionEv, 
                       __ZN7antenna7Service8Internal21mesaNotification_syncEN3ctu5iokit23TelephonyIOKitMesaEventE, 
                       __ZN7antenna7Service8Internal22getAccessoryState_syncEv, __ZN7antenna7Service8Internal22stopHandDetection_syncEv, 
                       __ZN7antenna7Service8Internal22videoNotification_syncEN3ctu5iokit25TelephonyIOKitDisplayLinkE, 
                       __ZN7antenna7Service8Internal23faceIDNotification_syncEv, 
                       __ZN7antenna7Service8Internal23sendAudioAccessory_syncEv, 
                       __ZN7antenna7Service8Internal23sendDeviceMaterial_syncEv, 
                       __ZN7antenna7Service8Internal23sendVideoAccessory_syncEb, 
                       __ZN7antenna7Service8Internal24getPowerSourceState_syncEv, 
                       __ZN7antenna7Service8Internal24setTxPowerPlayAlert_syncENS0_24TxPowerCappingIPhoneModeE, 
                       __ZN7antenna7Service8Internal25motionDetectCallback_syncENS_15CMOnBodyManager14CMOnBodyResultENS2_24CMOnBodyResultConfidenceE, 
                       __ZN7antenna7Service8Internal25processHandDetection_syncEv, 
                       __ZN7antenna7Service8Internal26accessoryNotification_syncEN3ctu5iokit32TelephonyIOKitAccessoryParameterE, 
                       __ZN7antenna7Service8Internal27isAudioReceiverOutputActiveEv, 
                       __ZN7antenna7Service8Internal28checkStartHandDetection_syncEv, 
                       __ZN7antenna7Service8Internal28createTransmitStateDict_syncENS_15BBTransmitStateENS_17BBTransmitTriggerE, 
                       __ZN7antenna7Service8Internal28isPowerSourceOverridden_syncEv, 
                       __ZN7antenna7Service8Internal28powerSourceNotification_syncEN3ctu5iokit25TelephonyIOKitPowerSourceE, 
                       __ZN7antenna7Service8Internal33sendMotionHandDetectionState_syncENS_22CMHandDetectionManager21CMHandDetectionResultE, 
                       __ZN7antenna7Service8Internal34setTxPowerMotionHandDetection_syncENSt3__112basic_stringIcNS2_11char_traitsIcEENS2_9allocatorIcEEEE, 
                       __ZN7antenna7Service8Internal35enableTxPowerCappingIndication_syncEv, 
                       __ZN7antenna7Service8Internal37enableTxPowerCappingNotification_syncEb, 
                       __ZN7antenna7Service8Internal38getTxPowerCappingIPhoneModeString_syncERKNS0_24TxPowerCappingIPhoneModeE, 
                       __ZN7antenna7Service8Internal6createENSt3__110shared_ptrIN3ctu9LogServerEEEN8dispatch8callbackIU13block_pointerFvN3xpc4dictEEEENS7_8workloopE, 
                       __ZN7antenna7Service8Internal8shutdownEv, __ZN7antenna7Service8InternalC1ENSt3__110shared_ptrIN3ctu9LogServerEEEN8dispatch8callbackIU13block_pointerFvN3xpc4dictEEEENS7_8workloopE, 
                       __ZN7antenna7Service8InternalC2ENSt3__110shared_ptrIN3ctu9LogServerEEEN8dispatch8callbackIU13block_pointerFvN3xpc4dictEEEENS7_8workloopE, 
                       __ZN7antenna7Service8shutdownEv, __ZN7antenna7ServiceC1ENSt3__110shared_ptrIN3ctu9LogServerEEEN8dispatch8callbackIU13block_pointerFvN3xpc4dictEEEENS6_8workloopE, 
                       __ZN7antenna7ServiceC2ENSt3__110shared_ptrIN3ctu9LogServerEEEN8dispatch8callbackIU13block_pointerFvN3xpc4dictEEEENS6_8workloopE, 
                       __ZN8FSModule10initializeEN8dispatch13group_sessionE, __ZN8FSModule13requestFSSyncEjN8dispatch8callbackIU13block_pointerFvbEEE, 
                       __ZN8FSModule17handleResult_syncEb, __ZN8FSModule17submitMetric_syncEb, 
                       __ZN8FSModule18requestFSSync_syncEv, __ZN8FSModule18resetBaseband_syncERKNSt3__112basic_stringIcNS0_11char_traitsIcEENS0_9allocatorIcEEEE, 
                       __ZN8FSModule20cancelSyncTimer_syncEv, __ZN8FSModule21restartSyncTimer_syncEv, 
                       __ZN8FSModule23requestFSSyncIndicationEv, __ZN8FSModule24handleBasebandReset_syncEv, 
                       __ZN8FSModule25finishInitialization_syncEv, __ZN8FSModule25handleBasebandBooted_syncEv, 
                       __ZN8FSModule25repeatFlushOperation_syncEv, __ZN8FSModule26eraseRemoteFileSystem_syncEv, 
                       __ZN8FSModule4initEv, __ZN8FSModule4wakeEN8dispatch13group_sessionE, 
                       __ZN8FSModule5sleepEN8dispatch13group_sessionE, __ZN8FSModule5startEN8dispatch13group_sessionE, 
                       __ZN8FSModule6createENSt3__18weak_ptrI14ServiceManagerEE, 
                       __ZN8FSModule8shutdownE13ShutdownStageN8dispatch13group_sessionE, 
                       __ZN8FSModuleC1ENSt3__18weak_ptrI14ServiceManagerEE, __ZN8FSModuleC2ENSt3__18weak_ptrI14ServiceManagerEE, 
                       __ZN8FSModuleD0Ev, __ZN8FSModuleD1Ev, __ZN8FSModuleD2Ev, __ZN8StatsAWD11submit_syncEjN3xpc6objectE, 
                       __ZN8StatsAWD15fillMetric_syncERNSt3__110unique_ptrIN3awd7metrics17CommCenterNVMSyncENS0_14default_deleteIS4_EEEEN3xpc6objectE, 
                       __ZN8StatsAWD15fillMetric_syncERNSt3__110unique_ptrIN3awd7metrics18CommCenterWakeInfoENS0_14default_deleteIS4_EEEEN3xpc6objectE, 
                       __ZN8StatsAWD15fillMetric_syncERNSt3__110unique_ptrIN3awd7metrics22CommCenterBasebanCrashENS0_14default_deleteIS4_EEEEN3xpc6objectE, 
                       __ZN8StatsAWD15fillMetric_syncERNSt3__110unique_ptrIN3awd7metrics23CommCenterBasebandTraceENS0_14default_deleteIS4_EEEEN3xpc6objectE, 
                       __ZN8StatsAWD15fillMetric_syncERNSt3__110unique_ptrIN3awd7metrics23CommCenterLowPowerEventENS0_14default_deleteIS4_EEEEN3xpc6objectE, 
                       __ZN8StatsAWD15fillMetric_syncERNSt3__110unique_ptrIN3awd7metrics23CommCenterLowPowerStatsENS0_14default_deleteIS4_EEEEN3xpc6objectE, 
                       __ZN8StatsAWD15fillMetric_syncERNSt3__110unique_ptrIN3awd7metrics26CommCenterBasebandBootTimeENS0_14default_deleteIS4_EEEEN3xpc6objectE, 
                       __ZN8StatsAWD15fillMetric_syncERNSt3__110unique_ptrIN3awd7metrics30CommCenterAccessoryInformationENS0_14default_deleteIS4_EEEEN3xpc6objectE, 
                       __ZN8StatsAWD4initEv, __ZN8StatsAWD6createEv, __ZN8StatsAWD6submitEjN3xpc6objectE, 
                       __ZN8StatsAWDC1Ev, __ZN8StatsAWDC2Ev, __ZN8StatsAWDD0Ev, __ZN8StatsAWDD1Ev, 
                       __ZN8StatsAWDD2Ev, __ZN8defaults10systemlogs11max_historyEv, 
                       __ZN8defaults10systemlogs24userConfirmationRequiredEv, __ZN8defaults10systemlogs3getERKNSt3__112basic_stringIcNS1_11char_traitsIcEENS1_9allocatorIcEEEERS7_, 
                       __ZN8defaults10systemlogs4modeEv, __ZN8defaults10systemlogs7historyEv, 
                       __ZN8defaults10systemlogs9supportedEv, __ZN8defaults11compression3getERKNSt3__112basic_stringIcNS1_11char_traitsIcEENS1_9allocatorIcEEEERS7_, 
                       __ZN8defaults11compression4modeEv, __ZN8defaults11compression9supportedEv, 
                       __ZN8defaults13tracesettings3getERKNSt3__112basic_stringIcNS1_11char_traitsIcEENS1_9allocatorIcEEEERS7_, 
                       __ZN8defaults13tracesettings6configEv, __ZN8defaults3ddt3getERKNSt3__112basic_stringIcNS1_11char_traitsIcEENS1_9allocatorIcEEEERS7_, 
                       __ZN8defaults3ddt7enabledEv, __ZN8defaults3ddt9supportedEv, 
                       __ZN8defaults3getERKNSt3__112basic_stringIcNS0_11char_traitsIcEENS0_9allocatorIcEEEES8_RS6_, 
                       __ZN8defaults3ipc12buffer_countEv, __ZN8defaults3ipc3getERKNSt3__112basic_stringIcNS1_11char_traitsIcEENS1_9allocatorIcEEEERS7_, 
                       __ZN8defaults3ipc7enabledEv, __ZN8defaults3ipc7historyEv, 
                       __ZN8defaults3ttr3getERKNSt3__112basic_stringIcNS1_11char_traitsIcEENS1_9allocatorIcEEEERS7_, 
                       __ZN8defaults3ttr4modeEv, __ZN8defaults3ttr9supportedEv, __ZN8defaults5bbipc3getERKNSt3__112basic_stringIcNS1_11char_traitsIcEENS1_9allocatorIcEEEERS7_, 
                       __ZN8defaults5bbipc7enabledEv, __ZN8defaults6helper9supportedEv, 
                       __ZN8defaults7bbtrace11max_historyEv, __ZN8defaults7bbtrace11primary_dmcEv, 
                       __ZN8defaults7bbtrace13secondary_dmcEv, __ZN8defaults7bbtrace14low_water_markEv, 
                       __ZN8defaults7bbtrace14stall_recoveryEv, __ZN8defaults7bbtrace15high_water_markEv, 
                       __ZN8defaults7bbtrace15stall_detectionEv, __ZN8defaults7bbtrace17keep_scratch_logsEv, 
                       __ZN8defaults7bbtrace20buffering_on_ap_wakeEv, __ZN8defaults7bbtrace20enabled_during_sleepEv, 
                       __ZN8defaults7bbtrace21max_memory_file_countEv, __ZN8defaults7bbtrace3getERKNSt3__112basic_stringIcNS1_11char_traitsIcEENS1_9allocatorIcEEEERS7_, 
                       __ZN8defaults7bbtrace4modeEv, __ZN8defaults7bbtrace7enabledEv, 
                       __ZN8defaults7bbtrace7historyEv, __ZN8defaults7bbtrace9extra_dmcEv, 
                       __ZN8defaults7bbtrace9sleep_dmcEv, __ZN8defaults7profile3getERKNSt3__112basic_stringIcNS1_11char_traitsIcEENS1_9allocatorIcEEEERS7_, 
                       __ZN8defaults7profile7enabledEv, __ZN8defaults7profile7versionEv, 
                       __ZN8defaults8coredump3getERKNSt3__112basic_stringIcNS1_11char_traitsIcEENS1_9allocatorIcEEEERS7_, 
                       __ZN8defaults8coredump7enabledEv, __ZN8defaults9logfilter13max_log_limitEv, 
                       __ZN8defaults9logfilter16free_space_limitEv, __ZN8defaults9logfilter3getERKNSt3__112basic_stringIcNS1_11char_traitsIcEENS1_9allocatorIcEEEERS7_, 
                       __ZN8defaults9logfilter9supportedEv, __ZN9ABMServer10getProfileEv, 
                       __ZN9ABMServer10getRunLoopEv, __ZN9ABMServer21create_default_globalEv, 
                       __ZN9ABMServer24previousShutdownWasCleanEv, __ZN9ABMServer4initENSt3__112basic_stringIcNS0_11char_traitsIcEENS0_9allocatorIcEEEENS0_10shared_ptrI14ServiceManagerEE, 
                       __ZN9ABMServer4stopEP16dispatch_group_s, __ZN9ABMServer5startEP16dispatch_group_s, 
                       __ZN9ABMServer8shutdownEP16dispatch_group_s, __ZN9ABMServer9broadcastENSt3__112basic_stringIcNS0_11char_traitsIcEENS0_9allocatorIcEEEEN3ctu2cf11CFSharedRefIK14__CFDictionaryEEN8dispatch5blockIU13block_pointerFvvEEE, 
                       __ZN9ABMServerC1Ev, __ZN9ABMServerC2Ev, __ZN9BootStats10updateDataEN3ctu2cf11CFSharedRefIK14__CFDictionaryEEN3xpc4dictE, 
                       __ZN9BootStats14createInternalEv, __ZN9BootStats4initEN3abm5stats7StatsIDE, 
                       __ZN9BootStatsC1Ev, __ZN9BootStatsC2Ev, __ZN9BootStatsD0Ev, 
                       __ZN9BootStatsD1Ev, __ZN9BootStatsD2Ev, __ZN9ResetInfo10setSubTypeEPK10__CFString, 
                       __ZN9ResetInfo13fetchFromDictERN3xpc4dictE, __ZN9ResetInfo7setTimeENSt3__112basic_stringIcNS0_11char_traitsIcEENS0_9allocatorIcEEEE, 
                       __ZN9ResetInfo7setTypeEPK10__CFString, __ZN9ResetInfo8setRadarEN3abm6helper9RadarTypeE, 
                       __ZN9ResetInfo9setReasonERKNSt3__112basic_stringIcNS0_11char_traitsIcEENS0_9allocatorIcEEEE, 
                       __ZN9ResetInfoC1EPK10__CFStringS2_NSt3__112basic_stringIcNS3_11char_traitsIcEENS3_9allocatorIcEEEES9_N3abm6helper9RadarTypeE, 
                       __ZN9ResetInfoC1ERKNSt3__112basic_stringIcNS0_11char_traitsIcEENS0_9allocatorIcEEEES8_S8_S6_N3abm6helper9RadarTypeE, 
                       __ZN9ResetInfoC1Ev, __ZN9ResetInfoC2EPK10__CFStringS2_NSt3__112basic_stringIcNS3_11char_traitsIcEENS3_9allocatorIcEEEES9_N3abm6helper9RadarTypeE, 
                       __ZN9ResetInfoC2ERKNSt3__112basic_stringIcNS0_11char_traitsIcEENS0_9allocatorIcEEEES8_S8_S6_N3abm6helper9RadarTypeE, 
                       __ZN9ResetInfoC2Ev, __ZN9ResetInfoD1Ev, __ZN9ResetInfoD2Ev, 
                       __ZN9Simulator10initializeEN8dispatch13group_sessionE, __ZN9Simulator25finishInitialization_syncEv, 
                       __ZN9Simulator37handleSimulatedPowerNotification_syncEj, __ZN9Simulator5startEN8dispatch13group_sessionE, 
                       __ZN9Simulator6createENSt3__18weak_ptrI14ServiceManagerEE, 
                       __ZN9Simulator8shutdownE13ShutdownStageN8dispatch13group_sessionE, 
                       __ZN9SimulatorC1ENSt3__18weak_ptrI14ServiceManagerEE, __ZN9SimulatorC2ENSt3__18weak_ptrI14ServiceManagerEE, 
                       __ZN9Timestamp3nowER7timeval, __ZN9Timestamp3setERK7timevalNS_10TimeDomainE, 
                       __ZN9TimestampC1ERK7timevalNS_10TimeDomainE, __ZN9TimestampC1ERKS_, 
                       __ZN9TimestampC1ElNS_10TimeDomainE, __ZN9TimestampC1Ev, __ZN9TimestampC2ERK7timevalNS_10TimeDomainE, 
                       __ZN9TimestampC2ERKS_, __ZN9TimestampC2ElNS_10TimeDomainE, 
                       __ZN9TimestampC2Ev, __ZNK10BootModule17getShutdownStagesEv, 
                       __ZNK10BootModule7getNameEv, __ZNK10BudgetData8for_eachENSt3__18functionIFbRK15BudgetTimeScaleRKNS0_8optionalIjEEEEE, 
                       __ZNK10CPMSModule7getNameEv, __ZNK10LogTracker7getNameEv, 
                       __ZNK10PowerStats25submitWakeInfoMetric_syncEN3awd7metrics19CommCenterSleepTypeEjj, 
                       __ZNK10PowerStats30submitLowPowerEventMetric_syncEN3awd7metrics27CommCenterLowPowerEventTypeENS1_19CommCenterSleepTypeENSt3__112basic_stringIcNS4_11char_traitsIcEENS4_9allocatorIcEEEE, 
                       __ZNK10PowerStats30submitLowPowerStatsMetric_syncEv, __ZNK10PowerStats7getNameEv, 
                       __ZNK11PowerBudget8asStringE15BudgetTimeScale, __ZNK11PowerBudget9to_stringEv, 
                       __ZNK11RadioModule17getShutdownStagesEv, __ZNK11RadioModule7getNameEv, 
                       __ZNK11StatsModule17getShutdownStagesEv, __ZNK11StatsModule7getNameEv, 
                       __ZNK12Capabilities14isCarrierBuildEv, __ZNK12Capabilities15isCPMSSupportedEv, 
                       __ZNK12Capabilities15isInternalBuildEv, __ZNK12Capabilities20isETSBypassSupportedEv, 
                       __ZNK12Capabilities30isTraceBackgroundModeSupportedEv, __ZNK12QMIXpcServer7getNameEv, 
                       __ZNK12TraceManager17getShutdownStagesEv, __ZNK12TraceManager22submitTraceMetric_syncENSt3__112basic_stringIcNS0_11char_traitsIcEENS0_9allocatorIcEEEES6_, 
                       __ZNK12TraceManager7getNameEv, __ZNK13AntennaModule17getShutdownStagesEv, 
                       __ZNK13AntennaModule7getNameEv, __ZNK13DriverFactory17getShutdownStagesEv, 
                       __ZNK13DriverFactory7getNameEv, __ZNK14BootController7getNameEv, 
                       __ZNK14ResetDetection7getNameEv, __ZNK14ServiceManager10runCommandERKNSt3__112basic_stringIcNS0_11char_traitsIcEENS0_9allocatorIcEEEEN3xpc4dictEN8dispatch5blockIU13block_pointerFviSA_EEE, 
                       __ZNK14ServiceManager12isServerDownEv, __ZNK14ServiceManager14broadcastEventENSt3__112basic_stringIcNS0_11char_traitsIcEENS0_9allocatorIcEEEEN3ctu2cf11CFSharedRefIK14__CFDictionaryEEN8dispatch5blockIU13block_pointerFvvEEE, 
                       __ZNK14ServiceManager22registerCommandHandlerERKNSt3__112basic_stringIcNS0_11char_traitsIcEENS0_9allocatorIcEEEEN8dispatch5blockIU13block_pointerFvN3xpc4dictENSA_IU13block_pointerFviSC_EEEEEE, 
                       __ZNK15TransportModule17getShutdownStagesEv, __ZNK15TransportModule7getNameEv, 
                       __ZNK16NetworkingModule20getBundleIDList_syncERKNSt3__112basic_stringIcNS0_11char_traitsIcEENS0_9allocatorIcEEEE, 
                       __ZNK16NetworkingModule7getNameEv, __ZNK17ABMServerInternal7getNameEv, 
                       __ZNK17ABMServiceManager7getNameEv, __ZNK17ServerClientState7getNameEv, 
                       __ZNK18DataStallDetection7getNameEv, __ZNK19QMITransportService7getNameEv, 
                       __ZNK21CircularFileLogWriter21generateFileName_syncEm, __ZNK21NetworkStatsInterface15applyInterfacesEU13block_pointerFvP7ifaddrsjE, 
                       __ZNK21NetworkStatsInterface16getInterfaceListEv, __ZNK21NetworkStatsInterface7getNameEv, 
                       __ZNK3awd7metrics15CrashReasonType11GetTypeNameEv, __ZNK3awd7metrics15CrashReasonType13IsInitializedEv, 
                       __ZNK3awd7metrics15CrashReasonType13SetCachedSizeEi, __ZNK3awd7metrics15CrashReasonType24SerializeWithCachedSizesEPN20wireless_diagnostics6google8protobuf2io17CodedOutputStreamE, 
                       __ZNK3awd7metrics15CrashReasonType3NewEv, __ZNK3awd7metrics15CrashReasonType8ByteSizeEv, 
                       __ZNK3awd7metrics17CommCenterNVMSync11GetTypeNameEv, __ZNK3awd7metrics17CommCenterNVMSync13IsInitializedEv, 
                       __ZNK3awd7metrics17CommCenterNVMSync13SetCachedSizeEi, __ZNK3awd7metrics17CommCenterNVMSync24SerializeWithCachedSizesEPN20wireless_diagnostics6google8protobuf2io17CodedOutputStreamE, 
                       __ZNK3awd7metrics17CommCenterNVMSync3NewEv, __ZNK3awd7metrics17CommCenterNVMSync8ByteSizeEv, 
                       __ZNK3awd7metrics18CommCenterWakeInfo11GetTypeNameEv, __ZNK3awd7metrics18CommCenterWakeInfo13IsInitializedEv, 
                       __ZNK3awd7metrics18CommCenterWakeInfo13SetCachedSizeEi, __ZNK3awd7metrics18CommCenterWakeInfo24SerializeWithCachedSizesEPN20wireless_diagnostics6google8protobuf2io17CodedOutputStreamE, 
                       __ZNK3awd7metrics18CommCenterWakeInfo3NewEv, __ZNK3awd7metrics18CommCenterWakeInfo8ByteSizeEv, 
                       __ZNK3awd7metrics22CommCenterBasebanCrash11GetTypeNameEv, 
                       __ZNK3awd7metrics22CommCenterBasebanCrash13IsInitializedEv, 
                       __ZNK3awd7metrics22CommCenterBasebanCrash13SetCachedSizeEi, 
                       __ZNK3awd7metrics22CommCenterBasebanCrash24SerializeWithCachedSizesEPN20wireless_diagnostics6google8protobuf2io17CodedOutputStreamE, 
                       __ZNK3awd7metrics22CommCenterBasebanCrash3NewEv, __ZNK3awd7metrics22CommCenterBasebanCrash8ByteSizeEv, 
                       __ZNK3awd7metrics23CommCenterBasebandTrace11GetTypeNameEv, 
                       __ZNK3awd7metrics23CommCenterBasebandTrace13IsInitializedEv, 
                       __ZNK3awd7metrics23CommCenterBasebandTrace13SetCachedSizeEi, 
                       __ZNK3awd7metrics23CommCenterBasebandTrace24SerializeWithCachedSizesEPN20wireless_diagnostics6google8protobuf2io17CodedOutputStreamE, 
                       __ZNK3awd7metrics23CommCenterBasebandTrace3NewEv, __ZNK3awd7metrics23CommCenterBasebandTrace8ByteSizeEv, 
                       __ZNK3awd7metrics23CommCenterLowPowerEvent11GetTypeNameEv, 
                       __ZNK3awd7metrics23CommCenterLowPowerEvent13IsInitializedEv, 
                       __ZNK3awd7metrics23CommCenterLowPowerEvent13SetCachedSizeEi, 
                       __ZNK3awd7metrics23CommCenterLowPowerEvent24SerializeWithCachedSizesEPN20wireless_diagnostics6google8protobuf2io17CodedOutputStreamE, 
                       __ZNK3awd7metrics23CommCenterLowPowerEvent3NewEv, __ZNK3awd7metrics23CommCenterLowPowerEvent8ByteSizeEv, 
                       __ZNK3awd7metrics23CommCenterLowPowerStats11GetTypeNameEv, 
                       __ZNK3awd7metrics23CommCenterLowPowerStats13IsInitializedEv, 
                       __ZNK3awd7metrics23CommCenterLowPowerStats13SetCachedSizeEi, 
                       __ZNK3awd7metrics23CommCenterLowPowerStats24SerializeWithCachedSizesEPN20wireless_diagnostics6google8protobuf2io17CodedOutputStreamE, 
                       __ZNK3awd7metrics23CommCenterLowPowerStats3NewEv, __ZNK3awd7metrics23CommCenterLowPowerStats8ByteSizeEv, 
                       __ZNK3awd7metrics25CommCenterMissedMTMessage11GetTypeNameEv, 
                       __ZNK3awd7metrics25CommCenterMissedMTMessage13IsInitializedEv, 
                       __ZNK3awd7metrics25CommCenterMissedMTMessage13SetCachedSizeEi, 
                       __ZNK3awd7metrics25CommCenterMissedMTMessage24SerializeWithCachedSizesEPN20wireless_diagnostics6google8protobuf2io17CodedOutputStreamE, 
                       __ZNK3awd7metrics25CommCenterMissedMTMessage3NewEv, __ZNK3awd7metrics25CommCenterMissedMTMessage8ByteSizeEv, 
                       __ZNK3awd7metrics26CommCenterBasebandBootTime11GetTypeNameEv, 
                       __ZNK3awd7metrics26CommCenterBasebandBootTime13IsInitializedEv, 
                       __ZNK3awd7metrics26CommCenterBasebandBootTime13SetCachedSizeEi, 
                       __ZNK3awd7metrics26CommCenterBasebandBootTime24SerializeWithCachedSizesEPN20wireless_diagnostics6google8protobuf2io17CodedOutputStreamE, 
                       __ZNK3awd7metrics26CommCenterBasebandBootTime3NewEv, __ZNK3awd7metrics26CommCenterBasebandBootTime8ByteSizeEv, 
                       __ZNK3awd7metrics27CommCenterPowerVotingRecord11GetTypeNameEv, 
                       __ZNK3awd7metrics27CommCenterPowerVotingRecord13IsInitializedEv, 
                       __ZNK3awd7metrics27CommCenterPowerVotingRecord13SetCachedSizeEi, 
                       __ZNK3awd7metrics27CommCenterPowerVotingRecord24SerializeWithCachedSizesEPN20wireless_diagnostics6google8protobuf2io17CodedOutputStreamE, 
                       __ZNK3awd7metrics27CommCenterPowerVotingRecord3NewEv, __ZNK3awd7metrics27CommCenterPowerVotingRecord8ByteSizeEv, 
                       __ZNK3awd7metrics30CommCenterAccessoryInformation11GetTypeNameEv, 
                       __ZNK3awd7metrics30CommCenterAccessoryInformation13IsInitializedEv, 
                       __ZNK3awd7metrics30CommCenterAccessoryInformation13SetCachedSizeEi, 
                       __ZNK3awd7metrics30CommCenterAccessoryInformation24SerializeWithCachedSizesEPN20wireless_diagnostics6google8protobuf2io17CodedOutputStreamE, 
                       __ZNK3awd7metrics30CommCenterAccessoryInformation3NewEv, __ZNK3awd7metrics30CommCenterAccessoryInformation8ByteSizeEv, 
                       __ZNK3awd7metrics32CommCenterPowerTransitionFailure11GetTypeNameEv, 
                       __ZNK3awd7metrics32CommCenterPowerTransitionFailure13IsInitializedEv, 
                       __ZNK3awd7metrics32CommCenterPowerTransitionFailure13SetCachedSizeEi, 
                       __ZNK3awd7metrics32CommCenterPowerTransitionFailure24SerializeWithCachedSizesEPN20wireless_diagnostics6google8protobuf2io17CodedOutputStreamE, 
                       __ZNK3awd7metrics32CommCenterPowerTransitionFailure3NewEv, 
                       __ZNK3awd7metrics32CommCenterPowerTransitionFailure8ByteSizeEv, 
                       __ZNK3awd7metrics32CommCenterPowerTransitionSuccess11GetTypeNameEv, 
                       __ZNK3awd7metrics32CommCenterPowerTransitionSuccess13IsInitializedEv, 
                       __ZNK3awd7metrics32CommCenterPowerTransitionSuccess13SetCachedSizeEi, 
                       __ZNK3awd7metrics32CommCenterPowerTransitionSuccess24SerializeWithCachedSizesEPN20wireless_diagnostics6google8protobuf2io17CodedOutputStreamE, 
                       __ZNK3awd7metrics32CommCenterPowerTransitionSuccess3NewEv, 
                       __ZNK3awd7metrics32CommCenterPowerTransitionSuccess8ByteSizeEv, 
                       __ZNK4coex6Module17getShutdownStagesEv, __ZNK4coex6Module5State17getShutdownStagesEv, 
                       __ZNK4coex6Module5State7getNameEv, __ZNK4coex6Module7getNameEv, 
                       __ZNK5radio13HealthService5State7getNameEv, __ZNK7Service10runCommandERKNSt3__112basic_stringIcNS0_11char_traitsIcEENS0_9allocatorIcEEEEN3xpc4dictEN8dispatch5blockIU13block_pointerFviSA_EEE, 
                       __ZNK7Service12isServerDownEv, __ZNK7Service14broadcastEventENSt3__112basic_stringIcNS0_11char_traitsIcEENS0_9allocatorIcEEEEN3ctu2cf11CFSharedRefIK14__CFDictionaryEEN8dispatch5blockIU13block_pointerFvvEEE, 
                       __ZNK7Service14broadcastEventENSt3__112basic_stringIcNS0_11char_traitsIcEENS0_9allocatorIcEEEEN3xpc4dictEN8dispatch5blockIU13block_pointerFvvEEE, 
                       __ZNK7Service21getRegisteredCommandsEv, __ZNK7antenna10PPMManager7getNameEv, 
                       __ZNK7antenna16HKWorkoutManager7getNameEv, __ZNK7antenna18IOKitEventNotifier7getNameEv, 
                       __ZNK7antenna7Service8Internal7getNameEv, __ZNK8FSModule17getShutdownStagesEv, 
                       __ZNK8FSModule7getNameEv, __ZNK8StatsAWD7getNameEv, __ZNK9ResetInfo10getSubTypeEv, 
                       __ZNK9ResetInfo6isMTBFEv, __ZNK9ResetInfo7getTimeEv, __ZNK9ResetInfo7getTypeEv, 
                       __ZNK9ResetInfo8asStringEv, __ZNK9ResetInfo8getRadarEv, __ZNK9ResetInfo9addToDictERN3ctu2cf11CFSharedRefI14__CFDictionaryEE, 
                       __ZNK9ResetInfo9addToDictERN3xpc4dictE, __ZNK9ResetInfo9getReasonEv, 
                       __ZNK9Simulator17getShutdownStagesEv, __ZNK9Simulator7getNameEv, 
                       __ZNK9Timestamp3getER7timevalNS_10TimeDomainE, __ZNK9Timestamp8asStringENS_10TimeDomainENS_6FormatE, 
                       __ZTI10BootModule, __ZTI10CPMSModule, __ZTI10LogTracker, __ZTI10PowerStats, 
                       __ZTI11RadioModule, __ZTI11StatsModule, __ZTI12PowerManager, 
                       __ZTI12QMIXpcServer, __ZTI12TraceManager, __ZTI13AntennaModule, 
                       __ZTI13DriverFactory, __ZTI14BootController, __ZTI14EmptyLogWriter, 
                       __ZTI14ResetDetection, __ZTI14ServiceManager, __ZTI15RouterIPCDriver, 
                       __ZTI15TransportModule, __ZTI16NetworkingModule, __ZTI17ABMServerInternal, 
                       __ZTI17ABMServiceManager, __ZTI17BasebandTransport, __ZTI17WorkLoopIPCDriver, 
                       __ZTI18EURRouterIPCDriver, __ZTI19QMITransportService, __ZTI20BasebandTransportMAV, 
                       __ZTI21CircularFileLogWriter, __ZTI23FlashlessBootController, 
                       __ZTI5Stats, __ZTI7Service, __ZTI8FSModule, __ZTI8StatsAWD, 
                       __ZTI9BootStats, __ZTI9Simulator, __ZTIN3awd7metrics15CrashReasonTypeE, 
                       __ZTIN3awd7metrics17CommCenterNVMSyncE, __ZTIN3awd7metrics18CommCenterWakeInfoE, 
                       __ZTIN3awd7metrics22CommCenterBasebanCrashE, __ZTIN3awd7metrics23CommCenterBasebandTraceE, 
                       __ZTIN3awd7metrics23CommCenterLowPowerEventE, __ZTIN3awd7metrics23CommCenterLowPowerStatsE, 
                       __ZTIN3awd7metrics25CommCenterMissedMTMessageE, __ZTIN3awd7metrics26CommCenterBasebandBootTimeE, 
                       __ZTIN3awd7metrics27CommCenterPowerVotingRecordE, __ZTIN3awd7metrics30CommCenterAccessoryInformationE, 
                       __ZTIN3awd7metrics32CommCenterPowerTransitionFailureE, __ZTIN3awd7metrics32CommCenterPowerTransitionSuccessE, 
                       __ZTIN4coex6ModuleE, __ZTIN4coex9XpcClientE, __ZTIN7antenna16HKWorkoutManagerE, 
                       __ZTIN7antenna18IOKitEventNotifierE, __ZTS10BootModule, __ZTS10CPMSModule, 
                       __ZTS10LogTracker, __ZTS10PowerStats, __ZTS11RadioModule, 
                       __ZTS11StatsModule, __ZTS12PowerManager, __ZTS12QMIXpcServer, 
                       __ZTS12TraceManager, __ZTS13AntennaModule, __ZTS13DriverFactory, 
                       __ZTS14BootController, __ZTS14EmptyLogWriter, __ZTS14ResetDetection, 
                       __ZTS14ServiceManager, __ZTS15RouterIPCDriver, __ZTS15TransportModule, 
                       __ZTS16NetworkingModule, __ZTS17ABMServerInternal, __ZTS17ABMServiceManager, 
                       __ZTS17BasebandTransport, __ZTS17WorkLoopIPCDriver, __ZTS18EURRouterIPCDriver, 
                       __ZTS19QMITransportService, __ZTS20BasebandTransportMAV, __ZTS21CircularFileLogWriter, 
                       __ZTS23FlashlessBootController, __ZTS5Stats, __ZTS7Service, 
                       __ZTS8FSModule, __ZTS8StatsAWD, __ZTS9BootStats, __ZTS9Simulator, 
                       __ZTSN3awd7metrics15CrashReasonTypeE, __ZTSN3awd7metrics17CommCenterNVMSyncE, 
                       __ZTSN3awd7metrics18CommCenterWakeInfoE, __ZTSN3awd7metrics22CommCenterBasebanCrashE, 
                       __ZTSN3awd7metrics23CommCenterBasebandTraceE, __ZTSN3awd7metrics23CommCenterLowPowerEventE, 
                       __ZTSN3awd7metrics23CommCenterLowPowerStatsE, __ZTSN3awd7metrics25CommCenterMissedMTMessageE, 
                       __ZTSN3awd7metrics26CommCenterBasebandBootTimeE, __ZTSN3awd7metrics27CommCenterPowerVotingRecordE, 
                       __ZTSN3awd7metrics30CommCenterAccessoryInformationE, __ZTSN3awd7metrics32CommCenterPowerTransitionFailureE, 
                       __ZTSN3awd7metrics32CommCenterPowerTransitionSuccessE, __ZTSN4coex6ModuleE, 
                       __ZTSN4coex9XpcClientE, __ZTSN7antenna16HKWorkoutManagerE, 
                       __ZTSN7antenna18IOKitEventNotifierE, __ZTV10BootModule, __ZTV10CPMSModule, 
                       __ZTV10LogTracker, __ZTV10PowerStats, __ZTV11RadioModule, 
                       __ZTV11StatsModule, __ZTV12PowerManager, __ZTV12QMIXpcServer, 
                       __ZTV12TraceManager, __ZTV13AntennaModule, __ZTV13DriverFactory, 
                       __ZTV14BootController, __ZTV14EmptyLogWriter, __ZTV14ResetDetection, 
                       __ZTV14ServiceManager, __ZTV15RouterIPCDriver, __ZTV15TransportModule, 
                       __ZTV16NetworkingModule, __ZTV17ABMServerInternal, __ZTV17ABMServiceManager, 
                       __ZTV17BasebandTransport, __ZTV17WorkLoopIPCDriver, __ZTV18EURRouterIPCDriver, 
                       __ZTV19QMITransportService, __ZTV20BasebandTransportMAV, __ZTV21CircularFileLogWriter, 
                       __ZTV23FlashlessBootController, __ZTV5Stats, __ZTV7Service, 
                       __ZTV8FSModule, __ZTV8StatsAWD, __ZTV9BootStats, __ZTV9Simulator, 
                       __ZTVN3awd7metrics15CrashReasonTypeE, __ZTVN3awd7metrics17CommCenterNVMSyncE, 
                       __ZTVN3awd7metrics18CommCenterWakeInfoE, __ZTVN3awd7metrics22CommCenterBasebanCrashE, 
                       __ZTVN3awd7metrics23CommCenterBasebandTraceE, __ZTVN3awd7metrics23CommCenterLowPowerEventE, 
                       __ZTVN3awd7metrics23CommCenterLowPowerStatsE, __ZTVN3awd7metrics25CommCenterMissedMTMessageE, 
                       __ZTVN3awd7metrics26CommCenterBasebandBootTimeE, __ZTVN3awd7metrics27CommCenterPowerVotingRecordE, 
                       __ZTVN3awd7metrics30CommCenterAccessoryInformationE, __ZTVN3awd7metrics32CommCenterPowerTransitionFailureE, 
                       __ZTVN3awd7metrics32CommCenterPowerTransitionSuccessE, __ZTVN4coex6Module5StateE, 
                       __ZTVN4coex6ModuleE, __ZTVN4coex9XpcClientE, __ZTVN7antenna16HKWorkoutManagerE, 
                       __ZTVN7antenna18IOKitEventNotifierE, __ZThn104_N19QMITransportService12enableBypassEb, 
                       __ZThn104_N19QMITransportService12exitLowPowerEN8dispatch13group_sessionE, 
                       __ZThn104_N19QMITransportService13enterLowPowerEN8dispatch13group_sessionE, 
                       __ZThn104_N19QMITransportService20configureHistorySizeEj, 
                       __ZThn104_N19QMITransportService21registerForWakeReasonEN8dispatch8callbackIU13block_pointerFv10WakeReasonEEE, 
                       __ZThn104_N19QMITransportService25shouldTeardownOnWillResetEv, 
                       __ZThn104_N19QMITransportService28reportPowerDownMessages_syncEv, 
                       __ZThn104_N19QMITransportService4initEv, __ZThn104_N19QMITransportService6engageEv, 
                       __ZThn104_N19QMITransportService7recoverEv, __ZThn104_N19QMITransportService8shutdownEv, 
                       __ZThn104_N19QMITransportService8snapshotENSt3__112basic_stringIcNS0_11char_traitsIcEENS0_9allocatorIcEEEE, 
                       __ZThn104_N19QMITransportService8tearDownEv, __ZThn104_N19QMITransportService9dumpStateEv, 
                       __ZThn104_NK19QMITransportService7getNameEv, __ZThn160_N18EURRouterIPCDriver18createQMuxChannelsERKNSt3__112basic_stringIcNS0_11char_traitsIcEENS0_9allocatorIcEEEEbb, 
                       __ZThn160_N18EURRouterIPCDriver8activateEv, __ZThn160_N18EURRouterIPCDriverD0Ev, 
                       __ZThn160_N18EURRouterIPCDriverD1Ev, __ZThn208_N18EURRouterIPCDriverD0Ev, 
                       __ZThn208_N18EURRouterIPCDriverD1Ev, __ZThn320_N18EURRouterIPCDriver19handleInternalErrorEPKc, 
                       __ZThn320_N18EURRouterIPCDriverD0Ev, __ZThn320_N18EURRouterIPCDriverD1Ev, 
                       __ZThn48_N10BootModuleD0Ev, __ZThn48_N10BootModuleD1Ev, __ZThn48_N10CPMSModuleD0Ev, 
                       __ZThn48_N10CPMSModuleD1Ev, __ZThn48_N10LogTrackerD0Ev, __ZThn48_N10LogTrackerD1Ev, 
                       __ZThn48_N11RadioModuleD0Ev, __ZThn48_N11RadioModuleD1Ev, 
                       __ZThn48_N11StatsModuleD0Ev, __ZThn48_N11StatsModuleD1Ev, 
                       __ZThn48_N12TraceManagerD0Ev, __ZThn48_N12TraceManagerD1Ev, 
                       __ZThn48_N13AntennaModuleD0Ev, __ZThn48_N13AntennaModuleD1Ev, 
                       __ZThn48_N15RouterIPCDriverD0Ev, __ZThn48_N15RouterIPCDriverD1Ev, 
                       __ZThn48_N15TransportModuleD0Ev, __ZThn48_N15TransportModuleD1Ev, 
                       __ZThn48_N16NetworkingModuleD0Ev, __ZThn48_N16NetworkingModuleD1Ev, 
                       __ZThn48_N8FSModuleD0Ev, __ZThn48_N8FSModuleD1Ev, __ZThn72_N17ABMServerInternalD0Ev, 
                       __ZThn72_N17ABMServerInternalD1Ev, __ZThn72_N4coex9XpcClientD0Ev, 
                       __ZThn72_N4coex9XpcClientD1Ev ]
    weak-def-symbols: [ __ZGVN3ctu9SingletonI12CapabilitiesS1_NS_23PthreadMutexGuardPolicyIS1_EEE9sInstanceE, 
                        __ZGVN3ctu9SingletonI13ABMPropertiesS1_NS_23PthreadMutexGuardPolicyIS1_EEE9sInstanceE, 
                        __ZGVN3ctu9SingletonI13ABMStatisticsS1_NS_23PthreadMutexGuardPolicyIS1_EEE9sInstanceE, 
                        __ZGVN3ctu9SingletonI13ServerLoggingS1_NS_23PthreadMutexGuardPolicyIS1_EEE9sInstanceE, 
                        __ZGVN3ctu9SingletonI16ABMNetworkPolicyS1_NS_23PthreadMutexGuardPolicyIS1_EEE9sInstanceE, 
                        __ZGVN3ctu9SingletonI9ABMServerS1_NS_23PthreadMutexGuardPolicyIS1_EEE9sInstanceE, 
                        __ZGVN3ctu9SingletonIN3abm9AWDHelperES2_NS_23PthreadMutexGuardPolicyIS2_EEE9sInstanceE, 
                        __ZN3ctu9SingletonI12CapabilitiesS1_NS_23PthreadMutexGuardPolicyIS1_EEE9sInstanceE, 
                        __ZN3ctu9SingletonI13ABMPropertiesS1_NS_23PthreadMutexGuardPolicyIS1_EEE9sInstanceE, 
                        __ZN3ctu9SingletonI13ABMStatisticsS1_NS_23PthreadMutexGuardPolicyIS1_EEE9sInstanceE, 
                        __ZN3ctu9SingletonI13ServerLoggingS1_NS_23PthreadMutexGuardPolicyIS1_EEE9sInstanceE, 
                        __ZN3ctu9SingletonI16ABMNetworkPolicyS1_NS_23PthreadMutexGuardPolicyIS1_EEE9sInstanceE, 
                        __ZN3ctu9SingletonI9ABMServerS1_NS_23PthreadMutexGuardPolicyIS1_EEE9sInstanceE, 
                        __ZN3ctu9SingletonIN3abm9AWDHelperES2_NS_23PthreadMutexGuardPolicyIS2_EEE9sInstanceE ]
  - archs:           [ armv7, armv7s, arm64, arm64e ]
    symbols:         [ _AppleBasebandManagerGetProfile, _AppleBasebandManagerInitServer, 
                       _AppleBasebandManagerShutdownServer, _AppleBasebandManagerStartServer, 
                       _AppleBasebandManagerStopServer, _GlobalObjectToInstallTheHandler, 
                       __ZN18DataStallDetection11setCallbackEN8dispatch8callbackIU13block_pointerFvNSt3__112basic_stringIcNS2_11char_traitsIcEENS2_9allocatorIcEEEEEEE, 
                       __ZN18DataStallDetection6createENSt3__110shared_ptrIN3ctu9LogServerEEE, 
                       __ZN18DataStallDetectionC1ENSt3__110shared_ptrIN3ctu9LogServerEEE, 
                       __ZN18DataStallDetectionC2ENSt3__110shared_ptrIN3ctu9LogServerEEE, 
                       __ZN18DataStallDetectionD0Ev, __ZN18DataStallDetectionD1Ev, 
                       __ZN18DataStallDetectionD2Ev, __ZN3abm19kCommandSetIPCTraceE, 
                       __ZN3abm22kEventTransportIsReadyE, __ZN3abm22kKeyPowerDownMessageIdE, 
                       __ZN3abm24kKeyPowerDownMessageListE, __ZN3abm26kKeyPowerDownMessageQMISvcE, 
                       __ZN3abm29kActionCreateNetworkInterfaceE, __ZN3abm29kActionRemoveNetworkInterfaceE, 
                       __ZN3abm30kActionConfigureDataThrottlingE, __ZN3abm31kActionActivateNetworkInterfaceE, 
                       __ZN3abm31kCommandNetworkInterfaceControlE, __ZN3abm31kCommandSetPowerDownMessageListE, 
                       __ZN3abm33kActionDeactivateNetworkInterfaceE, __ZN3abm5debug17registerLogServerENSt3__110shared_ptrIN3ctu9LogServerEEE, 
                       __ZN4coex6Module5State19setIndications_syncEv, __ZN4coex6Module5State21fetchBandInfoSet_syncEN3ctu2cf11CFSharedRefIK9__CFArrayEEPKcN3xpc4dictE, 
                       __ZN4coex6Module5State30convertScanFreqBandFilter_syncEN3xpc5arrayEN3ctu2cf11CFSharedRefIK9__CFArrayEE, 
                       __ZN4coex6Module5State31handleCommandDriverStarted_syncEv, 
                       __ZN4coex6Module5State4initEv, __ZN4coex6ModuleD1Ev, __ZN4coex6ModuleD2Ev, 
                       __ZN4diag6config11kMaxHistoryE, __ZN4diag6config12kDefaultModeE, 
                       __ZN4diag6config12kNoneDMCFileE, __ZN4diag6config12kTempModeKeyE, 
                       __ZN4diag6config15kDIAGScratchDirE, __ZN4diag6config15kDefaultHistoryE, 
                       __ZN4diag6config15kTempEnabledKeyE, __ZN4diag6config16kExtraDMCFileKeyE, 
                       __ZN4diag6config16kLowWatermarkKeyE, __ZN4diag6config16kSleepDMCFileKeyE, 
                       __ZN4diag6config16kUseThresholdKeyE, __ZN4diag6config17kHighWatermarkKeyE, 
                       __ZN4diag6config18kPrimaryDMCFileKeyE, __ZN4diag6config18kStallDetectionKeyE, 
                       __ZN4diag6config18kThroughputDMCFileE, __ZN4diag6config19kBufferingOnAPAwakeE, 
                       __ZN4diag6config19kKeepScratchLogsKeyE, __ZN4diag6config20kDefaultExtraDMCFileE, 
                       __ZN4diag6config20kDefaultLowWatermarkE, __ZN4diag6config20kDefaultSleepDMCFileE, 
                       __ZN4diag6config20kDefaultUseThresholdE, __ZN4diag6config20kSecondaryDMCFileKeyE, 
                       __ZN4diag6config21getShouldAlwaysFilterEv, __ZN4diag6config21kDefaultHighWatermarkE, 
                       __ZN4diag6config22kDefaultPrimaryDMCFileE, __ZN4diag6config22kDefaultStallDetectionE, 
                       __ZN4diag6config22kEnabledDuringSleepKeyE, __ZN4diag6config24kDefaultSecondaryDMCFileE, 
                       __ZN4diag6config26kStallDetectionRecoveryKeyE, __ZN4diag6config8toStringENS0_13DuringAPSleepE, 
                       __ZN4diag6config8toStringENS0_4ModeE, __ZN4diag6config8toStringENS0_8RecoveryE, 
                       __ZN5radio13HealthService12exitLowPowerEN8dispatch8callbackIU13block_pointerFvvEEE, 
                       __ZN5radio13HealthService13enterLowPowerEN8dispatch8callbackIU13block_pointerFvvEEE, 
                       __ZN5radio13HealthService15reportDataStatsEv, __ZN5radio13HealthService25kKeyDataReportingIntervalE, 
                       __ZN5radio13HealthService5State12exitLowPowerEN8dispatch8callbackIU13block_pointerFvvEEE, 
                       __ZN5radio13HealthService5State13enterLowPowerEN8dispatch8callbackIU13block_pointerFvvEEE, 
                       __ZN5radio13HealthService5State15reportDataStatsEv, __ZN5radio13HealthService5State20reportDataStats_syncEv, 
                       __ZN5radio13HealthService5State27stopDataReportingTimer_syncEv, 
                       __ZN5radio13HealthService5State28queryAndReportDataStats_syncEv, 
                       __ZN5radio13HealthService5State28startDataReportingTimer_syncEN3ctu2cf11CFSharedRefIK14__CFDictionaryEE, 
                       __ZN5radio13HealthService5State28startDataStallReporting_syncEv, 
                       __ZN5radio13HealthService5State5resetEv, __ZN5radio13HealthService5State5startEN3ctu2cf11CFSharedRefIK14__CFDictionaryEE, 
                       __ZN5radio13HealthService5StateC1ENSt3__110shared_ptrIN3ctu9LogServerEEENS3_I18DataStallDetectionEE, 
                       __ZN5radio13HealthService5StateC2ENSt3__110shared_ptrIN3ctu9LogServerEEENS3_I18DataStallDetectionEE, 
                       __ZN5radio13HealthService5StateD0Ev, __ZN5radio13HealthService5StateD1Ev, 
                       __ZN5radio13HealthService5StateD2Ev, __ZN5radio13HealthService5resetEv, 
                       __ZN5radio13HealthServiceC1ENSt3__110shared_ptrIN3ctu9LogServerEEENS2_I18DataStallDetectionEENS3_2cf11CFSharedRefIK14__CFDictionaryEE, 
                       __ZN5radio13HealthServiceC2ENSt3__110shared_ptrIN3ctu9LogServerEEENS2_I18DataStallDetectionEENS3_2cf11CFSharedRefIK14__CFDictionaryEE, 
                       __ZN7antenna15CMOnBodyManager11isSupportedEv, __ZN7antenna15CMOnBodyManager13setThresholdsEPK14__CFDictionary, 
                       __ZN7antenna15CMOnBodyManager19motionCallback_syncENS0_14CMOnBodyResultENS0_24CMOnBodyResultConfidenceE, 
                       __ZN7antenna15CMOnBodyManager19stopMotionDetectionEv, __ZN7antenna15CMOnBodyManager20startMotionDetectionEPK14__CFDictionaryN8dispatch5blockIU13block_pointerFvNS0_14CMOnBodyResultENS0_24CMOnBodyResultConfidenceEEEE, 
                       __ZN7antenna15CMOnBodyManagerD1Ev, __ZN7antenna15CMOnBodyManagerD2Ev, 
                       __ZN7antenna7Service10callActiveEv, __ZN7antenna7Service11stopServiceEv, 
                       __ZN7antenna7Service12callInactiveEv, __ZN7antenna7Service12exitLowPowerEv, 
                       __ZN7antenna7Service12startServiceEv, __ZN7antenna7Service13enterLowPowerEv, 
                       __ZN7antenna7Service13setAudioStateEN3xpc4dictE, __ZN7antenna7Service18antennaGetPropertyERKN3xpc4dictE, 
                       __ZN7antenna7Service18antennaSetPropertyERKN3xpc4dictE, __ZN7antenna7Service19setMotionThresholdsEN3xpc4dictE, 
                       __ZN7antenna7Service8Internal10callActiveEv, __ZN7antenna7Service8Internal11stopServiceEv, 
                       __ZN7antenna7Service8Internal12callInactiveEv, __ZN7antenna7Service8Internal12exitLowPowerEv, 
                       __ZN7antenna7Service8Internal12startServiceEv, __ZN7antenna7Service8Internal13enterLowPowerEv, 
                       __ZN7antenna7Service8Internal13lqmState_syncENS0_11LinkQualityE, 
                       __ZN7antenna7Service8Internal13setAudioStateEN3xpc4dictE, 
                       __ZN7antenna7Service8Internal15isMotionSupportEv, __ZN7antenna7Service8Internal16calculateTxValueEjj, 
                       __ZN7antenna7Service8Internal16sendAudioSpeakerEv, __ZN7antenna7Service8Internal16setMaxPower_syncERKN3xpc4dictE, 
                       __ZN7antenna7Service8Internal16setMaxPower_syncEi, __ZN7antenna7Service8Internal16stopService_syncEv, 
                       __ZN7antenna7Service8Internal17systemElapsedTimeEv, __ZN7antenna7Service8Internal18antennaGetPropertyERKN3xpc4dictE, 
                       __ZN7antenna7Service8Internal18antennaSetPropertyERKN3xpc4dictE, 
                       __ZN7antenna7Service8Internal18configTxPower_syncENS_14TxPowerSvcTypeE, 
                       __ZN7antenna7Service8Internal18configuration_syncEv, __ZN7antenna7Service8Internal19setMotionThresholdsEN3xpc4dictE, 
                       __ZN7antenna7Service8Internal20handleDumpState_syncEv, __ZN7antenna7Service8Internal20systemTimeDifferenceEjj, 
                       __ZN7antenna7Service8Internal21sendAudioSpeaker_syncEv, __ZN7antenna7Service8Internal22isAudioAnyOutputActiveEv, 
                       __ZN7antenna7Service8Internal23isMotionOnTablePositionEv, 
                       __ZN7antenna7Service8Internal23stopTxPowerCapping_syncEv, 
                       __ZN7antenna7Service8Internal24isAudioOtherOutputActiveEv, 
                       __ZN7antenna7Service8Internal24sendAccessoryStatus_syncEv, 
                       __ZN7antenna7Service8Internal24setTxPowerAudioMode_syncERKN3xpc4dictE, 
                       __ZN7antenna7Service8Internal24startTxPowerCapping_syncEv, 
                       __ZN7antenna7Service8Internal24stopMotionDetection_syncEv, 
                       __ZN7antenna7Service8Internal25copyTxPowerAudioMode_syncEv, 
                       __ZN7antenna7Service8Internal25enableTxPowerCapping_syncEb, 
                       __ZN7antenna7Service8Internal25getTxPowerAudioModeStringEv, 
                       __ZN7antenna7Service8Internal25setLinkQualityMetric_syncENS0_11LinkQualityE, 
                       __ZN7antenna7Service8Internal25setTxPowerAudioAlert_syncERKN3xpc4dictE, 
                       __ZN7antenna7Service8Internal25setTxPowerMotionMode_syncERKN3xpc4dictE, 
                       __ZN7antenna7Service8Internal25startMotionDetection_syncEv, 
                       __ZN7antenna7Service8Internal26copyTxPowerAudioAlert_syncEv, 
                       __ZN7antenna7Service8Internal26copyTxPowerMotionMode_syncEv, 
                       __ZN7antenna7Service8Internal26getTxPowerMotionModeStringEv, 
                       __ZN7antenna7Service8Internal26isAudioSpeakerOutputActiveEv, 
                       __ZN7antenna7Service8Internal28getTxPowerCappingCurrentModeEv, 
                       __ZN7antenna7Service8Internal29stopTxPowerCappingIPhone_syncEv, 
                       __ZN7antenna7Service8Internal30startTxPowerCappingIPhone_syncEv, 
                       __ZN7antenna7Service8Internal30stopTxMotionCallbackTimer_syncEv, 
                       __ZN7antenna7Service8Internal31isAudioReceiverOutputOnlyActiveEv, 
                       __ZN7antenna7Service8Internal31sendTxPowerCappingIPadMode_syncEv, 
                       __ZN7antenna7Service8Internal31startTxMotionCallbackTimer_syncEv, 
                       __ZN7antenna7Service8Internal32setTxPowerCappingIPhoneMode_syncERKN3xpc4dictE, 
                       __ZN7antenna7Service8Internal33copyTxPowerCappingIPhoneMode_syncEv, 
                       __ZN7antenna7Service8Internal34stopTxPowerCappingIPhoneTimer_syncEv, 
                       __ZN7antenna7Service8Internal35startTxPowerCappingIPhoneTimer_syncEv, 
                       __ZN7antenna7Service8Internal36handleMotionCallbackTimerExpiry_syncEv, 
                       __ZN7antenna7Service8Internal37getTxPowerCappingAntennaFreeSpaceModeEv, 
                       __ZN7antenna7Service8Internal37stopTxPowerCappingIPadWithMotion_syncEv, 
                       __ZN7antenna7Service8Internal38startTxPowerCappingIPadWithMotion_syncEv, 
                       __ZN7antenna7Service8Internal40getTxPowerIPadWithMotionCappingMode_syncEv, 
                       __ZN7antenna7Service8Internal42handleTxPowerCappingIPhoneTimerExpiry_syncEv, 
                       __ZN7antenna7Service8Internal42stopTxPowerCappingIPadWithMotionTimer_syncEv, 
                       __ZN7antenna7Service8Internal43startTxPowerCappingIPadWithMotionTimer_syncEv, 
                       __ZN7antenna7Service8Internal45setTxPowerCappingIPhoneOverrideFreeSpace_syncERKN3xpc6objectE, 
                       __ZN7antenna7Service8Internal4initEv, __ZN7antenna7Service8Internal50handleTxPowerCappingIPadWithMotionTimerExpiry_syncEv, 
                       __ZN7antenna7Service8Internal53getTxPowerCappingIPhoneOverriddenFreeSpaceString_syncEv, 
                       __ZN7antenna7Service8Internal9dumpStateEv, __ZN7antenna7Service9dumpStateEv, 
                       __ZN7antenna7ServiceD1Ev, __ZN7antenna7ServiceD2Ev, __ZTI18DataStallDetection, 
                       __ZTIN4coex6Module5StateE, __ZTIN5radio13HealthService5StateE, 
                       __ZTS18DataStallDetection, __ZTSN4coex6Module5StateE, __ZTSN5radio13HealthService5StateE, 
                       __ZTV18DataStallDetection, __ZTVN5radio13HealthService5StateE, 
                       _kABMDefaultServiceName, _kABMProjectBuildReason, _kABMProjectBuildRevision, 
                       _kABMProjectVersion, _kBasebandXpc, _kCommandCheckIn, _kCommandCheckOut, 
                       _kCommandEventsOff, _kCommandEventsOn, _kCommandSignalNotification, 
                       _kDaemonLogScratchDir, _kKeepScratchLogsKey, _kKeyClientName, 
                       _kKeyCommand, _kKeyCommandData, _kKeyCommandResult, _kKeyEntitlementBasebanddAllow, 
                       _kKeyEntitlementFineGrained, _kKeyEvent, _kKeyEventData, _kKeyEventsList, 
                       _kOptionServiceName, _kValueInvalid ]
    objc-classes:    [ ABMTapToRadar, CMHandDetectionDelegate ]
    objc-ivars:      [ ABMTapToRadar.fMaxUniqueSignatures, ABMTapToRadar.fMinTimeBetweenSameNotificationSec, 
                       ABMTapToRadar.fMode, ABMTapToRadar.fQueue, CMHandDetectionDelegate.fCallBack ]
    weak-def-symbols: [ __ZGVN3ctu9SingletonINS_18XpcJetsamAssertionES1_NS_23PthreadMutexGuardPolicyIS1_EEE9sInstanceE, 
                        __ZGVN3ctu9SingletonINS_5power9assertionES2_NS_23PthreadMutexGuardPolicyIS2_EEE9sInstanceE, 
                        __ZN3ctu9SingletonINS_18XpcJetsamAssertionES1_NS_23PthreadMutexGuardPolicyIS1_EEE9sInstanceE, 
                        __ZN3ctu9SingletonINS_5power9assertionES2_NS_23PthreadMutexGuardPolicyIS2_EEE9sInstanceE ]
...
