--- !tapi-tbd-v3
archs:                 [ armv7, armv7s, arm64, arm64e ]
platform:              ios
flags:                 [ flat_namespace ]
install-name:          /System/Library/PrivateFrameworks/MIL.framework/MIL
current-version:       4.28.4
compatibility-version: 4.28
exports:
  - archs:                [ armv7, armv7s, arm64, arm64e ]
    symbols:              [ __ZN3MIL10Attributes11IOAliasInfo11TrySetAliasENSt3__112basic_stringIcNS2_11char_traitsIcEENS2_9allocatorIcEEEES8_,
                            __ZN3MIL10Attributes11IOAliasInfo14TryRemoveAliasENSt3__112basic_stringIcNS2_11char_traitsIcEENS2_9allocatorIcEEEE,
                            __ZN3MIL10Attributes11IOAliasInfo4MakeERNS_10MILContextERKNS_10IRFunctionE,
                            __ZN3MIL10Attributes11IOAliasInfo4MakeEv,
                            __ZN3MIL10Attributes11IOAliasInfo8SetAliasENSt3__112basic_stringIcNS2_11char_traitsIcEENS2_9allocatorIcEEEES8_,
                            __ZN3MIL10Attributes11IOAliasInfoD1Ev,
                            __ZN3MIL10Attributes11IOAliasInfoD2Ev,
                            __ZN3MIL10Attributes17FlexibleShapeInfo14SetRangeShapesEONSt3__113unordered_mapINS2_12basic_stringIcNS2_11char_traitsIcEENS2_9allocatorIcEEEENS2_6vectorINS2_4pairIiiEENS7_ISC_EEEENS2_4hashIS9_EENS2_8equal_toIS9_EENS7_INSB_IKS9_SE_EEEEEE,
                            __ZN3MIL10Attributes17FlexibleShapeInfo16SetDefaultShapesEONSt3__113unordered_mapINS2_12basic_stringIcNS2_11char_traitsIcEENS2_9allocatorIcEEEENS2_6vectorIPKNS_11IRDimensionENS7_ISD_EEEENS2_4hashIS9_EENS2_8equal_toIS9_EENS7_INS2_4pairIKS9_SF_EEEEEE,
                            __ZN3MIL10Attributes17FlexibleShapeInfo17RemoveRangeShapesEv,
                            __ZN3MIL10Attributes17FlexibleShapeInfo19AddEnumeratedShapesENSt3__112basic_stringIcNS2_11char_traitsIcEENS2_9allocatorIcEEEEONS2_13unordered_mapIS8_NS2_6vectorIPKNS_11IRDimensionENS6_ISD_EEEENS2_4hashIS8_EENS2_8equal_toIS8_EENS6_INS2_4pairIKS8_SF_EEEEEE,
                            __ZN3MIL10Attributes17FlexibleShapeInfo19RemoveDefaultShapesEv,
                            __ZN3MIL10Attributes17FlexibleShapeInfo22RemoveEnumeratedShapesERKNSt3__112basic_stringIcNS2_11char_traitsIcEENS2_9allocatorIcEEEE,
                            __ZN3MIL10Attributes17FlexibleShapeInfo4MakeERNS_10MILContextERKNS_10IRFunctionE,
                            __ZN3MIL10Attributes17FlexibleShapeInfo4MakeEv,
                            __ZN3MIL10Attributes17FlexibleShapeInfoC1EONSt3__110unique_ptrINS1_4ImplENS2_14default_deleteIS4_EEEE,
                            __ZN3MIL10Attributes17FlexibleShapeInfoC2EONSt3__110unique_ptrINS1_4ImplENS2_14default_deleteIS4_EEEE,
                            __ZN3MIL10Attributes17FlexibleShapeInfoD1Ev,
                            __ZN3MIL10Attributes17FlexibleShapeInfoD2Ev,
                            __ZN3MIL10Attributes9BuildInfo10SetVersionENSt3__112basic_stringIcNS2_11char_traitsIcEENS2_9allocatorIcEEEES8_,
                            __ZN3MIL10Attributes9BuildInfo12SetModelNameENSt3__112basic_stringIcNS2_11char_traitsIcEENS2_9allocatorIcEEEE,
                            __ZN3MIL10Attributes9BuildInfo12SetModelPathENSt3__112basic_stringIcNS2_11char_traitsIcEENS2_9allocatorIcEEEE,
                            __ZN3MIL10Attributes9BuildInfo13SetModelOwnerENSt3__112basic_stringIcNS2_11char_traitsIcEENS2_9allocatorIcEEEE,
                            __ZN3MIL10Attributes9BuildInfo19SetComponentVersionENSt3__112basic_stringIcNS2_11char_traitsIcEENS2_9allocatorIcEEEES8_S8_,
                            __ZN3MIL10Attributes9BuildInfo26SetPublicCustomInformationENSt3__112basic_stringIcNS2_11char_traitsIcEENS2_9allocatorIcEEEES8_S8_,
                            __ZN3MIL10Attributes9BuildInfo27SetPrivateCustomInformationENSt3__112basic_stringIcNS2_11char_traitsIcEENS2_9allocatorIcEEEES8_S8_,
                            __ZN3MIL10Attributes9BuildInfo4MakeERKNS_9IRProgramE,
                            __ZN3MIL10Attributes9BuildInfo4MakeEv,
                            __ZN3MIL10Attributes9BuildInfoC1EONSt3__110unique_ptrINS1_4ImplENS2_14default_deleteIS4_EEEE,
                            __ZN3MIL10Attributes9BuildInfoC2EONSt3__110unique_ptrINS1_4ImplENS2_14default_deleteIS4_EEEE,
                            __ZN3MIL10Attributes9BuildInfoD1Ev,
                            __ZN3MIL10Attributes9BuildInfoD2Ev,
                            __ZN3MIL10IRArgument4MakeENSt3__110shared_ptrIKNS_7IRValueEEE,
                            __ZN3MIL10IRArgument4MakeENSt3__112basic_stringIcNS1_11char_traitsIcEENS1_9allocatorIcEEEE,
                            __ZN3MIL10IRArgumentC2Ev, __ZN3MIL10IRArgumentD0Ev,
                            __ZN3MIL10IRArgumentD1Ev, __ZN3MIL10IRArgumentD2Ev,
                            __ZN3MIL10IRFunction4MakeENSt3__110shared_ptrIKNS_8LocationEEEONS1_3mapINS1_12basic_stringIcNS1_11char_traitsIcEENS1_9allocatorIcEEEEPKNS_11IRValueTypeENS1_4lessISC_EENSA_INS1_4pairIKSC_SF_EEEEEESC_ONS1_10unique_ptrINS_7IRBlockENS1_14default_deleteISP_EEEE,
                            __ZN3MIL10IRFunction4MakeENSt3__110shared_ptrIKNS_8LocationEEEONS1_3mapINS1_12basic_stringIcNS1_11char_traitsIcEENS1_9allocatorIcEEEEPKNS_11IRValueTypeENS1_4lessISC_EENSA_INS1_4pairIKSC_SF_EEEEEESC_ONS1_10unique_ptrINS_7IRBlockENS1_14default_deleteISP_EEEEONS1_13unordered_mapISC_NS2_IKNS_7IRValueEEENS1_4hashISC_EENS1_8equal_toISC_EENSA_INSI_ISJ_SX_EEEEEE,
                            __ZN3MIL10IRFunction4MakeENSt3__110shared_ptrIKNS_8LocationEEEONS1_3mapINS1_12basic_stringIcNS1_11char_traitsIcEENS1_9allocatorIcEEEEPKNS_11IRValueTypeENS1_4lessISC_EENSA_INS1_4pairIKSC_SF_EEEEEESC_ONS6_ISC_NS1_10unique_ptrINS_7IRBlockENS1_14default_deleteISP_EEEESH_NSA_INSI_ISJ_SS_EEEEEE,
                            __ZN3MIL10IRFunction4MakeENSt3__110shared_ptrIKNS_8LocationEEEONS1_3mapINS1_12basic_stringIcNS1_11char_traitsIcEENS1_9allocatorIcEEEEPKNS_11IRValueTypeENS1_4lessISC_EENSA_INS1_4pairIKSC_SF_EEEEEESC_ONS6_ISC_NS1_10unique_ptrINS_7IRBlockENS1_14default_deleteISP_EEEESH_NSA_INSI_ISJ_SS_EEEEEEONS1_13unordered_mapISC_NS2_IKNS_7IRValueEEENS1_4hashISC_EENS1_8equal_toISC_EENSA_INSI_ISJ_S10_EEEEEE,
                            __ZN3MIL10IRFunctionC2ENSt3__110shared_ptrIKNS_8LocationEEEONS1_13unordered_mapINS1_12basic_stringIcNS1_11char_traitsIcEENS1_9allocatorIcEEEENS2_IKNS_7IRValueEEENS1_4hashISC_EENS1_8equal_toISC_EENSA_INS1_4pairIKSC_SF_EEEEEE,
                            __ZN3MIL10IRFunctionD0Ev, __ZN3MIL10IRFunctionD1Ev,
                            __ZN3MIL10IRFunctionD2Ev,
                            __ZN3MIL10IROperator16MakeParameterMapESt16initializer_listINSt3__14pairIKNS2_12basic_stringIcNS2_11char_traitsIcEENS2_9allocatorIcEEEENS2_10shared_ptrINS_11IRParameterEEEEEE,
                            __ZN3MIL10IROperator16MakeParameterVecESt16initializer_listINSt3__110shared_ptrINS_11IRParameterEEEE,
                            __ZN3MIL10IROperator4MakeENSt3__112basic_stringIcNS1_11char_traitsIcEENS1_9allocatorIcEEEENS1_10shared_ptrINS1_13unordered_mapIS7_NS8_INS_11IRParameterEEENS1_4hashIS7_EENS1_8equal_toIS7_EENS5_INS1_4pairIKS7_SB_EEEEEEEENS8_INS1_6vectorISB_NS5_ISB_EEEEEENS1_8functionIFNS_16ValidationResultERKNS_11IROperationEEEENSQ_IFNS8_IKNS_7IRValueEEESU_EEE,
                            __ZN3MIL10IROperator4MakeENSt3__112basic_stringIcNS1_11char_traitsIcEENS1_9allocatorIcEEEEyyyyNS1_10shared_ptrINS1_13unordered_mapIS7_NS8_INS_11IRParameterEEENS1_4hashIS7_EENS1_8equal_toIS7_EENS5_INS1_4pairIKS7_SB_EEEEEEEENS8_INS1_6vectorISB_NS5_ISB_EEEEEENS1_8functionIFNS_16ValidationResultERKNS_11IROperationEEEENSQ_IFNS8_IKNS_7IRValueEEESU_EEE,
                            __ZN3MIL10IROperatorC2Ev, __ZN3MIL10IROperatorD0Ev,
                            __ZN3MIL10IROperatorD1Ev, __ZN3MIL10IROperatorD2Ev,
                            __ZN3MIL10MILContext4MakeEv,
                            __ZN3MIL10MILContextC2Ev, __ZN3MIL10MILContextD0Ev,
                            __ZN3MIL10MILContextD1Ev, __ZN3MIL10MILContextD2Ev,
                            __ZN3MIL10ParseErrorC1ENS_11ParseResultE,
                            __ZN3MIL10ParseErrorC1ENSt3__110shared_ptrIKNS_8LocationEEENS1_12basic_stringIcNS1_11char_traitsIcEENS1_9allocatorIcEEEENS_11ParseReasonE,
                            __ZN3MIL10ParseErrorC2ENS_11ParseResultE,
                            __ZN3MIL10ParseErrorC2ENSt3__110shared_ptrIKNS_8LocationEEENS1_12basic_stringIcNS1_11char_traitsIcEENS1_9allocatorIcEEEENS_11ParseReasonE,
                            __ZN3MIL10Validation11ConstraintsC2Ev,
                            __ZN3MIL10Validation11ConstraintsD0Ev,
                            __ZN3MIL10Validation11ConstraintsD1Ev,
                            __ZN3MIL10Validation11ConstraintsD2Ev,
                            __ZN3MIL10Validation16ConstraintTargetC2Ev,
                            __ZN3MIL10Validation16ConstraintTargetD0Ev,
                            __ZN3MIL10Validation16ConstraintTargetD1Ev,
                            __ZN3MIL10Validation16ConstraintTargetD2Ev,
                            __ZN3MIL10Validation22TensorDTypeConstraints4MakeEv,
                            __ZN3MIL10Validation22TensorDTypeConstraintsC2Ev,
                            __ZN3MIL10Validation22TensorDTypeConstraintsD0Ev,
                            __ZN3MIL10Validation22TensorDTypeConstraintsD1Ev,
                            __ZN3MIL10Validation22TensorDTypeConstraintsD2Ev,
                            __ZN3MIL10Validation24OpOutputConstraintTarget4MakeEyb,
                            __ZN3MIL10Validation24OpOutputConstraintTargetC2Ev,
                            __ZN3MIL10Validation24OpOutputConstraintTargetD0Ev,
                            __ZN3MIL10Validation24OpOutputConstraintTargetD1Ev,
                            __ZN3MIL10Validation24OpOutputConstraintTargetD2Ev,
                            __ZN3MIL10Validation26TensorRankValueConstraints4MakeEv,
                            __ZN3MIL10Validation26TensorRankValueConstraintsC2Ev,
                            __ZN3MIL10Validation26TensorRankValueConstraintsD0Ev,
                            __ZN3MIL10Validation26TensorRankValueConstraintsD1Ev,
                            __ZN3MIL10Validation26TensorRankValueConstraintsD2Ev,
                            __ZN3MIL10Validation27OpAttributeConstraintTarget4MakeENSt3__112basic_stringIcNS2_11char_traitsIcEENS2_9allocatorIcEEEEb,
                            __ZN3MIL10Validation27OpAttributeConstraintTargetC2Ev,
                            __ZN3MIL10Validation27OpAttributeConstraintTargetD0Ev,
                            __ZN3MIL10Validation27OpAttributeConstraintTargetD1Ev,
                            __ZN3MIL10Validation27OpAttributeConstraintTargetD2Ev,
                            __ZN3MIL10Validation27OpParameterConstraintTarget4MakeENSt3__112basic_stringIcNS2_11char_traitsIcEENS2_9allocatorIcEEEEb,
                            __ZN3MIL10Validation27OpParameterConstraintTarget4MakeENSt3__112basic_stringIcNS2_11char_traitsIcEENS2_9allocatorIcEEEEjb,
                            __ZN3MIL10Validation27OpParameterConstraintTargetC2Ev,
                            __ZN3MIL10Validation27OpParameterConstraintTargetD0Ev,
                            __ZN3MIL10Validation27OpParameterConstraintTargetD1Ev,
                            __ZN3MIL10Validation27OpParameterConstraintTargetD2Ev,
                            __ZN3MIL10Validation30TensorSymbolicShapeConstraints4MakeEv,
                            __ZN3MIL10Validation30TensorSymbolicShapeConstraintsC2Ev,
                            __ZN3MIL10Validation30TensorSymbolicShapeConstraintsD0Ev,
                            __ZN3MIL10Validation30TensorSymbolicShapeConstraintsD1Ev,
                            __ZN3MIL10Validation30TensorSymbolicShapeConstraintsD2Ev,
                            __ZN3MIL10Validation31PossibleStringValuesConstraints4MakeEv,
                            __ZN3MIL10Validation31PossibleStringValuesConstraintsC2Ev,
                            __ZN3MIL10Validation31PossibleStringValuesConstraintsD0Ev,
                            __ZN3MIL10Validation31PossibleStringValuesConstraintsD1Ev,
                            __ZN3MIL10Validation31PossibleStringValuesConstraintsD2Ev,
                            __ZN3MIL11EdgeIndexes13BuildForBlockERKNS_7IRBlockE,
                            __ZN3MIL11EdgeIndexesC2Ev, __ZN3MIL11EdgeIndexesD0Ev,
                            __ZN3MIL11EdgeIndexesD1Ev, __ZN3MIL11EdgeIndexesD2Ev,
                            __ZN3MIL11IRDimensionC2Ev, __ZN3MIL11IRDimensionD0Ev,
                            __ZN3MIL11IRDimensionD1Ev, __ZN3MIL11IRDimensionD2Ev,
                            __ZN3MIL11IRListValueC1EPKNS_15IRListValueTypeEONSt3__16vectorINS4_10shared_ptrIKNS_7IRValueEEENS4_9allocatorIS9_EEEE,
                            __ZN3MIL11IRListValueC2EPKNS_15IRListValueTypeEONSt3__16vectorINS4_10shared_ptrIKNS_7IRValueEEENS4_9allocatorIS9_EEEE,
                            __ZN3MIL11IRListValueD0Ev, __ZN3MIL11IRListValueD1Ev,
                            __ZN3MIL11IRListValueD2Ev,
                            __ZN3MIL11IROperation4MakeENSt3__110shared_ptrIKNS_8LocationEEENS2_IKNS_10IROperatorEEEONS1_3mapINS1_12basic_stringIcNS1_11char_traitsIcEENS1_9allocatorIcEEEENS1_6vectorINS2_INS_10IRArgumentEEENSD_ISI_EEEENS1_4lessISF_EENSD_INS1_4pairIKSF_SK_EEEEEEONSG_INS2_INS_16IRNamedValueTypeEEENSD_ISU_EEEEONS1_13unordered_mapISF_NS2_IKNS_7IRValueEEENS1_4hashISF_EENS1_8equal_toISF_EENSD_INSN_ISO_S11_EEEEEEONSG_INS2_INS_7IRBlockEEENSD_IS1B_EEEE,
                            __ZN3MIL11IROperation4MakeENSt3__110shared_ptrIKNS_8LocationEEENS2_IKNS_10IROperatorEEEONS1_3mapINS1_12basic_stringIcNS1_11char_traitsIcEENS1_9allocatorIcEEEENS1_6vectorISF_NSD_ISF_EEEENS1_4lessISF_EENSD_INS1_4pairIKSF_SI_EEEEEEONSG_INS2_INS_16IRNamedValueTypeEEENSD_ISS_EEEEONS1_13unordered_mapISF_NS2_IKNS_7IRValueEEENS1_4hashISF_EENS1_8equal_toISF_EENSD_INSL_ISM_SZ_EEEEEEONSG_INS2_INS_7IRBlockEEENSD_IS19_EEEE,
                            __ZN3MIL11IROperationC2ENSt3__110shared_ptrIKNS_8LocationEEEONS1_13unordered_mapINS1_12basic_stringIcNS1_11char_traitsIcEENS1_9allocatorIcEEEENS2_IKNS_7IRValueEEENS1_4hashISC_EENS1_8equal_toISC_EENSA_INS1_4pairIKSC_SF_EEEEEE,
                            __ZN3MIL11IROperationD0Ev, __ZN3MIL11IROperationD1Ev,
                            __ZN3MIL11IROperationD2Ev,
                            __ZN3MIL11IRParameter11MakeTypeSetESt16initializer_listIPKNS_11IRValueTypeEE,
                            __ZN3MIL11IRParameter4MakeENSt3__110shared_ptrINS1_13unordered_setIPKNS_11IRValueTypeENS1_4hashIS6_EENS1_8equal_toIS6_EENS1_9allocatorIS6_EEEEEE,
                            __ZN3MIL11IRParameter4MakeENSt3__110shared_ptrINS1_13unordered_setIPKNS_11IRValueTypeENS1_4hashIS6_EENS1_8equal_toIS6_EENS1_9allocatorIS6_EEEEEEbb,
                            __ZN3MIL11IRParameterC2Ev, __ZN3MIL11IRParameterD0Ev,
                            __ZN3MIL11IRParameterD1Ev, __ZN3MIL11IRParameterD2Ev,
                            __ZN3MIL11IRValueTypeC2Ev, __ZN3MIL11IRValueTypeD0Ev,
                            __ZN3MIL11IRValueTypeD1Ev, __ZN3MIL11IRValueTypeD2Ev,
                            __ZN3MIL11ParseResultC1ENSt3__110shared_ptrIKNS_8LocationEEENS_11ParseReasonENS1_12basic_stringIcNS1_11char_traitsIcEENS1_9allocatorIcEEEE,
                            __ZN3MIL11ParseResultC1Ev,
                            __ZN3MIL11ParseResultC2ENSt3__110shared_ptrIKNS_8LocationEEENS_11ParseReasonENS1_12basic_stringIcNS1_11char_traitsIcEENS1_9allocatorIcEEEE,
                            __ZN3MIL11ParseResultC2Ev, __ZN3MIL11ParseResultD0Ev,
                            __ZN3MIL11ParseResultD1Ev, __ZN3MIL11ParseResultD2Ev,
                            __ZN3MIL11PassManager4MakeEv,
                            __ZN3MIL11PassManagerC2Ev, __ZN3MIL11PassManagerD0Ev,
                            __ZN3MIL11PassManagerD1Ev, __ZN3MIL11PassManagerD2Ev,
                            __ZN3MIL12IRTupleValueC1EPKNS_16IRTupleValueTypeEONSt3__16vectorINS4_10shared_ptrIKNS_7IRValueEEENS4_9allocatorIS9_EEEE,
                            __ZN3MIL12IRTupleValueC2EPKNS_16IRTupleValueTypeEONSt3__16vectorINS4_10shared_ptrIKNS_7IRValueEEENS4_9allocatorIS9_EEEE,
                            __ZN3MIL12IRTupleValueD0Ev,
                            __ZN3MIL12IRTupleValueD1Ev,
                            __ZN3MIL12IRTupleValueD2Ev,
                            __ZN3MIL13IRCachedScope12DisableCacheEv,
                            __ZN3MIL13IRCachedScope17InvalidateAndCallERKNSt3__18functionIFvvEEE,
                            __ZN3MIL13IRCachedScopeC2Ev,
                            __ZN3MIL13IRCachedScopeD0Ev,
                            __ZN3MIL13IRCachedScopeD1Ev,
                            __ZN3MIL13IRCachedScopeD2Ev,
                            __ZN3MIL13IRTensorValueC2Ev,
                            __ZN3MIL13IRTensorValueD0Ev,
                            __ZN3MIL13IRTensorValueD1Ev,
                            __ZN3MIL13IRTensorValueD2Ev,
                            __ZN3MIL13ParserOptions4MakeEv,
                            __ZN3MIL13ParserOptionsC2Ev,
                            __ZN3MIL13ParserOptionsD0Ev,
                            __ZN3MIL13ParserOptionsD1Ev,
                            __ZN3MIL13ParserOptionsD2Ev,
                            __ZN3MIL14IRMutableScope4MakeEONSt3__113unordered_mapINS1_12basic_stringIcNS1_11char_traitsIcEENS1_9allocatorIcEEEEPKNS_11IRValueTypeENS1_4hashIS8_EENS1_8equal_toIS8_EENS6_INS1_4pairIKS8_SB_EEEEEEONS2_IS8_NS1_10shared_ptrIKNS_7IRValueEEESD_SF_NS6_INSG_ISH_SP_EEEEEE,
                            __ZN3MIL14IRMutableScope4MakeEPKNS_7IRScopeEONSt3__113unordered_mapINS4_12basic_stringIcNS4_11char_traitsIcEENS4_9allocatorIcEEEEPKNS_11IRValueTypeENS4_4hashISB_EENS4_8equal_toISB_EENS9_INS4_4pairIKSB_SE_EEEEEEONS5_ISB_NS4_10shared_ptrIKNS_7IRValueEEESG_SI_NS9_INSJ_ISK_SS_EEEEEE,
                            __ZN3MIL14IRMutableScope4MakeEv,
                            __ZN3MIL14IRMutableScopeC2Ev,
                            __ZN3MIL14IRMutableScopeD0Ev,
                            __ZN3MIL14IRMutableScopeD1Ev,
                            __ZN3MIL14IRMutableScopeD2Ev,
                            __ZN3MIL15IRListValueType17MakeWithDimensionERNS_10MILContextEPKNS_11IRValueTypeEPKNS_11IRDimensionE,
                            __ZN3MIL15IRListValueType4MakeEPKNS_11IRValueTypeEPKNS_11IRDimensionE,
                            __ZN3MIL15IRListValueType4MakeERNS_10MILContextEPKNS_11IRValueTypeEy,
                            __ZN3MIL15IRListValueTypeC2Ev,
                            __ZN3MIL15IRListValueTypeD0Ev,
                            __ZN3MIL15IRListValueTypeD1Ev,
                            __ZN3MIL15IRListValueTypeD2Ev,
                            __ZN3MIL15IRTypedArgument4MakeENSt3__110shared_ptrIKNS_7IRValueEEE,
                            __ZN3MIL15IRTypedArgument4MakeEPKNS_11IRValueTypeE,
                            __ZN3MIL15IRTypedArgumentC1ENSt3__110shared_ptrIKNS_7IRValueEEE,
                            __ZN3MIL15IRTypedArgumentC1EPKNS_11IRValueTypeE,
                            __ZN3MIL15IRTypedArgumentC2ENSt3__110shared_ptrIKNS_7IRValueEEE,
                            __ZN3MIL15IRTypedArgumentC2EPKNS_11IRValueTypeE,
                            __ZN3MIL15IRTypedArgumentD0Ev,
                            __ZN3MIL15IRTypedArgumentD1Ev,
                            __ZN3MIL15IRTypedArgumentD2Ev,
                            __ZN3MIL15OutOfRangeErrorC1ENSt3__110shared_ptrIKNS_8LocationEEENS1_12basic_stringIcNS1_11char_traitsIcEENS1_9allocatorIcEEEE,
                            __ZN3MIL15OutOfRangeErrorC2ENSt3__110shared_ptrIKNS_8LocationEEENS1_12basic_stringIcNS1_11char_traitsIcEENS1_9allocatorIcEEEE,
                            __ZN3MIL15UnknownLocation4MakeEv,
                            __ZN3MIL15UnknownLocationD0Ev,
                            __ZN3MIL15UnknownLocationD1Ev,
                            __ZN3MIL15UnknownLocationD2Ev,
                            __ZN3MIL15ValidationErrorC1ENS_16ValidationResultE,
                            __ZN3MIL15ValidationErrorC1ENSt3__110shared_ptrIKNS_8LocationEEENS1_12basic_stringIcNS1_11char_traitsIcEENS1_9allocatorIcEEEENS_16ValidationReasonE,
                            __ZN3MIL15ValidationErrorC2ENS_16ValidationResultE,
                            __ZN3MIL15ValidationErrorC2ENSt3__110shared_ptrIKNS_8LocationEEENS1_12basic_stringIcNS1_11char_traitsIcEENS1_9allocatorIcEEEENS_16ValidationReasonE,
                            __ZN3MIL16IRNamedValueType4MakeENSt3__112basic_stringIcNS1_11char_traitsIcEENS1_9allocatorIcEEEEPKNS_11IRValueTypeE,
                            __ZN3MIL16IRNamedValueType7SetNameENSt3__112basic_stringIcNS1_11char_traitsIcEENS1_9allocatorIcEEEE,
                            __ZN3MIL16IRNamedValueType7SetTypeEPKNS_11IRValueTypeE,
                            __ZN3MIL16IRNamedValueTypeC1ENSt3__112basic_stringIcNS1_11char_traitsIcEENS1_9allocatorIcEEEEPKNS_11IRValueTypeE,
                            __ZN3MIL16IRNamedValueTypeC2ENSt3__112basic_stringIcNS1_11char_traitsIcEENS1_9allocatorIcEEEEPKNS_11IRValueTypeE,
                            __ZN3MIL16IRNamedValueTypeD1Ev,
                            __ZN3MIL16IRNamedValueTypeD2Ev,
                            __ZN3MIL16IRTupleValueType4MakeENSt3__110shared_ptrINS1_6vectorIPKNS_11IRValueTypeENS1_9allocatorIS6_EEEEEE,
                            __ZN3MIL16IRTupleValueType4MakeERNS_10MILContextEONSt3__16vectorIPKNS_11IRValueTypeENS3_9allocatorIS7_EEEE,
                            __ZN3MIL16IRTupleValueTypeC2Ev,
                            __ZN3MIL16IRTupleValueTypeD0Ev,
                            __ZN3MIL16IRTupleValueTypeD1Ev,
                            __ZN3MIL16IRTupleValueTypeD2Ev,
                            __ZN3MIL16IRValueQueryableC2Ev,
                            __ZN3MIL16IRValueQueryableD0Ev,
                            __ZN3MIL16IRValueQueryableD1Ev,
                            __ZN3MIL16IRValueQueryableD2Ev,
                            __ZN3MIL16TextFileLocation4MakeENSt3__112basic_stringIcNS1_11char_traitsIcEENS1_9allocatorIcEEEEyy,
                            __ZN3MIL16TextFileLocationD0Ev,
                            __ZN3MIL16TextFileLocationD1Ev,
                            __ZN3MIL16TextFileLocationD2Ev,
                            __ZN3MIL16ValidationResultC1ENSt3__110shared_ptrIKNS_8LocationEEENS_16ValidationReasonENS1_12basic_stringIcNS1_11char_traitsIcEENS1_9allocatorIcEEEE,
                            __ZN3MIL16ValidationResultC1Ev,
                            __ZN3MIL16ValidationResultC2ENSt3__110shared_ptrIKNS_8LocationEEENS_16ValidationReasonENS1_12basic_stringIcNS1_11char_traitsIcEENS1_9allocatorIcEEEE,
                            __ZN3MIL16ValidationResultC2Ev,
                            __ZN3MIL16ValidationResultD0Ev,
                            __ZN3MIL16ValidationResultD1Ev,
                            __ZN3MIL16ValidationResultD2Ev,
                            __ZN3MIL17AbstractConstExprC2Ev,
                            __ZN3MIL17AbstractConstExprD0Ev,
                            __ZN3MIL17AbstractConstExprD1Ev,
                            __ZN3MIL17AbstractConstExprD2Ev,
                            __ZN3MIL17IRDictionaryValueC1EPKNS_21IRDictionaryValueTypeEONSt3__113unordered_mapINS4_10shared_ptrIKNS_7IRValueEEES9_NS_16IRValueMapHasherENS_12IRValueMapEqENS4_9allocatorINS4_4pairIKS9_S9_EEEEEE,
                            __ZN3MIL17IRDictionaryValueC2EPKNS_21IRDictionaryValueTypeEONSt3__113unordered_mapINS4_10shared_ptrIKNS_7IRValueEEES9_NS_16IRValueMapHasherENS_12IRValueMapEqENS4_9allocatorINS4_4pairIKS9_S9_EEEEEE,
                            __ZN3MIL17IRDictionaryValueD0Ev,
                            __ZN3MIL17IRDictionaryValueD1Ev,
                            __ZN3MIL17IRDictionaryValueD2Ev,
                            __ZN3MIL17IRTensorValueType10MakeScalarERNS_10MILContextENS_10IRDataTypeE,
                            __ZN3MIL17IRTensorValueType13MakeWithShapeERNS_10MILContextENS_10IRDataTypeEONSt3__16vectorIPKNS_11IRDimensionENS4_9allocatorIS8_EEEE,
                            __ZN3MIL17IRTensorValueType13MakeWithShapeERNS_10MILContextENS_10IRDataTypeEONSt3__16vectorIPKNS_11IRDimensionENS4_9allocatorIS8_EEEEONS4_13unordered_mapINS4_12basic_stringIcNS4_11char_traitsIcEENS9_IcEEEENS4_10shared_ptrIKNS_7IRValueEEENS4_4hashISI_EENS4_8equal_toISI_EENS9_INS4_4pairIKSI_SM_EEEEEE,
                            __ZN3MIL17IRTensorValueType13MakeWithShapeERNS_10MILContextENS_10IRDataTypeERKNSt3__110shared_ptrINS4_6vectorIPKNS_11IRDimensionENS4_9allocatorIS9_EEEEEE,
                            __ZN3MIL17IRTensorValueType13MakeWithShapeERNS_10MILContextENS_10IRDataTypeERKNSt3__110shared_ptrINS4_6vectorIPKNS_11IRDimensionENS4_9allocatorIS9_EEEEEEONS4_13unordered_mapINS4_12basic_stringIcNS4_11char_traitsIcEENSA_IcEEEENS5_IKNS_7IRValueEEENS4_4hashISL_EENS4_8equal_toISL_EENSA_INS4_4pairIKSL_SO_EEEEEE,
                            __ZN3MIL17IRTensorValueType4MakeENS_10IRDataTypeENSt3__110shared_ptrINS2_6vectorIPKNS_11IRDimensionENS2_9allocatorIS7_EEEEEEONS2_13unordered_mapINS2_12basic_stringIcNS2_11char_traitsIcEENS8_IcEEEENS3_IKNS_7IRValueEEENS2_4hashISH_EENS2_8equal_toISH_EENS8_INS2_4pairIKSH_SK_EEEEEE,
                            __ZN3MIL17IRTensorValueType4MakeERNS_10MILContextENS_10IRDataTypeEONSt3__16vectorIyNS4_9allocatorIyEEEE,
                            __ZN3MIL17IRTensorValueTypeC2Ev,
                            __ZN3MIL17IRTensorValueTypeD0Ev,
                            __ZN3MIL17IRTensorValueTypeD1Ev,
                            __ZN3MIL17IRTensorValueTypeD2Ev,
                            __ZN3MIL18IRDataTypeToStringENS_10IRDataTypeE,
                            __ZN3MIL18IRProgramValidator8ValidateERKNS_9IRProgramE,
                            __ZN3MIL18IRUnknownDimension4MakeERNS_10MILContextEb,
                            __ZN3MIL18IRUnknownDimension4MakeEb,
                            __ZN3MIL18IRUnknownDimensionC1Ev,
                            __ZN3MIL18IRUnknownDimensionC2Ev,
                            __ZN3MIL18IRUnknownDimensionD0Ev,
                            __ZN3MIL18IRUnknownDimensionD1Ev,
                            __ZN3MIL18IRUnknownDimensionD2Ev,
                            __ZN3MIL18MILErrorWithResultC2ERKNSt3__112basic_stringIcNS1_11char_traitsIcEENS1_9allocatorIcEEEE,
                            __ZN3MIL18StringToIRDataTypeERKNSt3__112basic_stringIcNS0_11char_traitsIcEENS0_9allocatorIcEEEEb,
                            __ZN3MIL18ValueTypeInference13CopyFromInputERKNSt3__112basic_stringIcNS1_11char_traitsIcEENS1_9allocatorIcEEEE,
                            __ZN3MIL18ValueTypeInference19BroadcastFromInputsERKNSt3__16vectorINS1_12basic_stringIcNS1_11char_traitsIcEENS1_9allocatorIcEEEENS6_IS8_EEEE,
                            __ZN3MIL19IRConstantDimension4MakeERNS_10MILContextEy,
                            __ZN3MIL19IRConstantDimension4MakeEy,
                            __ZN3MIL19IRConstantDimensionC2Ev,
                            __ZN3MIL19IRConstantDimensionD0Ev,
                            __ZN3MIL19IRConstantDimensionD1Ev,
                            __ZN3MIL19IRConstantDimensionD2Ev,
                            __ZN3MIL20InvalidArgumentErrorC1ENSt3__110shared_ptrIKNS_8LocationEEENS1_12basic_stringIcNS1_11char_traitsIcEENS1_9allocatorIcEEEE,
                            __ZN3MIL20InvalidArgumentErrorC2ENSt3__110shared_ptrIKNS_8LocationEEENS1_12basic_stringIcNS1_11char_traitsIcEENS1_9allocatorIcEEEE,
                            __ZN3MIL20MILErrorWithLocationC1ENSt3__110shared_ptrIKNS_8LocationEEERKNS1_12basic_stringIcNS1_11char_traitsIcEENS1_9allocatorIcEEEE,
                            __ZN3MIL20MILErrorWithLocationC2ENSt3__110shared_ptrIKNS_8LocationEEERKNS1_12basic_stringIcNS1_11char_traitsIcEENS1_9allocatorIcEEEE,
                            __ZN3MIL21IRDictionaryValueType4MakeEPKNS_11IRValueTypeES3_,
                            __ZN3MIL21IRDictionaryValueType4MakeERNS_10MILContextEPKNS_11IRValueTypeES5_,
                            __ZN3MIL21IRDictionaryValueTypeC2Ev,
                            __ZN3MIL21IRDictionaryValueTypeD0Ev,
                            __ZN3MIL21IRDictionaryValueTypeD1Ev,
                            __ZN3MIL21IRDictionaryValueTypeD2Ev,
                            __ZN3MIL21InvalidOperationErrorC1ENSt3__110shared_ptrIKNS_8LocationEEENS1_12basic_stringIcNS1_11char_traitsIcEENS1_9allocatorIcEEEE,
                            __ZN3MIL21InvalidOperationErrorC2ENSt3__110shared_ptrIKNS_8LocationEEENS1_12basic_stringIcNS1_11char_traitsIcEENS1_9allocatorIcEEEE,
                            __ZN3MIL21OperationNameLocation4MakeENSt3__112basic_stringIcNS1_11char_traitsIcEENS1_9allocatorIcEEEE,
                            __ZN3MIL21OperationNameLocationD0Ev,
                            __ZN3MIL21OperationNameLocationD1Ev,
                            __ZN3MIL21OperationNameLocationD2Ev,
                            __ZN3MIL23GetValidTensorDataTypesEv,
                            __ZN3MIL4Blob13StorageReaderC1ENSt3__112basic_stringIcNS2_11char_traitsIcEENS2_9allocatorIcEEEE,
                            __ZN3MIL4Blob13StorageReaderC2ENSt3__112basic_stringIcNS2_11char_traitsIcEENS2_9allocatorIcEEEE,
                            __ZN3MIL4Blob13StorageReaderD1Ev,
                            __ZN3MIL4Blob13StorageReaderD2Ev,
                            __ZN3MIL4Blob13StorageWriter9WriteDataINS_4Fp16EEEyNS_4Util4SpanIKT_Lm18446744073709551615EEE,
                            __ZN3MIL4Blob13StorageWriter9WriteDataIaEEyNS_4Util4SpanIKT_Lm18446744073709551615EEE,
                            __ZN3MIL4Blob13StorageWriter9WriteDataIfEEyNS_4Util4SpanIKT_Lm18446744073709551615EEE,
                            __ZN3MIL4Blob13StorageWriter9WriteDataIhEEyNS_4Util4SpanIKT_Lm18446744073709551615EEE,
                            __ZN3MIL4Blob13StorageWriterC1ERKNSt3__112basic_stringIcNS2_11char_traitsIcEENS2_9allocatorIcEEEEb,
                            __ZN3MIL4Blob13StorageWriterC2ERKNSt3__112basic_stringIcNS2_11char_traitsIcEENS2_9allocatorIcEEEEb,
                            __ZN3MIL4Blob13StorageWriterD1Ev,
                            __ZN3MIL4Blob13StorageWriterD2Ev,
                            __ZN3MIL4Blob29TryGetDataOffsetAndByteLengthERNS_10MILContextERKNSt3__113unordered_mapINS3_12basic_stringIcNS3_11char_traitsIcEENS3_9allocatorIcEEEENS3_10shared_ptrIKNS_7IRValueEEENS3_4hashISA_EENS3_8equal_toISA_EENS8_INS3_4pairIKSA_SE_EEEEEE,
                            __ZN3MIL4Edge4MakeEiiPKNSt3__112basic_stringIcNS1_11char_traitsIcEENS1_9allocatorIcEEEERS8_,
                            __ZN3MIL4EdgeC2Ev, __ZN3MIL4EdgeD0Ev,
                            __ZN3MIL4EdgeD1Ev, __ZN3MIL4EdgeD2Ev,
                            __ZN3MIL4Fp168SetFloatEf, __ZN3MIL4Fp169FromFloatEf,
                            __ZN3MIL4Pass3RunERKNS_11IROperationE,
                            __ZN3MIL4Pass3RunERKNS_7IRBlockE,
                            __ZN3MIL4Pass3RunERKNS_9IRProgramE,
                            __ZN3MIL4PassC1Ev, __ZN3MIL4PassC2Ev,
                            __ZN3MIL4PassD0Ev, __ZN3MIL4PassD1Ev,
                            __ZN3MIL4PassD2Ev,
                            __ZN3MIL4Text10ParseValueERNS_10MILContextENSt3__112basic_stringIcNS3_11char_traitsIcEENS3_9allocatorIcEEEE,
                            __ZN3MIL4Text10ParseValueERNS_10MILContextENSt3__112basic_stringIcNS3_11char_traitsIcEENS3_9allocatorIcEEEERKNS_13ParserOptionsE,
                            __ZN3MIL4Text12ParseProgramENSt3__110shared_ptrINS_10MILContextEEENS1_12basic_stringIcNS1_11char_traitsIcEENS1_9allocatorIcEEEE,
                            __ZN3MIL4Text12ParseProgramENSt3__110shared_ptrINS_10MILContextEEENS1_12basic_stringIcNS1_11char_traitsIcEENS1_9allocatorIcEEEERKNS_13ParserOptionsE,
                            __ZN3MIL4Text14ParseValueTypeERNS_10MILContextENSt3__112basic_stringIcNS3_11char_traitsIcEENS3_9allocatorIcEEEE,
                            __ZN3MIL4Text14ParseValueTypeERNS_10MILContextENSt3__112basic_stringIcNS3_11char_traitsIcEENS3_9allocatorIcEEEERKNS_13ParserOptionsE,
                            __ZN3MIL4Text15SerializeToFileERKNS_9IRProgramERKNS0_17SerializerOptionsE,
                            __ZN3MIL4Text15TryParseProgramENSt3__110shared_ptrINS_10MILContextEEENS1_12basic_stringIcNS1_11char_traitsIcEENS1_9allocatorIcEEEERKNS_13ParserOptionsERNS_11ParseResultE,
                            __ZN3MIL4Text17SerializerOptions4MakeEv,
                            __ZN3MIL4Text17SerializerOptionsC2Ev,
                            __ZN3MIL4Text17SerializerOptionsD0Ev,
                            __ZN3MIL4Text17SerializerOptionsD1Ev,
                            __ZN3MIL4Text17SerializerOptionsD2Ev,
                            __ZN3MIL4Text20ParseProgramFromFileENSt3__110shared_ptrINS_10MILContextEEERKNS_13ParserOptionsE,
                            __ZN3MIL4Text9SerializeERKNS_9IRProgramE,
                            __ZN3MIL4Text9SerializeERKNS_9IRProgramERKNS0_17SerializerOptionsE,
                            __ZN3MIL4Util16OpMatchesPatternERKNSt3__112basic_stringIcNS1_11char_traitsIcEENS1_9allocatorIcEEEERKNS1_13unordered_setIS7_NS1_4hashIS7_EENS1_8equal_toIS7_EENS5_IS7_EEEE,
                            __ZN3MIL4Util4WalkERKNS_10IRFunctionERKNSt3__18functionIFbRKNS_11IROperationEEEE,
                            __ZN3MIL4Util4WalkERKNS_10IRFunctionERKNSt3__18functionIFbRKNS_7IRBlockEEEE,
                            __ZN3MIL4Util4WalkERKNS_11IROperationERKNSt3__18functionIFbRKNS_7IRBlockEEEE,
                            __ZN3MIL4Util4WalkERKNS_11IROperationERKNSt3__18functionIFbS3_EEE,
                            __ZN3MIL4Util4WalkERKNS_7IRBlockERKNSt3__18functionIFbRKNS_11IROperationEEEE,
                            __ZN3MIL4Util4WalkERKNS_7IRBlockERKNSt3__18functionIFbS3_EEE,
                            __ZN3MIL4Util4WalkERKNS_9IRProgramERKNSt3__18functionIFbRKNS_10IRFunctionEEEE,
                            __ZN3MIL4Util4WalkERKNS_9IRProgramERKNSt3__18functionIFbRKNS_11IROperationEEEE,
                            __ZN3MIL4Util4WalkERKNS_9IRProgramERKNSt3__18functionIFbRKNS_7IRBlockEEEE,
                            __ZN3MIL4Util7RewriteERNS_10IRFunctionERKNSt3__18functionIFbRNS_11IROperationEEEE,
                            __ZN3MIL4Util7RewriteERNS_10IRFunctionERKNSt3__18functionIFbRNS_7IRBlockEEEE,
                            __ZN3MIL4Util7RewriteERNS_11IROperationERKNSt3__18functionIFbRNS_7IRBlockEEEE,
                            __ZN3MIL4Util7RewriteERNS_11IROperationERKNSt3__18functionIFbS2_EEE,
                            __ZN3MIL4Util7RewriteERNS_7IRBlockERKNSt3__18functionIFbRNS_11IROperationEEEE,
                            __ZN3MIL4Util7RewriteERNS_7IRBlockERKNSt3__18functionIFbS2_EEE,
                            __ZN3MIL4Util7RewriteERNS_9IRProgramERKNSt3__18functionIFbRNS_10IRFunctionEEEE,
                            __ZN3MIL4Util7RewriteERNS_9IRProgramERKNSt3__18functionIFbRNS_11IROperationEEEE,
                            __ZN3MIL4Util7RewriteERNS_9IRProgramERKNSt3__18functionIFbRNS_7IRBlockEEEE,
                            __ZN3MIL5Proto12ParseProgramENSt3__110shared_ptrINS_10MILContextEEERKN6CoreML13Specification7MILSpec7ProgramERKNS_13ParserOptionsE,
                            __ZN3MIL5Proto12ParseProgramENSt3__110shared_ptrINS_10MILContextEEERKNS1_12basic_stringIcNS1_11char_traitsIcEENS1_9allocatorIcEEEERKNS_13ParserOptionsE,
                            __ZN3MIL5Proto12ParseProgramENSt3__110shared_ptrINS_10MILContextEEERNS1_13basic_istreamIcNS1_11char_traitsIcEEEERKNS_13ParserOptionsE,
                            __ZN3MIL6Opsets5Train10ios16Train16ios16_trainOpset12GetOpsetNameEv,
                            __ZN3MIL6Opsets5Train10ios16Train16ios16_trainOpset6GetOpsERNS_10MILContextE,
                            __ZN3MIL6Opsets5Train10ios16Train16ios16_trainOpset8RegisterERNS_10MILContextE,
                            __ZN3MIL6Opsets5Train10ios16Train16ios16_trainOpsetC1ERNS_10MILContextE,
                            __ZN3MIL6Opsets5Train10ios16Train16ios16_trainOpsetC2ERNS_10MILContextE,
                            __ZN3MIL6Opsets5Train10ios16Train24Registerios16TrainOpsetsERNS_10MILContextE,
                            __ZN3MIL6Opsets6Common16CreateMILContextEv,
                            __ZN3MIL6Opsets6Common5ios1510ios15Opset12GetOpsetNameEv,
                            __ZN3MIL6Opsets6Common5ios1510ios15Opset6GetOpsERNS_10MILContextE,
                            __ZN3MIL6Opsets6Common5ios1510ios15Opset8RegisterERNS_10MILContextE,
                            __ZN3MIL6Opsets6Common5ios1510ios15OpsetC1ERNS_10MILContextE,
                            __ZN3MIL6Opsets6Common5ios1510ios15OpsetC2ERNS_10MILContextE,
                            __ZN3MIL6Opsets6Common5ios1519Registerios15OpsetsERNS_10MILContextE,
                            __ZN3MIL6Opsets6Common5ios1610ios16Opset12GetOpsetNameEv,
                            __ZN3MIL6Opsets6Common5ios1610ios16Opset6GetOpsERNS_10MILContextE,
                            __ZN3MIL6Opsets6Common5ios1610ios16Opset8RegisterERNS_10MILContextE,
                            __ZN3MIL6Opsets6Common5ios1610ios16OpsetC1ERNS_10MILContextE,
                            __ZN3MIL6Opsets6Common5ios1610ios16OpsetC2ERNS_10MILContextE,
                            __ZN3MIL6Opsets6Common5ios1619Registerios16OpsetsERNS_10MILContextE,
                            __ZN3MIL6Passes21FlattenBlockNamespace3RunERKNS_7IRBlockE,
                            __ZN3MIL6Passes21FlattenBlockNamespace4MakeEv,
                            __ZN3MIL6Passes21FlattenBlockNamespaceC1Ev,
                            __ZN3MIL6Passes21FlattenBlockNamespaceC2Ev,
                            __ZN3MIL6Passes21FlattenBlockNamespaceD0Ev,
                            __ZN3MIL6Passes21FlattenBlockNamespaceD1Ev,
                            __ZN3MIL6Passes21FlattenBlockNamespaceD2Ev,
                            __ZN3MIL7Builder12BlockBuilder10GetContextEv,
                            __ZN3MIL7Builder12BlockBuilder11CreateBlockEv,
                            __ZN3MIL7Builder12BlockBuilder11SetLocationENSt3__110shared_ptrIKNS_8LocationEEE,
                            __ZN3MIL7Builder12BlockBuilder12AddOperationENSt3__110shared_ptrINS0_16OperationBuilderEEENS3_IKS4_EE,
                            __ZN3MIL7Builder12BlockBuilder12AddOperationERKNSt3__112basic_stringIcNS2_11char_traitsIcEENS2_9allocatorIcEEEENS2_10shared_ptrIKNS0_16OperationBuilderEEE,
                            __ZN3MIL7Builder12BlockBuilder12RemoveOutputEPKNS0_8VariableE,
                            __ZN3MIL7Builder12BlockBuilder12RemoveOutputERKNSt3__112basic_stringIcNS2_11char_traitsIcEENS2_9allocatorIcEEEE,
                            __ZN3MIL7Builder12BlockBuilder12SetAttributeENSt3__112basic_stringIcNS2_11char_traitsIcEENS2_9allocatorIcEEEENS2_10shared_ptrIKNS_7IRValueEEE,
                            __ZN3MIL7Builder12BlockBuilder13GetOperationsEv,
                            __ZN3MIL7Builder12BlockBuilder13UpdateOpInputENSt3__112basic_stringIcNS2_11char_traitsIcEENS2_9allocatorIcEEEENS2_10shared_ptrINS0_16OperationBuilderEEES8_,
                            __ZN3MIL7Builder12BlockBuilder14UpdateOpOutputENSt3__112basic_stringIcNS2_11char_traitsIcEENS2_9allocatorIcEEEEPKNS_11IRValueTypeENS2_10shared_ptrINS0_16OperationBuilderEEE,
                            __ZN3MIL7Builder12BlockBuilder15RemoveAttributeERKNSt3__112basic_stringIcNS2_11char_traitsIcEENS2_9allocatorIcEEEE,
                            __ZN3MIL7Builder12BlockBuilder15RemoveOperationENSt3__110shared_ptrINS0_16OperationBuilderEEE,
                            __ZN3MIL7Builder12BlockBuilder16InsertOperationsENS_4Util4SpanIKNSt3__110shared_ptrINS0_16OperationBuilderEEELm18446744073709551615EEENS3_IKmLm18446744073709551615EEE,
                            __ZN3MIL7Builder12BlockBuilder16InsertOperationsENS_4Util4SpanIKNSt3__110shared_ptrINS0_16OperationBuilderEEELm18446744073709551615EEEm,
                            __ZN3MIL7Builder12BlockBuilder16RemoveOperationsENS_4Util4SpanIKmLm18446744073709551615EEEb,
                            __ZN3MIL7Builder12BlockBuilder17UpdateOutputNamesERKNSt3__16vectorINS2_12basic_stringIcNS2_11char_traitsIcEENS2_9allocatorIcEEEENS7_IS9_EEEE,
                            __ZN3MIL7Builder12BlockBuilder20GetOperationsByInputERKNSt3__112basic_stringIcNS2_11char_traitsIcEENS2_9allocatorIcEEEE,
                            __ZN3MIL7Builder12BlockBuilder26ReplaceUsesOfInputVariableERKNSt3__112basic_stringIcNS2_11char_traitsIcEENS2_9allocatorIcEEEES8_NS2_10shared_ptrIKNS0_16OperationBuilderEEE,
                            __ZN3MIL7Builder12BlockBuilder33GetDataDependenciesByVariableNameERKNSt3__112basic_stringIcNS2_11char_traitsIcEENS2_9allocatorIcEEEE,
                            __ZN3MIL7Builder12BlockBuilder35GetDataDependenciesForConsumerParamEPNS0_16OperationBuilderERKNSt3__112basic_stringIcNS4_11char_traitsIcEENS4_9allocatorIcEEEE,
                            __ZN3MIL7Builder12BlockBuilder4MakeENSt3__110shared_ptrINS_10MILContextEEENS2_12basic_stringIcNS2_11char_traitsIcEENS2_9allocatorIcEEEE,
                            __ZN3MIL7Builder12BlockBuilder4MakeENSt3__110shared_ptrINS_10MILContextEEENS2_12basic_stringIcNS2_11char_traitsIcEENS2_9allocatorIcEEEEPKNS_7IRScopeE,
                            __ZN3MIL7Builder12BlockBuilder4MakeENSt3__110shared_ptrINS_10MILContextEEERNS_7IRBlockENS2_12basic_stringIcNS2_11char_traitsIcEENS2_9allocatorIcEEEE,
                            __ZN3MIL7Builder12BlockBuilder4MakeENSt3__110shared_ptrINS_10MILContextEEERNS_7IRBlockENS2_12basic_stringIcNS2_11char_traitsIcEENS2_9allocatorIcEEEEPKNS_7IRScopeE,
                            __ZN3MIL7Builder12BlockBuilder8AddConstENSt3__112basic_stringIcNS2_11char_traitsIcEENS2_9allocatorIcEEEENS2_10shared_ptrIKNS_7IRValueEEE,
                            __ZN3MIL7Builder12BlockBuilder8AddConstENSt3__112basic_stringIcNS2_11char_traitsIcEENS2_9allocatorIcEEEENS2_10shared_ptrIKNS_7IRValueEEENS9_IKNS0_16OperationBuilderEEE,
                            __ZN3MIL7Builder12BlockBuilder8AddInputENSt3__112basic_stringIcNS2_11char_traitsIcEENS2_9allocatorIcEEEEPKNS_11IRValueTypeE,
                            __ZN3MIL7Builder12BlockBuilder9AddOutputEPKNS0_8VariableE,
                            __ZN3MIL7Builder12BlockBuilder9AddOutputERKNSt3__112basic_stringIcNS2_11char_traitsIcEENS2_9allocatorIcEEEE,
                            __ZN3MIL7Builder12BlockBuilderC1ENSt3__110shared_ptrINS_10MILContextEEENS2_12basic_stringIcNS2_11char_traitsIcEENS2_9allocatorIcEEEEPKNS_7IRScopeE,
                            __ZN3MIL7Builder12BlockBuilderC1ENSt3__110shared_ptrINS_10MILContextEEERNS_7IRBlockENS2_12basic_stringIcNS2_11char_traitsIcEENS2_9allocatorIcEEEEPKNS_7IRScopeE,
                            __ZN3MIL7Builder12BlockBuilderC2ENSt3__110shared_ptrINS_10MILContextEEENS2_12basic_stringIcNS2_11char_traitsIcEENS2_9allocatorIcEEEEPKNS_7IRScopeE,
                            __ZN3MIL7Builder12BlockBuilderC2ENSt3__110shared_ptrINS_10MILContextEEERNS_7IRBlockENS2_12basic_stringIcNS2_11char_traitsIcEENS2_9allocatorIcEEEEPKNS_7IRScopeE,
                            __ZN3MIL7Builder12BlockBuilderD0Ev,
                            __ZN3MIL7Builder12BlockBuilderD1Ev,
                            __ZN3MIL7Builder12BlockBuilderD2Ev,
                            __ZN3MIL7Builder14ProgramBuilder11AddFunctionERKNSt3__112basic_stringIcNS2_11char_traitsIcEENS2_9allocatorIcEEEE,
                            __ZN3MIL7Builder14ProgramBuilder11AddFunctionERKNSt3__112basic_stringIcNS2_11char_traitsIcEENS2_9allocatorIcEEEENS2_10shared_ptrINS0_15FunctionBuilderEEE,
                            __ZN3MIL7Builder14ProgramBuilder11GetFunctionERKNSt3__112basic_stringIcNS2_11char_traitsIcEENS2_9allocatorIcEEEE,
                            __ZN3MIL7Builder14ProgramBuilder11SetLocationENSt3__110shared_ptrIKNS_8LocationEEE,
                            __ZN3MIL7Builder14ProgramBuilder12SetAttributeENSt3__112basic_stringIcNS2_11char_traitsIcEENS2_9allocatorIcEEEENS2_10shared_ptrIKNS_7IRValueEEE,
                            __ZN3MIL7Builder14ProgramBuilder13CreateProgramEv,
                            __ZN3MIL7Builder14ProgramBuilder15RemoveAttributeERKNSt3__112basic_stringIcNS2_11char_traitsIcEENS2_9allocatorIcEEEE,
                            __ZN3MIL7Builder14ProgramBuilder4MakeENSt3__110shared_ptrINS_10MILContextEEE,
                            __ZN3MIL7Builder14ProgramBuilder4MakeENSt3__110shared_ptrINS_10MILContextEEENS2_10unique_ptrIKNS_9IRProgramENS2_14default_deleteIS8_EEEE,
                            __ZN3MIL7Builder14ProgramBuilder4MakeENSt3__110shared_ptrINS_10MILContextEEERKNS_9IRProgramE,
                            __ZN3MIL7Builder14ProgramBuilderD0Ev,
                            __ZN3MIL7Builder14ProgramBuilderD1Ev,
                            __ZN3MIL7Builder14ProgramBuilderD2Ev,
                            __ZN3MIL7Builder15FunctionBuilder11ClearInputsEv,
                            __ZN3MIL7Builder15FunctionBuilder11RemoveInputERKNSt3__112basic_stringIcNS2_11char_traitsIcEENS2_9allocatorIcEEEE,
                            __ZN3MIL7Builder15FunctionBuilder11SetLocationENSt3__110shared_ptrIKNS_8LocationEEE,
                            __ZN3MIL7Builder15FunctionBuilder12SetAttributeENSt3__112basic_stringIcNS2_11char_traitsIcEENS2_9allocatorIcEEEENS2_10shared_ptrIKNS_7IRValueEEE,
                            __ZN3MIL7Builder15FunctionBuilder14CreateFunctionEv,
                            __ZN3MIL7Builder15FunctionBuilder15RemoveAttributeERKNSt3__112basic_stringIcNS2_11char_traitsIcEENS2_9allocatorIcEEEE,
                            __ZN3MIL7Builder15FunctionBuilder17SetSpecializationERKNSt3__112basic_stringIcNS2_11char_traitsIcEENS2_9allocatorIcEEEE,
                            __ZN3MIL7Builder15FunctionBuilder4MakeENSt3__110shared_ptrINS_10MILContextEEE,
                            __ZN3MIL7Builder15FunctionBuilder4MakeENSt3__110shared_ptrINS_10MILContextEEENS3_IKNS_10IRFunctionEEE,
                            __ZN3MIL7Builder15FunctionBuilder8AddBlockENSt3__112basic_stringIcNS2_11char_traitsIcEENS2_9allocatorIcEEEE,
                            __ZN3MIL7Builder15FunctionBuilder8AddBlockENSt3__112basic_stringIcNS2_11char_traitsIcEENS2_9allocatorIcEEEENS2_10shared_ptrINS0_12BlockBuilderEEE,
                            __ZN3MIL7Builder15FunctionBuilder8AddInputENSt3__112basic_stringIcNS2_11char_traitsIcEENS2_9allocatorIcEEEEPKNS_11IRValueTypeE,
                            __ZN3MIL7Builder15FunctionBuilder8GetBlockERKNSt3__112basic_stringIcNS2_11char_traitsIcEENS2_9allocatorIcEEEE,
                            __ZN3MIL7Builder15FunctionBuilderC1ENSt3__110shared_ptrINS_10MILContextEEE,
                            __ZN3MIL7Builder15FunctionBuilderC1ENSt3__110shared_ptrINS_10MILContextEEENS3_IKNS_10IRFunctionEEE,
                            __ZN3MIL7Builder15FunctionBuilderC2ENSt3__110shared_ptrINS_10MILContextEEE,
                            __ZN3MIL7Builder15FunctionBuilderC2ENSt3__110shared_ptrINS_10MILContextEEENS3_IKNS_10IRFunctionEEE,
                            __ZN3MIL7Builder15FunctionBuilderD0Ev,
                            __ZN3MIL7Builder15FunctionBuilderD1Ev,
                            __ZN3MIL7Builder15FunctionBuilderD2Ev,
                            __ZN3MIL7Builder16OperationBuilder10GetContextEv,
                            __ZN3MIL7Builder16OperationBuilder10SetContextENSt3__110shared_ptrINS_10MILContextEEE,
                            __ZN3MIL7Builder16OperationBuilder11SetLocationENSt3__110shared_ptrIKNS_8LocationEEE,
                            __ZN3MIL7Builder16OperationBuilder12AddInputBoolENSt3__112basic_stringIcNS2_11char_traitsIcEENS2_9allocatorIcEEEEONS2_6vectorIbNS6_IbEEEE,
                            __ZN3MIL7Builder16OperationBuilder12AddInputBoolENSt3__112basic_stringIcNS2_11char_traitsIcEENS2_9allocatorIcEEEEb,
                            __ZN3MIL7Builder16OperationBuilder12AddInputInt8ENSt3__112basic_stringIcNS2_11char_traitsIcEENS2_9allocatorIcEEEEONS2_6vectorIaNS6_IaEEEE,
                            __ZN3MIL7Builder16OperationBuilder12AddInputInt8ENSt3__112basic_stringIcNS2_11char_traitsIcEENS2_9allocatorIcEEEEa,
                            __ZN3MIL7Builder16OperationBuilder12SetAttributeENSt3__112basic_stringIcNS2_11char_traitsIcEENS2_9allocatorIcEEEENS2_10shared_ptrIKNS_7IRValueEEE,
                            __ZN3MIL7Builder16OperationBuilder13AddInputInt16ENSt3__112basic_stringIcNS2_11char_traitsIcEENS2_9allocatorIcEEEEONS2_6vectorIsNS6_IsEEEE,
                            __ZN3MIL7Builder16OperationBuilder13AddInputInt16ENSt3__112basic_stringIcNS2_11char_traitsIcEENS2_9allocatorIcEEEEs,
                            __ZN3MIL7Builder16OperationBuilder13AddInputInt32ENSt3__112basic_stringIcNS2_11char_traitsIcEENS2_9allocatorIcEEEEONS2_6vectorIiNS6_IiEEEE,
                            __ZN3MIL7Builder16OperationBuilder13AddInputInt32ENSt3__112basic_stringIcNS2_11char_traitsIcEENS2_9allocatorIcEEEEi,
                            __ZN3MIL7Builder16OperationBuilder13AddInputInt64ENSt3__112basic_stringIcNS2_11char_traitsIcEENS2_9allocatorIcEEEEONS2_6vectorIxNS6_IxEEEE,
                            __ZN3MIL7Builder16OperationBuilder13AddInputInt64ENSt3__112basic_stringIcNS2_11char_traitsIcEENS2_9allocatorIcEEEEx,
                            __ZN3MIL7Builder16OperationBuilder13AddInputUInt8ENSt3__112basic_stringIcNS2_11char_traitsIcEENS2_9allocatorIcEEEEONS2_6vectorIhNS6_IhEEEE,
                            __ZN3MIL7Builder16OperationBuilder13AddInputUInt8ENSt3__112basic_stringIcNS2_11char_traitsIcEENS2_9allocatorIcEEEEh,
                            __ZN3MIL7Builder16OperationBuilder14AddInputStringENSt3__112basic_stringIcNS2_11char_traitsIcEENS2_9allocatorIcEEEEONS2_6vectorIS8_NS6_IS8_EEEE,
                            __ZN3MIL7Builder16OperationBuilder14AddInputStringENSt3__112basic_stringIcNS2_11char_traitsIcEENS2_9allocatorIcEEEES8_,
                            __ZN3MIL7Builder16OperationBuilder14AddInputUInt16ENSt3__112basic_stringIcNS2_11char_traitsIcEENS2_9allocatorIcEEEEONS2_6vectorItNS6_ItEEEE,
                            __ZN3MIL7Builder16OperationBuilder14AddInputUInt16ENSt3__112basic_stringIcNS2_11char_traitsIcEENS2_9allocatorIcEEEEt,
                            __ZN3MIL7Builder16OperationBuilder14AddInputUInt32ENSt3__112basic_stringIcNS2_11char_traitsIcEENS2_9allocatorIcEEEEONS2_6vectorIjNS6_IjEEEE,
                            __ZN3MIL7Builder16OperationBuilder14AddInputUInt32ENSt3__112basic_stringIcNS2_11char_traitsIcEENS2_9allocatorIcEEEEj,
                            __ZN3MIL7Builder16OperationBuilder14AddInputUInt64ENSt3__112basic_stringIcNS2_11char_traitsIcEENS2_9allocatorIcEEEEONS2_6vectorIyNS6_IyEEEE,
                            __ZN3MIL7Builder16OperationBuilder14AddInputUInt64ENSt3__112basic_stringIcNS2_11char_traitsIcEENS2_9allocatorIcEEEEy,
                            __ZN3MIL7Builder16OperationBuilder14RenameArgumentERKNSt3__112basic_stringIcNS2_11char_traitsIcEENS2_9allocatorIcEEEES8_,
                            __ZN3MIL7Builder16OperationBuilder15AddInputFloat16ENSt3__112basic_stringIcNS2_11char_traitsIcEENS2_9allocatorIcEEEENS_4Fp16E,
                            __ZN3MIL7Builder16OperationBuilder15AddInputFloat16ENSt3__112basic_stringIcNS2_11char_traitsIcEENS2_9allocatorIcEEEEONS2_6vectorINS_4Fp16ENS6_ISA_EEEE,
                            __ZN3MIL7Builder16OperationBuilder15AddInputFloat32ENSt3__112basic_stringIcNS2_11char_traitsIcEENS2_9allocatorIcEEEEONS2_6vectorIfNS6_IfEEEE,
                            __ZN3MIL7Builder16OperationBuilder15AddInputFloat32ENSt3__112basic_stringIcNS2_11char_traitsIcEENS2_9allocatorIcEEEEf,
                            __ZN3MIL7Builder16OperationBuilder15AddInputFloat64ENSt3__112basic_stringIcNS2_11char_traitsIcEENS2_9allocatorIcEEEEONS2_6vectorIdNS6_IdEEEE,
                            __ZN3MIL7Builder16OperationBuilder15AddInputFloat64ENSt3__112basic_stringIcNS2_11char_traitsIcEENS2_9allocatorIcEEEEd,
                            __ZN3MIL7Builder16OperationBuilder15CreateOperationEv,
                            __ZN3MIL7Builder16OperationBuilder15RemoveAttributeERKNSt3__112basic_stringIcNS2_11char_traitsIcEENS2_9allocatorIcEEEE,
                            __ZN3MIL7Builder16OperationBuilder15UpdateOwnershipEPNS0_12BlockBuilderE,
                            __ZN3MIL7Builder16OperationBuilder18GetChildOperationsEv,
                            __ZN3MIL7Builder16OperationBuilder4MakeENSt3__110shared_ptrIKNS_10IROperatorEEE,
                            __ZN3MIL7Builder16OperationBuilder4MakeENSt3__110shared_ptrIKNS_10IROperatorEEENS3_INS_10MILContextEEEPNS0_12BlockBuilderE,
                            __ZN3MIL7Builder16OperationBuilder4MakeENSt3__110shared_ptrINS_11IROperationEEE,
                            __ZN3MIL7Builder16OperationBuilder4MakeENSt3__110shared_ptrINS_11IROperationEEENS3_INS_10MILContextEEENS2_12basic_stringIcNS2_11char_traitsIcEENS2_9allocatorIcEEEEPNS0_12BlockBuilderE,
                            __ZN3MIL7Builder16OperationBuilder8AddBlockERKNSt3__112basic_stringIcNS2_11char_traitsIcEENS2_9allocatorIcEEEE,
                            __ZN3MIL7Builder16OperationBuilder8AddInputENSt3__112basic_stringIcNS2_11char_traitsIcEENS2_9allocatorIcEEEENS2_10shared_ptrIKNS_7IRValueEEE,
                            __ZN3MIL7Builder16OperationBuilder8AddInputENSt3__112basic_stringIcNS2_11char_traitsIcEENS2_9allocatorIcEEEEPKNS0_8VariableE,
                            __ZN3MIL7Builder16OperationBuilder8AddInputENSt3__112basic_stringIcNS2_11char_traitsIcEENS2_9allocatorIcEEEES8_,
                            __ZN3MIL7Builder16OperationBuilder9AddOutputENSt3__112basic_stringIcNS2_11char_traitsIcEENS2_9allocatorIcEEEEPKNS_11IRValueTypeE,
                            __ZN3MIL7Builder16OperationBuilder9GetBlocksEv,
                            __ZN3MIL7Builder16OperationBuilderC1ENSt3__110shared_ptrIKNS_10IROperatorEEENS3_INS_10MILContextEEEPNS0_12BlockBuilderE,
                            __ZN3MIL7Builder16OperationBuilderC1ENSt3__110shared_ptrINS_11IROperationEEENS3_INS_10MILContextEEENS2_12basic_stringIcNS2_11char_traitsIcEENS2_9allocatorIcEEEEPNS0_12BlockBuilderE,
                            __ZN3MIL7Builder16OperationBuilderC2ENSt3__110shared_ptrIKNS_10IROperatorEEENS3_INS_10MILContextEEEPNS0_12BlockBuilderE,
                            __ZN3MIL7Builder16OperationBuilderC2ENSt3__110shared_ptrINS_11IROperationEEENS3_INS_10MILContextEEENS2_12basic_stringIcNS2_11char_traitsIcEENS2_9allocatorIcEEEEPNS0_12BlockBuilderE,
                            __ZN3MIL7Builder16OperationBuilderD0Ev,
                            __ZN3MIL7Builder16OperationBuilderD1Ev,
                            __ZN3MIL7Builder16OperationBuilderD2Ev,
                            __ZN3MIL7Builder8Variable11UpdateOwnerEPKNS0_12BlockBuilderE,
                            __ZN3MIL7Builder8Variable4MakeENSt3__110shared_ptrIKNS_7IRValueEEEPKNS0_16OperationBuilderE,
                            __ZN3MIL7Builder8Variable4MakeENSt3__112basic_stringIcNS2_11char_traitsIcEENS2_9allocatorIcEEEEPKNS0_12BlockBuilderE,
                            __ZN3MIL7Builder8Variable4MakeENSt3__112basic_stringIcNS2_11char_traitsIcEENS2_9allocatorIcEEEEPKNS0_15FunctionBuilderE,
                            __ZN3MIL7Builder8Variable4MakeENSt3__112basic_stringIcNS2_11char_traitsIcEENS2_9allocatorIcEEEEPKNS0_16OperationBuilderE,
                            __ZN3MIL7Builder8Variable4MakeERKNS_10IRArgumentEPKNS0_16OperationBuilderE,
                            __ZN3MIL7Builder8VariableC1ENSt3__110shared_ptrIKNS_7IRValueEEEPKNS0_16OperationBuilderE,
                            __ZN3MIL7Builder8VariableC1ENSt3__112basic_stringIcNS2_11char_traitsIcEENS2_9allocatorIcEEEEPKNS0_12BlockBuilderE,
                            __ZN3MIL7Builder8VariableC1ENSt3__112basic_stringIcNS2_11char_traitsIcEENS2_9allocatorIcEEEEPKNS0_15FunctionBuilderE,
                            __ZN3MIL7Builder8VariableC1ENSt3__112basic_stringIcNS2_11char_traitsIcEENS2_9allocatorIcEEEEPKNS0_16OperationBuilderE,
                            __ZN3MIL7Builder8VariableC2ENSt3__110shared_ptrIKNS_7IRValueEEEPKNS0_16OperationBuilderE,
                            __ZN3MIL7Builder8VariableC2ENSt3__112basic_stringIcNS2_11char_traitsIcEENS2_9allocatorIcEEEEPKNS0_12BlockBuilderE,
                            __ZN3MIL7Builder8VariableC2ENSt3__112basic_stringIcNS2_11char_traitsIcEENS2_9allocatorIcEEEEPKNS0_15FunctionBuilderE,
                            __ZN3MIL7Builder8VariableC2ENSt3__112basic_stringIcNS2_11char_traitsIcEENS2_9allocatorIcEEEEPKNS0_16OperationBuilderE,
                            __ZN3MIL7Builder8VariableD0Ev,
                            __ZN3MIL7Builder8VariableD1Ev,
                            __ZN3MIL7Builder8VariableD2Ev,
                            __ZN3MIL7BuildereqERKNS0_14DataDependencyES3_,
                            __ZN3MIL7BuilderneERKNS0_14DataDependencyES3_,
                            __ZN3MIL7IRBlock4MakeENSt3__110shared_ptrIKNS_8LocationEEEONS1_6vectorINS2_INS_16IRNamedValueTypeEEENS1_9allocatorIS8_EEEEONS6_INS1_12basic_stringIcNS1_11char_traitsIcEENS9_IcEEEENS9_ISH_EEEEONS6_INS2_INS_11IROperationEEENS9_ISM_EEEE,
                            __ZN3MIL7IRBlock4MakeENSt3__110shared_ptrIKNS_8LocationEEEONS1_6vectorINS2_INS_16IRNamedValueTypeEEENS1_9allocatorIS8_EEEEONS6_INS1_12basic_stringIcNS1_11char_traitsIcEENS9_IcEEEENS9_ISH_EEEEONS6_INS2_INS_11IROperationEEENS9_ISM_EEEEONS1_13unordered_mapISH_NS2_IKNS_7IRValueEEENS1_4hashISH_EENS1_8equal_toISH_EENS9_INS1_4pairIKSH_ST_EEEEEE,
                            __ZN3MIL7IRBlockC2ENSt3__110shared_ptrIKNS_8LocationEEEONS1_13unordered_mapINS1_12basic_stringIcNS1_11char_traitsIcEENS1_9allocatorIcEEEENS2_IKNS_7IRValueEEENS1_4hashISC_EENS1_8equal_toISC_EENSA_INS1_4pairIKSC_SF_EEEEEE,
                            __ZN3MIL7IRBlockD0Ev, __ZN3MIL7IRBlockD1Ev,
                            __ZN3MIL7IRBlockD2Ev,
                            __ZN3MIL7IROpset10RegisterOpEONSt3__110shared_ptrIKNS_10IROperatorEEE,
                            __ZN3MIL7IROpset21MakeSupplementedOpsetENSt3__112basic_stringIcNS1_11char_traitsIcEENS1_9allocatorIcEEEERKS0_ONS1_6vectorINS1_10shared_ptrIKNS_10IROperatorEEENS5_ISE_EEEE,
                            __ZN3MIL7IROpsetC2ENSt3__113unordered_mapINS1_12basic_stringIcNS1_11char_traitsIcEENS1_9allocatorIcEEEENS1_10shared_ptrIKNS_10IROperatorEEENS1_4hashIS8_EENS1_8equal_toIS8_EENS6_INS1_4pairIKS8_SC_EEEEEE,
                            __ZN3MIL7IROpsetC2Ev, __ZN3MIL7IROpsetD0Ev,
                            __ZN3MIL7IROpsetD1Ev, __ZN3MIL7IROpsetD2Ev,
                            __ZN3MIL7IRScopeC2Ev, __ZN3MIL7IRScopeD0Ev,
                            __ZN3MIL7IRScopeD1Ev, __ZN3MIL7IRScopeD2Ev,
                            __ZN3MIL7IRValueC2Ev, __ZN3MIL7IRValueD0Ev,
                            __ZN3MIL7IRValueD1Ev, __ZN3MIL7IRValueD2Ev,
                            __ZN3MIL8IRObject11SetLocationENSt3__110shared_ptrIKNS_8LocationEEE,
                            __ZN3MIL8IRObject12SetAttributeENSt3__112basic_stringIcNS1_11char_traitsIcEENS1_9allocatorIcEEEENS1_10shared_ptrIKNS_7IRValueEEE,
                            __ZN3MIL8IRObject13SetAttributesEONSt3__113unordered_mapINS1_12basic_stringIcNS1_11char_traitsIcEENS1_9allocatorIcEEEENS1_10shared_ptrIKNS_7IRValueEEENS1_4hashIS8_EENS1_8equal_toIS8_EENS6_INS1_4pairIKS8_SC_EEEEEE,
                            __ZN3MIL8IRObject15RemoveAttributeERKNSt3__112basic_stringIcNS1_11char_traitsIcEENS1_9allocatorIcEEEE,
                            __ZN3MIL8IRObjectC2ENSt3__110shared_ptrIKNS_8LocationEEEONS1_13unordered_mapINS1_12basic_stringIcNS1_11char_traitsIcEENS1_9allocatorIcEEEENS2_IKNS_7IRValueEEENS1_4hashISC_EENS1_8equal_toISC_EENSA_INS1_4pairIKSC_SF_EEEEEE,
                            __ZN3MIL8IRObjectD0Ev, __ZN3MIL8IRObjectD1Ev,
                            __ZN3MIL8IRObjectD2Ev, __ZN3MIL8LocationC2Ev,
                            __ZN3MIL8LocationD0Ev, __ZN3MIL8LocationD1Ev,
                            __ZN3MIL8LocationD2Ev,
                            __ZN3MIL8MILErrorC2ERKNSt3__112basic_stringIcNS1_11char_traitsIcEENS1_9allocatorIcEEEE,
                            __ZN3MIL8Matching10OutputViewC1EOS1_,
                            __ZN3MIL8Matching10OutputViewC1ERKS1_,
                            __ZN3MIL8Matching10OutputViewC2EOS1_,
                            __ZN3MIL8Matching10OutputViewC2ERKS1_,
                            __ZN3MIL8Matching10OutputViewD1Ev,
                            __ZN3MIL8Matching10OutputViewD2Ev,
                            __ZN3MIL8Matching10OutputViewaSEOS1_,
                            __ZN3MIL8Matching10OutputViewaSERKS1_,
                            __ZN3MIL8Matching10ZeroOrMoreERKNS0_7PatternE,
                            __ZN3MIL8Matching12ArgumentViewC1EOS1_,
                            __ZN3MIL8Matching12ArgumentViewC1ERKS1_,
                            __ZN3MIL8Matching12ArgumentViewC2EOS1_,
                            __ZN3MIL8Matching12ArgumentViewC2ERKS1_,
                            __ZN3MIL8Matching12ArgumentViewD1Ev,
                            __ZN3MIL8Matching12ArgumentViewD2Ev,
                            __ZN3MIL8Matching12ArgumentViewaSEOS1_,
                            __ZN3MIL8Matching12ArgumentViewaSERKS1_,
                            __ZN3MIL8Matching15CompiledPatternC1ERKNS0_7PatternERNS_10MILContextE,
                            __ZN3MIL8Matching15CompiledPatternC1ERKS1_,
                            __ZN3MIL8Matching15CompiledPatternC2ERKNS0_7PatternERNS_10MILContextE,
                            __ZN3MIL8Matching15CompiledPatternC2ERKS1_,
                            __ZN3MIL8Matching15CompiledPatternD1Ev,
                            __ZN3MIL8Matching15CompiledPatternD2Ev,
                            __ZN3MIL8Matching15CompiledPatternaSERKS1_,
                            __ZN3MIL8Matching18InvalidMatchAccessC1ENSt3__112basic_stringIcNS2_11char_traitsIcEENS2_9allocatorIcEEEE,
                            __ZN3MIL8Matching18InvalidMatchAccessC1ERKS1_,
                            __ZN3MIL8Matching18InvalidMatchAccessC2ENSt3__112basic_stringIcNS2_11char_traitsIcEENS2_9allocatorIcEEEE,
                            __ZN3MIL8Matching18InvalidMatchAccessC2ERKS1_,
                            __ZN3MIL8Matching18InvalidMatchAccessD0Ev,
                            __ZN3MIL8Matching18InvalidMatchAccessD1Ev,
                            __ZN3MIL8Matching18InvalidMatchAccessD2Ev,
                            __ZN3MIL8Matching18InvalidMatchAccessaSERKS1_,
                            __ZN3MIL8Matching2OpENSt3__112basic_stringIcNS1_11char_traitsIcEENS1_9allocatorIcEEEE,
                            __ZN3MIL8Matching3ViaENSt3__112basic_stringIcNS1_11char_traitsIcEENS1_9allocatorIcEEEE,
                            __ZN3MIL8Matching5MatchC1EOS1_,
                            __ZN3MIL8Matching5MatchC1ERKS1_,
                            __ZN3MIL8Matching5MatchC1Ev,
                            __ZN3MIL8Matching5MatchC2EOS1_,
                            __ZN3MIL8Matching5MatchC2ERKS1_,
                            __ZN3MIL8Matching5MatchC2Ev,
                            __ZN3MIL8Matching5MatchD1Ev,
                            __ZN3MIL8Matching5MatchD2Ev,
                            __ZN3MIL8Matching5MatchaSEOS1_,
                            __ZN3MIL8Matching5MatchaSERKS1_,
                            __ZN3MIL8Matching5MaybeERKNS0_7PatternE,
                            __ZN3MIL8Matching7PatternC1ERKS1_,
                            __ZN3MIL8Matching7PatternC2ERKS1_,
                            __ZN3MIL8Matching7PatternD1Ev,
                            __ZN3MIL8Matching7PatternD2Ev,
                            __ZN3MIL8Matching7PatternaSERKS1_,
                            __ZN3MIL8Matching8EdgeViewC1EOS1_,
                            __ZN3MIL8Matching8EdgeViewC1ERKS1_,
                            __ZN3MIL8Matching8EdgeViewC2EOS1_,
                            __ZN3MIL8Matching8EdgeViewC2ERKS1_,
                            __ZN3MIL8Matching8EdgeViewD1Ev,
                            __ZN3MIL8Matching8EdgeViewD2Ev,
                            __ZN3MIL8Matching8EdgeViewaSEOS1_,
                            __ZN3MIL8Matching8EdgeViewaSERKS1_,
                            __ZN3MIL8Matching8ParallelESt16initializer_listINS0_7PatternEE,
                            __ZN3MIL8Matching9MatchViewC1EOS1_,
                            __ZN3MIL8Matching9MatchViewC1ERKS1_,
                            __ZN3MIL8Matching9MatchViewC2EOS1_,
                            __ZN3MIL8Matching9MatchViewC2ERKS1_,
                            __ZN3MIL8Matching9MatchViewD1Ev,
                            __ZN3MIL8Matching9MatchViewD2Ev,
                            __ZN3MIL8Matching9MatchViewaSEOS1_,
                            __ZN3MIL8Matching9MatchViewaSERKS1_,
                            __ZN3MIL8Matching9OneOrMoreERKNS0_7PatternE,
                            __ZN3MIL8MatchingrsERKNS0_7PatternES3_,
                            __ZN3MIL9IRProgram4MakeENSt3__110shared_ptrINS_10MILContextEEENS2_IKNS_8LocationEEEONS1_13unordered_mapINS1_12basic_stringIcNS1_11char_traitsIcEENS1_9allocatorIcEEEENS2_INS_10IRFunctionEEENS1_4hashISE_EENS1_8equal_toISE_EENSC_INS1_4pairIKSE_SG_EEEEEE,
                            __ZN3MIL9IRProgram4MakeENSt3__110shared_ptrINS_10MILContextEEENS2_IKNS_8LocationEEEONS1_13unordered_mapINS1_12basic_stringIcNS1_11char_traitsIcEENS1_9allocatorIcEEEENS2_INS_10IRFunctionEEENS1_4hashISE_EENS1_8equal_toISE_EENSC_INS1_4pairIKSE_SG_EEEEEEONS8_ISE_NS2_IKNS_7IRValueEEESI_SK_NSC_INSL_ISM_ST_EEEEEE,
                            __ZN3MIL9IRProgramC2ENSt3__110shared_ptrIKNS_8LocationEEEONS1_13unordered_mapINS1_12basic_stringIcNS1_11char_traitsIcEENS1_9allocatorIcEEEENS2_IKNS_7IRValueEEENS1_4hashISC_EENS1_8equal_toISC_EENSA_INS1_4pairIKSC_SF_EEEEEE,
                            __ZN3MIL9IRProgramD0Ev, __ZN3MIL9IRProgramD1Ev,
                            __ZN3MIL9IRProgramD2Ev,
                            __ZN3MIL9MILResultC2ENSt3__110shared_ptrIKNS_8LocationEEENS1_12basic_stringIcNS1_11char_traitsIcEENS1_9allocatorIcEEEE,
                            __ZN3MIL9MILResultC2Ev, __ZN3MIL9MILResultD0Ev,
                            __ZN3MIL9MILResultD1Ev, __ZN3MIL9MILResultD2Ev,
                            __ZN3MIL9Operators5Train10ios16Train10LinearGrad4MakeERNS_10MILContextENSt3__112basic_stringIcNS6_11char_traitsIcEENS6_9allocatorIcEEEE,
                            __ZN3MIL9Operators5Train10ios16Train11AvgPoolGrad4MakeERNS_10MILContextENSt3__112basic_stringIcNS6_11char_traitsIcEENS6_9allocatorIcEEEE,
                            __ZN3MIL9Operators5Train10ios16Train11LinearTrain4MakeERNS_10MILContextENSt3__112basic_stringIcNS6_11char_traitsIcEENS6_9allocatorIcEEEE,
                            __ZN3MIL9Operators5Train10ios16Train12BaseConvGrad4MakeERNS_10MILContextENSt3__112basic_stringIcNS6_11char_traitsIcEENS6_9allocatorIcEEEENS6_8functionIFNS_16ValidationResultERKNS_11IROperationEEEE,
                            __ZN3MIL9Operators5Train10ios16Train12BasePoolGrad4MakeERNS_10MILContextENSt3__112basic_stringIcNS6_11char_traitsIcEENS6_9allocatorIcEEEENS6_8functionIFNS_16ValidationResultERKNS_11IROperationEEEE,
                            __ZN3MIL9Operators5Train10ios16Train13BaseOptimizer4MakeERNS_10MILContextENSt3__112basic_stringIcNS6_11char_traitsIcEENS6_9allocatorIcEEEENS6_8functionIFNS_16ValidationResultERKNS_11IROperationEEEE,
                            __ZN3MIL9Operators5Train10ios16Train14LayerNormTrain4MakeERNS_10MILContextENSt3__112basic_stringIcNS6_11char_traitsIcEENS6_9allocatorIcEEEE,
                            __ZN3MIL9Operators5Train10ios16Train15BaseAvgPoolGrad4MakeERNS_10MILContextENSt3__112basic_stringIcNS6_11char_traitsIcEENS6_9allocatorIcEEEENS6_8functionIFNS_16ValidationResultERKNS_11IROperationEEEE,
                            __ZN3MIL9Operators5Train10ios16Train15SliceBySizeGrad4MakeERNS_10MILContextENSt3__112basic_stringIcNS6_11char_traitsIcEENS6_9allocatorIcEEEE,
                            __ZN3MIL9Operators5Train10ios16Train16SliceByIndexGrad4MakeERNS_10MILContextENSt3__112basic_stringIcNS6_11char_traitsIcEENS6_9allocatorIcEEEE,
                            __ZN3MIL9Operators5Train10ios16Train3Sgd4MakeERNS_10MILContextENSt3__112basic_stringIcNS6_11char_traitsIcEENS6_9allocatorIcEEEE,
                            __ZN3MIL9Operators5Train10ios16Train4Adam4MakeERNS_10MILContextENSt3__112basic_stringIcNS6_11char_traitsIcEENS6_9allocatorIcEEEE,
                            __ZN3MIL9Operators5Train10ios16Train8ConvGrad4MakeERNS_10MILContextENSt3__112basic_stringIcNS6_11char_traitsIcEENS6_9allocatorIcEEEE,
                            __ZN3MIL9Operators6Common5ios1510BaseGather4MakeERNS_10MILContextENSt3__112basic_stringIcNS6_11char_traitsIcEENS6_9allocatorIcEEEENS6_8functionIFNS_16ValidationResultERKNS_11IROperationEEEE,
                            __ZN3MIL9Operators6Common5ios1510CropResize4MakeERNS_10MILContextENSt3__112basic_stringIcNS6_11char_traitsIcEENS6_9allocatorIcEEEE,
                            __ZN3MIL9Operators6Common5ios1510ExpandDims4MakeERNS_10MILContextENSt3__112basic_stringIcNS6_11char_traitsIcEENS6_9allocatorIcEEEE,
                            __ZN3MIL9Operators6Common5ios1510ListGather4MakeERNS_10MILContextENSt3__112basic_stringIcNS6_11char_traitsIcEENS6_9allocatorIcEEEE,
                            __ZN3MIL9Operators6Common5ios1510ListLength4MakeERNS_10MILContextENSt3__112basic_stringIcNS6_11char_traitsIcEENS6_9allocatorIcEEEE,
                            __ZN3MIL9Operators6Common5ios1510LogicalAnd4MakeERNS_10MILContextENSt3__112basic_stringIcNS6_11char_traitsIcEENS6_9allocatorIcEEEE,
                            __ZN3MIL9Operators6Common5ios1510LogicalNot4MakeERNS_10MILContextENSt3__112basic_stringIcNS6_11char_traitsIcEENS6_9allocatorIcEEEE,
                            __ZN3MIL9Operators6Common5ios1510LogicalXor4MakeERNS_10MILContextENSt3__112basic_stringIcNS6_11char_traitsIcEENS6_9allocatorIcEEEE,
                            __ZN3MIL9Operators6Common5ios1510ReduceMean4MakeERNS_10MILContextENSt3__112basic_stringIcNS6_11char_traitsIcEENS6_9allocatorIcEEEE,
                            __ZN3MIL9Operators6Common5ios1510ReduceProd4MakeERNS_10MILContextENSt3__112basic_stringIcNS6_11char_traitsIcEENS6_9allocatorIcEEEE,
                            __ZN3MIL9Operators6Common5ios1510ScaledTanh4MakeERNS_10MILContextENSt3__112basic_stringIcNS6_11char_traitsIcEENS6_9allocatorIcEEEE,
                            __ZN3MIL9Operators6Common5ios1511BaseAvgPool4MakeERNS_10MILContextENSt3__112basic_stringIcNS6_11char_traitsIcEENS6_9allocatorIcEEEENS6_8functionIFNS_16ValidationResultERKNS_11IROperationEEEE,
                            __ZN3MIL9Operators6Common5ios1511BaseScatter4MakeERNS_10MILContextENSt3__112basic_stringIcNS6_11char_traitsIcEENS6_9allocatorIcEEEENS6_8functionIFNS_16ValidationResultERKNS_11IROperationEEEE,
                            __ZN3MIL9Operators6Common5ios1511ClampedReLU4MakeERNS_10MILContextENSt3__112basic_stringIcNS6_11char_traitsIcEENS6_9allocatorIcEEEE,
                            __ZN3MIL9Operators6Common5ios1511ListScatter4MakeERNS_10MILContextENSt3__112basic_stringIcNS6_11char_traitsIcEENS6_9allocatorIcEEEE,
                            __ZN3MIL9Operators6Common5ios1511SigmoidHard4MakeERNS_10MILContextENSt3__112basic_stringIcNS6_11char_traitsIcEENS6_9allocatorIcEEEE,
                            __ZN3MIL9Operators6Common5ios1511SliceBySize4MakeERNS_10MILContextENSt3__112basic_stringIcNS6_11char_traitsIcEENS6_9allocatorIcEEEE,
                            __ZN3MIL9Operators6Common5ios1512BatchToSpace4MakeERNS_10MILContextENSt3__112basic_stringIcNS6_11char_traitsIcEENS6_9allocatorIcEEEE,
                            __ZN3MIL9Operators6Common5ios1512DepthToSpace4MakeERNS_10MILContextENSt3__112basic_stringIcNS6_11char_traitsIcEENS6_9allocatorIcEEEE,
                            __ZN3MIL9Operators6Common5ios1512GreaterEqual4MakeERNS_10MILContextENSt3__112basic_stringIcNS6_11char_traitsIcEENS6_9allocatorIcEEEE,
                            __ZN3MIL9Operators6Common5ios1512InstanceNorm4MakeERNS_10MILContextENSt3__112basic_stringIcNS6_11char_traitsIcEENS6_9allocatorIcEEEE,
                            __ZN3MIL9Operators6Common5ios1512PixelShuffle4MakeERNS_10MILContextENSt3__112basic_stringIcNS6_11char_traitsIcEENS6_9allocatorIcEEEE,
                            __ZN3MIL9Operators6Common5ios1512RandomNormal4MakeERNS_10MILContextENSt3__112basic_stringIcNS6_11char_traitsIcEENS6_9allocatorIcEEEE,
                            __ZN3MIL9Operators6Common5ios1512ReduceArgmax4MakeERNS_10MILContextENSt3__112basic_stringIcNS6_11char_traitsIcEENS6_9allocatorIcEEEE,
                            __ZN3MIL9Operators6Common5ios1512ReduceArgmin4MakeERNS_10MILContextENSt3__112basic_stringIcNS6_11char_traitsIcEENS6_9allocatorIcEEEE,
                            __ZN3MIL9Operators6Common5ios1512ReduceL1Norm4MakeERNS_10MILContextENSt3__112basic_stringIcNS6_11char_traitsIcEENS6_9allocatorIcEEEE,
                            __ZN3MIL9Operators6Common5ios1512ReduceL2Norm4MakeERNS_10MILContextENSt3__112basic_stringIcNS6_11char_traitsIcEENS6_9allocatorIcEEEE,
                            __ZN3MIL9Operators6Common5ios1512ReduceLogSum4MakeERNS_10MILContextENSt3__112basic_stringIcNS6_11char_traitsIcEENS6_9allocatorIcEEEE,
                            __ZN3MIL9Operators6Common5ios1512SliceByIndex4MakeERNS_10MILContextENSt3__112basic_stringIcNS6_11char_traitsIcEENS6_9allocatorIcEEEE,
                            __ZN3MIL9Operators6Common5ios1512SpaceToBatch4MakeERNS_10MILContextENSt3__112basic_stringIcNS6_11char_traitsIcEENS6_9allocatorIcEEEE,
                            __ZN3MIL9Operators6Common5ios1512SpaceToDepth4MakeERNS_10MILContextENSt3__112basic_stringIcNS6_11char_traitsIcEENS6_9allocatorIcEEEE,
                            __ZN3MIL9Operators6Common5ios1513BaseReduction4MakeERNS_10MILContextENSt3__112basic_stringIcNS6_11char_traitsIcEENS6_9allocatorIcEEEENS6_8functionIFNS_16ValidationResultERKNS_11IROperationEEEE,
                            __ZN3MIL9Operators6Common5ios1513ConvTranspose4MakeERNS_10MILContextENSt3__112basic_stringIcNS6_11char_traitsIcEENS6_9allocatorIcEEEE,
                            __ZN3MIL9Operators6Common5ios1513RandomUniform4MakeERNS_10MILContextENSt3__112basic_stringIcNS6_11char_traitsIcEENS6_9allocatorIcEEEE,
                            __ZN3MIL9Operators6Common5ios1514BaseActivation4MakeERNS_10MILContextENSt3__112basic_stringIcNS6_11char_traitsIcEENS6_9allocatorIcEEEENS6_8functionIFNS_16ValidationResultERKNS_11IROperationEEEE,
                            __ZN3MIL9Operators6Common5ios1514ResizeBilinear4MakeERNS_10MILContextENSt3__112basic_stringIcNS6_11char_traitsIcEENS6_9allocatorIcEEEE,
                            __ZN3MIL9Operators6Common5ios1514SlidingWindows4MakeERNS_10MILContextENSt3__112basic_stringIcNS6_11char_traitsIcEENS6_9allocatorIcEEEE,
                            __ZN3MIL9Operators6Common5ios1515GatherAlongAxis4MakeERNS_10MILContextENSt3__112basic_stringIcNS6_11char_traitsIcEENS6_9allocatorIcEEEE,
                            __ZN3MIL9Operators6Common5ios1515RandomBernoulli4MakeERNS_10MILContextENSt3__112basic_stringIcNS6_11char_traitsIcEENS6_9allocatorIcEEEE,
                            __ZN3MIL9Operators6Common5ios1515ReduceLogSumExp4MakeERNS_10MILContextENSt3__112basic_stringIcNS6_11char_traitsIcEENS6_9allocatorIcEEEE,
                            __ZN3MIL9Operators6Common5ios1515ReduceSumSquare4MakeERNS_10MILContextENSt3__112basic_stringIcNS6_11char_traitsIcEENS6_9allocatorIcEEEE,
                            __ZN3MIL9Operators6Common5ios1515ReverseSequence4MakeERNS_10MILContextENSt3__112basic_stringIcNS6_11char_traitsIcEENS6_9allocatorIcEEEE,
                            __ZN3MIL9Operators6Common5ios1515ThresholdedReLU4MakeERNS_10MILContextENSt3__112basic_stringIcNS6_11char_traitsIcEENS6_9allocatorIcEEEE,
                            __ZN3MIL9Operators6Common5ios1516BaseArgReduction4MakeERNS_10MILContextENSt3__112basic_stringIcNS6_11char_traitsIcEENS6_9allocatorIcEEEENS6_8functionIFNS_16ValidationResultERKNS_11IROperationEEEE,
                            __ZN3MIL9Operators6Common5ios1516ElementwiseUnary4MakeERNS_10MILContextENSt3__112basic_stringIcNS6_11char_traitsIcEENS6_9allocatorIcEEEENS6_8functionIFNS_16ValidationResultERKNS_11IROperationEEEE,
                            __ZN3MIL9Operators6Common5ios1516LinearActivation4MakeERNS_10MILContextENSt3__112basic_stringIcNS6_11char_traitsIcEENS6_9allocatorIcEEEE,
                            __ZN3MIL9Operators6Common5ios1516ScatterAlongAxis4MakeERNS_10MILContextENSt3__112basic_stringIcNS6_11char_traitsIcEENS6_9allocatorIcEEEE,
                            __ZN3MIL9Operators6Common5ios1516UpsampleBilinear4MakeERNS_10MILContextENSt3__112basic_stringIcNS6_11char_traitsIcEENS6_9allocatorIcEEEE,
                            __ZN3MIL9Operators6Common5ios1517ElementwiseBinary4MakeERNS_10MILContextENSt3__112basic_stringIcNS6_11char_traitsIcEENS6_9allocatorIcEEEENS6_8functionIFNS_16ValidationResultERKNS_11IROperationEEEE,
                            __ZN3MIL9Operators6Common5ios1517LocalResponseNorm4MakeERNS_10MILContextENSt3__112basic_stringIcNS6_11char_traitsIcEENS6_9allocatorIcEEEE,
                            __ZN3MIL9Operators6Common5ios1517RandomCategorical4MakeERNS_10MILContextENSt3__112basic_stringIcNS6_11char_traitsIcEENS6_9allocatorIcEEEE,
                            __ZN3MIL9Operators6Common5ios1518BaseGatherWithAxis4MakeERNS_10MILContextENSt3__112basic_stringIcNS6_11char_traitsIcEENS6_9allocatorIcEEEENS6_8functionIFNS_16ValidationResultERKNS_11IROperationEEEE,
                            __ZN3MIL9Operators6Common5ios1518SoftplusParametric4MakeERNS_10MILContextENSt3__112basic_stringIcNS6_11char_traitsIcEENS6_9allocatorIcEEEE,
                            __ZN3MIL9Operators6Common5ios1519BaseScatterWithAxis4MakeERNS_10MILContextENSt3__112basic_stringIcNS6_11char_traitsIcEENS6_9allocatorIcEEEENS6_8functionIFNS_16ValidationResultERKNS_11IROperationEEEE,
                            __ZN3MIL9Operators6Common5ios1521NonMaximumSuppression4MakeERNS_10MILContextENSt3__112basic_stringIcNS6_11char_traitsIcEENS6_9allocatorIcEEEE,
                            __ZN3MIL9Operators6Common5ios1521ResizeNearestNeighbor4MakeERNS_10MILContextENSt3__112basic_stringIcNS6_11char_traitsIcEENS6_9allocatorIcEEEE,
                            __ZN3MIL9Operators6Common5ios1523BaseActivationWithAlpha4MakeERNS_10MILContextENSt3__112basic_stringIcNS6_11char_traitsIcEENS6_9allocatorIcEEEENS6_8functionIFNS_16ValidationResultERKNS_11IROperationEEEE,
                            __ZN3MIL9Operators6Common5ios1523ElementwiseUnaryWithInt4MakeERNS_10MILContextENSt3__112basic_stringIcNS6_11char_traitsIcEENS6_9allocatorIcEEEENS6_8functionIFNS_16ValidationResultERKNS_11IROperationEEEE,
                            __ZN3MIL9Operators6Common5ios1523UpsampleNearestNeighbor4MakeERNS_10MILContextENSt3__112basic_stringIcNS6_11char_traitsIcEENS6_9allocatorIcEEEE,
                            __ZN3MIL9Operators6Common5ios1524ElementwiseBinaryLogical4MakeERNS_10MILContextENSt3__112basic_stringIcNS6_11char_traitsIcEENS6_9allocatorIcEEEENS6_8functionIFNS_16ValidationResultERKNS_11IROperationEEEE,
                            __ZN3MIL9Operators6Common5ios1527BaseActivationWithAlphaBeta4MakeERNS_10MILContextENSt3__112basic_stringIcNS6_11char_traitsIcEENS6_9allocatorIcEEEENS6_8functionIFNS_16ValidationResultERKNS_11IROperationEEEE,
                            __ZN3MIL9Operators6Common5ios1527ElementwiseBinaryBoolOutput4MakeERNS_10MILContextENSt3__112basic_stringIcNS6_11char_traitsIcEENS6_9allocatorIcEEEENS6_8functionIFNS_16ValidationResultERKNS_11IROperationEEEE,
                            __ZN3MIL9Operators6Common5ios1527ElementwiseUnaryWithEpsilon4MakeERNS_10MILContextENSt3__112basic_stringIcNS6_11char_traitsIcEENS6_9allocatorIcEEEENS6_8functionIFNS_16ValidationResultERKNS_11IROperationEEEE,
                            __ZN3MIL9Operators6Common5ios153Abs4MakeERNS_10MILContextENSt3__112basic_stringIcNS6_11char_traitsIcEENS6_9allocatorIcEEEE,
                            __ZN3MIL9Operators6Common5ios153Add4MakeERNS_10MILContextENSt3__112basic_stringIcNS6_11char_traitsIcEENS6_9allocatorIcEEEE,
                            __ZN3MIL9Operators6Common5ios153Cos4MakeERNS_10MILContextENSt3__112basic_stringIcNS6_11char_traitsIcEENS6_9allocatorIcEEEE,
                            __ZN3MIL9Operators6Common5ios153ELU4MakeERNS_10MILContextENSt3__112basic_stringIcNS6_11char_traitsIcEENS6_9allocatorIcEEEE,
                            __ZN3MIL9Operators6Common5ios153ERF4MakeERNS_10MILContextENSt3__112basic_stringIcNS6_11char_traitsIcEENS6_9allocatorIcEEEE,
                            __ZN3MIL9Operators6Common5ios153Exp4MakeERNS_10MILContextENSt3__112basic_stringIcNS6_11char_traitsIcEENS6_9allocatorIcEEEE,
                            __ZN3MIL9Operators6Common5ios153Gru4MakeERNS_10MILContextENSt3__112basic_stringIcNS6_11char_traitsIcEENS6_9allocatorIcEEEE,
                            __ZN3MIL9Operators6Common5ios153Log4MakeERNS_10MILContextENSt3__112basic_stringIcNS6_11char_traitsIcEENS6_9allocatorIcEEEE,
                            __ZN3MIL9Operators6Common5ios153Mod4MakeERNS_10MILContextENSt3__112basic_stringIcNS6_11char_traitsIcEENS6_9allocatorIcEEEE,
                            __ZN3MIL9Operators6Common5ios153Mul4MakeERNS_10MILContextENSt3__112basic_stringIcNS6_11char_traitsIcEENS6_9allocatorIcEEEE,
                            __ZN3MIL9Operators6Common5ios153Pad4MakeERNS_10MILContextENSt3__112basic_stringIcNS6_11char_traitsIcEENS6_9allocatorIcEEEE,
                            __ZN3MIL9Operators6Common5ios153Pow4MakeERNS_10MILContextENSt3__112basic_stringIcNS6_11char_traitsIcEENS6_9allocatorIcEEEE,
                            __ZN3MIL9Operators6Common5ios153Rnn4MakeERNS_10MILContextENSt3__112basic_stringIcNS6_11char_traitsIcEENS6_9allocatorIcEEEE,
                            __ZN3MIL9Operators6Common5ios153Sin4MakeERNS_10MILContextENSt3__112basic_stringIcNS6_11char_traitsIcEENS6_9allocatorIcEEEE,
                            __ZN3MIL9Operators6Common5ios153Sub4MakeERNS_10MILContextENSt3__112basic_stringIcNS6_11char_traitsIcEENS6_9allocatorIcEEEE,
                            __ZN3MIL9Operators6Common5ios153Tan4MakeERNS_10MILContextENSt3__112basic_stringIcNS6_11char_traitsIcEENS6_9allocatorIcEEEE,
                            __ZN3MIL9Operators6Common5ios154Acos4MakeERNS_10MILContextENSt3__112basic_stringIcNS6_11char_traitsIcEENS6_9allocatorIcEEEE,
                            __ZN3MIL9Operators6Common5ios154Asin4MakeERNS_10MILContextENSt3__112basic_stringIcNS6_11char_traitsIcEENS6_9allocatorIcEEEE,
                            __ZN3MIL9Operators6Common5ios154Atan4MakeERNS_10MILContextENSt3__112basic_stringIcNS6_11char_traitsIcEENS6_9allocatorIcEEEE,
                            __ZN3MIL9Operators6Common5ios154Cast4MakeERNS_10MILContextENSt3__112basic_stringIcNS6_11char_traitsIcEENS6_9allocatorIcEEEE,
                            __ZN3MIL9Operators6Common5ios154Ceil4MakeERNS_10MILContextENSt3__112basic_stringIcNS6_11char_traitsIcEENS6_9allocatorIcEEEE,
                            __ZN3MIL9Operators6Common5ios154Clip4MakeERNS_10MILContextENSt3__112basic_stringIcNS6_11char_traitsIcEENS6_9allocatorIcEEEE,
                            __ZN3MIL9Operators6Common5ios154Cond4MakeERNS_10MILContextENSt3__112basic_stringIcNS6_11char_traitsIcEENS6_9allocatorIcEEEE,
                            __ZN3MIL9Operators6Common5ios154Conv4MakeERNS_10MILContextENSt3__112basic_stringIcNS6_11char_traitsIcEENS6_9allocatorIcEEEE,
                            __ZN3MIL9Operators6Common5ios154Cosh4MakeERNS_10MILContextENSt3__112basic_stringIcNS6_11char_traitsIcEENS6_9allocatorIcEEEE,
                            __ZN3MIL9Operators6Common5ios154Crop4MakeERNS_10MILContextENSt3__112basic_stringIcNS6_11char_traitsIcEENS6_9allocatorIcEEEE,
                            __ZN3MIL9Operators6Common5ios154Exp24MakeERNS_10MILContextENSt3__112basic_stringIcNS6_11char_traitsIcEENS6_9allocatorIcEEEE,
                            __ZN3MIL9Operators6Common5ios154Fill4MakeERNS_10MILContextENSt3__112basic_stringIcNS6_11char_traitsIcEENS6_9allocatorIcEEEE,
                            __ZN3MIL9Operators6Common5ios154GeLU4MakeERNS_10MILContextENSt3__112basic_stringIcNS6_11char_traitsIcEENS6_9allocatorIcEEEE,
                            __ZN3MIL9Operators6Common5ios154Less4MakeERNS_10MILContextENSt3__112basic_stringIcNS6_11char_traitsIcEENS6_9allocatorIcEEEE,
                            __ZN3MIL9Operators6Common5ios154Lstm4MakeERNS_10MILContextENSt3__112basic_stringIcNS6_11char_traitsIcEENS6_9allocatorIcEEEE,
                            __ZN3MIL9Operators6Common5ios154ReLU4MakeERNS_10MILContextENSt3__112basic_stringIcNS6_11char_traitsIcEENS6_9allocatorIcEEEE,
                            __ZN3MIL9Operators6Common5ios154SiLU4MakeERNS_10MILContextENSt3__112basic_stringIcNS6_11char_traitsIcEENS6_9allocatorIcEEEE,
                            __ZN3MIL9Operators6Common5ios154Sign4MakeERNS_10MILContextENSt3__112basic_stringIcNS6_11char_traitsIcEENS6_9allocatorIcEEEE,
                            __ZN3MIL9Operators6Common5ios154Sinh4MakeERNS_10MILContextENSt3__112basic_stringIcNS6_11char_traitsIcEENS6_9allocatorIcEEEE,
                            __ZN3MIL9Operators6Common5ios154Sqrt4MakeERNS_10MILContextENSt3__112basic_stringIcNS6_11char_traitsIcEENS6_9allocatorIcEEEE,
                            __ZN3MIL9Operators6Common5ios154Tanh4MakeERNS_10MILContextENSt3__112basic_stringIcNS6_11char_traitsIcEENS6_9allocatorIcEEEE,
                            __ZN3MIL9Operators6Common5ios154Tile4MakeERNS_10MILContextENSt3__112basic_stringIcNS6_11char_traitsIcEENS6_9allocatorIcEEEE,
                            __ZN3MIL9Operators6Common5ios154Topk4MakeERNS_10MILContextENSt3__112basic_stringIcNS6_11char_traitsIcEENS6_9allocatorIcEEEE,
                            __ZN3MIL9Operators6Common5ios155Acosh4MakeERNS_10MILContextENSt3__112basic_stringIcNS6_11char_traitsIcEENS6_9allocatorIcEEEE,
                            __ZN3MIL9Operators6Common5ios155Asinh4MakeERNS_10MILContextENSt3__112basic_stringIcNS6_11char_traitsIcEENS6_9allocatorIcEEEE,
                            __ZN3MIL9Operators6Common5ios155Atanh4MakeERNS_10MILContextENSt3__112basic_stringIcNS6_11char_traitsIcEENS6_9allocatorIcEEEE,
                            __ZN3MIL9Operators6Common5ios155Const4MakeERNS_10MILContextENSt3__112basic_stringIcNS6_11char_traitsIcEENS6_9allocatorIcEEEE,
                            __ZN3MIL9Operators6Common5ios155Equal4MakeERNS_10MILContextENSt3__112basic_stringIcNS6_11char_traitsIcEENS6_9allocatorIcEEEE,
                            __ZN3MIL9Operators6Common5ios155Floor4MakeERNS_10MILContextENSt3__112basic_stringIcNS6_11char_traitsIcEENS6_9allocatorIcEEEE,
                            __ZN3MIL9Operators6Common5ios155PReLU4MakeERNS_10MILContextENSt3__112basic_stringIcNS6_11char_traitsIcEENS6_9allocatorIcEEEE,
                            __ZN3MIL9Operators6Common5ios155ReLU64MakeERNS_10MILContextENSt3__112basic_stringIcNS6_11char_traitsIcEENS6_9allocatorIcEEEE,
                            __ZN3MIL9Operators6Common5ios155Round4MakeERNS_10MILContextENSt3__112basic_stringIcNS6_11char_traitsIcEENS6_9allocatorIcEEEE,
                            __ZN3MIL9Operators6Common5ios155Rsqrt4MakeERNS_10MILContextENSt3__112basic_stringIcNS6_11char_traitsIcEENS6_9allocatorIcEEEE,
                            __ZN3MIL9Operators6Common5ios155Shape4MakeERNS_10MILContextENSt3__112basic_stringIcNS6_11char_traitsIcEENS6_9allocatorIcEEEE,
                            __ZN3MIL9Operators6Common5ios155Split4MakeERNS_10MILContextENSt3__112basic_stringIcNS6_11char_traitsIcEENS6_9allocatorIcEEEE,
                            __ZN3MIL9Operators6Common5ios155Stack4MakeERNS_10MILContextENSt3__112basic_stringIcNS6_11char_traitsIcEENS6_9allocatorIcEEEE,
                            __ZN3MIL9Operators6Common5ios156Affine4MakeERNS_10MILContextENSt3__112basic_stringIcNS6_11char_traitsIcEENS6_9allocatorIcEEEE,
                            __ZN3MIL9Operators6Common5ios156Concat4MakeERNS_10MILContextENSt3__112basic_stringIcNS6_11char_traitsIcEENS6_9allocatorIcEEEE,
                            __ZN3MIL9Operators6Common5ios156Cumsum4MakeERNS_10MILContextENSt3__112basic_stringIcNS6_11char_traitsIcEENS6_9allocatorIcEEEE,
                            __ZN3MIL9Operators6Common5ios156Einsum4MakeERNS_10MILContextENSt3__112basic_stringIcNS6_11char_traitsIcEENS6_9allocatorIcEEEE,
                            __ZN3MIL9Operators6Common5ios156Gather4MakeERNS_10MILContextENSt3__112basic_stringIcNS6_11char_traitsIcEENS6_9allocatorIcEEEE,
                            __ZN3MIL9Operators6Common5ios156L2Norm4MakeERNS_10MILContextENSt3__112basic_stringIcNS6_11char_traitsIcEENS6_9allocatorIcEEEE,
                            __ZN3MIL9Operators6Common5ios156L2Pool4MakeERNS_10MILContextENSt3__112basic_stringIcNS6_11char_traitsIcEENS6_9allocatorIcEEEE,
                            __ZN3MIL9Operators6Common5ios156Linear4MakeERNS_10MILContextENSt3__112basic_stringIcNS6_11char_traitsIcEENS6_9allocatorIcEEEE,
                            __ZN3MIL9Operators6Common5ios156MatMul4MakeERNS_10MILContextENSt3__112basic_stringIcNS6_11char_traitsIcEENS6_9allocatorIcEEEE,
                            __ZN3MIL9Operators6Common5ios156OneHot4MakeERNS_10MILContextENSt3__112basic_stringIcNS6_11char_traitsIcEENS6_9allocatorIcEEEE,
                            __ZN3MIL9Operators6Common5ios156Select4MakeERNS_10MILContextENSt3__112basic_stringIcNS6_11char_traitsIcEENS6_9allocatorIcEEEE,
                            __ZN3MIL9Operators6Common5ios156Square4MakeERNS_10MILContextENSt3__112basic_stringIcNS6_11char_traitsIcEENS6_9allocatorIcEEEE,
                            __ZN3MIL9Operators6Common5ios157Argsort4MakeERNS_10MILContextENSt3__112basic_stringIcNS6_11char_traitsIcEENS6_9allocatorIcEEEE,
                            __ZN3MIL9Operators6Common5ios157AvgPool4MakeERNS_10MILContextENSt3__112basic_stringIcNS6_11char_traitsIcEENS6_9allocatorIcEEEE,
                            __ZN3MIL9Operators6Common5ios157Greater4MakeERNS_10MILContextENSt3__112basic_stringIcNS6_11char_traitsIcEENS6_9allocatorIcEEEE,
                            __ZN3MIL9Operators6Common5ios157Inverse4MakeERNS_10MILContextENSt3__112basic_stringIcNS6_11char_traitsIcEENS6_9allocatorIcEEEE,
                            __ZN3MIL9Operators6Common5ios157MaxPool4MakeERNS_10MILContextENSt3__112basic_stringIcNS6_11char_traitsIcEENS6_9allocatorIcEEEE,
                            __ZN3MIL9Operators6Common5ios157Maximum4MakeERNS_10MILContextENSt3__112basic_stringIcNS6_11char_traitsIcEENS6_9allocatorIcEEEE,
                            __ZN3MIL9Operators6Common5ios157Minimum4MakeERNS_10MILContextENSt3__112basic_stringIcNS6_11char_traitsIcEENS6_9allocatorIcEEEE,
                            __ZN3MIL9Operators6Common5ios157NonZero4MakeERNS_10MILContextENSt3__112basic_stringIcNS6_11char_traitsIcEENS6_9allocatorIcEEEE,
                            __ZN3MIL9Operators6Common5ios157Range1D4MakeERNS_10MILContextENSt3__112basic_stringIcNS6_11char_traitsIcEENS6_9allocatorIcEEEE,
                            __ZN3MIL9Operators6Common5ios157RealDiv4MakeERNS_10MILContextENSt3__112basic_stringIcNS6_11char_traitsIcEENS6_9allocatorIcEEEE,
                            __ZN3MIL9Operators6Common5ios157Reshape4MakeERNS_10MILContextENSt3__112basic_stringIcNS6_11char_traitsIcEENS6_9allocatorIcEEEE,
                            __ZN3MIL9Operators6Common5ios157Reverse4MakeERNS_10MILContextENSt3__112basic_stringIcNS6_11char_traitsIcEENS6_9allocatorIcEEEE,
                            __ZN3MIL9Operators6Common5ios157Scatter4MakeERNS_10MILContextENSt3__112basic_stringIcNS6_11char_traitsIcEENS6_9allocatorIcEEEE,
                            __ZN3MIL9Operators6Common5ios157Sigmoid4MakeERNS_10MILContextENSt3__112basic_stringIcNS6_11char_traitsIcEENS6_9allocatorIcEEEE,
                            __ZN3MIL9Operators6Common5ios157Softmax4MakeERNS_10MILContextENSt3__112basic_stringIcNS6_11char_traitsIcEENS6_9allocatorIcEEEE,
                            __ZN3MIL9Operators6Common5ios157Squeeze4MakeERNS_10MILContextENSt3__112basic_stringIcNS6_11char_traitsIcEENS6_9allocatorIcEEEE,
                            __ZN3MIL9Operators6Common5ios158BandPart4MakeERNS_10MILContextENSt3__112basic_stringIcNS6_11char_traitsIcEENS6_9allocatorIcEEEE,
                            __ZN3MIL9Operators6Common5ios158BasePool4MakeERNS_10MILContextENSt3__112basic_stringIcNS6_11char_traitsIcEENS6_9allocatorIcEEEENS6_8functionIFNS_16ValidationResultERKNS_11IROperationEEEE,
                            __ZN3MIL9Operators6Common5ios158FloorDiv4MakeERNS_10MILContextENSt3__112basic_stringIcNS6_11char_traitsIcEENS6_9allocatorIcEEEE,
                            __ZN3MIL9Operators6Common5ios158GatherNd4MakeERNS_10MILContextENSt3__112basic_stringIcNS6_11char_traitsIcEENS6_9allocatorIcEEEE,
                            __ZN3MIL9Operators6Common5ios158Identity4MakeERNS_10MILContextENSt3__112basic_stringIcNS6_11char_traitsIcEENS6_9allocatorIcEEEE,
                            __ZN3MIL9Operators6Common5ios158ListRead4MakeERNS_10MILContextENSt3__112basic_stringIcNS6_11char_traitsIcEENS6_9allocatorIcEEEE,
                            __ZN3MIL9Operators6Common5ios158MakeList4MakeERNS_10MILContextENSt3__112basic_stringIcNS6_11char_traitsIcEENS6_9allocatorIcEEEE,
                            __ZN3MIL9Operators6Common5ios158NotEqual4MakeERNS_10MILContextENSt3__112basic_stringIcNS6_11char_traitsIcEENS6_9allocatorIcEEEE,
                            __ZN3MIL9Operators6Common5ios158Resample4MakeERNS_10MILContextENSt3__112basic_stringIcNS6_11char_traitsIcEENS6_9allocatorIcEEEE,
                            __ZN3MIL9Operators6Common5ios158Softplus4MakeERNS_10MILContextENSt3__112basic_stringIcNS6_11char_traitsIcEENS6_9allocatorIcEEEE,
                            __ZN3MIL9Operators6Common5ios158Softsign4MakeERNS_10MILContextENSt3__112basic_stringIcNS6_11char_traitsIcEENS6_9allocatorIcEEEE,
                            __ZN3MIL9Operators6Common5ios159BatchNorm4MakeERNS_10MILContextENSt3__112basic_stringIcNS6_11char_traitsIcEENS6_9allocatorIcEEEE,
                            __ZN3MIL9Operators6Common5ios159Flatten2D4MakeERNS_10MILContextENSt3__112basic_stringIcNS6_11char_traitsIcEENS6_9allocatorIcEEEE,
                            __ZN3MIL9Operators6Common5ios159LayerNorm4MakeERNS_10MILContextENSt3__112basic_stringIcNS6_11char_traitsIcEENS6_9allocatorIcEEEE,
                            __ZN3MIL9Operators6Common5ios159LeakyReLU4MakeERNS_10MILContextENSt3__112basic_stringIcNS6_11char_traitsIcEENS6_9allocatorIcEEEE,
                            __ZN3MIL9Operators6Common5ios159LessEqual4MakeERNS_10MILContextENSt3__112basic_stringIcNS6_11char_traitsIcEENS6_9allocatorIcEEEE,
                            __ZN3MIL9Operators6Common5ios159ListWrite4MakeERNS_10MILContextENSt3__112basic_stringIcNS6_11char_traitsIcEENS6_9allocatorIcEEEE,
                            __ZN3MIL9Operators6Common5ios159LogicalOr4MakeERNS_10MILContextENSt3__112basic_stringIcNS6_11char_traitsIcEENS6_9allocatorIcEEEE,
                            __ZN3MIL9Operators6Common5ios159ReduceMax4MakeERNS_10MILContextENSt3__112basic_stringIcNS6_11char_traitsIcEENS6_9allocatorIcEEEE,
                            __ZN3MIL9Operators6Common5ios159ReduceMin4MakeERNS_10MILContextENSt3__112basic_stringIcNS6_11char_traitsIcEENS6_9allocatorIcEEEE,
                            __ZN3MIL9Operators6Common5ios159ReduceSum4MakeERNS_10MILContextENSt3__112basic_stringIcNS6_11char_traitsIcEENS6_9allocatorIcEEEE,
                            __ZN3MIL9Operators6Common5ios159ScatterNd4MakeERNS_10MILContextENSt3__112basic_stringIcNS6_11char_traitsIcEENS6_9allocatorIcEEEE,
                            __ZN3MIL9Operators6Common5ios159Threshold4MakeERNS_10MILContextENSt3__112basic_stringIcNS6_11char_traitsIcEENS6_9allocatorIcEEEE,
                            __ZN3MIL9Operators6Common5ios159Transpose4MakeERNS_10MILContextENSt3__112basic_stringIcNS6_11char_traitsIcEENS6_9allocatorIcEEEE,
                            __ZN3MIL9Operators6Common5ios159WhileLoop4MakeERNS_10MILContextENSt3__112basic_stringIcNS6_11char_traitsIcEENS6_9allocatorIcEEEE,
                            __ZN3MIL9Operators6Common5ios1610BaseGather4MakeERNS_10MILContextENSt3__112basic_stringIcNS6_11char_traitsIcEENS6_9allocatorIcEEEENS6_8functionIFNS_16ValidationResultERKNS_11IROperationEEEE,
                            __ZN3MIL9Operators6Common5ios1610ConstExprs10LutToDenseC1EPKNS_17IRTensorValueTypeENSt3__110shared_ptrIKNS_13IRTensorValueEEESC_,
                            __ZN3MIL9Operators6Common5ios1610ConstExprs10LutToDenseC2EPKNS_17IRTensorValueTypeENSt3__110shared_ptrIKNS_13IRTensorValueEEESC_,
                            __ZN3MIL9Operators6Common5ios1610ConstExprs10LutToDenseD0Ev,
                            __ZN3MIL9Operators6Common5ios1610ConstExprs10LutToDenseD1Ev,
                            __ZN3MIL9Operators6Common5ios1610ConstExprs10LutToDenseD2Ev,
                            __ZN3MIL9Operators6Common5ios1610ConstExprs13SparseToDenseC1EPKNS_17IRTensorValueTypeENSt3__110shared_ptrIKNS_13IRTensorValueEEESC_,
                            __ZN3MIL9Operators6Common5ios1610ConstExprs13SparseToDenseC2EPKNS_17IRTensorValueTypeENSt3__110shared_ptrIKNS_13IRTensorValueEEESC_,
                            __ZN3MIL9Operators6Common5ios1610ConstExprs13SparseToDenseD0Ev,
                            __ZN3MIL9Operators6Common5ios1610ConstExprs13SparseToDenseD1Ev,
                            __ZN3MIL9Operators6Common5ios1610ConstExprs13SparseToDenseD2Ev,
                            __ZN3MIL9Operators6Common5ios1610ConstExprs16AffineDequantizeC1EPKNS_17IRTensorValueTypeENSt3__110shared_ptrIKNS_13IRTensorValueEEESC_SC_m,
                            __ZN3MIL9Operators6Common5ios1610ConstExprs16AffineDequantizeC2EPKNS_17IRTensorValueTypeENSt3__110shared_ptrIKNS_13IRTensorValueEEESC_SC_m,
                            __ZN3MIL9Operators6Common5ios1610ConstExprs16AffineDequantizeD0Ev,
                            __ZN3MIL9Operators6Common5ios1610ConstExprs16AffineDequantizeD1Ev,
                            __ZN3MIL9Operators6Common5ios1610ConstExprs16AffineDequantizeD2Ev,
                            __ZN3MIL9Operators6Common5ios1610ConstExprs4CastC1EPKNS_17IRTensorValueTypeENSt3__110shared_ptrIKNS_13IRTensorValueEEE,
                            __ZN3MIL9Operators6Common5ios1610ConstExprs4CastC2EPKNS_17IRTensorValueTypeENSt3__110shared_ptrIKNS_13IRTensorValueEEE,
                            __ZN3MIL9Operators6Common5ios1610ConstExprs4CastD0Ev,
                            __ZN3MIL9Operators6Common5ios1610ConstExprs4CastD1Ev,
                            __ZN3MIL9Operators6Common5ios1610ConstExprs4CastD2Ev,
                            __ZN3MIL9Operators6Common5ios1610CropResize4MakeERNS_10MILContextENSt3__112basic_stringIcNS6_11char_traitsIcEENS6_9allocatorIcEEEE,
                            __ZN3MIL9Operators6Common5ios1610LogicalAnd4MakeERNS_10MILContextENSt3__112basic_stringIcNS6_11char_traitsIcEENS6_9allocatorIcEEEE,
                            __ZN3MIL9Operators6Common5ios1610LogicalNot4MakeERNS_10MILContextENSt3__112basic_stringIcNS6_11char_traitsIcEENS6_9allocatorIcEEEE,
                            __ZN3MIL9Operators6Common5ios1610LogicalXor4MakeERNS_10MILContextENSt3__112basic_stringIcNS6_11char_traitsIcEENS6_9allocatorIcEEEE,
                            __ZN3MIL9Operators6Common5ios1610ReduceMean4MakeERNS_10MILContextENSt3__112basic_stringIcNS6_11char_traitsIcEENS6_9allocatorIcEEEE,
                            __ZN3MIL9Operators6Common5ios1610ReduceProd4MakeERNS_10MILContextENSt3__112basic_stringIcNS6_11char_traitsIcEENS6_9allocatorIcEEEE,
                            __ZN3MIL9Operators6Common5ios1610ScaledTanh4MakeERNS_10MILContextENSt3__112basic_stringIcNS6_11char_traitsIcEENS6_9allocatorIcEEEE,
                            __ZN3MIL9Operators6Common5ios1611BaseAvgPool4MakeERNS_10MILContextENSt3__112basic_stringIcNS6_11char_traitsIcEENS6_9allocatorIcEEEENS6_8functionIFNS_16ValidationResultERKNS_11IROperationEEEE,
                            __ZN3MIL9Operators6Common5ios1611BaseScatter4MakeERNS_10MILContextENSt3__112basic_stringIcNS6_11char_traitsIcEENS6_9allocatorIcEEEENS6_8functionIFNS_16ValidationResultERKNS_11IROperationEEEE,
                            __ZN3MIL9Operators6Common5ios1611ClampedReLU4MakeERNS_10MILContextENSt3__112basic_stringIcNS6_11char_traitsIcEENS6_9allocatorIcEEEE,
                            __ZN3MIL9Operators6Common5ios1611ReshapeLike4MakeERNS_10MILContextENSt3__112basic_stringIcNS6_11char_traitsIcEENS6_9allocatorIcEEEE,
                            __ZN3MIL9Operators6Common5ios1611SigmoidHard4MakeERNS_10MILContextENSt3__112basic_stringIcNS6_11char_traitsIcEENS6_9allocatorIcEEEE,
                            __ZN3MIL9Operators6Common5ios1612GreaterEqual4MakeERNS_10MILContextENSt3__112basic_stringIcNS6_11char_traitsIcEENS6_9allocatorIcEEEE,
                            __ZN3MIL9Operators6Common5ios1612InstanceNorm4MakeERNS_10MILContextENSt3__112basic_stringIcNS6_11char_traitsIcEENS6_9allocatorIcEEEE,
                            __ZN3MIL9Operators6Common5ios1612RandomNormal4MakeERNS_10MILContextENSt3__112basic_stringIcNS6_11char_traitsIcEENS6_9allocatorIcEEEE,
                            __ZN3MIL9Operators6Common5ios1612ReduceArgmax4MakeERNS_10MILContextENSt3__112basic_stringIcNS6_11char_traitsIcEENS6_9allocatorIcEEEE,
                            __ZN3MIL9Operators6Common5ios1612ReduceArgmin4MakeERNS_10MILContextENSt3__112basic_stringIcNS6_11char_traitsIcEENS6_9allocatorIcEEEE,
                            __ZN3MIL9Operators6Common5ios1612ReduceL1Norm4MakeERNS_10MILContextENSt3__112basic_stringIcNS6_11char_traitsIcEENS6_9allocatorIcEEEE,
                            __ZN3MIL9Operators6Common5ios1612ReduceL2Norm4MakeERNS_10MILContextENSt3__112basic_stringIcNS6_11char_traitsIcEENS6_9allocatorIcEEEE,
                            __ZN3MIL9Operators6Common5ios1612ReduceLogSum4MakeERNS_10MILContextENSt3__112basic_stringIcNS6_11char_traitsIcEENS6_9allocatorIcEEEE,
                            __ZN3MIL9Operators6Common5ios1613BaseReduction4MakeERNS_10MILContextENSt3__112basic_stringIcNS6_11char_traitsIcEENS6_9allocatorIcEEEENS6_8functionIFNS_16ValidationResultERKNS_11IROperationEEEE,
                            __ZN3MIL9Operators6Common5ios1613ConstexprCast4MakeERNS_10MILContextENSt3__112basic_stringIcNS6_11char_traitsIcEENS6_9allocatorIcEEEE,
                            __ZN3MIL9Operators6Common5ios1613ConvTranspose4MakeERNS_10MILContextENSt3__112basic_stringIcNS6_11char_traitsIcEENS6_9allocatorIcEEEE,
                            __ZN3MIL9Operators6Common5ios1613RandomUniform4MakeERNS_10MILContextENSt3__112basic_stringIcNS6_11char_traitsIcEENS6_9allocatorIcEEEE,
                            __ZN3MIL9Operators6Common5ios1614BaseActivation4MakeERNS_10MILContextENSt3__112basic_stringIcNS6_11char_traitsIcEENS6_9allocatorIcEEEENS6_8functionIFNS_16ValidationResultERKNS_11IROperationEEEE,
                            __ZN3MIL9Operators6Common5ios1614PixelUnshuffle4MakeERNS_10MILContextENSt3__112basic_stringIcNS6_11char_traitsIcEENS6_9allocatorIcEEEE,
                            __ZN3MIL9Operators6Common5ios1614ResizeBilinear4MakeERNS_10MILContextENSt3__112basic_stringIcNS6_11char_traitsIcEENS6_9allocatorIcEEEE,
                            __ZN3MIL9Operators6Common5ios1615GatherAlongAxis4MakeERNS_10MILContextENSt3__112basic_stringIcNS6_11char_traitsIcEENS6_9allocatorIcEEEE,
                            __ZN3MIL9Operators6Common5ios1615RandomBernoulli4MakeERNS_10MILContextENSt3__112basic_stringIcNS6_11char_traitsIcEENS6_9allocatorIcEEEE,
                            __ZN3MIL9Operators6Common5ios1615ReduceLogSumExp4MakeERNS_10MILContextENSt3__112basic_stringIcNS6_11char_traitsIcEENS6_9allocatorIcEEEE,
                            __ZN3MIL9Operators6Common5ios1615ReduceSumSquare4MakeERNS_10MILContextENSt3__112basic_stringIcNS6_11char_traitsIcEENS6_9allocatorIcEEEE,
                            __ZN3MIL9Operators6Common5ios1615ThresholdedReLU4MakeERNS_10MILContextENSt3__112basic_stringIcNS6_11char_traitsIcEENS6_9allocatorIcEEEE,
                            __ZN3MIL9Operators6Common5ios1616BaseArgReduction4MakeERNS_10MILContextENSt3__112basic_stringIcNS6_11char_traitsIcEENS6_9allocatorIcEEEENS6_8functionIFNS_16ValidationResultERKNS_11IROperationEEEE,
                            __ZN3MIL9Operators6Common5ios1616ElementwiseUnary4MakeERNS_10MILContextENSt3__112basic_stringIcNS6_11char_traitsIcEENS6_9allocatorIcEEEENS6_8functionIFNS_16ValidationResultERKNS_11IROperationEEEE,
                            __ZN3MIL9Operators6Common5ios1616LinearActivation4MakeERNS_10MILContextENSt3__112basic_stringIcNS6_11char_traitsIcEENS6_9allocatorIcEEEE,
                            __ZN3MIL9Operators6Common5ios1616ScatterAlongAxis4MakeERNS_10MILContextENSt3__112basic_stringIcNS6_11char_traitsIcEENS6_9allocatorIcEEEE,
                            __ZN3MIL9Operators6Common5ios1616UpsampleBilinear4MakeERNS_10MILContextENSt3__112basic_stringIcNS6_11char_traitsIcEENS6_9allocatorIcEEEE,
                            __ZN3MIL9Operators6Common5ios1617ElementwiseBinary4MakeERNS_10MILContextENSt3__112basic_stringIcNS6_11char_traitsIcEENS6_9allocatorIcEEEENS6_8functionIFNS_16ValidationResultERKNS_11IROperationEEEE,
                            __ZN3MIL9Operators6Common5ios1617LocalResponseNorm4MakeERNS_10MILContextENSt3__112basic_stringIcNS6_11char_traitsIcEENS6_9allocatorIcEEEE,
                            __ZN3MIL9Operators6Common5ios1617RandomCategorical4MakeERNS_10MILContextENSt3__112basic_stringIcNS6_11char_traitsIcEENS6_9allocatorIcEEEE,
                            __ZN3MIL9Operators6Common5ios1618BaseGatherWithAxis4MakeERNS_10MILContextENSt3__112basic_stringIcNS6_11char_traitsIcEENS6_9allocatorIcEEEENS6_8functionIFNS_16ValidationResultERKNS_11IROperationEEEE,
                            __ZN3MIL9Operators6Common5ios1618SoftplusParametric4MakeERNS_10MILContextENSt3__112basic_stringIcNS6_11char_traitsIcEENS6_9allocatorIcEEEE,
                            __ZN3MIL9Operators6Common5ios1619BaseScatterWithAxis4MakeERNS_10MILContextENSt3__112basic_stringIcNS6_11char_traitsIcEENS6_9allocatorIcEEEENS6_8functionIFNS_16ValidationResultERKNS_11IROperationEEEE,
                            __ZN3MIL9Operators6Common5ios1619ConstexprLutToDense4MakeERNS_10MILContextENSt3__112basic_stringIcNS6_11char_traitsIcEENS6_9allocatorIcEEEE,
                            __ZN3MIL9Operators6Common5ios1621NonMaximumSuppression4MakeERNS_10MILContextENSt3__112basic_stringIcNS6_11char_traitsIcEENS6_9allocatorIcEEEE,
                            __ZN3MIL9Operators6Common5ios1622ConstexprSparseToDense4MakeERNS_10MILContextENSt3__112basic_stringIcNS6_11char_traitsIcEENS6_9allocatorIcEEEE,
                            __ZN3MIL9Operators6Common5ios1623BaseActivationWithAlpha4MakeERNS_10MILContextENSt3__112basic_stringIcNS6_11char_traitsIcEENS6_9allocatorIcEEEENS6_8functionIFNS_16ValidationResultERKNS_11IROperationEEEE,
                            __ZN3MIL9Operators6Common5ios1623ElementwiseUnaryWithInt4MakeERNS_10MILContextENSt3__112basic_stringIcNS6_11char_traitsIcEENS6_9allocatorIcEEEENS6_8functionIFNS_16ValidationResultERKNS_11IROperationEEEE,
                            __ZN3MIL9Operators6Common5ios1624ElementwiseBinaryLogical4MakeERNS_10MILContextENSt3__112basic_stringIcNS6_11char_traitsIcEENS6_9allocatorIcEEEENS6_8functionIFNS_16ValidationResultERKNS_11IROperationEEEE,
                            __ZN3MIL9Operators6Common5ios1625ConstexprAffineDequantize4MakeERNS_10MILContextENSt3__112basic_stringIcNS6_11char_traitsIcEENS6_9allocatorIcEEEE,
                            __ZN3MIL9Operators6Common5ios1627BaseActivationWithAlphaBeta4MakeERNS_10MILContextENSt3__112basic_stringIcNS6_11char_traitsIcEENS6_9allocatorIcEEEENS6_8functionIFNS_16ValidationResultERKNS_11IROperationEEEE,
                            __ZN3MIL9Operators6Common5ios1627ElementwiseBinaryBoolOutput4MakeERNS_10MILContextENSt3__112basic_stringIcNS6_11char_traitsIcEENS6_9allocatorIcEEEENS6_8functionIFNS_16ValidationResultERKNS_11IROperationEEEE,
                            __ZN3MIL9Operators6Common5ios1627ElementwiseUnaryWithEpsilon4MakeERNS_10MILContextENSt3__112basic_stringIcNS6_11char_traitsIcEENS6_9allocatorIcEEEENS6_8functionIFNS_16ValidationResultERKNS_11IROperationEEEE,
                            __ZN3MIL9Operators6Common5ios163Abs4MakeERNS_10MILContextENSt3__112basic_stringIcNS6_11char_traitsIcEENS6_9allocatorIcEEEE,
                            __ZN3MIL9Operators6Common5ios163Add4MakeERNS_10MILContextENSt3__112basic_stringIcNS6_11char_traitsIcEENS6_9allocatorIcEEEE,
                            __ZN3MIL9Operators6Common5ios163Cos4MakeERNS_10MILContextENSt3__112basic_stringIcNS6_11char_traitsIcEENS6_9allocatorIcEEEE,
                            __ZN3MIL9Operators6Common5ios163ELU4MakeERNS_10MILContextENSt3__112basic_stringIcNS6_11char_traitsIcEENS6_9allocatorIcEEEE,
                            __ZN3MIL9Operators6Common5ios163ERF4MakeERNS_10MILContextENSt3__112basic_stringIcNS6_11char_traitsIcEENS6_9allocatorIcEEEE,
                            __ZN3MIL9Operators6Common5ios163Exp4MakeERNS_10MILContextENSt3__112basic_stringIcNS6_11char_traitsIcEENS6_9allocatorIcEEEE,
                            __ZN3MIL9Operators6Common5ios163GRU4MakeERNS_10MILContextENSt3__112basic_stringIcNS6_11char_traitsIcEENS6_9allocatorIcEEEE,
                            __ZN3MIL9Operators6Common5ios163Log4MakeERNS_10MILContextENSt3__112basic_stringIcNS6_11char_traitsIcEENS6_9allocatorIcEEEE,
                            __ZN3MIL9Operators6Common5ios163Mod4MakeERNS_10MILContextENSt3__112basic_stringIcNS6_11char_traitsIcEENS6_9allocatorIcEEEE,
                            __ZN3MIL9Operators6Common5ios163Mul4MakeERNS_10MILContextENSt3__112basic_stringIcNS6_11char_traitsIcEENS6_9allocatorIcEEEE,
                            __ZN3MIL9Operators6Common5ios163Pow4MakeERNS_10MILContextENSt3__112basic_stringIcNS6_11char_traitsIcEENS6_9allocatorIcEEEE,
                            __ZN3MIL9Operators6Common5ios163RNN4MakeERNS_10MILContextENSt3__112basic_stringIcNS6_11char_traitsIcEENS6_9allocatorIcEEEE,
                            __ZN3MIL9Operators6Common5ios163Sin4MakeERNS_10MILContextENSt3__112basic_stringIcNS6_11char_traitsIcEENS6_9allocatorIcEEEE,
                            __ZN3MIL9Operators6Common5ios163Sub4MakeERNS_10MILContextENSt3__112basic_stringIcNS6_11char_traitsIcEENS6_9allocatorIcEEEE,
                            __ZN3MIL9Operators6Common5ios163Tan4MakeERNS_10MILContextENSt3__112basic_stringIcNS6_11char_traitsIcEENS6_9allocatorIcEEEE,
                            __ZN3MIL9Operators6Common5ios164Acos4MakeERNS_10MILContextENSt3__112basic_stringIcNS6_11char_traitsIcEENS6_9allocatorIcEEEE,
                            __ZN3MIL9Operators6Common5ios164Asin4MakeERNS_10MILContextENSt3__112basic_stringIcNS6_11char_traitsIcEENS6_9allocatorIcEEEE,
                            __ZN3MIL9Operators6Common5ios164Atan4MakeERNS_10MILContextENSt3__112basic_stringIcNS6_11char_traitsIcEENS6_9allocatorIcEEEE,
                            __ZN3MIL9Operators6Common5ios164Call4MakeERNS_10MILContextENSt3__112basic_stringIcNS6_11char_traitsIcEENS6_9allocatorIcEEEE,
                            __ZN3MIL9Operators6Common5ios164Cast4MakeERNS_10MILContextENSt3__112basic_stringIcNS6_11char_traitsIcEENS6_9allocatorIcEEEE,
                            __ZN3MIL9Operators6Common5ios164Ceil4MakeERNS_10MILContextENSt3__112basic_stringIcNS6_11char_traitsIcEENS6_9allocatorIcEEEE,
                            __ZN3MIL9Operators6Common5ios164Clip4MakeERNS_10MILContextENSt3__112basic_stringIcNS6_11char_traitsIcEENS6_9allocatorIcEEEE,
                            __ZN3MIL9Operators6Common5ios164Conv4MakeERNS_10MILContextENSt3__112basic_stringIcNS6_11char_traitsIcEENS6_9allocatorIcEEEE,
                            __ZN3MIL9Operators6Common5ios164Cosh4MakeERNS_10MILContextENSt3__112basic_stringIcNS6_11char_traitsIcEENS6_9allocatorIcEEEE,
                            __ZN3MIL9Operators6Common5ios164Exp24MakeERNS_10MILContextENSt3__112basic_stringIcNS6_11char_traitsIcEENS6_9allocatorIcEEEE,
                            __ZN3MIL9Operators6Common5ios164GeLU4MakeERNS_10MILContextENSt3__112basic_stringIcNS6_11char_traitsIcEENS6_9allocatorIcEEEE,
                            __ZN3MIL9Operators6Common5ios164LSTM4MakeERNS_10MILContextENSt3__112basic_stringIcNS6_11char_traitsIcEENS6_9allocatorIcEEEE,
                            __ZN3MIL9Operators6Common5ios164Less4MakeERNS_10MILContextENSt3__112basic_stringIcNS6_11char_traitsIcEENS6_9allocatorIcEEEE,
                            __ZN3MIL9Operators6Common5ios164ReLU4MakeERNS_10MILContextENSt3__112basic_stringIcNS6_11char_traitsIcEENS6_9allocatorIcEEEE,
                            __ZN3MIL9Operators6Common5ios164SiLU4MakeERNS_10MILContextENSt3__112basic_stringIcNS6_11char_traitsIcEENS6_9allocatorIcEEEE,
                            __ZN3MIL9Operators6Common5ios164Sign4MakeERNS_10MILContextENSt3__112basic_stringIcNS6_11char_traitsIcEENS6_9allocatorIcEEEE,
                            __ZN3MIL9Operators6Common5ios164Sinh4MakeERNS_10MILContextENSt3__112basic_stringIcNS6_11char_traitsIcEENS6_9allocatorIcEEEE,
                            __ZN3MIL9Operators6Common5ios164Sqrt4MakeERNS_10MILContextENSt3__112basic_stringIcNS6_11char_traitsIcEENS6_9allocatorIcEEEE,
                            __ZN3MIL9Operators6Common5ios164Tanh4MakeERNS_10MILContextENSt3__112basic_stringIcNS6_11char_traitsIcEENS6_9allocatorIcEEEE,
                            __ZN3MIL9Operators6Common5ios164Topk4MakeERNS_10MILContextENSt3__112basic_stringIcNS6_11char_traitsIcEENS6_9allocatorIcEEEE,
                            __ZN3MIL9Operators6Common5ios165Acosh4MakeERNS_10MILContextENSt3__112basic_stringIcNS6_11char_traitsIcEENS6_9allocatorIcEEEE,
                            __ZN3MIL9Operators6Common5ios165Asinh4MakeERNS_10MILContextENSt3__112basic_stringIcNS6_11char_traitsIcEENS6_9allocatorIcEEEE,
                            __ZN3MIL9Operators6Common5ios165Atanh4MakeERNS_10MILContextENSt3__112basic_stringIcNS6_11char_traitsIcEENS6_9allocatorIcEEEE,
                            __ZN3MIL9Operators6Common5ios165Equal4MakeERNS_10MILContextENSt3__112basic_stringIcNS6_11char_traitsIcEENS6_9allocatorIcEEEE,
                            __ZN3MIL9Operators6Common5ios165Floor4MakeERNS_10MILContextENSt3__112basic_stringIcNS6_11char_traitsIcEENS6_9allocatorIcEEEE,
                            __ZN3MIL9Operators6Common5ios165PReLU4MakeERNS_10MILContextENSt3__112basic_stringIcNS6_11char_traitsIcEENS6_9allocatorIcEEEE,
                            __ZN3MIL9Operators6Common5ios165ReLU64MakeERNS_10MILContextENSt3__112basic_stringIcNS6_11char_traitsIcEENS6_9allocatorIcEEEE,
                            __ZN3MIL9Operators6Common5ios165Round4MakeERNS_10MILContextENSt3__112basic_stringIcNS6_11char_traitsIcEENS6_9allocatorIcEEEE,
                            __ZN3MIL9Operators6Common5ios165Rsqrt4MakeERNS_10MILContextENSt3__112basic_stringIcNS6_11char_traitsIcEENS6_9allocatorIcEEEE,
                            __ZN3MIL9Operators6Common5ios166Affine4MakeERNS_10MILContextENSt3__112basic_stringIcNS6_11char_traitsIcEENS6_9allocatorIcEEEE,
                            __ZN3MIL9Operators6Common5ios166Cumsum4MakeERNS_10MILContextENSt3__112basic_stringIcNS6_11char_traitsIcEENS6_9allocatorIcEEEE,
                            __ZN3MIL9Operators6Common5ios166Einsum4MakeERNS_10MILContextENSt3__112basic_stringIcNS6_11char_traitsIcEENS6_9allocatorIcEEEE,
                            __ZN3MIL9Operators6Common5ios166Gather4MakeERNS_10MILContextENSt3__112basic_stringIcNS6_11char_traitsIcEENS6_9allocatorIcEEEE,
                            __ZN3MIL9Operators6Common5ios166L2Norm4MakeERNS_10MILContextENSt3__112basic_stringIcNS6_11char_traitsIcEENS6_9allocatorIcEEEE,
                            __ZN3MIL9Operators6Common5ios166L2Pool4MakeERNS_10MILContextENSt3__112basic_stringIcNS6_11char_traitsIcEENS6_9allocatorIcEEEE,
                            __ZN3MIL9Operators6Common5ios166Linear4MakeERNS_10MILContextENSt3__112basic_stringIcNS6_11char_traitsIcEENS6_9allocatorIcEEEE,
                            __ZN3MIL9Operators6Common5ios166MatMul4MakeERNS_10MILContextENSt3__112basic_stringIcNS6_11char_traitsIcEENS6_9allocatorIcEEEE,
                            __ZN3MIL9Operators6Common5ios166Square4MakeERNS_10MILContextENSt3__112basic_stringIcNS6_11char_traitsIcEENS6_9allocatorIcEEEE,
                            __ZN3MIL9Operators6Common5ios167AvgPool4MakeERNS_10MILContextENSt3__112basic_stringIcNS6_11char_traitsIcEENS6_9allocatorIcEEEE,
                            __ZN3MIL9Operators6Common5ios167Greater4MakeERNS_10MILContextENSt3__112basic_stringIcNS6_11char_traitsIcEENS6_9allocatorIcEEEE,
                            __ZN3MIL9Operators6Common5ios167Inverse4MakeERNS_10MILContextENSt3__112basic_stringIcNS6_11char_traitsIcEENS6_9allocatorIcEEEE,
                            __ZN3MIL9Operators6Common5ios167MaxPool4MakeERNS_10MILContextENSt3__112basic_stringIcNS6_11char_traitsIcEENS6_9allocatorIcEEEE,
                            __ZN3MIL9Operators6Common5ios167Maximum4MakeERNS_10MILContextENSt3__112basic_stringIcNS6_11char_traitsIcEENS6_9allocatorIcEEEE,
                            __ZN3MIL9Operators6Common5ios167Minimum4MakeERNS_10MILContextENSt3__112basic_stringIcNS6_11char_traitsIcEENS6_9allocatorIcEEEE,
                            __ZN3MIL9Operators6Common5ios167RealDiv4MakeERNS_10MILContextENSt3__112basic_stringIcNS6_11char_traitsIcEENS6_9allocatorIcEEEE,
                            __ZN3MIL9Operators6Common5ios167Reshape4MakeERNS_10MILContextENSt3__112basic_stringIcNS6_11char_traitsIcEENS6_9allocatorIcEEEE,
                            __ZN3MIL9Operators6Common5ios167Scatter4MakeERNS_10MILContextENSt3__112basic_stringIcNS6_11char_traitsIcEENS6_9allocatorIcEEEE,
                            __ZN3MIL9Operators6Common5ios167Sigmoid4MakeERNS_10MILContextENSt3__112basic_stringIcNS6_11char_traitsIcEENS6_9allocatorIcEEEE,
                            __ZN3MIL9Operators6Common5ios167Softmax4MakeERNS_10MILContextENSt3__112basic_stringIcNS6_11char_traitsIcEENS6_9allocatorIcEEEE,
                            __ZN3MIL9Operators6Common5ios168BasePool4MakeERNS_10MILContextENSt3__112basic_stringIcNS6_11char_traitsIcEENS6_9allocatorIcEEEENS6_8functionIFNS_16ValidationResultERKNS_11IROperationEEEE,
                            __ZN3MIL9Operators6Common5ios168FillLike4MakeERNS_10MILContextENSt3__112basic_stringIcNS6_11char_traitsIcEENS6_9allocatorIcEEEE,
                            __ZN3MIL9Operators6Common5ios168FloorDiv4MakeERNS_10MILContextENSt3__112basic_stringIcNS6_11char_traitsIcEENS6_9allocatorIcEEEE,
                            __ZN3MIL9Operators6Common5ios168GatherNd4MakeERNS_10MILContextENSt3__112basic_stringIcNS6_11char_traitsIcEENS6_9allocatorIcEEEE,
                            __ZN3MIL9Operators6Common5ios168NotEqual4MakeERNS_10MILContextENSt3__112basic_stringIcNS6_11char_traitsIcEENS6_9allocatorIcEEEE,
                            __ZN3MIL9Operators6Common5ios168Resample4MakeERNS_10MILContextENSt3__112basic_stringIcNS6_11char_traitsIcEENS6_9allocatorIcEEEE,
                            __ZN3MIL9Operators6Common5ios168Softplus4MakeERNS_10MILContextENSt3__112basic_stringIcNS6_11char_traitsIcEENS6_9allocatorIcEEEE,
                            __ZN3MIL9Operators6Common5ios168Softsign4MakeERNS_10MILContextENSt3__112basic_stringIcNS6_11char_traitsIcEENS6_9allocatorIcEEEE,
                            __ZN3MIL9Operators6Common5ios169BatchNorm4MakeERNS_10MILContextENSt3__112basic_stringIcNS6_11char_traitsIcEENS6_9allocatorIcEEEE,
                            __ZN3MIL9Operators6Common5ios169LayerNorm4MakeERNS_10MILContextENSt3__112basic_stringIcNS6_11char_traitsIcEENS6_9allocatorIcEEEE,
                            __ZN3MIL9Operators6Common5ios169LeakyReLU4MakeERNS_10MILContextENSt3__112basic_stringIcNS6_11char_traitsIcEENS6_9allocatorIcEEEE,
                            __ZN3MIL9Operators6Common5ios169LessEqual4MakeERNS_10MILContextENSt3__112basic_stringIcNS6_11char_traitsIcEENS6_9allocatorIcEEEE,
                            __ZN3MIL9Operators6Common5ios169LogicalOr4MakeERNS_10MILContextENSt3__112basic_stringIcNS6_11char_traitsIcEENS6_9allocatorIcEEEE,
                            __ZN3MIL9Operators6Common5ios169ReduceMax4MakeERNS_10MILContextENSt3__112basic_stringIcNS6_11char_traitsIcEENS6_9allocatorIcEEEE,
                            __ZN3MIL9Operators6Common5ios169ReduceMin4MakeERNS_10MILContextENSt3__112basic_stringIcNS6_11char_traitsIcEENS6_9allocatorIcEEEE,
                            __ZN3MIL9Operators6Common5ios169ReduceSum4MakeERNS_10MILContextENSt3__112basic_stringIcNS6_11char_traitsIcEENS6_9allocatorIcEEEE,
                            __ZN3MIL9Operators6Common5ios169ScatterNd4MakeERNS_10MILContextENSt3__112basic_stringIcNS6_11char_traitsIcEENS6_9allocatorIcEEEE,
                            __ZN3MIL9Operators6Common5ios169Threshold4MakeERNS_10MILContextENSt3__112basic_stringIcNS6_11char_traitsIcEENS6_9allocatorIcEEEE,
                            __ZN3MIL9Transform12MatchContext11RejectMatchEv,
                            __ZN3MIL9Transform12MatchContext12AddOperationEPKcNS_4Util4SpanIKNSt3__14pairIS3_NS0_19ArgumentDescriptionEEELm18446744073709551615EEE,
                            __ZN3MIL9Transform12MatchContext12AddOperationEPKcOSt16initializer_listINSt3__14pairIS3_NS0_19ArgumentDescriptionEEEE,
                            __ZN3MIL9Transform12MatchContext12AddOperationERKNS_8Matching9MatchViewENS_4Util4SpanIKNS0_15OperationChangeELm18446744073709551615EEE,
                            __ZN3MIL9Transform12MatchContext12AddOperationERKNS_8Matching9MatchViewEOSt16initializer_listINS0_15OperationChangeEE,
                            __ZN3MIL9Transform12MatchContext23AddMultiOutputOperationEPKcmNS_4Util4SpanIKNSt3__14pairIS3_NS0_19ArgumentDescriptionEEELm18446744073709551615EEE,
                            __ZN3MIL9Transform12MatchContext23AddMultiOutputOperationEPKcmOSt16initializer_listINSt3__14pairIS3_NS0_19ArgumentDescriptionEEEE,
                            __ZN3MIL9Transform12MatchContext23AddMultiOutputOperationERKNS_8Matching9MatchViewENS_4Util4SpanIKNS0_15OperationChangeELm18446744073709551615EEE,
                            __ZN3MIL9Transform12MatchContext23AddMultiOutputOperationERKNS_8Matching9MatchViewEOSt16initializer_listINS0_15OperationChangeEE,
                            __ZN3MIL9Transform12MatchContext9MapOutputERKNS0_18NewOperationOutputERKNS_8Matching10OutputViewE,
                            __ZN3MIL9Transform14ChangeArgumentEPKcmONS0_19ArgumentDescriptionE,
                            __ZN3MIL9Transform14ChangeOperatorEONSt3__112basic_stringIcNS1_11char_traitsIcEENS1_9allocatorIcEEEE,
                            __ZN3MIL9Transform14ChangeOperatorEPKc,
                            __ZN3MIL9Transform15OperationChangeC1EOS1_,
                            __ZN3MIL9Transform15OperationChangeC1ERKS1_,
                            __ZN3MIL9Transform15OperationChangeC2EOS1_,
                            __ZN3MIL9Transform15OperationChangeC2ERKS1_,
                            __ZN3MIL9Transform15OperationChangeD1Ev,
                            __ZN3MIL9Transform15OperationChangeD2Ev,
                            __ZN3MIL9Transform15OperationChangeaSEOS1_,
                            __ZN3MIL9Transform15OperationChangeaSERKS1_,
                            __ZN3MIL9Transform15ReplaceArgumentEPKcONS0_19ArgumentDescriptionE,
                            __ZN3MIL9Transform16ReplaceArgumentsEPKcONSt3__16vectorINS0_19ArgumentDescriptionENS3_9allocatorIS5_EEEE,
                            __ZN3MIL9Transform18NewOperationOutputC1EOS1_,
                            __ZN3MIL9Transform18NewOperationOutputC1ERKS1_,
                            __ZN3MIL9Transform18NewOperationOutputC2EOS1_,
                            __ZN3MIL9Transform18NewOperationOutputC2ERKS1_,
                            __ZN3MIL9Transform18NewOperationOutputD1Ev,
                            __ZN3MIL9Transform18NewOperationOutputD2Ev,
                            __ZN3MIL9Transform18NewOperationOutputaSEOS1_,
                            __ZN3MIL9Transform18NewOperationOutputaSERKS1_,
                            __ZN3MIL9Transform18ProgramTransformer15MatchAndReplaceERKNS_8Matching15CompiledPatternERKNSt3__18functionIFvRNS0_12MatchContextENS2_9MatchViewEEEE,
                            __ZN3MIL9Transform18ProgramTransformer15MatchAndReplaceERKNS_8Matching7PatternERKNSt3__18functionIFvRNS0_12MatchContextENS2_9MatchViewEEEE,
                            __ZN3MIL9Transform18ProgramTransformer17ExtractSubProgramERKNSt3__16vectorINS2_12basic_stringIcNS2_11char_traitsIcEENS2_9allocatorIcEEEENS7_IS9_EEEESD_RKS9_,
                            __ZN3MIL9Transform18ProgramTransformer18EliminateDeadNodesEv,
                            __ZN3MIL9Transform18ProgramTransformerC1ERKNS_9IRProgramE,
                            __ZN3MIL9Transform18ProgramTransformerC2ERKNS_9IRProgramE,
                            __ZN3MIL9Transform18ProgramTransformerD1Ev,
                            __ZN3MIL9Transform18ProgramTransformerD2Ev,
                            __ZN3MIL9Transform19ArgumentDescriptionC1ENS_4Fp16E,
                            __ZN3MIL9Transform19ArgumentDescriptionC1ENSt3__110shared_ptrIKNS_7IRValueEEE,
                            __ZN3MIL9Transform19ArgumentDescriptionC1EONSt3__112basic_stringIcNS2_11char_traitsIcEENS2_9allocatorIcEEEE,
                            __ZN3MIL9Transform19ArgumentDescriptionC1EOS1_,
                            __ZN3MIL9Transform19ArgumentDescriptionC1EPKc,
                            __ZN3MIL9Transform19ArgumentDescriptionC1ERKNS0_18NewOperationOutputE,
                            __ZN3MIL9Transform19ArgumentDescriptionC1ERKNS_8Matching10OutputViewE,
                            __ZN3MIL9Transform19ArgumentDescriptionC1ERKNS_8Matching12ArgumentViewE,
                            __ZN3MIL9Transform19ArgumentDescriptionC1ERKNSt3__112basic_stringIcNS2_11char_traitsIcEENS2_9allocatorIcEEEE,
                            __ZN3MIL9Transform19ArgumentDescriptionC1ERKS1_,
                            __ZN3MIL9Transform19ArgumentDescriptionC1Ea,
                            __ZN3MIL9Transform19ArgumentDescriptionC1Eb,
                            __ZN3MIL9Transform19ArgumentDescriptionC1Ed,
                            __ZN3MIL9Transform19ArgumentDescriptionC1Ef,
                            __ZN3MIL9Transform19ArgumentDescriptionC1Eh,
                            __ZN3MIL9Transform19ArgumentDescriptionC1Ei,
                            __ZN3MIL9Transform19ArgumentDescriptionC1Ej,
                            __ZN3MIL9Transform19ArgumentDescriptionC1Es,
                            __ZN3MIL9Transform19ArgumentDescriptionC1Et,
                            __ZN3MIL9Transform19ArgumentDescriptionC1Ex,
                            __ZN3MIL9Transform19ArgumentDescriptionC1Ey,
                            __ZN3MIL9Transform19ArgumentDescriptionC2ENS_4Fp16E,
                            __ZN3MIL9Transform19ArgumentDescriptionC2ENSt3__110shared_ptrIKNS_7IRValueEEE,
                            __ZN3MIL9Transform19ArgumentDescriptionC2EONSt3__112basic_stringIcNS2_11char_traitsIcEENS2_9allocatorIcEEEE,
                            __ZN3MIL9Transform19ArgumentDescriptionC2EOS1_,
                            __ZN3MIL9Transform19ArgumentDescriptionC2EPKc,
                            __ZN3MIL9Transform19ArgumentDescriptionC2ERKNS0_18NewOperationOutputE,
                            __ZN3MIL9Transform19ArgumentDescriptionC2ERKNS_8Matching10OutputViewE,
                            __ZN3MIL9Transform19ArgumentDescriptionC2ERKNS_8Matching12ArgumentViewE,
                            __ZN3MIL9Transform19ArgumentDescriptionC2ERKNSt3__112basic_stringIcNS2_11char_traitsIcEENS2_9allocatorIcEEEE,
                            __ZN3MIL9Transform19ArgumentDescriptionC2ERKS1_,
                            __ZN3MIL9Transform19ArgumentDescriptionC2Ea,
                            __ZN3MIL9Transform19ArgumentDescriptionC2Eb,
                            __ZN3MIL9Transform19ArgumentDescriptionC2Ed,
                            __ZN3MIL9Transform19ArgumentDescriptionC2Ef,
                            __ZN3MIL9Transform19ArgumentDescriptionC2Eh,
                            __ZN3MIL9Transform19ArgumentDescriptionC2Ei,
                            __ZN3MIL9Transform19ArgumentDescriptionC2Ej,
                            __ZN3MIL9Transform19ArgumentDescriptionC2Es,
                            __ZN3MIL9Transform19ArgumentDescriptionC2Et,
                            __ZN3MIL9Transform19ArgumentDescriptionC2Ex,
                            __ZN3MIL9Transform19ArgumentDescriptionC2Ey,
                            __ZN3MIL9Transform19ArgumentDescriptionD1Ev,
                            __ZN3MIL9Transform19ArgumentDescriptionD2Ev,
                            __ZN3MIL9Transform19ArgumentDescriptionaSEOS1_,
                            __ZN3MIL9Transform19ArgumentDescriptionaSERKS1_,
                            __ZN3MIL9Transform22NewOperationOutputListC1EOS1_,
                            __ZN3MIL9Transform22NewOperationOutputListC1ERKS1_,
                            __ZN3MIL9Transform22NewOperationOutputListC2EOS1_,
                            __ZN3MIL9Transform22NewOperationOutputListC2ERKS1_,
                            __ZN3MIL9Transform22NewOperationOutputListD1Ev,
                            __ZN3MIL9Transform22NewOperationOutputListD2Ev,
                            __ZN3MIL9Transform22NewOperationOutputListaSEOS1_,
                            __ZN3MIL9Transform22NewOperationOutputListaSERKS1_,
                            __ZN3MILeqERKNS_4EdgeES2_, __ZN3MILneERKNS_4EdgeES2_,
                            __ZNK3MIL10Attributes11IOAliasInfo15GetExternalNameERKNSt3__112basic_stringIcNS2_11char_traitsIcEENS2_9allocatorIcEEEE,
                            __ZNK3MIL10Attributes11IOAliasInfo15GetInternalNameERKNSt3__112basic_stringIcNS2_11char_traitsIcEENS2_9allocatorIcEEEE,
                            __ZNK3MIL10Attributes11IOAliasInfo18TryGetExternalNameERKNSt3__112basic_stringIcNS2_11char_traitsIcEENS2_9allocatorIcEEEE,
                            __ZNK3MIL10Attributes11IOAliasInfo18TryGetInternalNameERKNSt3__112basic_stringIcNS2_11char_traitsIcEENS2_9allocatorIcEEEE,
                            __ZNK3MIL10Attributes11IOAliasInfo26GetExternalToInternalNamesEv,
                            __ZNK3MIL10Attributes11IOAliasInfo26GetInternalToExternalNamesEv,
                            __ZNK3MIL10Attributes11IOAliasInfo7ReplaceERNS_10MILContextERNS_10IRFunctionE,
                            __ZNK3MIL10Attributes11IOAliasInfo7RewriteERNS_10MILContextERKNS_10IRFunctionE,
                            __ZNK3MIL10Attributes11IOAliasInfoeqERKS1_,
                            __ZNK3MIL10Attributes17FlexibleShapeInfo17TryGetRangeShapesEv,
                            __ZNK3MIL10Attributes17FlexibleShapeInfo19GetEnumeratedShapesEv,
                            __ZNK3MIL10Attributes17FlexibleShapeInfo19TryGetDefaultShapesEv,
                            __ZNK3MIL10Attributes17FlexibleShapeInfo7ReplaceERNS_10MILContextERNS_10IRFunctionE,
                            __ZNK3MIL10Attributes17FlexibleShapeInfo7RewriteERNS_10MILContextERKNS_10IRFunctionE,
                            __ZNK3MIL10Attributes17FlexibleShapeInfoeqERKS1_,
                            __ZNK3MIL10Attributes9BuildInfo10GetVersionENSt3__112basic_stringIcNS2_11char_traitsIcEENS2_9allocatorIcEEEE,
                            __ZNK3MIL10Attributes9BuildInfo12GetModelNameEv,
                            __ZNK3MIL10Attributes9BuildInfo12GetModelPathEv,
                            __ZNK3MIL10Attributes9BuildInfo12GetToolNamesEv,
                            __ZNK3MIL10Attributes9BuildInfo13GetModelOwnerEv,
                            __ZNK3MIL10Attributes9BuildInfo20GetComponentVersionsENSt3__112basic_stringIcNS2_11char_traitsIcEENS2_9allocatorIcEEEE,
                            __ZNK3MIL10Attributes9BuildInfo20GetPublicInformationEv,
                            __ZNK3MIL10Attributes9BuildInfo21GetPrivateInformationEv,
                            __ZNK3MIL10Attributes9BuildInfo26GetPublicCustomInformationENSt3__112basic_stringIcNS2_11char_traitsIcEENS2_9allocatorIcEEEE,
                            __ZNK3MIL10Attributes9BuildInfo27GetPrivateCustomInformationENSt3__112basic_stringIcNS2_11char_traitsIcEENS2_9allocatorIcEEEE,
                            __ZNK3MIL10Attributes9BuildInfo7ReplaceERNS_9IRProgramE,
                            __ZNK3MIL10Attributes9BuildInfo7RewriteERKNS_9IRProgramE,
                            __ZNK3MIL10IRArgument7GetNameEv,
                            __ZNK3MIL10IRArgument8GetValueEv,
                            __ZNK3MIL10IRArgument8ToStringEv,
                            __ZNK3MIL10IRFunction8ToStringEv,
                            __ZNK3MIL10MILContext8GetOpsetERKNSt3__112basic_stringIcNS1_11char_traitsIcEENS1_9allocatorIcEEEE,
                            __ZNK3MIL10ParseError14GetParseResultEv,
                            __ZNK3MIL10ParseError9GetReasonEv,
                            __ZNK3MIL10ParseError9GetResultEv,
                            __ZNK3MIL11IRDimension10AsConstantEv,
                            __ZNK3MIL11IRDimension10IsVariadicEv,
                            __ZNK3MIL11IRDimension12TryAsUnknownEv,
                            __ZNK3MIL11IRDimension13TryAsConstantEv,
                            __ZNK3MIL11IRDimension9AsUnknownEv,
                            __ZNK3MIL11IRListValue14GetElementTypeEv,
                            __ZNK3MIL11IRListValue6EqualsERKNS_7IRValueE,
                            __ZNK3MIL11IRListValue7GetHashEv,
                            __ZNK3MIL11IRListValue7GetTypeEv,
                            __ZNK3MIL11IRListValue8ToStringEv,
                            __ZNK3MIL11IRListValue9GetValuesEv,
                            __ZNK3MIL11IRListValue9TryAsListEv,
                            __ZNK3MIL11IROperation13GetOutputTypeEm,
                            __ZNK3MIL11IROperation14IsParameterSetERKNSt3__112basic_stringIcNS1_11char_traitsIcEENS1_9allocatorIcEEEE,
                            __ZNK3MIL11IROperation15GetArgumentNameERKNSt3__112basic_stringIcNS1_11char_traitsIcEENS1_9allocatorIcEEEEj,
                            __ZNK3MIL11IROperation16GetArgumentValueERKNSt3__112basic_stringIcNS1_11char_traitsIcEENS1_9allocatorIcEEEEj,
                            __ZNK3MIL11IROperation16GetParameterTypeERKNSt3__112basic_stringIcNS1_11char_traitsIcEENS1_9allocatorIcEEEEj,
                            __ZNK3MIL11IROperation16TryGetOutputTypeEm,
                            __ZNK3MIL11IROperation17GetParameterValueERKNSt3__112basic_stringIcNS1_11char_traitsIcEENS1_9allocatorIcEEEEj,
                            __ZNK3MIL11IROperation19TryGetParameterTypeERKNSt3__112basic_stringIcNS1_11char_traitsIcEENS1_9allocatorIcEEEEj,
                            __ZNK3MIL11IROperation20TryGetParameterValueERKNSt3__112basic_stringIcNS1_11char_traitsIcEENS1_9allocatorIcEEEEj,
                            __ZNK3MIL11IROperation29TryGetParameterValueSharedPtrERKNSt3__112basic_stringIcNS1_11char_traitsIcEENS1_9allocatorIcEEEEj,
                            __ZNK3MIL11IROperation8ToStringEv,
                            __ZNK3MIL11IRValueType10AsListTypeEv,
                            __ZNK3MIL11IRValueType11AsTupleTypeEv,
                            __ZNK3MIL11IRValueType12AsTensorTypeEv,
                            __ZNK3MIL11IRValueType13TryAsListTypeEv,
                            __ZNK3MIL11IRValueType14TryAsTupleTypeEv,
                            __ZNK3MIL11IRValueType15TryAsTensorTypeEv,
                            __ZNK3MIL11IRValueType16AsDictionaryTypeEv,
                            __ZNK3MIL11IRValueType19TryAsDictionaryTypeEv,
                            __ZNK3MIL11ParseResult6IsGoodEv,
                            __ZNK3MIL11ParseResult9GetReasonEv,
                            __ZNK3MIL12IRTupleValue10TryAsTupleEv,
                            __ZNK3MIL12IRTupleValue6EqualsERKNS_7IRValueE,
                            __ZNK3MIL12IRTupleValue7GetHashEv,
                            __ZNK3MIL12IRTupleValue7GetTypeEv,
                            __ZNK3MIL12IRTupleValue8ToStringEv,
                            __ZNK3MIL12IRTupleValue9GetValuesEv,
                            __ZNK3MIL12IRValueMapEqclERKNSt3__110shared_ptrIKNS_7IRValueEEES7_,
                            __ZNK3MIL13IRCachedScope10TryGetTypeERKNSt3__112basic_stringIcNS1_11char_traitsIcEENS1_9allocatorIcEEEEb,
                            __ZNK3MIL13IRCachedScope11TryGetValueERKNSt3__112basic_stringIcNS1_11char_traitsIcEENS1_9allocatorIcEEEEb,
                            __ZNK3MIL13IRCachedScope20TryGetValueSharedPtrERKNSt3__112basic_stringIcNS1_11char_traitsIcEENS1_9allocatorIcEEEEb,
                            __ZNK3MIL13IRCachedScope7GetTypeERKNSt3__112basic_stringIcNS1_11char_traitsIcEENS1_9allocatorIcEEEEb,
                            __ZNK3MIL13IRCachedScope8GetScopeEv,
                            __ZNK3MIL13IRCachedScope8GetTypesEv,
                            __ZNK3MIL13IRCachedScope8GetValueERKNSt3__112basic_stringIcNS1_11char_traitsIcEENS1_9allocatorIcEEEEb,
                            __ZNK3MIL13IRCachedScope9GetParentEv,
                            __ZNK3MIL13IRCachedScope9GetValuesEv,
                            __ZNK3MIL13IRTensorValue11GetDataViewINS_4Fp16EEENS_4Util4SpanIKT_Lm18446744073709551615EEEv,
                            __ZNK3MIL13IRTensorValue11GetDataViewINSt3__112basic_stringIcNS2_11char_traitsIcEENS2_9allocatorIcEEEEEENS_4Util4SpanIKT_Lm18446744073709551615EEEv,
                            __ZNK3MIL13IRTensorValue11GetDataViewIaEENS_4Util4SpanIKT_Lm18446744073709551615EEEv,
                            __ZNK3MIL13IRTensorValue11GetDataViewIbEENS_4Util4SpanIKT_Lm18446744073709551615EEEv,
                            __ZNK3MIL13IRTensorValue11GetDataViewIdEENS_4Util4SpanIKT_Lm18446744073709551615EEEv,
                            __ZNK3MIL13IRTensorValue11GetDataViewIfEENS_4Util4SpanIKT_Lm18446744073709551615EEEv,
                            __ZNK3MIL13IRTensorValue11GetDataViewIhEENS_4Util4SpanIKT_Lm18446744073709551615EEEv,
                            __ZNK3MIL13IRTensorValue11GetDataViewIiEENS_4Util4SpanIKT_Lm18446744073709551615EEEv,
                            __ZNK3MIL13IRTensorValue11GetDataViewIjEENS_4Util4SpanIKT_Lm18446744073709551615EEEv,
                            __ZNK3MIL13IRTensorValue11GetDataViewIsEENS_4Util4SpanIKT_Lm18446744073709551615EEEv,
                            __ZNK3MIL13IRTensorValue11GetDataViewItEENS_4Util4SpanIKT_Lm18446744073709551615EEEv,
                            __ZNK3MIL13IRTensorValue11GetDataViewIxEENS_4Util4SpanIKT_Lm18446744073709551615EEEv,
                            __ZNK3MIL13IRTensorValue11GetDataViewIyEENS_4Util4SpanIKT_Lm18446744073709551615EEEv,
                            __ZNK3MIL13IRTensorValue11TryAsTensorEv,
                            __ZNK3MIL13IRTensorValue14TryGetDataViewINS_4Fp16EEENSt3__14pairIbNS_4Util4SpanIKT_Lm18446744073709551615EEEEEv,
                            __ZNK3MIL13IRTensorValue14TryGetDataViewINSt3__112basic_stringIcNS2_11char_traitsIcEENS2_9allocatorIcEEEEEENS2_4pairIbNS_4Util4SpanIKT_Lm18446744073709551615EEEEEv,
                            __ZNK3MIL13IRTensorValue14TryGetDataViewIaEENSt3__14pairIbNS_4Util4SpanIKT_Lm18446744073709551615EEEEEv,
                            __ZNK3MIL13IRTensorValue14TryGetDataViewIbEENSt3__14pairIbNS_4Util4SpanIKT_Lm18446744073709551615EEEEEv,
                            __ZNK3MIL13IRTensorValue14TryGetDataViewIdEENSt3__14pairIbNS_4Util4SpanIKT_Lm18446744073709551615EEEEEv,
                            __ZNK3MIL13IRTensorValue14TryGetDataViewIfEENSt3__14pairIbNS_4Util4SpanIKT_Lm18446744073709551615EEEEEv,
                            __ZNK3MIL13IRTensorValue14TryGetDataViewIhEENSt3__14pairIbNS_4Util4SpanIKT_Lm18446744073709551615EEEEEv,
                            __ZNK3MIL13IRTensorValue14TryGetDataViewIiEENSt3__14pairIbNS_4Util4SpanIKT_Lm18446744073709551615EEEEEv,
                            __ZNK3MIL13IRTensorValue14TryGetDataViewIjEENSt3__14pairIbNS_4Util4SpanIKT_Lm18446744073709551615EEEEEv,
                            __ZNK3MIL13IRTensorValue14TryGetDataViewIsEENSt3__14pairIbNS_4Util4SpanIKT_Lm18446744073709551615EEEEEv,
                            __ZNK3MIL13IRTensorValue14TryGetDataViewItEENSt3__14pairIbNS_4Util4SpanIKT_Lm18446744073709551615EEEEEv,
                            __ZNK3MIL13IRTensorValue14TryGetDataViewIxEENSt3__14pairIbNS_4Util4SpanIKT_Lm18446744073709551615EEEEEv,
                            __ZNK3MIL13IRTensorValue14TryGetDataViewIyEENSt3__14pairIbNS_4Util4SpanIKT_Lm18446744073709551615EEEEEv,
                            __ZNK3MIL15IRListValueType13TryAsListTypeEv,
                            __ZNK3MIL15IRListValueType14GetNumElementsEv,
                            __ZNK3MIL15IRListValueType8ToStringEv,
                            __ZNK3MIL15IRListValueType9MakeValueEONSt3__16vectorINS1_10shared_ptrIKNS_7IRValueEEENS1_9allocatorIS6_EEEE,
                            __ZNK3MIL15IRTypedArgument11IsValueTypeEv,
                            __ZNK3MIL15IRTypedArgument11TryGetValueEv,
                            __ZNK3MIL15IRTypedArgument12GetValueTypeEv,
                            __ZNK3MIL15IRTypedArgument15TryGetValueTypeEv,
                            __ZNK3MIL15IRTypedArgument20TryGetValueSharedPtrEv,
                            __ZNK3MIL15IRTypedArgument6EqualsERKS0_,
                            __ZNK3MIL15IRTypedArgument7IsValueEv,
                            __ZNK3MIL15IRTypedArgument8GetValueEv,
                            __ZNK3MIL15IRTypedArgument8ToStringEv,
                            __ZNK3MIL15OutOfRangeError10GetMessageEv,
                            __ZNK3MIL15ValidationError19GetValidationResultEv,
                            __ZNK3MIL15ValidationError9GetReasonEv,
                            __ZNK3MIL15ValidationError9GetResultEv,
                            __ZNK3MIL16IRNamedValueType6EqualsERKS0_,
                            __ZNK3MIL16IRNamedValueType7GetNameEv,
                            __ZNK3MIL16IRNamedValueType7GetTypeEv,
                            __ZNK3MIL16IRNamedValueType8ToStringEv,
                            __ZNK3MIL16IRTupleValueType14GetNumElementsEv,
                            __ZNK3MIL16IRTupleValueType14TryAsTupleTypeEv,
                            __ZNK3MIL16IRTupleValueType8ToStringEv,
                            __ZNK3MIL16IRTupleValueType9MakeValueEONSt3__16vectorINS1_10shared_ptrIKNS_7IRValueEEENS1_9allocatorIS6_EEEE,
                            __ZNK3MIL16IRValueMapHasherclERKNSt3__110shared_ptrIKNS_7IRValueEEE,
                            __ZNK3MIL16ValidationResult6IsGoodEv,
                            __ZNK3MIL16ValidationResult9GetReasonEv,
                            __ZNK3MIL17IRDictionaryValue14GetValueForKeyERKNS_7IRValueE,
                            __ZNK3MIL17IRDictionaryValue15TryAsDictionaryEv,
                            __ZNK3MIL17IRDictionaryValue17TryGetValueForKeyERKNS_7IRValueE,
                            __ZNK3MIL17IRDictionaryValue3endEv,
                            __ZNK3MIL17IRDictionaryValue4SizeEv,
                            __ZNK3MIL17IRDictionaryValue5beginEv,
                            __ZNK3MIL17IRDictionaryValue6EqualsERKNS_7IRValueE,
                            __ZNK3MIL17IRDictionaryValue7GetHashEv,
                            __ZNK3MIL17IRDictionaryValue7GetTypeEv,
                            __ZNK3MIL17IRDictionaryValue8ToStringEv,
                            __ZNK3MIL17IRTensorValueType12GetAttributeERKNSt3__112basic_stringIcNS1_11char_traitsIcEENS1_9allocatorIcEEEE,
                            __ZNK3MIL17IRTensorValueType13MakeBoolValueEONSt3__16vectorIhNS1_9allocatorIhEEEE,
                            __ZNK3MIL17IRTensorValueType13MakeBoolValueERKNSt3__16vectorIbNS1_9allocatorIbEEEE,
                            __ZNK3MIL17IRTensorValueType13MakeBoolValueEb,
                            __ZNK3MIL17IRTensorValueType13MakeInt8ValueEONSt3__16vectorIaNS1_9allocatorIaEEEE,
                            __ZNK3MIL17IRTensorValueType13MakeInt8ValueEa,
                            __ZNK3MIL17IRTensorValueType14GetNumElementsEv,
                            __ZNK3MIL17IRTensorValueType14MakeInt16ValueEONSt3__16vectorIsNS1_9allocatorIsEEEE,
                            __ZNK3MIL17IRTensorValueType14MakeInt16ValueEs,
                            __ZNK3MIL17IRTensorValueType14MakeInt32ValueEONSt3__16vectorIiNS1_9allocatorIiEEEE,
                            __ZNK3MIL17IRTensorValueType14MakeInt32ValueEi,
                            __ZNK3MIL17IRTensorValueType14MakeInt64ValueEONSt3__16vectorIxNS1_9allocatorIxEEEE,
                            __ZNK3MIL17IRTensorValueType14MakeInt64ValueEx,
                            __ZNK3MIL17IRTensorValueType14MakeUInt8ValueEONSt3__16vectorIhNS1_9allocatorIhEEEE,
                            __ZNK3MIL17IRTensorValueType14MakeUInt8ValueEh,
                            __ZNK3MIL17IRTensorValueType15MakeStringValueENSt3__112basic_stringIcNS1_11char_traitsIcEENS1_9allocatorIcEEEE,
                            __ZNK3MIL17IRTensorValueType15MakeStringValueEONSt3__16vectorINS1_12basic_stringIcNS1_11char_traitsIcEENS1_9allocatorIcEEEENS6_IS8_EEEE,
                            __ZNK3MIL17IRTensorValueType15MakeUInt16ValueEONSt3__16vectorItNS1_9allocatorItEEEE,
                            __ZNK3MIL17IRTensorValueType15MakeUInt16ValueEt,
                            __ZNK3MIL17IRTensorValueType15MakeUInt32ValueEONSt3__16vectorIjNS1_9allocatorIjEEEE,
                            __ZNK3MIL17IRTensorValueType15MakeUInt32ValueEj,
                            __ZNK3MIL17IRTensorValueType15MakeUInt64ValueEONSt3__16vectorIyNS1_9allocatorIyEEEE,
                            __ZNK3MIL17IRTensorValueType15MakeUInt64ValueEy,
                            __ZNK3MIL17IRTensorValueType15TryAsTensorTypeEv,
                            __ZNK3MIL17IRTensorValueType16MakeFloat16ValueENS_4Fp16E,
                            __ZNK3MIL17IRTensorValueType16MakeFloat16ValueEONSt3__16vectorINS_4Fp16ENS1_9allocatorIS3_EEEE,
                            __ZNK3MIL17IRTensorValueType16MakeFloat32ValueEONSt3__16vectorIfNS1_9allocatorIfEEEE,
                            __ZNK3MIL17IRTensorValueType16MakeFloat32ValueEf,
                            __ZNK3MIL17IRTensorValueType16MakeFloat64ValueEONSt3__16vectorIdNS1_9allocatorIdEEEE,
                            __ZNK3MIL17IRTensorValueType16MakeFloat64ValueEd,
                            __ZNK3MIL17IRTensorValueType21MakeValueFromBlobFileERNS_10MILContextERKNSt3__112basic_stringIcNS3_11char_traitsIcEENS3_9allocatorIcEEEEy,
                            __ZNK3MIL17IRTensorValueType27MakeValueFromFilePropertiesERNS_10MILContextEONSt3__113unordered_mapINS3_12basic_stringIcNS3_11char_traitsIcEENS3_9allocatorIcEEEENS3_10shared_ptrIKNS_7IRValueEEENS3_4hashISA_EENS3_8equal_toISA_EENS8_INS3_4pairIKSA_SE_EEEEEE,
                            __ZNK3MIL17IRTensorValueType27MakeValueFromLegacyBlobFileERNS_10MILContextERKNSt3__112basic_stringIcNS3_11char_traitsIcEENS3_9allocatorIcEEEEy,
                            __ZNK3MIL17IRTensorValueType30MakeBoolValueWithUnownedMemoryENS_4Util4SpanIKbLm18446744073709551615EEE,
                            __ZNK3MIL17IRTensorValueType30MakeInt8ValueWithUnownedMemoryENS_4Util4SpanIKaLm18446744073709551615EEE,
                            __ZNK3MIL17IRTensorValueType31MakeInt16ValueWithUnownedMemoryENS_4Util4SpanIKsLm18446744073709551615EEE,
                            __ZNK3MIL17IRTensorValueType31MakeInt32ValueWithUnownedMemoryENS_4Util4SpanIKiLm18446744073709551615EEE,
                            __ZNK3MIL17IRTensorValueType31MakeInt64ValueWithUnownedMemoryENS_4Util4SpanIKxLm18446744073709551615EEE,
                            __ZNK3MIL17IRTensorValueType31MakeUInt8ValueWithUnownedMemoryENS_4Util4SpanIKhLm18446744073709551615EEE,
                            __ZNK3MIL17IRTensorValueType32MakeStringValueWithUnownedMemoryENS_4Util4SpanIKNSt3__112basic_stringIcNS3_11char_traitsIcEENS3_9allocatorIcEEEELm18446744073709551615EEE,
                            __ZNK3MIL17IRTensorValueType32MakeUInt16ValueWithUnownedMemoryENS_4Util4SpanIKtLm18446744073709551615EEE,
                            __ZNK3MIL17IRTensorValueType32MakeUInt32ValueWithUnownedMemoryENS_4Util4SpanIKjLm18446744073709551615EEE,
                            __ZNK3MIL17IRTensorValueType32MakeUInt64ValueWithUnownedMemoryENS_4Util4SpanIKyLm18446744073709551615EEE,
                            __ZNK3MIL17IRTensorValueType32MakeValueFromConstExprEvaluationENSt3__110unique_ptrIKNS_17AbstractConstExprENS1_14default_deleteIS4_EEEE,
                            __ZNK3MIL17IRTensorValueType33MakeFloat16ValueWithUnownedMemoryENS_4Util4SpanIKNS_4Fp16ELm18446744073709551615EEE,
                            __ZNK3MIL17IRTensorValueType33MakeFloat32ValueWithUnownedMemoryENS_4Util4SpanIKfLm18446744073709551615EEE,
                            __ZNK3MIL17IRTensorValueType33MakeFloat64ValueWithUnownedMemoryENS_4Util4SpanIKdLm18446744073709551615EEE,
                            __ZNK3MIL17IRTensorValueType4RankEv,
                            __ZNK3MIL17IRTensorValueType8IsScalarEv,
                            __ZNK3MIL17IRTensorValueType8ToStringEv,
                            __ZNK3MIL18IRUnknownDimension12TryAsUnknownEv,
                            __ZNK3MIL18IRUnknownDimension8ToStringEv,
                            __ZNK3MIL18MILErrorWithResult11GetLocationEv,
                            __ZNK3MIL18MILErrorWithResult20GetLocationSharedPtrEv,
                            __ZNK3MIL18MILErrorWithResult22GetMessageWithLocationEv,
                            __ZNK3MIL19IRConstantDimension13TryAsConstantEv,
                            __ZNK3MIL19IRConstantDimension8ToStringEv,
                            __ZNK3MIL20InvalidArgumentError10GetMessageEv,
                            __ZNK3MIL20MILErrorWithLocation11GetLocationEv,
                            __ZNK3MIL20MILErrorWithLocation20GetLocationSharedPtrEv,
                            __ZNK3MIL20MILErrorWithLocation22GetMessageWithLocationEv,
                            __ZNK3MIL21IRDictionaryValueType14GetNumElementsEv,
                            __ZNK3MIL21IRDictionaryValueType19TryAsDictionaryTypeEv,
                            __ZNK3MIL21IRDictionaryValueType8ToStringEv,
                            __ZNK3MIL21IRDictionaryValueType9MakeValueEONSt3__113unordered_mapINS1_10shared_ptrIKNS_7IRValueEEES6_NS_16IRValueMapHasherENS_12IRValueMapEqENS1_9allocatorINS1_4pairIKS6_S6_EEEEEE,
                            __ZNK3MIL21InvalidOperationError10GetMessageEv,
                            __ZNK3MIL4Blob13StorageReader11GetDataSizeEy,
                            __ZNK3MIL4Blob13StorageReader11GetDataViewINS_4Fp16EEENS_4Util4SpanIKT_Lm18446744073709551615EEEy,
                            __ZNK3MIL4Blob13StorageReader11GetDataViewIaEENS_4Util4SpanIKT_Lm18446744073709551615EEEy,
                            __ZNK3MIL4Blob13StorageReader11GetDataViewIfEENS_4Util4SpanIKT_Lm18446744073709551615EEEy,
                            __ZNK3MIL4Blob13StorageReader11GetDataViewIhEENS_4Util4SpanIKT_Lm18446744073709551615EEEy,
                            __ZNK3MIL4Blob13StorageReader11GetFilenameEv,
                            __ZNK3MIL4Blob13StorageReader11IsEncryptedEv,
                            __ZNK3MIL4Blob13StorageReader13GetDataOffsetEy,
                            __ZNK3MIL4Blob13StorageReader14GetRawDataViewEy,
                            __ZNK3MIL4Fp168GetFloatEv,
                            __ZNK3MIL4Text25ModelPathLengthComparatorclERKNSt3__112basic_stringIcNS2_11char_traitsIcEENS2_9allocatorIcEEEESA_,
                            __ZNK3MIL6Opsets5Train10ios16Train16ios16_trainOpset7GetNameEv,
                            __ZNK3MIL6Opsets6Common5ios1510ios15Opset7GetNameEv,
                            __ZNK3MIL6Opsets6Common5ios1610ios16Opset7GetNameEv,
                            __ZNK3MIL7Builder12BlockBuilder10GetOutputsEv,
                            __ZNK3MIL7Builder12BlockBuilder11GetLocationEv,
                            __ZNK3MIL7Builder12BlockBuilder11GetScopePtrEv,
                            __ZNK3MIL7Builder12BlockBuilder11GetVariableERKNSt3__112basic_stringIcNS2_11char_traitsIcEENS2_9allocatorIcEEEE,
                            __ZNK3MIL7Builder12BlockBuilder12GetOperationERKNSt3__112basic_stringIcNS2_11char_traitsIcEENS2_9allocatorIcEEEE,
                            __ZNK3MIL7Builder12BlockBuilder12GetOperationEm,
                            __ZNK3MIL7Builder12BlockBuilder12GetOpsetNameEv,
                            __ZNK3MIL7Builder12BlockBuilder13GetAttributesEv,
                            __ZNK3MIL7Builder12BlockBuilder14GetLocationPtrEv,
                            __ZNK3MIL7Builder12BlockBuilder14GetOutputNamesEv,
                            __ZNK3MIL7Builder12BlockBuilder14TryGetVariableERKNSt3__112basic_stringIcNS2_11char_traitsIcEENS2_9allocatorIcEEEE,
                            __ZNK3MIL7Builder12BlockBuilder15TryGetAttributeERKNSt3__112basic_stringIcNS2_11char_traitsIcEENS2_9allocatorIcEEEE,
                            __ZNK3MIL7Builder12BlockBuilder15TryGetOperationERKNSt3__112basic_stringIcNS2_11char_traitsIcEENS2_9allocatorIcEEEE,
                            __ZNK3MIL7Builder12BlockBuilder16GetNumOperationsEv,
                            __ZNK3MIL7Builder12BlockBuilder7GetTypeERKNSt3__112basic_stringIcNS2_11char_traitsIcEENS2_9allocatorIcEEEE,
                            __ZNK3MIL7Builder12BlockBuilder8GetValueERKNSt3__112basic_stringIcNS2_11char_traitsIcEENS2_9allocatorIcEEEE,
                            __ZNK3MIL7Builder14DataDependency11GetConsumerEv,
                            __ZNK3MIL7Builder14DataDependency11GetProducerEv,
                            __ZNK3MIL7Builder14DataDependency15GetVariableNameEv,
                            __ZNK3MIL7Builder14DataDependency17IsLexicalConsumerEv,
                            __ZNK3MIL7Builder14DataDependency22GetProducerOutputIndexEv,
                            __ZNK3MIL7Builder14DataDependency24GetConsumerArgumentIndexEv,
                            __ZNK3MIL7Builder14DataDependency24GetConsumerParameterNameEv,
                            __ZNK3MIL7Builder14DataDependency27GetConsumerNestedBlockIndexEv,
                            __ZNK3MIL7Builder14ProgramBuilder11GetLocationEv,
                            __ZNK3MIL7Builder14ProgramBuilder13GetAttributesEv,
                            __ZNK3MIL7Builder14ProgramBuilder14GetLocationPtrEv,
                            __ZNK3MIL7Builder14ProgramBuilder15TryGetAttributeERKNSt3__112basic_stringIcNS2_11char_traitsIcEENS2_9allocatorIcEEEE,
                            __ZNK3MIL7Builder15FunctionBuilder10GetContextEv,
                            __ZNK3MIL7Builder15FunctionBuilder11GetLocationEv,
                            __ZNK3MIL7Builder15FunctionBuilder11TryGetInputERKNSt3__112basic_stringIcNS2_11char_traitsIcEENS2_9allocatorIcEEEE,
                            __ZNK3MIL7Builder15FunctionBuilder13GetAttributesEv,
                            __ZNK3MIL7Builder15FunctionBuilder14GetLocationPtrEv,
                            __ZNK3MIL7Builder15FunctionBuilder15TryGetAttributeERKNSt3__112basic_stringIcNS2_11char_traitsIcEENS2_9allocatorIcEEEE,
                            __ZNK3MIL7Builder15FunctionBuilder22SelectedSpecializationEv,
                            __ZNK3MIL7Builder15FunctionBuilder7GetTypeERKNSt3__112basic_stringIcNS2_11char_traitsIcEENS2_9allocatorIcEEEE,
                            __ZNK3MIL7Builder15FunctionBuilder9GetInputsEv,
                            __ZNK3MIL7Builder16OperationBuilder10GetOutputsEv,
                            __ZNK3MIL7Builder16OperationBuilder11GetLocationEv,
                            __ZNK3MIL7Builder16OperationBuilder11GetOperatorEv,
                            __ZNK3MIL7Builder16OperationBuilder13GetAttributesEv,
                            __ZNK3MIL7Builder16OperationBuilder13GetNumOutputsEv,
                            __ZNK3MIL7Builder16OperationBuilder13GetOutputNameEm,
                            __ZNK3MIL7Builder16OperationBuilder13GetOutputTypeEm,
                            __ZNK3MIL7Builder16OperationBuilder13GetParametersEv,
                            __ZNK3MIL7Builder16OperationBuilder13IsPartOfBlockEv,
                            __ZNK3MIL7Builder16OperationBuilder14GetLocationPtrEv,
                            __ZNK3MIL7Builder16OperationBuilder14TryGetConstantEv,
                            __ZNK3MIL7Builder16OperationBuilder15GetNumArgumentsERKNSt3__112basic_stringIcNS2_11char_traitsIcEENS2_9allocatorIcEEEE,
                            __ZNK3MIL7Builder16OperationBuilder15TryGetAttributeERKNSt3__112basic_stringIcNS2_11char_traitsIcEENS2_9allocatorIcEEEE,
                            __ZNK3MIL7Builder16OperationBuilder17GetInputArgumentsEv,
                            __ZNK3MIL7Builder16OperationBuilder23GetArgumentForParameterERKNSt3__112basic_stringIcNS2_11char_traitsIcEENS2_9allocatorIcEEEEj,
                            __ZNK3MIL7Builder16OperationBuilder23TryGetOperatorSharedPtrEv,
                            __ZNK3MIL7Builder16OperationBuilder7GetTypeERKNSt3__112basic_stringIcNS2_11char_traitsIcEENS2_9allocatorIcEEEE,
                            __ZNK3MIL7Builder16OperationBuilder9GetOutputEm,
                            __ZNK3MIL7Builder8Variable10TryGetNameEv,
                            __ZNK3MIL7Builder8Variable10TryGetTypeEv,
                            __ZNK3MIL7Builder8Variable11TryGetValueEv,
                            __ZNK3MIL7Builder8Variable14GetScalarValueINS_4Fp16EEET_v,
                            __ZNK3MIL7Builder8Variable14GetScalarValueINSt3__112basic_stringIcNS3_11char_traitsIcEENS3_9allocatorIcEEEEEET_v,
                            __ZNK3MIL7Builder8Variable14GetScalarValueIaEET_v,
                            __ZNK3MIL7Builder8Variable14GetScalarValueIbEET_v,
                            __ZNK3MIL7Builder8Variable14GetScalarValueIdEET_v,
                            __ZNK3MIL7Builder8Variable14GetScalarValueIfEET_v,
                            __ZNK3MIL7Builder8Variable14GetScalarValueIhEET_v,
                            __ZNK3MIL7Builder8Variable14GetScalarValueIiEET_v,
                            __ZNK3MIL7Builder8Variable14GetScalarValueIjEET_v,
                            __ZNK3MIL7Builder8Variable14GetScalarValueIsEET_v,
                            __ZNK3MIL7Builder8Variable14GetScalarValueItEET_v,
                            __ZNK3MIL7Builder8Variable14GetScalarValueIxEET_v,
                            __ZNK3MIL7Builder8Variable14GetScalarValueIyEET_v,
                            __ZNK3MIL7Builder8Variable20TryGetValueSharedPtrEv,
                            __ZNK3MIL7Builder8Variable7GetNameEv,
                            __ZNK3MIL7Builder8Variable8GetValueEv,
                            __ZNK3MIL7IRBlock8ToStringEv,
                            __ZNK3MIL7IROpset11GetOperatorERKNSt3__112basic_stringIcNS1_11char_traitsIcEENS1_9allocatorIcEEEE,
                            __ZNK3MIL7IROpset14TryGetOperatorERKNSt3__112basic_stringIcNS1_11char_traitsIcEENS1_9allocatorIcEEEE,
                            __ZNK3MIL7IROpset19GetNamedOperatorMapEv,
                            __ZNK3MIL7IROpset22GetOperatorDescriptionERKNS_11IROperationE,
                            __ZNK3MIL7IROpset22GetOperatorDescriptionERKNSt3__112basic_stringIcNS1_11char_traitsIcEENS1_9allocatorIcEEEE,
                            __ZNK3MIL7IROpset23TryGetOperatorSharedPtrERKNSt3__112basic_stringIcNS1_11char_traitsIcEENS1_9allocatorIcEEEE,
                            __ZNK3MIL7IROpset25TryGetOperatorDescriptionERKNS_11IROperationE,
                            __ZNK3MIL7IROpset25TryGetOperatorDescriptionERKNSt3__112basic_stringIcNS1_11char_traitsIcEENS1_9allocatorIcEEEE,
                            __ZNK3MIL7IROpset27GetReversedOperatorNamesMapEv,
                            __ZNK3MIL7IROpset34TryGetOperatorDescriptionSharedPtrERKNS_11IROperationE,
                            __ZNK3MIL7IROpset34TryGetOperatorDescriptionSharedPtrERKNSt3__112basic_stringIcNS1_11char_traitsIcEENS1_9allocatorIcEEEE,
                            __ZNK3MIL7IRValue10TryAsTupleEv,
                            __ZNK3MIL7IRValue11TryAsTensorEv,
                            __ZNK3MIL7IRValue12AsDictionaryEv,
                            __ZNK3MIL7IRValue12TryGetScalarINS_4Fp16EEEPKT_v,
                            __ZNK3MIL7IRValue12TryGetScalarINSt3__112basic_stringIcNS2_11char_traitsIcEENS2_9allocatorIcEEEEEEPKT_v,
                            __ZNK3MIL7IRValue12TryGetScalarIaEEPKT_v,
                            __ZNK3MIL7IRValue12TryGetScalarIbEEPKT_v,
                            __ZNK3MIL7IRValue12TryGetScalarIdEEPKT_v,
                            __ZNK3MIL7IRValue12TryGetScalarIfEEPKT_v,
                            __ZNK3MIL7IRValue12TryGetScalarIhEEPKT_v,
                            __ZNK3MIL7IRValue12TryGetScalarIiEEPKT_v,
                            __ZNK3MIL7IRValue12TryGetScalarIjEEPKT_v,
                            __ZNK3MIL7IRValue12TryGetScalarIsEEPKT_v,
                            __ZNK3MIL7IRValue12TryGetScalarItEEPKT_v,
                            __ZNK3MIL7IRValue12TryGetScalarIxEEPKT_v,
                            __ZNK3MIL7IRValue12TryGetScalarIyEEPKT_v,
                            __ZNK3MIL7IRValue15TryAsDictionaryEv,
                            __ZNK3MIL7IRValue6AsListEv,
                            __ZNK3MIL7IRValue7AsTupleEv,
                            __ZNK3MIL7IRValue8AsTensorEv,
                            __ZNK3MIL7IRValue9GetScalarINS_4Fp16EEET_v,
                            __ZNK3MIL7IRValue9GetScalarINSt3__112basic_stringIcNS2_11char_traitsIcEENS2_9allocatorIcEEEEEET_v,
                            __ZNK3MIL7IRValue9GetScalarIaEET_v,
                            __ZNK3MIL7IRValue9GetScalarIbEET_v,
                            __ZNK3MIL7IRValue9GetScalarIdEET_v,
                            __ZNK3MIL7IRValue9GetScalarIfEET_v,
                            __ZNK3MIL7IRValue9GetScalarIhEET_v,
                            __ZNK3MIL7IRValue9GetScalarIiEET_v,
                            __ZNK3MIL7IRValue9GetScalarIjEET_v,
                            __ZNK3MIL7IRValue9GetScalarIsEET_v,
                            __ZNK3MIL7IRValue9GetScalarItEET_v,
                            __ZNK3MIL7IRValue9GetScalarIxEET_v,
                            __ZNK3MIL7IRValue9GetScalarIyEET_v,
                            __ZNK3MIL7IRValue9TryAsListEv,
                            __ZNK3MIL8IRObject11GetLocationEv,
                            __ZNK3MIL8IRObject12GetAttributeERKNSt3__112basic_stringIcNS1_11char_traitsIcEENS1_9allocatorIcEEEE,
                            __ZNK3MIL8IRObject13GetAttributesEv,
                            __ZNK3MIL8IRObject14GetLocationPtrEv,
                            __ZNK3MIL8IRObject15TryGetAttributeERKNSt3__112basic_stringIcNS1_11char_traitsIcEENS1_9allocatorIcEEEE,
                            __ZNK3MIL8IRObject24TryGetAttributeSharedPtrERKNSt3__112basic_stringIcNS1_11char_traitsIcEENS1_9allocatorIcEEEE,
                            __ZNK3MIL8IRObject6EqualsERKS0_,
                            __ZNK3MIL8Location14GetDescriptionEv,
                            __ZNK3MIL8LocationneERKS0_,
                            __ZNK3MIL8MILError10GetMessageEv,
                            __ZNK3MIL8Matching10OutputView7GetNameEv,
                            __ZNK3MIL8Matching10OutputView7GetTypeEv,
                            __ZNK3MIL8Matching12ArgumentView10TryGetNameEv,
                            __ZNK3MIL8Matching12ArgumentView11TryGetValueEv,
                            __ZNK3MIL8Matching12ArgumentView13IsConnectedToERKNS0_10OutputViewE,
                            __ZNK3MIL8Matching12ArgumentView13IsSameValueAsERKS1_,
                            __ZNK3MIL8Matching12ArgumentView16IsSameVariableAsERKS1_,
                            __ZNK3MIL8Matching12ArgumentView7GetTypeEv,
                            __ZNK3MIL8Matching12ArgumentView8GetValueEv,
                            __ZNK3MIL8Matching12ArgumentView8IsSameAsERKS1_,
                            __ZNK3MIL8Matching18InvalidMatchAccess4whatEv,
                            __ZNK3MIL8Matching5Match11GetRootViewEv,
                            __ZNK3MIL8Matching7Pattern11DebugStringEv,
                            __ZNK3MIL8Matching8EdgeView22GetProducerOutputIndexEv,
                            __ZNK3MIL8Matching8EdgeView24GetConsumerArgumentIndexEv,
                            __ZNK3MIL8Matching8EdgeView24GetConsumerParameterNameEv,
                            __ZNK3MIL8Matching8EdgeView9IsPresentEv,
                            __ZNK3MIL8Matching9MatchView11GetArgumentERKNSt3__112basic_stringIcNS2_11char_traitsIcEENS2_9allocatorIcEEEE,
                            __ZNK3MIL8Matching9MatchView11GetLastEdgeEv,
                            __ZNK3MIL8Matching9MatchView11GetOperatorEv,
                            __ZNK3MIL8Matching9MatchView13GetNumOutputsEv,
                            __ZNK3MIL8Matching9MatchView16GetArgumentCountERKNSt3__112basic_stringIcNS2_11char_traitsIcEENS2_9allocatorIcEEEE,
                            __ZNK3MIL8Matching9MatchView19GetVariadicArgumentERKNSt3__112basic_stringIcNS2_11char_traitsIcEENS2_9allocatorIcEEEEm,
                            __ZNK3MIL8Matching9MatchView6IsNoneEv,
                            __ZNK3MIL8Matching9MatchView7GetKindEv,
                            __ZNK3MIL8Matching9MatchView9GetLengthEv,
                            __ZNK3MIL8Matching9MatchView9GetOutputEm,
                            __ZNK3MIL8Matching9MatchView9GetOutputEv,
                            __ZNK3MIL8Matching9MatchViewixEm,
                            __ZNK3MIL9IRProgram11GetFunctionERKNSt3__112basic_stringIcNS1_11char_traitsIcEENS1_9allocatorIcEEEE,
                            __ZNK3MIL9IRProgram8ToStringEv,
                            __ZNK3MIL9MILResult10GetMessageEv,
                            __ZNK3MIL9MILResult11GetLocationEv,
                            __ZNK3MIL9MILResult20GetLocationSharedPtrEv,
                            __ZNK3MIL9MILResult22GetMessageWithLocationEv,
                            __ZNK3MIL9Operators6Common5ios1610ConstExprs10LutToDense13ComputeOutputEv,
                            __ZNK3MIL9Operators6Common5ios1610ConstExprs10LutToDense30ValidateArgsAndTypeConstraintsEv,
                            __ZNK3MIL9Operators6Common5ios1610ConstExprs13SparseToDense13ComputeOutputEv,
                            __ZNK3MIL9Operators6Common5ios1610ConstExprs13SparseToDense30ValidateArgsAndTypeConstraintsEv,
                            __ZNK3MIL9Operators6Common5ios1610ConstExprs16AffineDequantize13ComputeOutputEv,
                            __ZNK3MIL9Operators6Common5ios1610ConstExprs16AffineDequantize30ValidateArgsAndTypeConstraintsEv,
                            __ZNK3MIL9Operators6Common5ios1610ConstExprs4Cast13ComputeOutputEv,
                            __ZNK3MIL9Operators6Common5ios1610ConstExprs4Cast30ValidateArgsAndTypeConstraintsEv,
                            __ZNK3MIL9Transform12MatchContext13GetMILContextEv,
                            __ZNK3MIL9Transform18ProgramTransformer10GetProgramEv,
                            __ZNK3MIL9Transform22NewOperationOutputList4sizeEv,
                            __ZNK3MIL9Transform22NewOperationOutputListixEm,
                            __ZNKSt3__14hashIN3MIL7Builder14DataDependencyEEclERKS3_,
                            __ZTIN3MIL10IRArgumentE, __ZTIN3MIL10IRFunctionE,
                            __ZTIN3MIL10IROperatorE, __ZTIN3MIL10MILContextE,
                            __ZTIN3MIL10ParseErrorE,
                            __ZTIN3MIL10Validation11ConstraintsE,
                            __ZTIN3MIL10Validation16ConstraintTargetE,
                            __ZTIN3MIL10Validation22TensorDTypeConstraintsE,
                            __ZTIN3MIL10Validation24OpOutputConstraintTargetE,
                            __ZTIN3MIL10Validation26TensorRankValueConstraintsE,
                            __ZTIN3MIL10Validation27OpAttributeConstraintTargetE,
                            __ZTIN3MIL10Validation27OpParameterConstraintTargetE,
                            __ZTIN3MIL10Validation30TensorSymbolicShapeConstraintsE,
                            __ZTIN3MIL10Validation31PossibleStringValuesConstraintsE,
                            __ZTIN3MIL11EdgeIndexesE, __ZTIN3MIL11IRDimensionE,
                            __ZTIN3MIL11IRListValueE, __ZTIN3MIL11IROperationE,
                            __ZTIN3MIL11IRParameterE, __ZTIN3MIL11IRValueTypeE,
                            __ZTIN3MIL11ParseResultE, __ZTIN3MIL11PassManagerE,
                            __ZTIN3MIL12IRTupleValueE,
                            __ZTIN3MIL13IRCachedScopeE,
                            __ZTIN3MIL13IRTensorValueE,
                            __ZTIN3MIL13ParserOptionsE,
                            __ZTIN3MIL14IRMutableScopeE,
                            __ZTIN3MIL15IRListValueTypeE,
                            __ZTIN3MIL15IRTypedArgumentE,
                            __ZTIN3MIL15OutOfRangeErrorE,
                            __ZTIN3MIL15UnknownLocationE,
                            __ZTIN3MIL15ValidationErrorE,
                            __ZTIN3MIL16IRTupleValueTypeE,
                            __ZTIN3MIL16IRValueQueryableE,
                            __ZTIN3MIL16TextFileLocationE,
                            __ZTIN3MIL16ValidationResultE,
                            __ZTIN3MIL17AbstractConstExprE,
                            __ZTIN3MIL17IRDictionaryValueE,
                            __ZTIN3MIL17IRTensorValueTypeE,
                            __ZTIN3MIL18IRUnknownDimensionE,
                            __ZTIN3MIL18MILErrorWithResultE,
                            __ZTIN3MIL19IRConstantDimensionE,
                            __ZTIN3MIL20InvalidArgumentErrorE,
                            __ZTIN3MIL20MILErrorWithLocationE,
                            __ZTIN3MIL21IRDictionaryValueTypeE,
                            __ZTIN3MIL21InvalidOperationErrorE,
                            __ZTIN3MIL21OperationNameLocationE, __ZTIN3MIL4EdgeE,
                            __ZTIN3MIL4PassE,
                            __ZTIN3MIL4Text17SerializerOptionsE,
                            __ZTIN3MIL6Opsets5Train10ios16Train16ios16_trainOpsetE,
                            __ZTIN3MIL6Opsets6Common5ios1510ios15OpsetE,
                            __ZTIN3MIL6Opsets6Common5ios1610ios16OpsetE,
                            __ZTIN3MIL6Passes21FlattenBlockNamespaceE,
                            __ZTIN3MIL7Builder12BlockBuilderE,
                            __ZTIN3MIL7Builder14ProgramBuilderE,
                            __ZTIN3MIL7Builder15FunctionBuilderE,
                            __ZTIN3MIL7Builder16OperationBuilderE,
                            __ZTIN3MIL7Builder8VariableE, __ZTIN3MIL7IRBlockE,
                            __ZTIN3MIL7IROpsetE, __ZTIN3MIL7IRScopeE,
                            __ZTIN3MIL7IRValueE, __ZTIN3MIL8IRObjectE,
                            __ZTIN3MIL8LocationE, __ZTIN3MIL8MILErrorE,
                            __ZTIN3MIL8Matching18InvalidMatchAccessE,
                            __ZTIN3MIL9IRProgramE, __ZTIN3MIL9MILResultE,
                            __ZTIN3MIL9Operators6Common5ios1610ConstExprs10LutToDenseE,
                            __ZTIN3MIL9Operators6Common5ios1610ConstExprs13SparseToDenseE,
                            __ZTIN3MIL9Operators6Common5ios1610ConstExprs16AffineDequantizeE,
                            __ZTIN3MIL9Operators6Common5ios1610ConstExprs4CastE,
                            __ZTSN3MIL10IRArgumentE, __ZTSN3MIL10IRFunctionE,
                            __ZTSN3MIL10IROperatorE, __ZTSN3MIL10MILContextE,
                            __ZTSN3MIL10ParseErrorE,
                            __ZTSN3MIL10Validation11ConstraintsE,
                            __ZTSN3MIL10Validation16ConstraintTargetE,
                            __ZTSN3MIL10Validation22TensorDTypeConstraintsE,
                            __ZTSN3MIL10Validation24OpOutputConstraintTargetE,
                            __ZTSN3MIL10Validation26TensorRankValueConstraintsE,
                            __ZTSN3MIL10Validation27OpAttributeConstraintTargetE,
                            __ZTSN3MIL10Validation27OpParameterConstraintTargetE,
                            __ZTSN3MIL10Validation30TensorSymbolicShapeConstraintsE,
                            __ZTSN3MIL10Validation31PossibleStringValuesConstraintsE,
                            __ZTSN3MIL11EdgeIndexesE, __ZTSN3MIL11IRDimensionE,
                            __ZTSN3MIL11IRListValueE, __ZTSN3MIL11IROperationE,
                            __ZTSN3MIL11IRParameterE, __ZTSN3MIL11IRValueTypeE,
                            __ZTSN3MIL11ParseResultE, __ZTSN3MIL11PassManagerE,
                            __ZTSN3MIL12IRTupleValueE,
                            __ZTSN3MIL13IRCachedScopeE,
                            __ZTSN3MIL13IRTensorValueE,
                            __ZTSN3MIL13ParserOptionsE,
                            __ZTSN3MIL14IRMutableScopeE,
                            __ZTSN3MIL15IRListValueTypeE,
                            __ZTSN3MIL15IRTypedArgumentE,
                            __ZTSN3MIL15OutOfRangeErrorE,
                            __ZTSN3MIL15UnknownLocationE,
                            __ZTSN3MIL15ValidationErrorE,
                            __ZTSN3MIL16IRTupleValueTypeE,
                            __ZTSN3MIL16IRValueQueryableE,
                            __ZTSN3MIL16TextFileLocationE,
                            __ZTSN3MIL16ValidationResultE,
                            __ZTSN3MIL17AbstractConstExprE,
                            __ZTSN3MIL17IRDictionaryValueE,
                            __ZTSN3MIL17IRTensorValueTypeE,
                            __ZTSN3MIL18IRUnknownDimensionE,
                            __ZTSN3MIL18MILErrorWithResultE,
                            __ZTSN3MIL19IRConstantDimensionE,
                            __ZTSN3MIL20InvalidArgumentErrorE,
                            __ZTSN3MIL20MILErrorWithLocationE,
                            __ZTSN3MIL21IRDictionaryValueTypeE,
                            __ZTSN3MIL21InvalidOperationErrorE,
                            __ZTSN3MIL21OperationNameLocationE, __ZTSN3MIL4EdgeE,
                            __ZTSN3MIL4PassE,
                            __ZTSN3MIL4Text17SerializerOptionsE,
                            __ZTSN3MIL6Opsets5Train10ios16Train16ios16_trainOpsetE,
                            __ZTSN3MIL6Opsets6Common5ios1510ios15OpsetE,
                            __ZTSN3MIL6Opsets6Common5ios1610ios16OpsetE,
                            __ZTSN3MIL6Passes21FlattenBlockNamespaceE,
                            __ZTSN3MIL7Builder12BlockBuilderE,
                            __ZTSN3MIL7Builder14ProgramBuilderE,
                            __ZTSN3MIL7Builder15FunctionBuilderE,
                            __ZTSN3MIL7Builder16OperationBuilderE,
                            __ZTSN3MIL7Builder8VariableE, __ZTSN3MIL7IRBlockE,
                            __ZTSN3MIL7IROpsetE, __ZTSN3MIL7IRScopeE,
                            __ZTSN3MIL7IRValueE, __ZTSN3MIL8IRObjectE,
                            __ZTSN3MIL8LocationE, __ZTSN3MIL8MILErrorE,
                            __ZTSN3MIL8Matching18InvalidMatchAccessE,
                            __ZTSN3MIL9IRProgramE, __ZTSN3MIL9MILResultE,
                            __ZTSN3MIL9Operators6Common5ios1610ConstExprs10LutToDenseE,
                            __ZTSN3MIL9Operators6Common5ios1610ConstExprs13SparseToDenseE,
                            __ZTSN3MIL9Operators6Common5ios1610ConstExprs16AffineDequantizeE,
                            __ZTSN3MIL9Operators6Common5ios1610ConstExprs4CastE,
                            __ZTVN3MIL10IRArgumentE, __ZTVN3MIL10IRFunctionE,
                            __ZTVN3MIL10IROperatorE, __ZTVN3MIL10MILContextE,
                            __ZTVN3MIL10ParseErrorE,
                            __ZTVN3MIL10Validation11ConstraintsE,
                            __ZTVN3MIL10Validation16ConstraintTargetE,
                            __ZTVN3MIL10Validation22TensorDTypeConstraintsE,
                            __ZTVN3MIL10Validation24OpOutputConstraintTargetE,
                            __ZTVN3MIL10Validation26TensorRankValueConstraintsE,
                            __ZTVN3MIL10Validation27OpAttributeConstraintTargetE,
                            __ZTVN3MIL10Validation27OpParameterConstraintTargetE,
                            __ZTVN3MIL10Validation30TensorSymbolicShapeConstraintsE,
                            __ZTVN3MIL10Validation31PossibleStringValuesConstraintsE,
                            __ZTVN3MIL11EdgeIndexesE, __ZTVN3MIL11IRDimensionE,
                            __ZTVN3MIL11IRListValueE, __ZTVN3MIL11IROperationE,
                            __ZTVN3MIL11IRParameterE, __ZTVN3MIL11IRValueTypeE,
                            __ZTVN3MIL11ParseResultE, __ZTVN3MIL11PassManagerE,
                            __ZTVN3MIL12IRTupleValueE,
                            __ZTVN3MIL13IRCachedScopeE,
                            __ZTVN3MIL13IRTensorValueE,
                            __ZTVN3MIL13ParserOptionsE,
                            __ZTVN3MIL14IRMutableScopeE,
                            __ZTVN3MIL15IRListValueTypeE,
                            __ZTVN3MIL15IRTypedArgumentE,
                            __ZTVN3MIL15OutOfRangeErrorE,
                            __ZTVN3MIL15UnknownLocationE,
                            __ZTVN3MIL15ValidationErrorE,
                            __ZTVN3MIL16IRTupleValueTypeE,
                            __ZTVN3MIL16IRValueQueryableE,
                            __ZTVN3MIL16TextFileLocationE,
                            __ZTVN3MIL16ValidationResultE,
                            __ZTVN3MIL17AbstractConstExprE,
                            __ZTVN3MIL17IRDictionaryValueE,
                            __ZTVN3MIL17IRTensorValueTypeE,
                            __ZTVN3MIL18IRUnknownDimensionE,
                            __ZTVN3MIL18MILErrorWithResultE,
                            __ZTVN3MIL19IRConstantDimensionE,
                            __ZTVN3MIL20InvalidArgumentErrorE,
                            __ZTVN3MIL20MILErrorWithLocationE,
                            __ZTVN3MIL21IRDictionaryValueTypeE,
                            __ZTVN3MIL21InvalidOperationErrorE,
                            __ZTVN3MIL21OperationNameLocationE, __ZTVN3MIL4EdgeE,
                            __ZTVN3MIL4PassE,
                            __ZTVN3MIL4Text17SerializerOptionsE,
                            __ZTVN3MIL6Opsets5Train10ios16Train16ios16_trainOpsetE,
                            __ZTVN3MIL6Opsets6Common5ios1510ios15OpsetE,
                            __ZTVN3MIL6Opsets6Common5ios1610ios16OpsetE,
                            __ZTVN3MIL6Passes21FlattenBlockNamespaceE,
                            __ZTVN3MIL7Builder12BlockBuilderE,
                            __ZTVN3MIL7Builder14ProgramBuilderE,
                            __ZTVN3MIL7Builder15FunctionBuilderE,
                            __ZTVN3MIL7Builder16OperationBuilderE,
                            __ZTVN3MIL7Builder8VariableE, __ZTVN3MIL7IRBlockE,
                            __ZTVN3MIL7IROpsetE, __ZTVN3MIL7IRScopeE,
                            __ZTVN3MIL7IRValueE, __ZTVN3MIL8IRObjectE,
                            __ZTVN3MIL8LocationE, __ZTVN3MIL8MILErrorE,
                            __ZTVN3MIL8Matching18InvalidMatchAccessE,
                            __ZTVN3MIL9IRProgramE, __ZTVN3MIL9MILResultE,
                            __ZTVN3MIL9Operators6Common5ios1610ConstExprs10LutToDenseE,
                            __ZTVN3MIL9Operators6Common5ios1610ConstExprs13SparseToDenseE,
                            __ZTVN3MIL9Operators6Common5ios1610ConstExprs16AffineDequantizeE,
                            __ZTVN3MIL9Operators6Common5ios1610ConstExprs4CastE,
                            __ZThn64_N3MIL10IRFunctionD0Ev,
                            __ZThn64_N3MIL10IRFunctionD1Ev,
                            __ZThn64_N3MIL11IROperationD0Ev,
                            __ZThn64_N3MIL11IROperationD1Ev,
                            __ZThn64_N3MIL7IRBlockD0Ev,
                            __ZThn64_N3MIL7IRBlockD1Ev,
                            __ZThn64_N3MIL9IRProgramD0Ev,
                            __ZThn64_N3MIL9IRProgramD1Ev ]
    weak-def-symbols:     [ __ZNK3MIL8Matching9MatchView7AsArrayILm10EEENSt3__15arrayIS1_XT_EEEv,
                            __ZNK3MIL8Matching9MatchView7AsArrayILm11EEENSt3__15arrayIS1_XT_EEEv,
                            __ZNK3MIL8Matching9MatchView7AsArrayILm12EEENSt3__15arrayIS1_XT_EEEv,
                            __ZNK3MIL8Matching9MatchView7AsArrayILm13EEENSt3__15arrayIS1_XT_EEEv,
                            __ZNK3MIL8Matching9MatchView7AsArrayILm14EEENSt3__15arrayIS1_XT_EEEv,
                            __ZNK3MIL8Matching9MatchView7AsArrayILm15EEENSt3__15arrayIS1_XT_EEEv,
                            __ZNK3MIL8Matching9MatchView7AsArrayILm16EEENSt3__15arrayIS1_XT_EEEv,
                            __ZNK3MIL8Matching9MatchView7AsArrayILm2EEENSt3__15arrayIS1_XT_EEEv,
                            __ZNK3MIL8Matching9MatchView7AsArrayILm3EEENSt3__15arrayIS1_XT_EEEv,
                            __ZNK3MIL8Matching9MatchView7AsArrayILm4EEENSt3__15arrayIS1_XT_EEEv,
                            __ZNK3MIL8Matching9MatchView7AsArrayILm5EEENSt3__15arrayIS1_XT_EEEv,
                            __ZNK3MIL8Matching9MatchView7AsArrayILm6EEENSt3__15arrayIS1_XT_EEEv,
                            __ZNK3MIL8Matching9MatchView7AsArrayILm7EEENSt3__15arrayIS1_XT_EEEv,
                            __ZNK3MIL8Matching9MatchView7AsArrayILm8EEENSt3__15arrayIS1_XT_EEEv,
                            __ZNK3MIL8Matching9MatchView7AsArrayILm9EEENSt3__15arrayIS1_XT_EEEv,
                            __ZTIFN3MIL16ValidationResultERKNS_11IROperationEE,
                            __ZTINSt3__110__function6__baseIFN3MIL16ValidationResultERKNS2_11IROperationEEEE,
                            __ZTINSt3__110__function6__baseIFNS_10shared_ptrIKN3MIL7IRValueEEERKNS3_11IROperationEEEE,
                            __ZTINSt3__110__function6__baseIFNS_10unique_ptrIN3MIL7IRBlockENS_14default_deleteIS4_EEEERKS4_EEE,
                            __ZTINSt3__110__function6__baseIFNS_12basic_stringIcNS_11char_traitsIcEENS_9allocatorIcEEEERKN3MIL11IROperationEEEE,
                            __ZTINSt3__110__function6__baseIFNS_6vectorIPKN3MIL11IRValueTypeENS_9allocatorIS6_EEEERKNS_10shared_ptrINS3_10MILContextEEENSA_IKNS3_8LocationEEERKNS_13unordered_mapINS_12basic_stringIcNS_11char_traitsIcEENS7_IcEEEENS2_INSA_INS3_15IRTypedArgumentEEENS7_ISP_EEEENS_4hashISN_EENS_8equal_toISN_EENS7_INS_4pairIKSN_SR_EEEEEERKNSI_ISN_NSA_IKNS3_7IRValueEEEST_SV_NS7_INSW_ISX_S15_EEEEEERKNS2_IS9_NS7_IS9_EEEEEEE,
                            __ZTINSt3__110__function6__baseIFbRKN3MIL7Builder14DataDependencyEEEE,
                            __ZTINSt3__110__function6__baseIFbRKNS_12basic_stringIcNS_11char_traitsIcEENS_9allocatorIcEEEEEEE,
                            __ZTINSt3__110__function6__baseIFbRN3MIL7Builder16OperationBuilderEEEE,
                            __ZTINSt3__110__function6__baseIFvPvEEE,
                            __ZTINSt3__110__function6__baseIFvRKNS_12basic_stringIcNS_11char_traitsIcEENS_9allocatorIcEEEEEEE,
                            __ZTINSt3__110__function6__baseIFvRN3MIL11IROperationENS_10shared_ptrIKNS2_7IRValueEEEEEE,
                            __ZTINSt3__110__function6__baseIFvvEEE,
                            __ZTINSt3__112basic_stringIcNS_11char_traitsIcEENS_9allocatorIcEEEE,
                            __ZTINSt3__113basic_fstreamIcNS_11char_traitsIcEEEE,
                            __ZTINSt3__117bad_function_callE,
                            __ZTINSt3__121__basic_string_commonILb1EEE,
                            __ZTINSt3__123enable_shared_from_thisIN3MIL7Builder16OperationBuilderEEE,
                            __ZTIPFN3MIL16ValidationResultERKNS_11IROperationEE,
                            __ZTSFN3MIL16ValidationResultERKNS_11IROperationEE,
                            __ZTSNSt3__110__function6__baseIFN3MIL16ValidationResultERKNS2_11IROperationEEEE,
                            __ZTSNSt3__110__function6__baseIFNS_10shared_ptrIKN3MIL7IRValueEEERKNS3_11IROperationEEEE,
                            __ZTSNSt3__110__function6__baseIFNS_10unique_ptrIN3MIL7IRBlockENS_14default_deleteIS4_EEEERKS4_EEE,
                            __ZTSNSt3__110__function6__baseIFNS_12basic_stringIcNS_11char_traitsIcEENS_9allocatorIcEEEERKN3MIL11IROperationEEEE,
                            __ZTSNSt3__110__function6__baseIFNS_6vectorIPKN3MIL11IRValueTypeENS_9allocatorIS6_EEEERKNS_10shared_ptrINS3_10MILContextEEENSA_IKNS3_8LocationEEERKNS_13unordered_mapINS_12basic_stringIcNS_11char_traitsIcEENS7_IcEEEENS2_INSA_INS3_15IRTypedArgumentEEENS7_ISP_EEEENS_4hashISN_EENS_8equal_toISN_EENS7_INS_4pairIKSN_SR_EEEEEERKNSI_ISN_NSA_IKNS3_7IRValueEEEST_SV_NS7_INSW_ISX_S15_EEEEEERKNS2_IS9_NS7_IS9_EEEEEEE,
                            __ZTSNSt3__110__function6__baseIFbRKN3MIL7Builder14DataDependencyEEEE,
                            __ZTSNSt3__110__function6__baseIFbRKNS_12basic_stringIcNS_11char_traitsIcEENS_9allocatorIcEEEEEEE,
                            __ZTSNSt3__110__function6__baseIFbRN3MIL7Builder16OperationBuilderEEEE,
                            __ZTSNSt3__110__function6__baseIFvPvEEE,
                            __ZTSNSt3__110__function6__baseIFvRKNS_12basic_stringIcNS_11char_traitsIcEENS_9allocatorIcEEEEEEE,
                            __ZTSNSt3__110__function6__baseIFvRN3MIL11IROperationENS_10shared_ptrIKNS2_7IRValueEEEEEE,
                            __ZTSNSt3__110__function6__baseIFvvEEE,
                            __ZTSNSt3__110shared_ptrIN3MIL7Builder16OperationBuilderEE27__shared_ptr_default_deleteIS3_S3_EE,
                            __ZTSNSt3__110shared_ptrINS_6vectorIPKN3MIL11IRDimensionENS_9allocatorIS5_EEEEE27__shared_ptr_default_deleteIS8_S8_EE,
                            __ZTSNSt3__110shared_ptrINS_6vectorIPKN3MIL11IRValueTypeENS_9allocatorIS5_EEEEE27__shared_ptr_default_deleteIS8_S8_EE,
                            __ZTSNSt3__112basic_stringIcNS_11char_traitsIcEENS_9allocatorIcEEEE,
                            __ZTSNSt3__113basic_fstreamIcNS_11char_traitsIcEEEE,
                            __ZTSNSt3__114default_deleteIKN3MIL11IRListValueEEE,
                            __ZTSNSt3__114default_deleteIKN3MIL12IRTupleValueEEE,
                            __ZTSNSt3__114default_deleteIKN3MIL13IRTensorValueEEE,
                            __ZTSNSt3__114default_deleteIKN3MIL17IRDictionaryValueEEE,
                            __ZTSNSt3__114default_deleteIKN3MIL7IRScopeEEE,
                            __ZTSNSt3__114default_deleteIKN3MIL7IRValueEEE,
                            __ZTSNSt3__114default_deleteIN3MIL10IRArgumentEEE,
                            __ZTSNSt3__114default_deleteIN3MIL10IRFunctionEEE,
                            __ZTSNSt3__114default_deleteIN3MIL10IROperatorEEE,
                            __ZTSNSt3__114default_deleteIN3MIL10Validation22TensorDTypeConstraintsEEE,
                            __ZTSNSt3__114default_deleteIN3MIL10Validation24OpOutputConstraintTargetEEE,
                            __ZTSNSt3__114default_deleteIN3MIL10Validation26TensorRankValueConstraintsEEE,
                            __ZTSNSt3__114default_deleteIN3MIL10Validation27OpAttributeConstraintTargetEEE,
                            __ZTSNSt3__114default_deleteIN3MIL10Validation27OpParameterConstraintTargetEEE,
                            __ZTSNSt3__114default_deleteIN3MIL10Validation30TensorSymbolicShapeConstraintsEEE,
                            __ZTSNSt3__114default_deleteIN3MIL10Validation31PossibleStringValuesConstraintsEEE,
                            __ZTSNSt3__114default_deleteIN3MIL11IROperationEEE,
                            __ZTSNSt3__114default_deleteIN3MIL11IRParameterEEE,
                            __ZTSNSt3__114default_deleteIN3MIL15IRTypedArgumentEEE,
                            __ZTSNSt3__114default_deleteIN3MIL15UnknownLocationEEE,
                            __ZTSNSt3__114default_deleteIN3MIL16IRNamedValueTypeEEE,
                            __ZTSNSt3__114default_deleteIN3MIL16TextFileLocationEEE,
                            __ZTSNSt3__114default_deleteIN3MIL21OperationNameLocationEEE,
                            __ZTSNSt3__114default_deleteIN3MIL4EdgeEEE,
                            __ZTSNSt3__114default_deleteIN3MIL7Builder12BlockBuilderEEE,
                            __ZTSNSt3__114default_deleteIN3MIL7Builder14ProgramBuilderEEE,
                            __ZTSNSt3__114default_deleteIN3MIL7Builder15FunctionBuilderEEE,
                            __ZTSNSt3__114default_deleteIN3MIL7IRBlockEEE,
                            __ZTSNSt3__114default_deleteINS_13unordered_mapINS_12basic_stringIcNS_11char_traitsIcEENS_9allocatorIcEEEENS_10shared_ptrIN3MIL11IRParameterEEENS_4hashIS7_EENS_8equal_toIS7_EENS5_INS_4pairIKS7_SB_EEEEEEEE,
                            __ZTSNSt3__114default_deleteINS_6vectorINS_10shared_ptrIN3MIL11IRParameterEEENS_9allocatorIS5_EEEEEE,
                            __ZTSNSt3__114default_deleteINS_6vectorIPKN3MIL11IRDimensionENS_9allocatorIS5_EEEEEE,
                            __ZTSNSt3__117bad_function_callE,
                            __ZTSNSt3__121__basic_string_commonILb1EEE,
                            __ZTSNSt3__123enable_shared_from_thisIN3MIL7Builder16OperationBuilderEEE,
                            __ZTSPFN3MIL16ValidationResultERKNS_11IROperationEE ]
...
