--- !tapi-tbd-v3
archs:                 [ armv7, armv7s, arm64, arm64e ]
platform:              ios
flags:                 [ flat_namespace ]
install-name:          /System/Library/PrivateFrameworks/iWorkImport.framework/Frameworks/TSCharts.framework/TSCharts
current-version:       1
compatibility-version: 1
objc-constraint:       retain_release
exports:
  - archs:                [ armv7, armv7s, arm64, arm64e ]
    symbols:              [ _$s8TSCharts20TSCHKnobsDisplayModeO8rawValueACSgSi_tcfC,
                            _$s8TSCharts20TSCHKnobsDisplayModeO8rawValueSivg,
                            _$s8TSCharts20TSCHKnobsDisplayModeO8rawValueSivpMV,
                            _$s8TSCharts20TSCHKnobsDisplayModeOMa,
                            _$s8TSCharts20TSCHKnobsDisplayModeOMn,
                            _$s8TSCharts20TSCHKnobsDisplayModeON,
                            _$s8TSCharts20TSCHKnobsDisplayModeOSHAAMc,
                            _$s8TSCharts20TSCHKnobsDisplayModeOSQAAMc,
                            _$s8TSCharts20TSCHKnobsDisplayModeOSYAAMc,
                            _$s8TSCharts23TSCHChartGridLayoutItemC6parentACSo0bdE0CSg_tcfC,
                            _$s8TSCharts23TSCHChartGridLayoutItemC6parentACSo0bdE0CSg_tcfc,
                            _$s8TSCharts23TSCHChartGridLayoutItemC9renderers7withRepSaySo12TSCHRendererCGSo21TSCHSupportsRendering_p_tF,
                            _$s8TSCharts23TSCHChartGridLayoutItemCMa,
                            _$s8TSCharts23TSCHChartGridLayoutItemCMn,
                            _$s8TSCharts23TSCHChartGridLayoutItemCN,
                            _$s8TSCharts23TSCHChartGridLayoutItemCfD,
                            _$sSo12TSCHChartRepC8TSChartsE16knobsDisplayModeAC09TSCHKnobseF0Ovg,
                            _$sSo12TSCHChartRepC8TSChartsE16knobsDisplayModeAC09TSCHKnobseF0OvpMV,
                            _$sSo13TSCHChartTypeC8TSChartsE5radarABvgZ,
                            _$sSo15TSCHChartLayoutC8TSChartsE13normalizeRect_05outerE0So6CGRectVAG_AGtFZ,
                            _$sSo15TSCHChartLayoutC8TSChartsE9outerRect3forSo6CGRectVSayAGG_tFZ,
                            _$sSo19TSCHChartLayoutItemC8TSChartsE31halfProtrusionForRegularPolygon9withSides11strokeWidth12CoreGraphics7CGFloatVSi_AItFZ,
                            _NSStringFromStyleOwnerType,
                            _NSStringFromStyleSwapType,
                            _NSStringFromTSCHChartLayoutSettings,
                            _NSStringFromTSCHLegendAnchorLine,
                            _NSStringFromTSCHLegendAnchorRange,
                            _TSCH3DChartCacheableGetProjectedBoundsPipelineCat_init_token,
                            _TSCH3DChartCacheableGetProjectedBoundsPipelineCat_log_t,
                            _TSCH3DGPUMUXGraphicsLogCat,
                            _TSCH3DGPUMUXGraphicsLogCat_init_token,
                            _TSCH3DGPUMUXGraphicsLogCat_log_t,
                            _TSCH3DGetAndCacheAscent,
                            _TSCH3DLabelsRendererShouldCacheArraysProperty,
                            _TSCH3DLogEnabled, _TSCH3DLogFOverrideEnabled,
                            _TSCH3DLogShaderEnabled, _TSCH3DPlatformSettingsLog,
                            _TSCH3DPlatformSettingsLog_init_token,
                            _TSCH3DPlatformSettingsLog_log_t,
                            _TSCH3DSceneLogEnabled, _TSCH3DTextureBundle,
                            _TSCHAADefeatContextInfoFromCGContext,
                            _TSCHAADefeatContextInfoWithUserToDeviceSpaceTransform,
                            _TSCHAliasRound, _TSCHApplicationDidBecomeActive,
                            _TSCHApplicationWillEnterForeground,
                            _TSCHApplicationWillResignActive,
                            _TSCHApplyNewValueToArrayAtIndex,
                            _TSCHAxisUnitSpaceValueForReferenceLine,
                            _TSCHBitmapContextCreate, _TSCHBundle,
                            _TSCHCGContextIsFlipped, _TSCHCeilSize,
                            _TSCHCeilSizeWithTolerance,
                            _TSCHChartDrawableLayoutPropertyValueDidChangeNotification,
                            _TSCHChartDrawableLayoutWillAddToLayoutControllerNotification,
                            _TSCHChartLayoutSettingsEqual,
                            _TSCHChartLayoutVerbose1Cat,
                            _TSCHChartLayoutVerbose1Cat_init_token,
                            _TSCHChartLayoutVerbose1Cat_log_t,
                            _TSCHChartLayoutVerbose2Cat,
                            _TSCHChartLayoutVerbose2Cat_init_token,
                            _TSCHChartLayoutVerbose2Cat_log_t,
                            _TSCHChartLayoutVerbose3Cat,
                            _TSCHChartLayoutVerbose3Cat_init_token,
                            _TSCHChartLayoutVerbose3Cat_log_t,
                            _TSCHChartRepSubselectionKnobLayerRemoveSublayers,
                            _TSCHChartSeriesFilteredValueLabelPositionProperty,
                            _TSCHChartSeriesNumberFormatForwardingPropertyName,
                            _TSCHChartStylePackageName,
                            _TSCHCheckedDynamicStyleCast,
                            _TSCHClearAllCGContextFlip,
                            _TSCHClearCGContextIsFlipped,
                            _TSCHConcatTransformValues, _TSCHConcatTransforms,
                            _TSCHContextConvertPointToDeviceSpace,
                            _TSCHContextConvertPointToUserSpace,
                            _TSCHContextConvertRectToDeviceSpace,
                            _TSCHContextConvertRectToUserSpace,
                            _TSCHContextConvertSizeToDeviceSpace,
                            _TSCHContextConvertSizeToUserSpace,
                            _TSCHConvertNormalizedLayoutRectsToModel,
                            _TSCHCopyPropertyToPropertyInMap,
                            _TSCHCreatePathFromIntersectionOfPathAndRect,
                            _TSCHCreatePathWithLinePoints,
                            _TSCHCreateRoundedCornerPathForRect,
                            _TSCHCreateRoundedCornerStackPath,
                            _TSCHDefaultHitCheckingMinSize, _TSCHDefeatAALine,
                            _TSCHDefeatAALinePoints, _TSCHDefeatAAPoint,
                            _TSCHDefeatAARect, _TSCHDefeatAARectWithContextInfo,
                            _TSCHDeviceSpaceSize, _TSCHDocumentDidLoad,
                            _TSCHDocumentDidUnload, _TSCHDocumentWillClose,
                            _TSCHDownsampleThreshold,
                            _TSCHEnlargeRectForTextHitChecking,
                            _TSCHErrorBarDescriptorMake,
                            _TSCHErrorBarsInSeriesForAxisHitAtPoint,
                            _TSCHFillOrReferenceColorFillForRadialElementWithArcLength,
                            _TSCHFillOrReferenceColorFillForRect,
                            _TSCHFlattenedSeriesStyleArray,
                            _TSCHInvalidateEditableOnCanvasTextSelection,
                            _TSCHIsChunkStyleLikeAllAtOnce,
                            _TSCHIsExistingValueInArrayAtIndexEquivalent,
                            _TSCHIsStyleObjectVisible, _TSCHLegendAACat,
                            _TSCHLegendAACat_init_token, _TSCHLegendAACat_log_t,
                            _TSCHLegendAnchorLineAffectsXOnly,
                            _TSCHLegendAnchorLineAffectsYOnly,
                            _TSCHLegendAnchorLineAllRectPointsAreInFront,
                            _TSCHLegendAnchorLineCountOfPointInFront,
                            _TSCHLegendAnchorLineCountOfRectPointsInFront,
                            _TSCHLegendAnchorLineDistanceToLine,
                            _TSCHLegendAnchorLineDistanceToPoint,
                            _TSCHLegendAnchorLineEnumerateFromRect,
                            _TSCHLegendAnchorLineFlippedNormalFromLine,
                            _TSCHLegendAnchorLineFromNormalPoint,
                            _TSCHLegendAnchorLineFromRectAtIndex,
                            _TSCHLegendAnchorLineFromRectAtOppositeOfIndex,
                            _TSCHLegendAnchorLineFromRectInDimension,
                            _TSCHLegendAnchorLineGetDimension,
                            _TSCHLegendAnchorLineGetPosition,
                            _TSCHLegendAnchorLineMovePointToFront,
                            _TSCHLegendAnchorLineOnlyAffectsDimension,
                            _TSCHLegendAnchorLineOppositeIndexOfRectIndex,
                            _TSCHLegendAnchorLinePointAtDistance,
                            _TSCHLegendAnchorLinePointForRectAtIndex,
                            _TSCHLegendAnchorRangeByMovingLocation,
                            _TSCHLegendAnchorRangeFromCenterLength,
                            _TSCHLegendAnchorRangeFromCenterSide,
                            _TSCHLegendAnchorRangeFromLocationAndLength,
                            _TSCHLegendAnchorRangeFromLocations,
                            _TSCHLegendAnchorRangeFromMinMax,
                            _TSCHLegendAnchorRangeFromNormalized,
                            _TSCHLegendAnchorRangeFromPortion,
                            _TSCHLegendAnchorRangeFromRect,
                            _TSCHLegendAnchorRangeGetLength,
                            _TSCHLegendAnchorRangeGetMidLocation,
                            _TSCHLegendAnchorRangeIntersectedRange,
                            _TSCHLegendAnchorRangeIntersectedRangePortion,
                            _TSCHLegendAnchorRangeIntersectsRange,
                            _TSCHLegendAnchorRangeIsValid,
                            _TSCHLegendAnchorRangeLocationFromNormalized,
                            _TSCHLegendAnchorRangeMinDistanceToRange,
                            _TSCHLegendAnchorRangeNormalizedLocation,
                            _TSCHLegendAnchorRangeNormalizedRange,
                            _TSCHLegendAnchorRangeSafeGetLength,
                            _TSCHLegendRectFromAnchorRanges,
                            _TSCHLineEndTypeForLineEnd,
                            _TSCHMakeDefaultChartLayoutSettings,
                            _TSCHMathCalculateExponent,
                            _TSCHMathNormalizeDegrees, _TSCHMathNormalizeRadians,
                            _TSCHMathNumberOfDecimalPlaces,
                            _TSCHMathRoundDownWithRange,
                            _TSCHMathRoundUpWithRange,
                            _TSCHMultiDataChartRepNullValueLogCat,
                            _TSCHMultiDataChartRepNullValueLogCat_init_token,
                            _TSCHMultiDataChartRepNullValueLogCat_log_t,
                            _TSCHMutationDictFromPropertyMap,
                            _TSCHNSStringFromAADefeatContextInfo,
                            _TSCHNormalizeLayoutSideRects,
                            _TSCHNormalizeLayoutSideRectsWithOffsetAndSize,
                            _TSCHNormalizeRect,
                            _TSCHNoteBackgroundPrintingOf3DCharts,
                            _TSCHOperationBaseNameFromStyleOwnerTypeAndIndex,
                            _TSCHOtherStateIsEquivalentFailure,
                            _TSCHPathAndClipToTransformSizeClipPath,
                            _TSCHPathFittingPointsCallback,
                            _TSCHPointInFrameFromUnitPoint,
                            _TSCHPointMultiplyScalar, _TSCHPropertyIsGeneric,
                            _TSCHPropertyIsSpecific,
                            _TSCHPropertyMapFromMutationDict, _TSCHRectIntegral,
                            _TSCHRectMultiplyScalar,
                            _TSCHRegisterPersistentClasses,
                            _TSCHRenderingLayerForAxisPosition, _TSCHRound,
                            _TSCHSelectionEqualToSelection,
                            _TSCHSelectionNameAxisLabel,
                            _TSCHSelectionNameAxisLine,
                            _TSCHSelectionNameAxisTitle,
                            _TSCHSelectionNameCategoryAxis,
                            _TSCHSelectionNameChartBody,
                            _TSCHSelectionNameChartDataSetName,
                            _TSCHSelectionNameChartTitle,
                            _TSCHSelectionNameErrorBar,
                            _TSCHSelectionNameGridLine,
                            _TSCHSelectionNameGridValue,
                            _TSCHSelectionNameLegend,
                            _TSCHSelectionNameLegendSeriesName,
                            _TSCHSelectionNameReferenceLine,
                            _TSCHSelectionNameReferenceLineLabel,
                            _TSCHSelectionNameReferenceLineValueLabel,
                            _TSCHSelectionNameSeries,
                            _TSCHSelectionNameSeriesEditMode,
                            _TSCHSelectionNameSeriesLabel,
                            _TSCHSelectionNameSeriesSymbols,
                            _TSCHSelectionNameSeriesValueLabel,
                            _TSCHSelectionNameTrendLineEquationName,
                            _TSCHSelectionNameTrendLineName,
                            _TSCHSelectionNameTrendLineR2Name,
                            _TSCHSelectionNameValueAxis,
                            _TSCHSelectionTypeElement,
                            _TSCHSelectionTypeStateTracking,
                            _TSCHSelectionTypeText,
                            _TSCHSeparateErrorBarSettingsToVisibilityPropertiesInMap,
                            _TSCHSeparateIntPropertyToVisibilityPropertyInMap,
                            _TSCHSeparateObjectPropertyToVisibilityPropertyInMap,
                            _TSCHSeparateTrendLineTypeToVisibilityPropertyInMap,
                            _TSCHSeparateVisibilityPropertyForStyleProperty,
                            _TSCHSeriesStyleForSeriesIndex,
                            _TSCHSetCGContextIsFlipped,
                            _TSCHSetChartLayoutSettingsForceOmitAll,
                            _TSCHSetChartLayoutSettingsForceOmitNone,
                            _TSCHSetFontSmoothingOptionsForBitmapContext,
                            _TSCHSizeApplyAffineTransform,
                            _TSCHSnappedLabelAngleInDegrees,
                            _TSCHStackSignBothPositiveAndNegative,
                            _TSCHStringFromAxisType,
                            _TSCHStringFromAxisTypeForDisplay,
                            _TSCHStyleOwnerPathTypeFromSwapType,
                            _TSCHStyleOwnerTypeFromStyleSwapType,
                            _TSCHStyleOwningBoxedValueForProperty,
                            _TSCHStyleOwningBoxedValueForPropertyOnInstance,
                            _TSCHStyleOwningHasFloatValue,
                            _TSCHStyleOwningHasFloatValueOnInstance,
                            _TSCHStyleOwningHasIntValue,
                            _TSCHStyleOwningHasIntValueOnInstance,
                            _TSCHStyleOwningHasObjectValue,
                            _TSCHStyleOwningHasObjectValueOnInstance,
                            _TSCHStylePropertyForSeparateVisibilityProperty,
                            _TSCHStyleSwapTypeIsNonstyle,
                            _TSCHStyleSwapTypeIsStyle,
                            _TSCHStyleUtilitiesPropertyMapsAreEqual,
                            _TSCHTransformedRectsIntersect,
                            _TSCHTupleSortForApplyComparator,
                            __Z16kTSCHUnknownSizev,
                            __Z18gridRowFromArchiveRKN4TSCH7GridRowE,
                            __Z20gridValueFromArchiveRKN4TSCH9GridValueE,
                            __Z20saveGridRowToArchiveP7NSArrayIPU29objcproto18TSCHChartGridValue8NSObjectEPN4TSCH7GridRowE,
                            __Z22saveGridValueToArchivePU29objcproto18TSCHChartGridValue11objc_objectPN4TSCH9GridValueE,
                            __Z23TSCHArchiveRectToCGRectRKN4TSCH11RectArchiveE,
                            __Z25TSCHArchiveRectFromCGRectRN4TSCH11RectArchiveE6CGRect,
                            __Z26TSCHTSKFormatSaveToArchiveP9TSKFormatRN3TSK19FormatStructArchiveE,
                            __Z29TSCH3DShaderProgramBreakPointv,
                            __Z29TSCHArchivedToNativeChartTypeN4TSCH9ChartTypeE,
                            __Z29TSCHNativeToArchivedChartTypeP13TSCHChartType,
                            __Z29specularColorFromDiffuseColorRKN3glm6detail5tvec4IfEE,
                            __Z32TSCHCDESelectionEqualToSelectionP16TSCHCDESelectionS0_,
                            __Z37TSCHArchivedToNativeFractionAccuracyeN4TSCH16FractionAccuracyE,
                            __Z37TSCHChartAxisTypeFromProtobufAxisTypeN4TSCH8AxisTypeE,
                            __Z37TSCHProtobufAxisTypeFromChartAxisType17TSCHChartAxisType,
                            __Z39TSCHArchivedToNativeNegativeNumberStyleN4TSCH19NegativeNumberStyleE,
                            __Z43TSCH3DChartSceneAreaLayoutItemSettingsEqual23TSCHChartLayoutSettingsS_,
                            __Z44TSCHConvertDateFormatPropertyTo1_0DateFormat11TSSPropertyP14TSSPropertyMapP9TSULocale,
                            __Z48TSCHConvertNumberFormatPropertyTo1_0NumberFormat11TSSPropertyP14TSSPropertyMap,
                            __Z57TSCHConvert1_0DateFormatPropertyToDateFormatPropertyInMap11TSSPropertyS_P14TSSPropertyMap,
                            __Z61TSCHConvert1_0NumberFormatPropertyToNumberFormatPropertyInMap11TSSPropertyS_P14TSSPropertyMap,
                            __ZN32TableStruct_TSCHArchives_2eproto7offsetsE,
                            __ZN34TableStruct_TSCH3DArchives_2eproto7offsetsE,
                            __ZN38TableStruct_TSCHArchives_2eGEN_2eproto7offsetsE,
                            __ZN38TableStruct_TSCHArchives_2esos_2eproto7offsetsE,
                            __ZN38TableStruct_TSCHPreUFFArchives_2eproto7offsetsE,
                            __ZN39TableStruct_TSCHCommandArchives_2eproto7offsetsE,
                            __ZN41TSCH3DChartSceneAreaLayoutItemCacheValues10printDebugEv,
                            __ZN41TSCH3DChartSceneAreaLayoutItemCacheValuesC1ERKN3glm6detail5tvec4IfEERKNS1_5tvec2IiEERKNS6_IfEERK6CGSizeSF_SF_SF_S9_RK23TSCHChartLayoutSettingsb,
                            __ZN41TSCH3DChartSceneAreaLayoutItemCacheValuesC1Ev,
                            __ZN41TSCH3DChartSceneAreaLayoutItemCacheValuesC2ERKN3glm6detail5tvec4IfEERKNS1_5tvec2IiEERKNS6_IfEERK6CGSizeSF_SF_SF_S9_RK23TSCHChartLayoutSettingsb,
                            __ZN41TSCH3DChartSceneAreaLayoutItemCacheValuesC2Ev,
                            __ZN41TableStruct_TSCHArchives_2eCommon_2eproto7offsetsE,
                            __ZN4TSCH105_CommandMutatePropertiesArchive_ParagraphStyleDeltaMap_ParagraphStylePropertyMapArchive_default_instance_E,
                            __ZN4TSCH113_CommandSetFontFamilyArchive_SemanticParagraphStyleMutationMap_ParagraphStylePropertyMapArchive_default_instance_E,
                            __ZN4TSCH11RectArchive10clear_sizeEv,
                            __ZN4TSCH11RectArchive12InternalSwapEPS0_,
                            __ZN4TSCH11RectArchive12clear_originEv,
                            __ZN4TSCH11RectArchive14_InternalParseEPKcPN6google8protobuf8internal12ParseContextE,
                            __ZN4TSCH11RectArchive16default_instanceEv,
                            __ZN4TSCH11RectArchive5ClearEv,
                            __ZN4TSCH11RectArchive8CopyFromERKN6google8protobuf7MessageE,
                            __ZN4TSCH11RectArchive8CopyFromERKS0_,
                            __ZN4TSCH11RectArchive9ArenaDtorEPv,
                            __ZN4TSCH11RectArchive9MergeFromERKN6google8protobuf7MessageE,
                            __ZN4TSCH11RectArchive9MergeFromERKS0_,
                            __ZN4TSCH11RectArchive9_Internal4sizeEPKS0_,
                            __ZN4TSCH11RectArchive9_Internal6originEPKS0_,
                            __ZN4TSCH11RectArchiveC1EPN6google8protobuf5ArenaE,
                            __ZN4TSCH11RectArchiveC1ERKS0_,
                            __ZN4TSCH11RectArchiveC2EPN6google8protobuf5ArenaE,
                            __ZN4TSCH11RectArchiveC2ERKS0_,
                            __ZN4TSCH11RectArchiveD0Ev,
                            __ZN4TSCH11RectArchiveD1Ev,
                            __ZN4TSCH11RectArchiveD2Ev,
                            __ZN4TSCH12ChartArchive12InternalSwapEPS0_,
                            __ZN4TSCH12ChartArchive12clear_presetEv,
                            __ZN4TSCH12ChartArchive14_InternalParseEPKcPN6google8protobuf8internal12ParseContextE,
                            __ZN4TSCH12ChartArchive14clear_mediatorEv,
                            __ZN4TSCH12ChartArchive16default_instanceEv,
                            __ZN4TSCH12ChartArchive17clear_chart_styleEv,
                            __ZN4TSCH12ChartArchive17kUnityFieldNumberE,
                            __ZN4TSCH12ChartArchive18clear_legend_frameEv,
                            __ZN4TSCH12ChartArchive18clear_legend_styleEv,
                            __ZN4TSCH12ChartArchive18clear_owned_presetEv,
                            __ZN4TSCH12ChartArchive21clear_chart_non_styleEv,
                            __ZN4TSCH12ChartArchive22clear_legend_non_styleEv,
                            __ZN4TSCH12ChartArchive22clear_paragraph_stylesEv,
                            __ZN4TSCH12ChartArchive23clear_series_non_stylesEv,
                            __ZN4TSCH12ChartArchive23clear_value_axis_stylesEv,
                            __ZN4TSCH12ChartArchive25clear_series_theme_stylesEv,
                            __ZN4TSCH12ChartArchive26clear_category_axis_stylesEv,
                            __ZN4TSCH12ChartArchive26clear_value_axis_nonstylesEv,
                            __ZN4TSCH12ChartArchive27clear_series_private_stylesEv,
                            __ZN4TSCH12ChartArchive29clear_category_axis_nonstylesEv,
                            __ZN4TSCH12ChartArchive5ClearEv,
                            __ZN4TSCH12ChartArchive5unityE,
                            __ZN4TSCH12ChartArchive8CopyFromERKN6google8protobuf7MessageE,
                            __ZN4TSCH12ChartArchive8CopyFromERKS0_,
                            __ZN4TSCH12ChartArchive9ArenaDtorEPv,
                            __ZN4TSCH12ChartArchive9MergeFromERKN6google8protobuf7MessageE,
                            __ZN4TSCH12ChartArchive9MergeFromERKS0_,
                            __ZN4TSCH12ChartArchive9_Internal11chart_styleEPKS0_,
                            __ZN4TSCH12ChartArchive9_Internal12legend_frameEPKS0_,
                            __ZN4TSCH12ChartArchive9_Internal12legend_styleEPKS0_,
                            __ZN4TSCH12ChartArchive9_Internal12owned_presetEPKS0_,
                            __ZN4TSCH12ChartArchive9_Internal15chart_non_styleEPKS0_,
                            __ZN4TSCH12ChartArchive9_Internal16legend_non_styleEPKS0_,
                            __ZN4TSCH12ChartArchive9_Internal17series_non_stylesEPKS0_,
                            __ZN4TSCH12ChartArchive9_Internal21series_private_stylesEPKS0_,
                            __ZN4TSCH12ChartArchive9_Internal4gridEPKS0_,
                            __ZN4TSCH12ChartArchive9_Internal6presetEPKS0_,
                            __ZN4TSCH12ChartArchive9_Internal8mediatorEPKS0_,
                            __ZN4TSCH12ChartArchiveC1EPN6google8protobuf5ArenaE,
                            __ZN4TSCH12ChartArchiveC1ERKS0_,
                            __ZN4TSCH12ChartArchiveC2EPN6google8protobuf5ArenaE,
                            __ZN4TSCH12ChartArchiveC2ERKS0_,
                            __ZN4TSCH12ChartArchiveD0Ev,
                            __ZN4TSCH12ChartArchiveD1Ev,
                            __ZN4TSCH12ChartArchiveD2Ev,
                            __ZN4TSCH12ChartUIState11clear_chartEv,
                            __ZN4TSCH12ChartUIState12InternalSwapEPS0_,
                            __ZN4TSCH12ChartUIState14_InternalParseEPKcPN6google8protobuf8internal12ParseContextE,
                            __ZN4TSCH12ChartUIState16default_instanceEv,
                            __ZN4TSCH12ChartUIState5ClearEv,
                            __ZN4TSCH12ChartUIState8CopyFromERKN6google8protobuf7MessageE,
                            __ZN4TSCH12ChartUIState8CopyFromERKS0_,
                            __ZN4TSCH12ChartUIState9ArenaDtorEPv,
                            __ZN4TSCH12ChartUIState9MergeFromERKN6google8protobuf7MessageE,
                            __ZN4TSCH12ChartUIState9MergeFromERKS0_,
                            __ZN4TSCH12ChartUIState9_Internal5chartEPKS0_,
                            __ZN4TSCH12ChartUIStateC1EPN6google8protobuf5ArenaE,
                            __ZN4TSCH12ChartUIStateC1ERKS0_,
                            __ZN4TSCH12ChartUIStateC2EPN6google8protobuf5ArenaE,
                            __ZN4TSCH12ChartUIStateC2ERKS0_,
                            __ZN4TSCH12ChartUIStateD0Ev,
                            __ZN4TSCH12ChartUIStateD1Ev,
                            __ZN4TSCH12ChartUIStateD2Ev,
                            __ZN4TSCH14StyleOwnerPath11clear_uuidsEv,
                            __ZN4TSCH14StyleOwnerPath12InternalSwapEPS0_,
                            __ZN4TSCH14StyleOwnerPath14_InternalParseEPKcPN6google8protobuf8internal12ParseContextE,
                            __ZN4TSCH14StyleOwnerPath16default_instanceEv,
                            __ZN4TSCH14StyleOwnerPath5ClearEv,
                            __ZN4TSCH14StyleOwnerPath8CopyFromERKN6google8protobuf7MessageE,
                            __ZN4TSCH14StyleOwnerPath8CopyFromERKS0_,
                            __ZN4TSCH14StyleOwnerPath9ArenaDtorEPv,
                            __ZN4TSCH14StyleOwnerPath9MergeFromERKN6google8protobuf7MessageE,
                            __ZN4TSCH14StyleOwnerPath9MergeFromERKS0_,
                            __ZN4TSCH14StyleOwnerPathC1EPN6google8protobuf5ArenaE,
                            __ZN4TSCH14StyleOwnerPathC1ERKS0_,
                            __ZN4TSCH14StyleOwnerPathC2EPN6google8protobuf5ArenaE,
                            __ZN4TSCH14StyleOwnerPathC2ERKS0_,
                            __ZN4TSCH14StyleOwnerPathD0Ev,
                            __ZN4TSCH14StyleOwnerPathD1Ev,
                            __ZN4TSCH14StyleOwnerPathD2Ev,
                            __ZN4TSCH15reference_linesE,
                            __ZN4TSCH16AxisType_IsValidEi,
                            __ZN4TSCH16ChartGridArchive12InternalSwapEPS0_,
                            __ZN4TSCH16ChartGridArchive14_InternalParseEPKcPN6google8protobuf8internal12ParseContextE,
                            __ZN4TSCH16ChartGridArchive14clear_grid_rowEv,
                            __ZN4TSCH16ChartGridArchive16default_instanceEv,
                            __ZN4TSCH16ChartGridArchive5ClearEv,
                            __ZN4TSCH16ChartGridArchive8CopyFromERKN6google8protobuf7MessageE,
                            __ZN4TSCH16ChartGridArchive8CopyFromERKS0_,
                            __ZN4TSCH16ChartGridArchive9ArenaDtorEPv,
                            __ZN4TSCH16ChartGridArchive9MergeFromERKN6google8protobuf7MessageE,
                            __ZN4TSCH16ChartGridArchive9MergeFromERKS0_,
                            __ZN4TSCH16ChartGridArchive9_Internal5idmapEPKS0_,
                            __ZN4TSCH16ChartGridArchiveC1EPN6google8protobuf5ArenaE,
                            __ZN4TSCH16ChartGridArchiveC1ERKS0_,
                            __ZN4TSCH16ChartGridArchiveC2EPN6google8protobuf5ArenaE,
                            __ZN4TSCH16ChartGridArchiveC2ERKS0_,
                            __ZN4TSCH16ChartGridArchiveD0Ev,
                            __ZN4TSCH16ChartGridArchiveD1Ev,
                            __ZN4TSCH16ChartGridArchiveD2Ev,
                            __ZN4TSCH16ChartStylePreset12InternalSwapEPS0_,
                            __ZN4TSCH16ChartStylePreset14_InternalParseEPKcPN6google8protobuf8internal12ParseContextE,
                            __ZN4TSCH16ChartStylePreset16default_instanceEv,
                            __ZN4TSCH16ChartStylePreset17clear_chart_styleEv,
                            __ZN4TSCH16ChartStylePreset18clear_legend_styleEv,
                            __ZN4TSCH16ChartStylePreset19clear_series_stylesEv,
                            __ZN4TSCH16ChartStylePreset22clear_paragraph_stylesEv,
                            __ZN4TSCH16ChartStylePreset23clear_value_axis_stylesEv,
                            __ZN4TSCH16ChartStylePreset26clear_category_axis_stylesEv,
                            __ZN4TSCH16ChartStylePreset5ClearEv,
                            __ZN4TSCH16ChartStylePreset8CopyFromERKN6google8protobuf7MessageE,
                            __ZN4TSCH16ChartStylePreset8CopyFromERKS0_,
                            __ZN4TSCH16ChartStylePreset9ArenaDtorEPv,
                            __ZN4TSCH16ChartStylePreset9MergeFromERKN6google8protobuf7MessageE,
                            __ZN4TSCH16ChartStylePreset9MergeFromERKS0_,
                            __ZN4TSCH16ChartStylePreset9_Internal11chart_styleEPKS0_,
                            __ZN4TSCH16ChartStylePreset9_Internal12legend_styleEPKS0_,
                            __ZN4TSCH16ChartStylePresetC1EPN6google8protobuf5ArenaE,
                            __ZN4TSCH16ChartStylePresetC1ERKS0_,
                            __ZN4TSCH16ChartStylePresetC2EPN6google8protobuf5ArenaE,
                            __ZN4TSCH16ChartStylePresetC2ERKS0_,
                            __ZN4TSCH16ChartStylePresetD0Ev,
                            __ZN4TSCH16ChartStylePresetD1Ev,
                            __ZN4TSCH16ChartStylePresetD2Ev,
                            __ZN4TSCH17ChartStyleArchive11clear_superEv,
                            __ZN4TSCH17ChartStyleArchive12InternalSwapEPS0_,
                            __ZN4TSCH17ChartStyleArchive14_InternalParseEPKcPN6google8protobuf8internal12ParseContextE,
                            __ZN4TSCH17ChartStyleArchive16default_instanceEv,
                            __ZN4TSCH17ChartStyleArchive5ClearEv,
                            __ZN4TSCH17ChartStyleArchive8CopyFromERKN6google8protobuf7MessageE,
                            __ZN4TSCH17ChartStyleArchive8CopyFromERKS0_,
                            __ZN4TSCH17ChartStyleArchive9ArenaDtorEPv,
                            __ZN4TSCH17ChartStyleArchive9MergeFromERKN6google8protobuf7MessageE,
                            __ZN4TSCH17ChartStyleArchive9MergeFromERKS0_,
                            __ZN4TSCH17ChartStyleArchive9_Internal5superEPKS0_,
                            __ZN4TSCH17ChartStyleArchiveC1EPN6google8protobuf5ArenaE,
                            __ZN4TSCH17ChartStyleArchiveC1ERKS0_,
                            __ZN4TSCH17ChartStyleArchiveC2EPN6google8protobuf5ArenaE,
                            __ZN4TSCH17ChartStyleArchiveC2ERKS0_,
                            __ZN4TSCH17ChartStyleArchiveD0Ev,
                            __ZN4TSCH17ChartStyleArchiveD1Ev,
                            __ZN4TSCH17ChartStyleArchiveD2Ev,
                            __ZN4TSCH17ChartType_IsValidEi,
                            __ZN4TSCH18Chart3DFillArchive12InternalSwapEPS0_,
                            __ZN4TSCH18Chart3DFillArchive14_InternalParseEPKcPN6google8protobuf8internal12ParseContextE,
                            __ZN4TSCH18Chart3DFillArchive16default_instanceEv,
                            __ZN4TSCH18Chart3DFillArchive5ClearEv,
                            __ZN4TSCH18Chart3DFillArchive8CopyFromERKN6google8protobuf7MessageE,
                            __ZN4TSCH18Chart3DFillArchive8CopyFromERKS0_,
                            __ZN4TSCH18Chart3DFillArchive9ArenaDtorEPv,
                            __ZN4TSCH18Chart3DFillArchive9MergeFromERKN6google8protobuf7MessageE,
                            __ZN4TSCH18Chart3DFillArchive9MergeFromERKS0_,
                            __ZN4TSCH18Chart3DFillArchive9_Internal13lightingmodelEPKS0_,
                            __ZN4TSCH18Chart3DFillArchiveC1EPN6google8protobuf5ArenaE,
                            __ZN4TSCH18Chart3DFillArchiveC1ERKS0_,
                            __ZN4TSCH18Chart3DFillArchiveC2EPN6google8protobuf5ArenaE,
                            __ZN4TSCH18Chart3DFillArchiveC2ERKS0_,
                            __ZN4TSCH18Chart3DFillArchiveD0Ev,
                            __ZN4TSCH18Chart3DFillArchiveD1Ev,
                            __ZN4TSCH18Chart3DFillArchiveD2Ev,
                            __ZN4TSCH18ChartAxisIDArchive12InternalSwapEPS0_,
                            __ZN4TSCH18ChartAxisIDArchive14_InternalParseEPKcPN6google8protobuf8internal12ParseContextE,
                            __ZN4TSCH18ChartAxisIDArchive16default_instanceEv,
                            __ZN4TSCH18ChartAxisIDArchive5ClearEv,
                            __ZN4TSCH18ChartAxisIDArchive8CopyFromERKN6google8protobuf7MessageE,
                            __ZN4TSCH18ChartAxisIDArchive8CopyFromERKS0_,
                            __ZN4TSCH18ChartAxisIDArchive9ArenaDtorEPv,
                            __ZN4TSCH18ChartAxisIDArchive9MergeFromERKN6google8protobuf7MessageE,
                            __ZN4TSCH18ChartAxisIDArchive9MergeFromERKS0_,
                            __ZN4TSCH18ChartAxisIDArchiveC1EPN6google8protobuf5ArenaE,
                            __ZN4TSCH18ChartAxisIDArchiveC1ERKS0_,
                            __ZN4TSCH18ChartAxisIDArchiveC2EPN6google8protobuf5ArenaE,
                            __ZN4TSCH18ChartAxisIDArchiveC2ERKS0_,
                            __ZN4TSCH18ChartAxisIDArchiveD0Ev,
                            __ZN4TSCH18ChartAxisIDArchiveD1Ev,
                            __ZN4TSCH18ChartAxisIDArchiveD2Ev,
                            __ZN4TSCH18LegendStyleArchive11clear_superEv,
                            __ZN4TSCH18LegendStyleArchive12InternalSwapEPS0_,
                            __ZN4TSCH18LegendStyleArchive14_InternalParseEPKcPN6google8protobuf8internal12ParseContextE,
                            __ZN4TSCH18LegendStyleArchive16default_instanceEv,
                            __ZN4TSCH18LegendStyleArchive5ClearEv,
                            __ZN4TSCH18LegendStyleArchive8CopyFromERKN6google8protobuf7MessageE,
                            __ZN4TSCH18LegendStyleArchive8CopyFromERKS0_,
                            __ZN4TSCH18LegendStyleArchive9ArenaDtorEPv,
                            __ZN4TSCH18LegendStyleArchive9MergeFromERKN6google8protobuf7MessageE,
                            __ZN4TSCH18LegendStyleArchive9MergeFromERKS0_,
                            __ZN4TSCH18LegendStyleArchive9_Internal5superEPKS0_,
                            __ZN4TSCH18LegendStyleArchiveC1EPN6google8protobuf5ArenaE,
                            __ZN4TSCH18LegendStyleArchiveC1ERKS0_,
                            __ZN4TSCH18LegendStyleArchiveC2EPN6google8protobuf5ArenaE,
                            __ZN4TSCH18LegendStyleArchiveC2ERKS0_,
                            __ZN4TSCH18LegendStyleArchiveD0Ev,
                            __ZN4TSCH18LegendStyleArchiveD1Ev,
                            __ZN4TSCH18LegendStyleArchiveD2Ev,
                            __ZN4TSCH19AxisType_descriptorEv,
                            __ZN4TSCH19Chart3DLightArchive12InternalSwapEPS0_,
                            __ZN4TSCH19Chart3DLightArchive14_InternalParseEPKcPN6google8protobuf8internal12ParseContextE,
                            __ZN4TSCH19Chart3DLightArchive16default_instanceEv,
                            __ZN4TSCH19Chart3DLightArchive5ClearEv,
                            __ZN4TSCH19Chart3DLightArchive8CopyFromERKN6google8protobuf7MessageE,
                            __ZN4TSCH19Chart3DLightArchive8CopyFromERKS0_,
                            __ZN4TSCH19Chart3DLightArchive9ArenaDtorEPv,
                            __ZN4TSCH19Chart3DLightArchive9MergeFromERKN6google8protobuf7MessageE,
                            __ZN4TSCH19Chart3DLightArchive9MergeFromERKS0_,
                            __ZN4TSCH19Chart3DLightArchive9_Internal10spot_lightEPKS0_,
                            __ZN4TSCH19Chart3DLightArchive9_Internal11attenuationEPKS0_,
                            __ZN4TSCH19Chart3DLightArchive9_Internal11point_lightEPKS0_,
                            __ZN4TSCH19Chart3DLightArchive9_Internal13ambient_colorEPKS0_,
                            __ZN4TSCH19Chart3DLightArchive9_Internal13diffuse_colorEPKS0_,
                            __ZN4TSCH19Chart3DLightArchive9_Internal14specular_colorEPKS0_,
                            __ZN4TSCH19Chart3DLightArchive9_Internal17directional_lightEPKS0_,
                            __ZN4TSCH19Chart3DLightArchiveC1EPN6google8protobuf5ArenaE,
                            __ZN4TSCH19Chart3DLightArchiveC1ERKS0_,
                            __ZN4TSCH19Chart3DLightArchiveC2EPN6google8protobuf5ArenaE,
                            __ZN4TSCH19Chart3DLightArchiveC2ERKS0_,
                            __ZN4TSCH19Chart3DLightArchiveD0Ev,
                            __ZN4TSCH19Chart3DLightArchiveD1Ev,
                            __ZN4TSCH19Chart3DLightArchiveD2Ev,
                            __ZN4TSCH19ChartCommandArchive11clear_superEv,
                            __ZN4TSCH19ChartCommandArchive12InternalSwapEPS0_,
                            __ZN4TSCH19ChartCommandArchive14_InternalParseEPKcPN6google8protobuf8internal12ParseContextE,
                            __ZN4TSCH19ChartCommandArchive16clear_chart_infoEv,
                            __ZN4TSCH19ChartCommandArchive16default_instanceEv,
                            __ZN4TSCH19ChartCommandArchive24clear_chart_info_id_pathEv,
                            __ZN4TSCH19ChartCommandArchive5ClearEv,
                            __ZN4TSCH19ChartCommandArchive8CopyFromERKN6google8protobuf7MessageE,
                            __ZN4TSCH19ChartCommandArchive8CopyFromERKS0_,
                            __ZN4TSCH19ChartCommandArchive9ArenaDtorEPv,
                            __ZN4TSCH19ChartCommandArchive9MergeFromERKN6google8protobuf7MessageE,
                            __ZN4TSCH19ChartCommandArchive9MergeFromERKS0_,
                            __ZN4TSCH19ChartCommandArchive9_Internal10chart_infoEPKS0_,
                            __ZN4TSCH19ChartCommandArchive9_Internal18chart_info_id_pathEPKS0_,
                            __ZN4TSCH19ChartCommandArchive9_Internal5superEPKS0_,
                            __ZN4TSCH19ChartCommandArchiveC1EPN6google8protobuf5ArenaE,
                            __ZN4TSCH19ChartCommandArchiveC1ERKS0_,
                            __ZN4TSCH19ChartCommandArchiveC2EPN6google8protobuf5ArenaE,
                            __ZN4TSCH19ChartCommandArchiveC2ERKS0_,
                            __ZN4TSCH19ChartCommandArchiveD0Ev,
                            __ZN4TSCH19ChartCommandArchiveD1Ev,
                            __ZN4TSCH19ChartCommandArchiveD2Ev,
                            __ZN4TSCH19ChartFillSetArchive12InternalSwapEPS0_,
                            __ZN4TSCH19ChartFillSetArchive14_InternalParseEPKcPN6google8protobuf8internal12ParseContextE,
                            __ZN4TSCH19ChartFillSetArchive16default_instanceEv,
                            __ZN4TSCH19ChartFillSetArchive19clear_series_stylesEv,
                            __ZN4TSCH19ChartFillSetArchive5ClearEv,
                            __ZN4TSCH19ChartFillSetArchive8CopyFromERKN6google8protobuf7MessageE,
                            __ZN4TSCH19ChartFillSetArchive8CopyFromERKS0_,
                            __ZN4TSCH19ChartFillSetArchive9ArenaDtorEPv,
                            __ZN4TSCH19ChartFillSetArchive9MergeFromERKN6google8protobuf7MessageE,
                            __ZN4TSCH19ChartFillSetArchive9MergeFromERKS0_,
                            __ZN4TSCH19ChartFillSetArchiveC1EPN6google8protobuf5ArenaE,
                            __ZN4TSCH19ChartFillSetArchiveC1ERKS0_,
                            __ZN4TSCH19ChartFillSetArchiveC2EPN6google8protobuf5ArenaE,
                            __ZN4TSCH19ChartFillSetArchiveC2ERKS0_,
                            __ZN4TSCH19ChartFillSetArchiveD0Ev,
                            __ZN4TSCH19ChartFillSetArchiveD1Ev,
                            __ZN4TSCH19ChartFillSetArchiveD2Ev,
                            __ZN4TSCH19ChartPresetsArchive12InternalSwapEPS0_,
                            __ZN4TSCH19ChartPresetsArchive14_InternalParseEPKcPN6google8protobuf8internal12ParseContextE,
                            __ZN4TSCH19ChartPresetsArchive16default_instanceEv,
                            __ZN4TSCH19ChartPresetsArchive19clear_chart_presetsEv,
                            __ZN4TSCH19ChartPresetsArchive21kExtensionFieldNumberE,
                            __ZN4TSCH19ChartPresetsArchive5ClearEv,
                            __ZN4TSCH19ChartPresetsArchive8CopyFromERKN6google8protobuf7MessageE,
                            __ZN4TSCH19ChartPresetsArchive8CopyFromERKS0_,
                            __ZN4TSCH19ChartPresetsArchive9ArenaDtorEPv,
                            __ZN4TSCH19ChartPresetsArchive9MergeFromERKN6google8protobuf7MessageE,
                            __ZN4TSCH19ChartPresetsArchive9MergeFromERKS0_,
                            __ZN4TSCH19ChartPresetsArchive9extensionE,
                            __ZN4TSCH19ChartPresetsArchiveC1EPN6google8protobuf5ArenaE,
                            __ZN4TSCH19ChartPresetsArchiveC1ERKS0_,
                            __ZN4TSCH19ChartPresetsArchiveC2EPN6google8protobuf5ArenaE,
                            __ZN4TSCH19ChartPresetsArchiveC2ERKS0_,
                            __ZN4TSCH19ChartPresetsArchiveD0Ev,
                            __ZN4TSCH19ChartPresetsArchiveD1Ev,
                            __ZN4TSCH19ChartPresetsArchiveD2Ev,
                            __ZN4TSCH19axis_supports_radarE,
                            __ZN4TSCH20Chart3DVectorArchive12InternalSwapEPS0_,
                            __ZN4TSCH20Chart3DVectorArchive14_InternalParseEPKcPN6google8protobuf8internal12ParseContextE,
                            __ZN4TSCH20Chart3DVectorArchive16default_instanceEv,
                            __ZN4TSCH20Chart3DVectorArchive5ClearEv,
                            __ZN4TSCH20Chart3DVectorArchive8CopyFromERKN6google8protobuf7MessageE,
                            __ZN4TSCH20Chart3DVectorArchive8CopyFromERKS0_,
                            __ZN4TSCH20Chart3DVectorArchive9ArenaDtorEPv,
                            __ZN4TSCH20Chart3DVectorArchive9MergeFromERKN6google8protobuf7MessageE,
                            __ZN4TSCH20Chart3DVectorArchive9MergeFromERKS0_,
                            __ZN4TSCH20Chart3DVectorArchiveC1EPN6google8protobuf5ArenaE,
                            __ZN4TSCH20Chart3DVectorArchiveC1ERKS0_,
                            __ZN4TSCH20Chart3DVectorArchiveC2EPN6google8protobuf5ArenaE,
                            __ZN4TSCH20Chart3DVectorArchiveC2ERKS0_,
                            __ZN4TSCH20Chart3DVectorArchiveD0Ev,
                            __ZN4TSCH20Chart3DVectorArchiveD1Ev,
                            __ZN4TSCH20Chart3DVectorArchiveD2Ev,
                            __ZN4TSCH20ChartDrawableArchive11clear_superEv,
                            __ZN4TSCH20ChartDrawableArchive12InternalSwapEPS0_,
                            __ZN4TSCH20ChartDrawableArchive14_InternalParseEPKcPN6google8protobuf8internal12ParseContextE,
                            __ZN4TSCH20ChartDrawableArchive16default_instanceEv,
                            __ZN4TSCH20ChartDrawableArchive5ClearEv,
                            __ZN4TSCH20ChartDrawableArchive8CopyFromERKN6google8protobuf7MessageE,
                            __ZN4TSCH20ChartDrawableArchive8CopyFromERKS0_,
                            __ZN4TSCH20ChartDrawableArchive9ArenaDtorEPv,
                            __ZN4TSCH20ChartDrawableArchive9MergeFromERKN6google8protobuf7MessageE,
                            __ZN4TSCH20ChartDrawableArchive9MergeFromERKS0_,
                            __ZN4TSCH20ChartDrawableArchive9_Internal5superEPKS0_,
                            __ZN4TSCH20ChartDrawableArchiveC1EPN6google8protobuf5ArenaE,
                            __ZN4TSCH20ChartDrawableArchiveC1ERKS0_,
                            __ZN4TSCH20ChartDrawableArchiveC2EPN6google8protobuf5ArenaE,
                            __ZN4TSCH20ChartDrawableArchiveC2ERKS0_,
                            __ZN4TSCH20ChartDrawableArchiveD0Ev,
                            __ZN4TSCH20ChartDrawableArchiveD1Ev,
                            __ZN4TSCH20ChartDrawableArchiveD2Ev,
                            __ZN4TSCH20ChartMediatorArchive10clear_infoEv,
                            __ZN4TSCH20ChartMediatorArchive12InternalSwapEPS0_,
                            __ZN4TSCH20ChartMediatorArchive14_InternalParseEPKcPN6google8protobuf8internal12ParseContextE,
                            __ZN4TSCH20ChartMediatorArchive16default_instanceEv,
                            __ZN4TSCH20ChartMediatorArchive5ClearEv,
                            __ZN4TSCH20ChartMediatorArchive8CopyFromERKN6google8protobuf7MessageE,
                            __ZN4TSCH20ChartMediatorArchive8CopyFromERKS0_,
                            __ZN4TSCH20ChartMediatorArchive9ArenaDtorEPv,
                            __ZN4TSCH20ChartMediatorArchive9MergeFromERKN6google8protobuf7MessageE,
                            __ZN4TSCH20ChartMediatorArchive9MergeFromERKS0_,
                            __ZN4TSCH20ChartMediatorArchive9_Internal4infoEPKS0_,
                            __ZN4TSCH20ChartMediatorArchiveC1EPN6google8protobuf5ArenaE,
                            __ZN4TSCH20ChartMediatorArchiveC1ERKS0_,
                            __ZN4TSCH20ChartMediatorArchiveC2EPN6google8protobuf5ArenaE,
                            __ZN4TSCH20ChartMediatorArchiveC2ERKS0_,
                            __ZN4TSCH20ChartMediatorArchiveD0Ev,
                            __ZN4TSCH20ChartMediatorArchiveD1Ev,
                            __ZN4TSCH20ChartMediatorArchiveD2Ev,
                            __ZN4TSCH20ChartNonStyleArchive11clear_superEv,
                            __ZN4TSCH20ChartNonStyleArchive12InternalSwapEPS0_,
                            __ZN4TSCH20ChartNonStyleArchive14_InternalParseEPKcPN6google8protobuf8internal12ParseContextE,
                            __ZN4TSCH20ChartNonStyleArchive16default_instanceEv,
                            __ZN4TSCH20ChartNonStyleArchive5ClearEv,
                            __ZN4TSCH20ChartNonStyleArchive8CopyFromERKN6google8protobuf7MessageE,
                            __ZN4TSCH20ChartNonStyleArchive8CopyFromERKS0_,
                            __ZN4TSCH20ChartNonStyleArchive9ArenaDtorEPv,
                            __ZN4TSCH20ChartNonStyleArchive9MergeFromERKN6google8protobuf7MessageE,
                            __ZN4TSCH20ChartNonStyleArchive9MergeFromERKS0_,
                            __ZN4TSCH20ChartNonStyleArchive9_Internal5superEPKS0_,
                            __ZN4TSCH20ChartNonStyleArchiveC1EPN6google8protobuf5ArenaE,
                            __ZN4TSCH20ChartNonStyleArchiveC1ERKS0_,
                            __ZN4TSCH20ChartNonStyleArchiveC2EPN6google8protobuf5ArenaE,
                            __ZN4TSCH20ChartNonStyleArchiveC2ERKS0_,
                            __ZN4TSCH20ChartNonStyleArchiveD0Ev,
                            __ZN4TSCH20ChartNonStyleArchiveD1Ev,
                            __ZN4TSCH20ChartNonStyleArchiveD2Ev,
                            __ZN4TSCH20ChartType_descriptorEv,
                            __ZN4TSCH21ChartAxisStyleArchive11clear_superEv,
                            __ZN4TSCH21ChartAxisStyleArchive12InternalSwapEPS0_,
                            __ZN4TSCH21ChartAxisStyleArchive14_InternalParseEPKcPN6google8protobuf8internal12ParseContextE,
                            __ZN4TSCH21ChartAxisStyleArchive16default_instanceEv,
                            __ZN4TSCH21ChartAxisStyleArchive5ClearEv,
                            __ZN4TSCH21ChartAxisStyleArchive8CopyFromERKN6google8protobuf7MessageE,
                            __ZN4TSCH21ChartAxisStyleArchive8CopyFromERKS0_,
                            __ZN4TSCH21ChartAxisStyleArchive9ArenaDtorEPv,
                            __ZN4TSCH21ChartAxisStyleArchive9MergeFromERKN6google8protobuf7MessageE,
                            __ZN4TSCH21ChartAxisStyleArchive9MergeFromERKS0_,
                            __ZN4TSCH21ChartAxisStyleArchive9_Internal5superEPKS0_,
                            __ZN4TSCH21ChartAxisStyleArchiveC1EPN6google8protobuf5ArenaE,
                            __ZN4TSCH21ChartAxisStyleArchiveC1ERKS0_,
                            __ZN4TSCH21ChartAxisStyleArchiveC2EPN6google8protobuf5ArenaE,
                            __ZN4TSCH21ChartAxisStyleArchiveC2ERKS0_,
                            __ZN4TSCH21ChartAxisStyleArchiveD0Ev,
                            __ZN4TSCH21ChartAxisStyleArchiveD1Ev,
                            __ZN4TSCH21ChartAxisStyleArchiveD2Ev,
                            __ZN4TSCH21ChartSelectionArchive11clear_chartEv,
                            __ZN4TSCH21ChartSelectionArchive11clear_superEv,
                            __ZN4TSCH21ChartSelectionArchive12InternalSwapEPS0_,
                            __ZN4TSCH21ChartSelectionArchive14_InternalParseEPKcPN6google8protobuf8internal12ParseContextE,
                            __ZN4TSCH21ChartSelectionArchive16default_instanceEv,
                            __ZN4TSCH21ChartSelectionArchive5ClearEv,
                            __ZN4TSCH21ChartSelectionArchive8CopyFromERKN6google8protobuf7MessageE,
                            __ZN4TSCH21ChartSelectionArchive8CopyFromERKS0_,
                            __ZN4TSCH21ChartSelectionArchive9ArenaDtorEPv,
                            __ZN4TSCH21ChartSelectionArchive9MergeFromERKN6google8protobuf7MessageE,
                            __ZN4TSCH21ChartSelectionArchive9MergeFromERKS0_,
                            __ZN4TSCH21ChartSelectionArchive9_Internal5chartEPKS0_,
                            __ZN4TSCH21ChartSelectionArchive9_Internal5superEPKS0_,
                            __ZN4TSCH21ChartSelectionArchiveC1EPN6google8protobuf5ArenaE,
                            __ZN4TSCH21ChartSelectionArchiveC1ERKS0_,
                            __ZN4TSCH21ChartSelectionArchiveC2EPN6google8protobuf5ArenaE,
                            __ZN4TSCH21ChartSelectionArchiveC2ERKS0_,
                            __ZN4TSCH21ChartSelectionArchiveD0Ev,
                            __ZN4TSCH21ChartSelectionArchiveD1Ev,
                            __ZN4TSCH21ChartSelectionArchiveD2Ev,
                            __ZN4TSCH21LegendNonStyleArchive11clear_superEv,
                            __ZN4TSCH21LegendNonStyleArchive12InternalSwapEPS0_,
                            __ZN4TSCH21LegendNonStyleArchive14_InternalParseEPKcPN6google8protobuf8internal12ParseContextE,
                            __ZN4TSCH21LegendNonStyleArchive16default_instanceEv,
                            __ZN4TSCH21LegendNonStyleArchive5ClearEv,
                            __ZN4TSCH21LegendNonStyleArchive8CopyFromERKN6google8protobuf7MessageE,
                            __ZN4TSCH21LegendNonStyleArchive8CopyFromERKS0_,
                            __ZN4TSCH21LegendNonStyleArchive9ArenaDtorEPv,
                            __ZN4TSCH21LegendNonStyleArchive9MergeFromERKN6google8protobuf7MessageE,
                            __ZN4TSCH21LegendNonStyleArchive9MergeFromERKS0_,
                            __ZN4TSCH21LegendNonStyleArchive9_Internal5superEPKS0_,
                            __ZN4TSCH21LegendNonStyleArchiveC1EPN6google8protobuf5ArenaE,
                            __ZN4TSCH21LegendNonStyleArchiveC1ERKS0_,
                            __ZN4TSCH21LegendNonStyleArchiveC2EPN6google8protobuf5ArenaE,
                            __ZN4TSCH21LegendNonStyleArchiveC2ERKS0_,
                            __ZN4TSCH21LegendNonStyleArchiveD0Ev,
                            __ZN4TSCH21LegendNonStyleArchiveD1Ev,
                            __ZN4TSCH21LegendNonStyleArchiveD2Ev,
                            __ZN4TSCH21ScatterFormat_IsValidEi,
                            __ZN4TSCH21StyleSwapType_IsValidEi,
                            __ZN4TSCH21series_supports_donutE,
                            __ZN4TSCH21series_supports_radarE,
                            __ZN4TSCH22CommandChartApplyTheme10clear_infoEv,
                            __ZN4TSCH22CommandChartApplyTheme11clear_superEv,
                            __ZN4TSCH22CommandChartApplyTheme12InternalSwapEPS0_,
                            __ZN4TSCH22CommandChartApplyTheme12clear_presetEv,
                            __ZN4TSCH22CommandChartApplyTheme14_InternalParseEPKcPN6google8protobuf8internal12ParseContextE,
                            __ZN4TSCH22CommandChartApplyTheme16default_instanceEv,
                            __ZN4TSCH22CommandChartApplyTheme18clear_swap_commandEv,
                            __ZN4TSCH22CommandChartApplyTheme5ClearEv,
                            __ZN4TSCH22CommandChartApplyTheme8CopyFromERKN6google8protobuf7MessageE,
                            __ZN4TSCH22CommandChartApplyTheme8CopyFromERKS0_,
                            __ZN4TSCH22CommandChartApplyTheme9ArenaDtorEPv,
                            __ZN4TSCH22CommandChartApplyTheme9MergeFromERKN6google8protobuf7MessageE,
                            __ZN4TSCH22CommandChartApplyTheme9MergeFromERKS0_,
                            __ZN4TSCH22CommandChartApplyTheme9_Internal12swap_commandEPKS0_,
                            __ZN4TSCH22CommandChartApplyTheme9_Internal4infoEPKS0_,
                            __ZN4TSCH22CommandChartApplyTheme9_Internal5superEPKS0_,
                            __ZN4TSCH22CommandChartApplyTheme9_Internal6presetEPKS0_,
                            __ZN4TSCH22CommandChartApplyThemeC1EPN6google8protobuf5ArenaE,
                            __ZN4TSCH22CommandChartApplyThemeC1ERKS0_,
                            __ZN4TSCH22CommandChartApplyThemeC2EPN6google8protobuf5ArenaE,
                            __ZN4TSCH22CommandChartApplyThemeC2ERKS0_,
                            __ZN4TSCH22CommandChartApplyThemeD0Ev,
                            __ZN4TSCH22CommandChartApplyThemeD1Ev,
                            __ZN4TSCH22CommandChartApplyThemeD2Ev,
                            __ZN4TSCH22StyleOwnerType_IsValidEi,
                            __ZN4TSCH23Chart3DSpotLightArchive12InternalSwapEPS0_,
                            __ZN4TSCH23Chart3DSpotLightArchive14_InternalParseEPKcPN6google8protobuf8internal12ParseContextE,
                            __ZN4TSCH23Chart3DSpotLightArchive16default_instanceEv,
                            __ZN4TSCH23Chart3DSpotLightArchive5ClearEv,
                            __ZN4TSCH23Chart3DSpotLightArchive8CopyFromERKN6google8protobuf7MessageE,
                            __ZN4TSCH23Chart3DSpotLightArchive8CopyFromERKS0_,
                            __ZN4TSCH23Chart3DSpotLightArchive9ArenaDtorEPv,
                            __ZN4TSCH23Chart3DSpotLightArchive9MergeFromERKN6google8protobuf7MessageE,
                            __ZN4TSCH23Chart3DSpotLightArchive9MergeFromERKS0_,
                            __ZN4TSCH23Chart3DSpotLightArchive9_Internal8positionEPKS0_,
                            __ZN4TSCH23Chart3DSpotLightArchive9_Internal9directionEPKS0_,
                            __ZN4TSCH23Chart3DSpotLightArchiveC1EPN6google8protobuf5ArenaE,
                            __ZN4TSCH23Chart3DSpotLightArchiveC1ERKS0_,
                            __ZN4TSCH23Chart3DSpotLightArchiveC2EPN6google8protobuf5ArenaE,
                            __ZN4TSCH23Chart3DSpotLightArchiveC2ERKS0_,
                            __ZN4TSCH23Chart3DSpotLightArchiveD0Ev,
                            __ZN4TSCH23Chart3DSpotLightArchiveD1Ev,
                            __ZN4TSCH23Chart3DSpotLightArchiveD2Ev,
                            __ZN4TSCH23ChartSeriesStyleArchive11clear_superEv,
                            __ZN4TSCH23ChartSeriesStyleArchive12InternalSwapEPS0_,
                            __ZN4TSCH23ChartSeriesStyleArchive14_InternalParseEPKcPN6google8protobuf8internal12ParseContextE,
                            __ZN4TSCH23ChartSeriesStyleArchive16default_instanceEv,
                            __ZN4TSCH23ChartSeriesStyleArchive5ClearEv,
                            __ZN4TSCH23ChartSeriesStyleArchive8CopyFromERKN6google8protobuf7MessageE,
                            __ZN4TSCH23ChartSeriesStyleArchive8CopyFromERKS0_,
                            __ZN4TSCH23ChartSeriesStyleArchive9ArenaDtorEPv,
                            __ZN4TSCH23ChartSeriesStyleArchive9MergeFromERKN6google8protobuf7MessageE,
                            __ZN4TSCH23ChartSeriesStyleArchive9MergeFromERKS0_,
                            __ZN4TSCH23ChartSeriesStyleArchive9_Internal5superEPKS0_,
                            __ZN4TSCH23ChartSeriesStyleArchiveC1EPN6google8protobuf5ArenaE,
                            __ZN4TSCH23ChartSeriesStyleArchiveC1ERKS0_,
                            __ZN4TSCH23ChartSeriesStyleArchiveC2EPN6google8protobuf5ArenaE,
                            __ZN4TSCH23ChartSeriesStyleArchiveC2ERKS0_,
                            __ZN4TSCH23ChartSeriesStyleArchiveD0Ev,
                            __ZN4TSCH23ChartSeriesStyleArchiveD1Ev,
                            __ZN4TSCH23ChartSeriesStyleArchiveD2Ev,
                            __ZN4TSCH23CommandChartApplyPreset12InternalSwapEPS0_,
                            __ZN4TSCH23CommandChartApplyPreset12clear_presetEv,
                            __ZN4TSCH23CommandChartApplyPreset14_InternalParseEPKcPN6google8protobuf8internal12ParseContextE,
                            __ZN4TSCH23CommandChartApplyPreset16clear_old_presetEv,
                            __ZN4TSCH23CommandChartApplyPreset16default_instanceEv,
                            __ZN4TSCH23CommandChartApplyPreset21clear_rollback_presetEv,
                            __ZN4TSCH23CommandChartApplyPreset5ClearEv,
                            __ZN4TSCH23CommandChartApplyPreset8CopyFromERKN6google8protobuf7MessageE,
                            __ZN4TSCH23CommandChartApplyPreset8CopyFromERKS0_,
                            __ZN4TSCH23CommandChartApplyPreset9ArenaDtorEPv,
                            __ZN4TSCH23CommandChartApplyPreset9MergeFromERKN6google8protobuf7MessageE,
                            __ZN4TSCH23CommandChartApplyPreset9MergeFromERKS0_,
                            __ZN4TSCH23CommandChartApplyPreset9_Internal10old_presetEPKS0_,
                            __ZN4TSCH23CommandChartApplyPreset9_Internal15rollback_presetEPKS0_,
                            __ZN4TSCH23CommandChartApplyPreset9_Internal5superEPKS0_,
                            __ZN4TSCH23CommandChartApplyPreset9_Internal6presetEPKS0_,
                            __ZN4TSCH23CommandChartApplyPresetC1EPN6google8protobuf5ArenaE,
                            __ZN4TSCH23CommandChartApplyPresetC1ERKS0_,
                            __ZN4TSCH23CommandChartApplyPresetC2EPN6google8protobuf5ArenaE,
                            __ZN4TSCH23CommandChartApplyPresetC2ERKS0_,
                            __ZN4TSCH23CommandChartApplyPresetD0Ev,
                            __ZN4TSCH23CommandChartApplyPresetD1Ev,
                            __ZN4TSCH23CommandChartApplyPresetD2Ev,
                            __ZN4TSCH23CommandStyleSwapArchive12InternalSwapEPS0_,
                            __ZN4TSCH23CommandStyleSwapArchive14_InternalParseEPKcPN6google8protobuf8internal12ParseContextE,
                            __ZN4TSCH23CommandStyleSwapArchive16default_instanceEv,
                            __ZN4TSCH23CommandStyleSwapArchive5ClearEv,
                            __ZN4TSCH23CommandStyleSwapArchive8CopyFromERKN6google8protobuf7MessageE,
                            __ZN4TSCH23CommandStyleSwapArchive8CopyFromERKS0_,
                            __ZN4TSCH23CommandStyleSwapArchive9ArenaDtorEPv,
                            __ZN4TSCH23CommandStyleSwapArchive9MergeFromERKN6google8protobuf7MessageE,
                            __ZN4TSCH23CommandStyleSwapArchive9MergeFromERKS0_,
                            __ZN4TSCH23CommandStyleSwapArchive9_Internal5superEPKS0_,
                            __ZN4TSCH23CommandStyleSwapArchiveC1EPN6google8protobuf5ArenaE,
                            __ZN4TSCH23CommandStyleSwapArchiveC1ERKS0_,
                            __ZN4TSCH23CommandStyleSwapArchiveC2EPN6google8protobuf5ArenaE,
                            __ZN4TSCH23CommandStyleSwapArchiveC2ERKS0_,
                            __ZN4TSCH23CommandStyleSwapArchiveD0Ev,
                            __ZN4TSCH23CommandStyleSwapArchiveD1Ev,
                            __ZN4TSCH23CommandStyleSwapArchiveD2Ev,
                            __ZN4TSCH23NumberValueType_IsValidEi,
                            __ZN4TSCH23SeriesDirection_IsValidEi,
                            __ZN4TSCH24Chart3DPointLightArchive12InternalSwapEPS0_,
                            __ZN4TSCH24Chart3DPointLightArchive14_InternalParseEPKcPN6google8protobuf8internal12ParseContextE,
                            __ZN4TSCH24Chart3DPointLightArchive16default_instanceEv,
                            __ZN4TSCH24Chart3DPointLightArchive5ClearEv,
                            __ZN4TSCH24Chart3DPointLightArchive8CopyFromERKN6google8protobuf7MessageE,
                            __ZN4TSCH24Chart3DPointLightArchive8CopyFromERKS0_,
                            __ZN4TSCH24Chart3DPointLightArchive9ArenaDtorEPv,
                            __ZN4TSCH24Chart3DPointLightArchive9MergeFromERKN6google8protobuf7MessageE,
                            __ZN4TSCH24Chart3DPointLightArchive9MergeFromERKS0_,
                            __ZN4TSCH24Chart3DPointLightArchive9_Internal8positionEPKS0_,
                            __ZN4TSCH24Chart3DPointLightArchiveC1EPN6google8protobuf5ArenaE,
                            __ZN4TSCH24Chart3DPointLightArchiveC1ERKS0_,
                            __ZN4TSCH24Chart3DPointLightArchiveC2EPN6google8protobuf5ArenaE,
                            __ZN4TSCH24Chart3DPointLightArchiveC2ERKS0_,
                            __ZN4TSCH24Chart3DPointLightArchiveD0Ev,
                            __ZN4TSCH24Chart3DPointLightArchiveD1Ev,
                            __ZN4TSCH24Chart3DPointLightArchiveD2Ev,
                            __ZN4TSCH24ChartAxisNonStyleArchive11clear_superEv,
                            __ZN4TSCH24ChartAxisNonStyleArchive12InternalSwapEPS0_,
                            __ZN4TSCH24ChartAxisNonStyleArchive14_InternalParseEPKcPN6google8protobuf8internal12ParseContextE,
                            __ZN4TSCH24ChartAxisNonStyleArchive16default_instanceEv,
                            __ZN4TSCH24ChartAxisNonStyleArchive5ClearEv,
                            __ZN4TSCH24ChartAxisNonStyleArchive8CopyFromERKN6google8protobuf7MessageE,
                            __ZN4TSCH24ChartAxisNonStyleArchive8CopyFromERKS0_,
                            __ZN4TSCH24ChartAxisNonStyleArchive9ArenaDtorEPv,
                            __ZN4TSCH24ChartAxisNonStyleArchive9MergeFromERKN6google8protobuf7MessageE,
                            __ZN4TSCH24ChartAxisNonStyleArchive9MergeFromERKS0_,
                            __ZN4TSCH24ChartAxisNonStyleArchive9_Internal5superEPKS0_,
                            __ZN4TSCH24ChartAxisNonStyleArchiveC1EPN6google8protobuf5ArenaE,
                            __ZN4TSCH24ChartAxisNonStyleArchiveC1ERKS0_,
                            __ZN4TSCH24ChartAxisNonStyleArchiveC2EPN6google8protobuf5ArenaE,
                            __ZN4TSCH24ChartAxisNonStyleArchiveC2ERKS0_,
                            __ZN4TSCH24ChartAxisNonStyleArchiveD0Ev,
                            __ZN4TSCH24ChartAxisNonStyleArchiveD1Ev,
                            __ZN4TSCH24ChartAxisNonStyleArchiveD2Ev,
                            __ZN4TSCH24ChartCDESelectionArchive11clear_chartEv,
                            __ZN4TSCH24ChartCDESelectionArchive12InternalSwapEPS0_,
                            __ZN4TSCH24ChartCDESelectionArchive14_InternalParseEPKcPN6google8protobuf8internal12ParseContextE,
                            __ZN4TSCH24ChartCDESelectionArchive16default_instanceEv,
                            __ZN4TSCH24ChartCDESelectionArchive5ClearEv,
                            __ZN4TSCH24ChartCDESelectionArchive8CopyFromERKN6google8protobuf7MessageE,
                            __ZN4TSCH24ChartCDESelectionArchive8CopyFromERKS0_,
                            __ZN4TSCH24ChartCDESelectionArchive9ArenaDtorEPv,
                            __ZN4TSCH24ChartCDESelectionArchive9MergeFromERKN6google8protobuf7MessageE,
                            __ZN4TSCH24ChartCDESelectionArchive9MergeFromERKS0_,
                            __ZN4TSCH24ChartCDESelectionArchive9_Internal5chartEPKS0_,
                            __ZN4TSCH24ChartCDESelectionArchiveC1EPN6google8protobuf5ArenaE,
                            __ZN4TSCH24ChartCDESelectionArchiveC1ERKS0_,
                            __ZN4TSCH24ChartCDESelectionArchiveC2EPN6google8protobuf5ArenaE,
                            __ZN4TSCH24ChartCDESelectionArchiveC2ERKS0_,
                            __ZN4TSCH24ChartCDESelectionArchiveD0Ev,
                            __ZN4TSCH24ChartCDESelectionArchiveD1Ev,
                            __ZN4TSCH24ChartCDESelectionArchiveD2Ev,
                            __ZN4TSCH24ChartGarlicMinMaxUpgrade12InternalSwapEPS0_,
                            __ZN4TSCH24ChartGarlicMinMaxUpgrade14_InternalParseEPKcPN6google8protobuf8internal12ParseContextE,
                            __ZN4TSCH24ChartGarlicMinMaxUpgrade16default_instanceEv,
                            __ZN4TSCH24ChartGarlicMinMaxUpgrade22garlic_min_max_upgradeE,
                            __ZN4TSCH24ChartGarlicMinMaxUpgrade31kGarlicMinMaxUpgradeFieldNumberE,
                            __ZN4TSCH24ChartGarlicMinMaxUpgrade5ClearEv,
                            __ZN4TSCH24ChartGarlicMinMaxUpgrade8CopyFromERKN6google8protobuf7MessageE,
                            __ZN4TSCH24ChartGarlicMinMaxUpgrade8CopyFromERKS0_,
                            __ZN4TSCH24ChartGarlicMinMaxUpgrade9ArenaDtorEPv,
                            __ZN4TSCH24ChartGarlicMinMaxUpgrade9MergeFromERKN6google8protobuf7MessageE,
                            __ZN4TSCH24ChartGarlicMinMaxUpgrade9MergeFromERKS0_,
                            __ZN4TSCH24ChartGarlicMinMaxUpgradeC1EPN6google8protobuf5ArenaE,
                            __ZN4TSCH24ChartGarlicMinMaxUpgradeC1ERKS0_,
                            __ZN4TSCH24ChartGarlicMinMaxUpgradeC2EPN6google8protobuf5ArenaE,
                            __ZN4TSCH24ChartGarlicMinMaxUpgradeC2ERKS0_,
                            __ZN4TSCH24ChartGarlicMinMaxUpgradeD0Ev,
                            __ZN4TSCH24ChartGarlicMinMaxUpgradeD1Ev,
                            __ZN4TSCH24ChartGarlicMinMaxUpgradeD2Ev,
                            __ZN4TSCH24CommandPasteStyleArchive12InternalSwapEPS0_,
                            __ZN4TSCH24CommandPasteStyleArchive14_InternalParseEPKcPN6google8protobuf8internal12ParseContextE,
                            __ZN4TSCH24CommandPasteStyleArchive16default_instanceEv,
                            __ZN4TSCH24CommandPasteStyleArchive17clear_shape_styleEv,
                            __ZN4TSCH24CommandPasteStyleArchive18clear_subselectionEv,
                            __ZN4TSCH24CommandPasteStyleArchive23clear_chart_style_stateEv,
                            __ZN4TSCH24CommandPasteStyleArchive24clear_style_swap_commandEv,
                            __ZN4TSCH24CommandPasteStyleArchive31clear_inverse_chart_style_stateEv,
                            __ZN4TSCH24CommandPasteStyleArchive5ClearEv,
                            __ZN4TSCH24CommandPasteStyleArchive8CopyFromERKN6google8protobuf7MessageE,
                            __ZN4TSCH24CommandPasteStyleArchive8CopyFromERKS0_,
                            __ZN4TSCH24CommandPasteStyleArchive9ArenaDtorEPv,
                            __ZN4TSCH24CommandPasteStyleArchive9MergeFromERKN6google8protobuf7MessageE,
                            __ZN4TSCH24CommandPasteStyleArchive9MergeFromERKS0_,
                            __ZN4TSCH24CommandPasteStyleArchive9_Internal11shape_styleEPKS0_,
                            __ZN4TSCH24CommandPasteStyleArchive9_Internal17chart_style_stateEPKS0_,
                            __ZN4TSCH24CommandPasteStyleArchive9_Internal18style_swap_commandEPKS0_,
                            __ZN4TSCH24CommandPasteStyleArchive9_Internal25inverse_chart_style_stateEPKS0_,
                            __ZN4TSCH24CommandPasteStyleArchive9_Internal5superEPKS0_,
                            __ZN4TSCH24CommandPasteStyleArchiveC1EPN6google8protobuf5ArenaE,
                            __ZN4TSCH24CommandPasteStyleArchiveC1ERKS0_,
                            __ZN4TSCH24CommandPasteStyleArchiveC2EPN6google8protobuf5ArenaE,
                            __ZN4TSCH24CommandPasteStyleArchiveC2ERKS0_,
                            __ZN4TSCH24CommandPasteStyleArchiveD0Ev,
                            __ZN4TSCH24CommandPasteStyleArchiveD1Ev,
                            __ZN4TSCH24CommandPasteStyleArchiveD2Ev,
                            __ZN4TSCH24FillPropertyType_IsValidEi,
                            __ZN4TSCH24FractionAccuracy_IsValidEi,
                            __ZN4TSCH24ScatterFormat_descriptorEv,
                            __ZN4TSCH24StyleSwapType_descriptorEv,
                            __ZN4TSCH25ChartSelectionPathArchive12InternalSwapEPS0_,
                            __ZN4TSCH25ChartSelectionPathArchive14_InternalParseEPKcPN6google8protobuf8internal12ParseContextE,
                            __ZN4TSCH25ChartSelectionPathArchive16default_instanceEv,
                            __ZN4TSCH25ChartSelectionPathArchive5ClearEv,
                            __ZN4TSCH25ChartSelectionPathArchive8CopyFromERKN6google8protobuf7MessageE,
                            __ZN4TSCH25ChartSelectionPathArchive8CopyFromERKS0_,
                            __ZN4TSCH25ChartSelectionPathArchive9ArenaDtorEPv,
                            __ZN4TSCH25ChartSelectionPathArchive9MergeFromERKN6google8protobuf7MessageE,
                            __ZN4TSCH25ChartSelectionPathArchive9MergeFromERKS0_,
                            __ZN4TSCH25ChartSelectionPathArchive9_Internal13sub_selectionEPKS0_,
                            __ZN4TSCH25ChartSelectionPathArchive9_Internal9path_typeEPKS0_,
                            __ZN4TSCH25ChartSelectionPathArchiveC1EPN6google8protobuf5ArenaE,
                            __ZN4TSCH25ChartSelectionPathArchiveC1ERKS0_,
                            __ZN4TSCH25ChartSelectionPathArchiveC2EPN6google8protobuf5ArenaE,
                            __ZN4TSCH25ChartSelectionPathArchiveC2ERKS0_,
                            __ZN4TSCH25ChartSelectionPathArchiveD0Ev,
                            __ZN4TSCH25ChartSelectionPathArchiveD1Ev,
                            __ZN4TSCH25ChartSelectionPathArchiveD2Ev,
                            __ZN4TSCH25CommandAddGridRowsArchive12InternalSwapEPS0_,
                            __ZN4TSCH25CommandAddGridRowsArchive12clear_row_idEv,
                            __ZN4TSCH25CommandAddGridRowsArchive14_InternalParseEPKcPN6google8protobuf8internal12ParseContextE,
                            __ZN4TSCH25CommandAddGridRowsArchive16default_instanceEv,
                            __ZN4TSCH25CommandAddGridRowsArchive17clear_row_id_listEv,
                            __ZN4TSCH25CommandAddGridRowsArchive26clear_undo_deletion_end_idEv,
                            __ZN4TSCH25CommandAddGridRowsArchive28clear_undo_deletion_start_idEv,
                            __ZN4TSCH25CommandAddGridRowsArchive5ClearEv,
                            __ZN4TSCH25CommandAddGridRowsArchive8CopyFromERKN6google8protobuf7MessageE,
                            __ZN4TSCH25CommandAddGridRowsArchive8CopyFromERKS0_,
                            __ZN4TSCH25CommandAddGridRowsArchive9ArenaDtorEPv,
                            __ZN4TSCH25CommandAddGridRowsArchive9MergeFromERKN6google8protobuf7MessageE,
                            __ZN4TSCH25CommandAddGridRowsArchive9MergeFromERKS0_,
                            __ZN4TSCH25CommandAddGridRowsArchive9_Internal20undo_deletion_end_idEPKS0_,
                            __ZN4TSCH25CommandAddGridRowsArchive9_Internal22undo_deletion_start_idEPKS0_,
                            __ZN4TSCH25CommandAddGridRowsArchive9_Internal5superEPKS0_,
                            __ZN4TSCH25CommandAddGridRowsArchive9_Internal6row_idEPKS0_,
                            __ZN4TSCH25CommandAddGridRowsArchiveC1EPN6google8protobuf5ArenaE,
                            __ZN4TSCH25CommandAddGridRowsArchiveC1ERKS0_,
                            __ZN4TSCH25CommandAddGridRowsArchiveC2EPN6google8protobuf5ArenaE,
                            __ZN4TSCH25CommandAddGridRowsArchiveC2ERKS0_,
                            __ZN4TSCH25CommandAddGridRowsArchiveD0Ev,
                            __ZN4TSCH25CommandAddGridRowsArchiveD1Ev,
                            __ZN4TSCH25CommandAddGridRowsArchiveD2Ev,
                            __ZN4TSCH25CommandInvalidateWPCaches11clear_superEv,
                            __ZN4TSCH25CommandInvalidateWPCaches12InternalSwapEPS0_,
                            __ZN4TSCH25CommandInvalidateWPCaches14_InternalParseEPKcPN6google8protobuf8internal12ParseContextE,
                            __ZN4TSCH25CommandInvalidateWPCaches16default_instanceEv,
                            __ZN4TSCH25CommandInvalidateWPCaches5ClearEv,
                            __ZN4TSCH25CommandInvalidateWPCaches8CopyFromERKN6google8protobuf7MessageE,
                            __ZN4TSCH25CommandInvalidateWPCaches8CopyFromERKS0_,
                            __ZN4TSCH25CommandInvalidateWPCaches9ArenaDtorEPv,
                            __ZN4TSCH25CommandInvalidateWPCaches9MergeFromERKN6google8protobuf7MessageE,
                            __ZN4TSCH25CommandInvalidateWPCaches9MergeFromERKS0_,
                            __ZN4TSCH25CommandInvalidateWPCaches9_Internal5superEPKS0_,
                            __ZN4TSCH25CommandInvalidateWPCachesC1EPN6google8protobuf5ArenaE,
                            __ZN4TSCH25CommandInvalidateWPCachesC1ERKS0_,
                            __ZN4TSCH25CommandInvalidateWPCachesC2EPN6google8protobuf5ArenaE,
                            __ZN4TSCH25CommandInvalidateWPCachesC2ERKS0_,
                            __ZN4TSCH25CommandInvalidateWPCachesD0Ev,
                            __ZN4TSCH25CommandInvalidateWPCachesD1Ev,
                            __ZN4TSCH25CommandInvalidateWPCachesD2Ev,
                            __ZN4TSCH25ReferenceLineStyleArchive11clear_superEv,
                            __ZN4TSCH25ReferenceLineStyleArchive12InternalSwapEPS0_,
                            __ZN4TSCH25ReferenceLineStyleArchive14_InternalParseEPKcPN6google8protobuf8internal12ParseContextE,
                            __ZN4TSCH25ReferenceLineStyleArchive16default_instanceEv,
                            __ZN4TSCH25ReferenceLineStyleArchive5ClearEv,
                            __ZN4TSCH25ReferenceLineStyleArchive8CopyFromERKN6google8protobuf7MessageE,
                            __ZN4TSCH25ReferenceLineStyleArchive8CopyFromERKS0_,
                            __ZN4TSCH25ReferenceLineStyleArchive9ArenaDtorEPv,
                            __ZN4TSCH25ReferenceLineStyleArchive9MergeFromERKN6google8protobuf7MessageE,
                            __ZN4TSCH25ReferenceLineStyleArchive9MergeFromERKS0_,
                            __ZN4TSCH25ReferenceLineStyleArchive9_Internal5superEPKS0_,
                            __ZN4TSCH25ReferenceLineStyleArchiveC1EPN6google8protobuf5ArenaE,
                            __ZN4TSCH25ReferenceLineStyleArchiveC1ERKS0_,
                            __ZN4TSCH25ReferenceLineStyleArchiveC2EPN6google8protobuf5ArenaE,
                            __ZN4TSCH25ReferenceLineStyleArchiveC2ERKS0_,
                            __ZN4TSCH25ReferenceLineStyleArchiveD0Ev,
                            __ZN4TSCH25ReferenceLineStyleArchiveD1Ev,
                            __ZN4TSCH25ReferenceLineStyleArchiveD2Ev,
                            __ZN4TSCH25StyleOwnerType_descriptorEv,
                            __ZN4TSCH25StyleSwapUndoTupleArchive12InternalSwapEPS0_,
                            __ZN4TSCH25StyleSwapUndoTupleArchive14_InternalParseEPKcPN6google8protobuf8internal12ParseContextE,
                            __ZN4TSCH25StyleSwapUndoTupleArchive15clear_new_valueEv,
                            __ZN4TSCH25StyleSwapUndoTupleArchive15clear_old_valueEv,
                            __ZN4TSCH25StyleSwapUndoTupleArchive16clear_chart_infoEv,
                            __ZN4TSCH25StyleSwapUndoTupleArchive16default_instanceEv,
                            __ZN4TSCH25StyleSwapUndoTupleArchive19clear_ref_line_uuidEv,
                            __ZN4TSCH25StyleSwapUndoTupleArchive5ClearEv,
                            __ZN4TSCH25StyleSwapUndoTupleArchive8CopyFromERKN6google8protobuf7MessageE,
                            __ZN4TSCH25StyleSwapUndoTupleArchive8CopyFromERKS0_,
                            __ZN4TSCH25StyleSwapUndoTupleArchive9ArenaDtorEPv,
                            __ZN4TSCH25StyleSwapUndoTupleArchive9MergeFromERKN6google8protobuf7MessageE,
                            __ZN4TSCH25StyleSwapUndoTupleArchive9MergeFromERKS0_,
                            __ZN4TSCH25StyleSwapUndoTupleArchive9_Internal10chart_infoEPKS0_,
                            __ZN4TSCH25StyleSwapUndoTupleArchive9_Internal13ref_line_uuidEPKS0_,
                            __ZN4TSCH25StyleSwapUndoTupleArchive9_Internal9new_valueEPKS0_,
                            __ZN4TSCH25StyleSwapUndoTupleArchive9_Internal9old_valueEPKS0_,
                            __ZN4TSCH25StyleSwapUndoTupleArchiveC1EPN6google8protobuf5ArenaE,
                            __ZN4TSCH25StyleSwapUndoTupleArchiveC1ERKS0_,
                            __ZN4TSCH25StyleSwapUndoTupleArchiveC2EPN6google8protobuf5ArenaE,
                            __ZN4TSCH25StyleSwapUndoTupleArchiveC2ERKS0_,
                            __ZN4TSCH25StyleSwapUndoTupleArchiveD0Ev,
                            __ZN4TSCH25StyleSwapUndoTupleArchiveD1Ev,
                            __ZN4TSCH25StyleSwapUndoTupleArchiveD2Ev,
                            __ZN4TSCH25TextureTilingFace_IsValidEi,
                            __ZN4TSCH25TextureTilingMode_IsValidEi,
                            __ZN4TSCH25TextureTilingWrap_IsValidEi,
                            __ZN4TSCH26ChartMultiDataIndexUpgrade12InternalSwapEPS0_,
                            __ZN4TSCH26ChartMultiDataIndexUpgrade14_InternalParseEPKcPN6google8protobuf8internal12ParseContextE,
                            __ZN4TSCH26ChartMultiDataIndexUpgrade16default_instanceEv,
                            __ZN4TSCH26ChartMultiDataIndexUpgrade20upgraded_to_ui_stateE,
                            __ZN4TSCH26ChartMultiDataIndexUpgrade29kUpgradedToUiStateFieldNumberE,
                            __ZN4TSCH26ChartMultiDataIndexUpgrade5ClearEv,
                            __ZN4TSCH26ChartMultiDataIndexUpgrade8CopyFromERKN6google8protobuf7MessageE,
                            __ZN4TSCH26ChartMultiDataIndexUpgrade8CopyFromERKS0_,
                            __ZN4TSCH26ChartMultiDataIndexUpgrade9ArenaDtorEPv,
                            __ZN4TSCH26ChartMultiDataIndexUpgrade9MergeFromERKN6google8protobuf7MessageE,
                            __ZN4TSCH26ChartMultiDataIndexUpgrade9MergeFromERKS0_,
                            __ZN4TSCH26ChartMultiDataIndexUpgradeC1EPN6google8protobuf5ArenaE,
                            __ZN4TSCH26ChartMultiDataIndexUpgradeC1ERKS0_,
                            __ZN4TSCH26ChartMultiDataIndexUpgradeC2EPN6google8protobuf5ArenaE,
                            __ZN4TSCH26ChartMultiDataIndexUpgradeC2ERKS0_,
                            __ZN4TSCH26ChartMultiDataIndexUpgradeD0Ev,
                            __ZN4TSCH26ChartMultiDataIndexUpgradeD1Ev,
                            __ZN4TSCH26ChartMultiDataIndexUpgradeD2Ev,
                            __ZN4TSCH26ChartReferenceLinesArchive12InternalSwapEPS0_,
                            __ZN4TSCH26ChartReferenceLinesArchive14_InternalParseEPKcPN6google8protobuf8internal12ParseContextE,
                            __ZN4TSCH26ChartReferenceLinesArchive16default_instanceEv,
                            __ZN4TSCH26ChartReferenceLinesArchive39clear_theme_preset_reference_line_styleEv,
                            __ZN4TSCH26ChartReferenceLinesArchive5ClearEv,
                            __ZN4TSCH26ChartReferenceLinesArchive8CopyFromERKN6google8protobuf7MessageE,
                            __ZN4TSCH26ChartReferenceLinesArchive8CopyFromERKS0_,
                            __ZN4TSCH26ChartReferenceLinesArchive9ArenaDtorEPv,
                            __ZN4TSCH26ChartReferenceLinesArchive9MergeFromERKN6google8protobuf7MessageE,
                            __ZN4TSCH26ChartReferenceLinesArchive9MergeFromERKS0_,
                            __ZN4TSCH26ChartReferenceLinesArchive9_Internal33theme_preset_reference_line_styleEPKS0_,
                            __ZN4TSCH26ChartReferenceLinesArchiveC1EPN6google8protobuf5ArenaE,
                            __ZN4TSCH26ChartReferenceLinesArchiveC1ERKS0_,
                            __ZN4TSCH26ChartReferenceLinesArchiveC2EPN6google8protobuf5ArenaE,
                            __ZN4TSCH26ChartReferenceLinesArchiveC2ERKS0_,
                            __ZN4TSCH26ChartReferenceLinesArchiveD0Ev,
                            __ZN4TSCH26ChartReferenceLinesArchiveD1Ev,
                            __ZN4TSCH26ChartReferenceLinesArchiveD2Ev,
                            __ZN4TSCH26ChartSeriesNonStyleArchive11clear_superEv,
                            __ZN4TSCH26ChartSeriesNonStyleArchive12InternalSwapEPS0_,
                            __ZN4TSCH26ChartSeriesNonStyleArchive14_InternalParseEPKcPN6google8protobuf8internal12ParseContextE,
                            __ZN4TSCH26ChartSeriesNonStyleArchive16default_instanceEv,
                            __ZN4TSCH26ChartSeriesNonStyleArchive5ClearEv,
                            __ZN4TSCH26ChartSeriesNonStyleArchive8CopyFromERKN6google8protobuf7MessageE,
                            __ZN4TSCH26ChartSeriesNonStyleArchive8CopyFromERKS0_,
                            __ZN4TSCH26ChartSeriesNonStyleArchive9ArenaDtorEPv,
                            __ZN4TSCH26ChartSeriesNonStyleArchive9MergeFromERKN6google8protobuf7MessageE,
                            __ZN4TSCH26ChartSeriesNonStyleArchive9MergeFromERKS0_,
                            __ZN4TSCH26ChartSeriesNonStyleArchive9_Internal5superEPKS0_,
                            __ZN4TSCH26ChartSeriesNonStyleArchiveC1EPN6google8protobuf5ArenaE,
                            __ZN4TSCH26ChartSeriesNonStyleArchiveC1ERKS0_,
                            __ZN4TSCH26ChartSeriesNonStyleArchiveC2EPN6google8protobuf5ArenaE,
                            __ZN4TSCH26ChartSeriesNonStyleArchiveC2ERKS0_,
                            __ZN4TSCH26ChartSeriesNonStyleArchiveD0Ev,
                            __ZN4TSCH26ChartSeriesNonStyleArchiveD1Ev,
                            __ZN4TSCH26ChartSeriesNonStyleArchiveD2Ev,
                            __ZN4TSCH26CommandApplyFillSetArchive12InternalSwapEPS0_,
                            __ZN4TSCH26CommandApplyFillSetArchive14_InternalParseEPKcPN6google8protobuf8internal12ParseContextE,
                            __ZN4TSCH26CommandApplyFillSetArchive14clear_fill_setEv,
                            __ZN4TSCH26CommandApplyFillSetArchive16default_instanceEv,
                            __ZN4TSCH26CommandApplyFillSetArchive18clear_old_fill_setEv,
                            __ZN4TSCH26CommandApplyFillSetArchive18clear_rollback_cmdEv,
                            __ZN4TSCH26CommandApplyFillSetArchive5ClearEv,
                            __ZN4TSCH26CommandApplyFillSetArchive8CopyFromERKN6google8protobuf7MessageE,
                            __ZN4TSCH26CommandApplyFillSetArchive8CopyFromERKS0_,
                            __ZN4TSCH26CommandApplyFillSetArchive9ArenaDtorEPv,
                            __ZN4TSCH26CommandApplyFillSetArchive9MergeFromERKN6google8protobuf7MessageE,
                            __ZN4TSCH26CommandApplyFillSetArchive9MergeFromERKS0_,
                            __ZN4TSCH26CommandApplyFillSetArchive9_Internal12old_fill_setEPKS0_,
                            __ZN4TSCH26CommandApplyFillSetArchive9_Internal12rollback_cmdEPKS0_,
                            __ZN4TSCH26CommandApplyFillSetArchive9_Internal5superEPKS0_,
                            __ZN4TSCH26CommandApplyFillSetArchive9_Internal8fill_setEPKS0_,
                            __ZN4TSCH26CommandApplyFillSetArchiveC1EPN6google8protobuf5ArenaE,
                            __ZN4TSCH26CommandApplyFillSetArchiveC1ERKS0_,
                            __ZN4TSCH26CommandApplyFillSetArchiveC2EPN6google8protobuf5ArenaE,
                            __ZN4TSCH26CommandApplyFillSetArchiveC2ERKS0_,
                            __ZN4TSCH26CommandApplyFillSetArchiveD0Ev,
                            __ZN4TSCH26CommandApplyFillSetArchiveD1Ev,
                            __ZN4TSCH26CommandApplyFillSetArchiveD2Ev,
                            __ZN4TSCH26CommandMoveGridRowsArchive12InternalSwapEPS0_,
                            __ZN4TSCH26CommandMoveGridRowsArchive14_InternalParseEPKcPN6google8protobuf8internal12ParseContextE,
                            __ZN4TSCH26CommandMoveGridRowsArchive16clear_end_row_idEv,
                            __ZN4TSCH26CommandMoveGridRowsArchive16default_instanceEv,
                            __ZN4TSCH26CommandMoveGridRowsArchive18clear_after_row_idEv,
                            __ZN4TSCH26CommandMoveGridRowsArchive18clear_start_row_idEv,
                            __ZN4TSCH26CommandMoveGridRowsArchive23clear_undo_after_row_idEv,
                            __ZN4TSCH26CommandMoveGridRowsArchive5ClearEv,
                            __ZN4TSCH26CommandMoveGridRowsArchive8CopyFromERKN6google8protobuf7MessageE,
                            __ZN4TSCH26CommandMoveGridRowsArchive8CopyFromERKS0_,
                            __ZN4TSCH26CommandMoveGridRowsArchive9ArenaDtorEPv,
                            __ZN4TSCH26CommandMoveGridRowsArchive9MergeFromERKN6google8protobuf7MessageE,
                            __ZN4TSCH26CommandMoveGridRowsArchive9MergeFromERKS0_,
                            __ZN4TSCH26CommandMoveGridRowsArchive9_Internal10end_row_idEPKS0_,
                            __ZN4TSCH26CommandMoveGridRowsArchive9_Internal12after_row_idEPKS0_,
                            __ZN4TSCH26CommandMoveGridRowsArchive9_Internal12start_row_idEPKS0_,
                            __ZN4TSCH26CommandMoveGridRowsArchive9_Internal17undo_after_row_idEPKS0_,
                            __ZN4TSCH26CommandMoveGridRowsArchive9_Internal5superEPKS0_,
                            __ZN4TSCH26CommandMoveGridRowsArchiveC1EPN6google8protobuf5ArenaE,
                            __ZN4TSCH26CommandMoveGridRowsArchiveC1ERKS0_,
                            __ZN4TSCH26CommandMoveGridRowsArchiveC2EPN6google8protobuf5ArenaE,
                            __ZN4TSCH26CommandMoveGridRowsArchiveC2ERKS0_,
                            __ZN4TSCH26CommandMoveGridRowsArchiveD0Ev,
                            __ZN4TSCH26CommandMoveGridRowsArchiveD1Ev,
                            __ZN4TSCH26CommandMoveGridRowsArchiveD2Ev,
                            __ZN4TSCH26CommandScaleAllTextArchive12InternalSwapEPS0_,
                            __ZN4TSCH26CommandScaleAllTextArchive14_InternalParseEPKcPN6google8protobuf8internal12ParseContextE,
                            __ZN4TSCH26CommandScaleAllTextArchive16default_instanceEv,
                            __ZN4TSCH26CommandScaleAllTextArchive18clear_rollback_cmdEv,
                            __ZN4TSCH26CommandScaleAllTextArchive5ClearEv,
                            __ZN4TSCH26CommandScaleAllTextArchive8CopyFromERKN6google8protobuf7MessageE,
                            __ZN4TSCH26CommandScaleAllTextArchive8CopyFromERKS0_,
                            __ZN4TSCH26CommandScaleAllTextArchive9ArenaDtorEPv,
                            __ZN4TSCH26CommandScaleAllTextArchive9MergeFromERKN6google8protobuf7MessageE,
                            __ZN4TSCH26CommandScaleAllTextArchive9MergeFromERKS0_,
                            __ZN4TSCH26CommandScaleAllTextArchive9_Internal12rollback_cmdEPKS0_,
                            __ZN4TSCH26CommandScaleAllTextArchive9_Internal5superEPKS0_,
                            __ZN4TSCH26CommandScaleAllTextArchiveC1EPN6google8protobuf5ArenaE,
                            __ZN4TSCH26CommandScaleAllTextArchiveC1ERKS0_,
                            __ZN4TSCH26CommandScaleAllTextArchiveC2EPN6google8protobuf5ArenaE,
                            __ZN4TSCH26CommandScaleAllTextArchiveC2ERKS0_,
                            __ZN4TSCH26CommandScaleAllTextArchiveD0Ev,
                            __ZN4TSCH26CommandScaleAllTextArchiveD1Ev,
                            __ZN4TSCH26CommandScaleAllTextArchiveD2Ev,
                            __ZN4TSCH26CommandSetChartTypeArchive12InternalSwapEPS0_,
                            __ZN4TSCH26CommandSetChartTypeArchive13clear_row_idsEv,
                            __ZN4TSCH26CommandSetChartTypeArchive14_InternalParseEPKcPN6google8protobuf8internal12ParseContextE,
                            __ZN4TSCH26CommandSetChartTypeArchive16clear_column_idsEv,
                            __ZN4TSCH26CommandSetChartTypeArchive16default_instanceEv,
                            __ZN4TSCH26CommandSetChartTypeArchive17clear_old_row_idsEv,
                            __ZN4TSCH26CommandSetChartTypeArchive20clear_old_column_idsEv,
                            __ZN4TSCH26CommandSetChartTypeArchive22clear_rollback_row_idsEv,
                            __ZN4TSCH26CommandSetChartTypeArchive25clear_rollback_column_idsEv,
                            __ZN4TSCH26CommandSetChartTypeArchive5ClearEv,
                            __ZN4TSCH26CommandSetChartTypeArchive8CopyFromERKN6google8protobuf7MessageE,
                            __ZN4TSCH26CommandSetChartTypeArchive8CopyFromERKS0_,
                            __ZN4TSCH26CommandSetChartTypeArchive9ArenaDtorEPv,
                            __ZN4TSCH26CommandSetChartTypeArchive9MergeFromERKN6google8protobuf7MessageE,
                            __ZN4TSCH26CommandSetChartTypeArchive9MergeFromERKS0_,
                            __ZN4TSCH26CommandSetChartTypeArchive9_Internal5superEPKS0_,
                            __ZN4TSCH26CommandSetChartTypeArchiveC1EPN6google8protobuf5ArenaE,
                            __ZN4TSCH26CommandSetChartTypeArchiveC1ERKS0_,
                            __ZN4TSCH26CommandSetChartTypeArchiveC2EPN6google8protobuf5ArenaE,
                            __ZN4TSCH26CommandSetChartTypeArchiveC2ERKS0_,
                            __ZN4TSCH26CommandSetChartTypeArchiveD0Ev,
                            __ZN4TSCH26CommandSetChartTypeArchiveD1Ev,
                            __ZN4TSCH26CommandSetChartTypeArchiveD2Ev,
                            __ZN4TSCH26CommandSetGridValueArchive12InternalSwapEPS0_,
                            __ZN4TSCH26CommandSetGridValueArchive14_InternalParseEPKcPN6google8protobuf8internal12ParseContextE,
                            __ZN4TSCH26CommandSetGridValueArchive16default_instanceEv,
                            __ZN4TSCH26CommandSetGridValueArchive5ClearEv,
                            __ZN4TSCH26CommandSetGridValueArchive8CopyFromERKN6google8protobuf7MessageE,
                            __ZN4TSCH26CommandSetGridValueArchive8CopyFromERKS0_,
                            __ZN4TSCH26CommandSetGridValueArchive9ArenaDtorEPv,
                            __ZN4TSCH26CommandSetGridValueArchive9MergeFromERKN6google8protobuf7MessageE,
                            __ZN4TSCH26CommandSetGridValueArchive9MergeFromERKS0_,
                            __ZN4TSCH26CommandSetGridValueArchive9_Internal5superEPKS0_,
                            __ZN4TSCH26CommandSetGridValueArchiveC1EPN6google8protobuf5ArenaE,
                            __ZN4TSCH26CommandSetGridValueArchiveC1ERKS0_,
                            __ZN4TSCH26CommandSetGridValueArchiveC2EPN6google8protobuf5ArenaE,
                            __ZN4TSCH26CommandSetGridValueArchiveC2ERKS0_,
                            __ZN4TSCH26CommandSetGridValueArchiveD0Ev,
                            __ZN4TSCH26CommandSetGridValueArchiveD1Ev,
                            __ZN4TSCH26CommandSetGridValueArchiveD2Ev,
                            __ZN4TSCH26NumberValueType_descriptorEv,
                            __ZN4TSCH26SeriesDirection_descriptorEv,
                            __ZN4TSCH26StylePasteboardDataArchive11clear_superEv,
                            __ZN4TSCH26StylePasteboardDataArchive12InternalSwapEPS0_,
                            __ZN4TSCH26StylePasteboardDataArchive14_InternalParseEPKcPN6google8protobuf8internal12ParseContextE,
                            __ZN4TSCH26StylePasteboardDataArchive16default_instanceEv,
                            __ZN4TSCH26StylePasteboardDataArchive5ClearEv,
                            __ZN4TSCH26StylePasteboardDataArchive8CopyFromERKN6google8protobuf7MessageE,
                            __ZN4TSCH26StylePasteboardDataArchive8CopyFromERKS0_,
                            __ZN4TSCH26StylePasteboardDataArchive9ArenaDtorEPv,
                            __ZN4TSCH26StylePasteboardDataArchive9MergeFromERKN6google8protobuf7MessageE,
                            __ZN4TSCH26StylePasteboardDataArchive9MergeFromERKS0_,
                            __ZN4TSCH26StylePasteboardDataArchive9_Internal13style_networkEPKS0_,
                            __ZN4TSCH26StylePasteboardDataArchive9_Internal5superEPKS0_,
                            __ZN4TSCH26StylePasteboardDataArchiveC1EPN6google8protobuf5ArenaE,
                            __ZN4TSCH26StylePasteboardDataArchiveC1ERKS0_,
                            __ZN4TSCH26StylePasteboardDataArchiveC2EPN6google8protobuf5ArenaE,
                            __ZN4TSCH26StylePasteboardDataArchiveC2ERKS0_,
                            __ZN4TSCH26StylePasteboardDataArchiveD0Ev,
                            __ZN4TSCH26StylePasteboardDataArchiveD1Ev,
                            __ZN4TSCH26StylePasteboardDataArchiveD2Ev,
                            __ZN4TSCH26StyleSwapUndoTuplesArchive12InternalSwapEPS0_,
                            __ZN4TSCH26StyleSwapUndoTuplesArchive14_InternalParseEPKcPN6google8protobuf8internal12ParseContextE,
                            __ZN4TSCH26StyleSwapUndoTuplesArchive16default_instanceEv,
                            __ZN4TSCH26StyleSwapUndoTuplesArchive5ClearEv,
                            __ZN4TSCH26StyleSwapUndoTuplesArchive8CopyFromERKN6google8protobuf7MessageE,
                            __ZN4TSCH26StyleSwapUndoTuplesArchive8CopyFromERKS0_,
                            __ZN4TSCH26StyleSwapUndoTuplesArchive9ArenaDtorEPv,
                            __ZN4TSCH26StyleSwapUndoTuplesArchive9MergeFromERKN6google8protobuf7MessageE,
                            __ZN4TSCH26StyleSwapUndoTuplesArchive9MergeFromERKS0_,
                            __ZN4TSCH26StyleSwapUndoTuplesArchiveC1EPN6google8protobuf5ArenaE,
                            __ZN4TSCH26StyleSwapUndoTuplesArchiveC1ERKS0_,
                            __ZN4TSCH26StyleSwapUndoTuplesArchiveC2EPN6google8protobuf5ArenaE,
                            __ZN4TSCH26StyleSwapUndoTuplesArchiveC2ERKS0_,
                            __ZN4TSCH26StyleSwapUndoTuplesArchiveD0Ev,
                            __ZN4TSCH26StyleSwapUndoTuplesArchiveD1Ev,
                            __ZN4TSCH26StyleSwapUndoTuplesArchiveD2Ev,
                            __ZN4TSCH26_GridRow_default_instance_E,
                            __ZN4TSCH27ApplyPresetBehavior_IsValidEi,
                            __ZN4TSCH27Chart3DLightingModelArchive12InternalSwapEPS0_,
                            __ZN4TSCH27Chart3DLightingModelArchive14_InternalParseEPKcPN6google8protobuf8internal12ParseContextE,
                            __ZN4TSCH27Chart3DLightingModelArchive16default_instanceEv,
                            __ZN4TSCH27Chart3DLightingModelArchive5ClearEv,
                            __ZN4TSCH27Chart3DLightingModelArchive8CopyFromERKN6google8protobuf7MessageE,
                            __ZN4TSCH27Chart3DLightingModelArchive8CopyFromERKS0_,
                            __ZN4TSCH27Chart3DLightingModelArchive9ArenaDtorEPv,
                            __ZN4TSCH27Chart3DLightingModelArchive9MergeFromERKN6google8protobuf7MessageE,
                            __ZN4TSCH27Chart3DLightingModelArchive9MergeFromERKS0_,
                            __ZN4TSCH27Chart3DLightingModelArchive9_Internal11environmentEPKS0_,
                            __ZN4TSCH27Chart3DLightingModelArchive9_Internal14fixed_functionEPKS0_,
                            __ZN4TSCH27Chart3DLightingModelArchive9_Internal5phongEPKS0_,
                            __ZN4TSCH27Chart3DLightingModelArchiveC1EPN6google8protobuf5ArenaE,
                            __ZN4TSCH27Chart3DLightingModelArchiveC1ERKS0_,
                            __ZN4TSCH27Chart3DLightingModelArchiveC2EPN6google8protobuf5ArenaE,
                            __ZN4TSCH27Chart3DLightingModelArchiveC2ERKS0_,
                            __ZN4TSCH27Chart3DLightingModelArchiveD0Ev,
                            __ZN4TSCH27Chart3DLightingModelArchiveD1Ev,
                            __ZN4TSCH27Chart3DLightingModelArchiveD2Ev,
                            __ZN4TSCH27ChartFormatStructExtensions12InternalSwapEPS0_,
                            __ZN4TSCH27ChartFormatStructExtensions14_InternalParseEPKcPN6google8protobuf8internal12ParseContextE,
                            __ZN4TSCH27ChartFormatStructExtensions16default_instanceEv,
                            __ZN4TSCH27ChartFormatStructExtensions18kPrefixFieldNumberE,
                            __ZN4TSCH27ChartFormatStructExtensions18kSuffixFieldNumberE,
                            __ZN4TSCH27ChartFormatStructExtensions5ClearEv,
                            __ZN4TSCH27ChartFormatStructExtensions6prefixE,
                            __ZN4TSCH27ChartFormatStructExtensions6suffixE,
                            __ZN4TSCH27ChartFormatStructExtensions8CopyFromERKN6google8protobuf7MessageE,
                            __ZN4TSCH27ChartFormatStructExtensions8CopyFromERKS0_,
                            __ZN4TSCH27ChartFormatStructExtensions9ArenaDtorEPv,
                            __ZN4TSCH27ChartFormatStructExtensions9MergeFromERKN6google8protobuf7MessageE,
                            __ZN4TSCH27ChartFormatStructExtensions9MergeFromERKS0_,
                            __ZN4TSCH27ChartFormatStructExtensionsC1EPN6google8protobuf5ArenaE,
                            __ZN4TSCH27ChartFormatStructExtensionsC1ERKS0_,
                            __ZN4TSCH27ChartFormatStructExtensionsC2EPN6google8protobuf5ArenaE,
                            __ZN4TSCH27ChartFormatStructExtensionsC2ERKS0_,
                            __ZN4TSCH27ChartFormatStructExtensionsD0Ev,
                            __ZN4TSCH27ChartFormatStructExtensionsD1Ev,
                            __ZN4TSCH27ChartFormatStructExtensionsD2Ev,
                            __ZN4TSCH27ChartsNSNumberDoubleArchive12InternalSwapEPS0_,
                            __ZN4TSCH27ChartsNSNumberDoubleArchive14_InternalParseEPKcPN6google8protobuf8internal12ParseContextE,
                            __ZN4TSCH27ChartsNSNumberDoubleArchive16default_instanceEv,
                            __ZN4TSCH27ChartsNSNumberDoubleArchive5ClearEv,
                            __ZN4TSCH27ChartsNSNumberDoubleArchive8CopyFromERKN6google8protobuf7MessageE,
                            __ZN4TSCH27ChartsNSNumberDoubleArchive8CopyFromERKS0_,
                            __ZN4TSCH27ChartsNSNumberDoubleArchive9ArenaDtorEPv,
                            __ZN4TSCH27ChartsNSNumberDoubleArchive9MergeFromERKN6google8protobuf7MessageE,
                            __ZN4TSCH27ChartsNSNumberDoubleArchive9MergeFromERKS0_,
                            __ZN4TSCH27ChartsNSNumberDoubleArchiveC1EPN6google8protobuf5ArenaE,
                            __ZN4TSCH27ChartsNSNumberDoubleArchiveC1ERKS0_,
                            __ZN4TSCH27ChartsNSNumberDoubleArchiveC2EPN6google8protobuf5ArenaE,
                            __ZN4TSCH27ChartsNSNumberDoubleArchiveC2ERKS0_,
                            __ZN4TSCH27ChartsNSNumberDoubleArchiveD0Ev,
                            __ZN4TSCH27ChartsNSNumberDoubleArchiveD1Ev,
                            __ZN4TSCH27ChartsNSNumberDoubleArchiveD2Ev,
                            __ZN4TSCH27CommandSetFontFamilyArchive12InternalSwapEPS0_,
                            __ZN4TSCH27CommandSetFontFamilyArchive14_InternalParseEPKcPN6google8protobuf8internal12ParseContextE,
                            __ZN4TSCH27CommandSetFontFamilyArchive16default_instanceEv,
                            __ZN4TSCH27CommandSetFontFamilyArchive18clear_rollback_cmdEv,
                            __ZN4TSCH27CommandSetFontFamilyArchive5ClearEv,
                            __ZN4TSCH27CommandSetFontFamilyArchive8CopyFromERKN6google8protobuf7MessageE,
                            __ZN4TSCH27CommandSetFontFamilyArchive8CopyFromERKS0_,
                            __ZN4TSCH27CommandSetFontFamilyArchive9ArenaDtorEPv,
                            __ZN4TSCH27CommandSetFontFamilyArchive9MergeFromERKN6google8protobuf7MessageE,
                            __ZN4TSCH27CommandSetFontFamilyArchive9MergeFromERKS0_,
                            __ZN4TSCH27CommandSetFontFamilyArchive9_Internal12rollback_cmdEPKS0_,
                            __ZN4TSCH27CommandSetFontFamilyArchive9_Internal5superEPKS0_,
                            __ZN4TSCH27CommandSetFontFamilyArchiveC1EPN6google8protobuf5ArenaE,
                            __ZN4TSCH27CommandSetFontFamilyArchiveC1ERKS0_,
                            __ZN4TSCH27CommandSetFontFamilyArchiveC2EPN6google8protobuf5ArenaE,
                            __ZN4TSCH27CommandSetFontFamilyArchiveC2ERKS0_,
                            __ZN4TSCH27CommandSetFontFamilyArchiveD0Ev,
                            __ZN4TSCH27CommandSetFontFamilyArchiveD1Ev,
                            __ZN4TSCH27CommandSetFontFamilyArchiveD2Ev,
                            __ZN4TSCH27CommandSetPieWedgeExplosion12InternalSwapEPS0_,
                            __ZN4TSCH27CommandSetPieWedgeExplosion14_InternalParseEPKcPN6google8protobuf8internal12ParseContextE,
                            __ZN4TSCH27CommandSetPieWedgeExplosion16default_instanceEv,
                            __ZN4TSCH27CommandSetPieWedgeExplosion18clear_rollback_cmdEv,
                            __ZN4TSCH27CommandSetPieWedgeExplosion5ClearEv,
                            __ZN4TSCH27CommandSetPieWedgeExplosion8CopyFromERKN6google8protobuf7MessageE,
                            __ZN4TSCH27CommandSetPieWedgeExplosion8CopyFromERKS0_,
                            __ZN4TSCH27CommandSetPieWedgeExplosion9ArenaDtorEPv,
                            __ZN4TSCH27CommandSetPieWedgeExplosion9MergeFromERKN6google8protobuf7MessageE,
                            __ZN4TSCH27CommandSetPieWedgeExplosion9MergeFromERKS0_,
                            __ZN4TSCH27CommandSetPieWedgeExplosion9_Internal12rollback_cmdEPKS0_,
                            __ZN4TSCH27CommandSetPieWedgeExplosion9_Internal5superEPKS0_,
                            __ZN4TSCH27CommandSetPieWedgeExplosionC1EPN6google8protobuf5ArenaE,
                            __ZN4TSCH27CommandSetPieWedgeExplosionC1ERKS0_,
                            __ZN4TSCH27CommandSetPieWedgeExplosionC2EPN6google8protobuf5ArenaE,
                            __ZN4TSCH27CommandSetPieWedgeExplosionC2ERKS0_,
                            __ZN4TSCH27CommandSetPieWedgeExplosionD0Ev,
                            __ZN4TSCH27CommandSetPieWedgeExplosionD1Ev,
                            __ZN4TSCH27CommandSetPieWedgeExplosionD2Ev,
                            __ZN4TSCH27CommandSetSeriesNameArchive12InternalSwapEPS0_,
                            __ZN4TSCH27CommandSetSeriesNameArchive14_InternalParseEPKcPN6google8protobuf8internal12ParseContextE,
                            __ZN4TSCH27CommandSetSeriesNameArchive16default_instanceEv,
                            __ZN4TSCH27CommandSetSeriesNameArchive5ClearEv,
                            __ZN4TSCH27CommandSetSeriesNameArchive8CopyFromERKN6google8protobuf7MessageE,
                            __ZN4TSCH27CommandSetSeriesNameArchive8CopyFromERKS0_,
                            __ZN4TSCH27CommandSetSeriesNameArchive9ArenaDtorEPv,
                            __ZN4TSCH27CommandSetSeriesNameArchive9MergeFromERKN6google8protobuf7MessageE,
                            __ZN4TSCH27CommandSetSeriesNameArchive9MergeFromERKS0_,
                            __ZN4TSCH27CommandSetSeriesNameArchive9_Internal5superEPKS0_,
                            __ZN4TSCH27CommandSetSeriesNameArchiveC1EPN6google8protobuf5ArenaE,
                            __ZN4TSCH27CommandSetSeriesNameArchiveC1ERKS0_,
                            __ZN4TSCH27CommandSetSeriesNameArchiveC2EPN6google8protobuf5ArenaE,
                            __ZN4TSCH27CommandSetSeriesNameArchiveC2ERKS0_,
                            __ZN4TSCH27CommandSetSeriesNameArchiveD0Ev,
                            __ZN4TSCH27CommandSetSeriesNameArchiveD1Ev,
                            __ZN4TSCH27CommandSetSeriesNameArchiveD2Ev,
                            __ZN4TSCH27CommandSetSeriesTypeArchive12InternalSwapEPS0_,
                            __ZN4TSCH27CommandSetSeriesTypeArchive14_InternalParseEPKcPN6google8protobuf8internal12ParseContextE,
                            __ZN4TSCH27CommandSetSeriesTypeArchive16default_instanceEv,
                            __ZN4TSCH27CommandSetSeriesTypeArchive5ClearEv,
                            __ZN4TSCH27CommandSetSeriesTypeArchive8CopyFromERKN6google8protobuf7MessageE,
                            __ZN4TSCH27CommandSetSeriesTypeArchive8CopyFromERKS0_,
                            __ZN4TSCH27CommandSetSeriesTypeArchive9ArenaDtorEPv,
                            __ZN4TSCH27CommandSetSeriesTypeArchive9MergeFromERKN6google8protobuf7MessageE,
                            __ZN4TSCH27CommandSetSeriesTypeArchive9MergeFromERKS0_,
                            __ZN4TSCH27CommandSetSeriesTypeArchive9_Internal5superEPKS0_,
                            __ZN4TSCH27CommandSetSeriesTypeArchiveC1EPN6google8protobuf5ArenaE,
                            __ZN4TSCH27CommandSetSeriesTypeArchiveC1ERKS0_,
                            __ZN4TSCH27CommandSetSeriesTypeArchiveC2EPN6google8protobuf5ArenaE,
                            __ZN4TSCH27CommandSetSeriesTypeArchiveC2ERKS0_,
                            __ZN4TSCH27CommandSetSeriesTypeArchiveD0Ev,
                            __ZN4TSCH27CommandSetSeriesTypeArchiveD1Ev,
                            __ZN4TSCH27CommandSetSeriesTypeArchiveD2Ev,
                            __ZN4TSCH27FillPropertyType_descriptorEv,
                            __ZN4TSCH27FractionAccuracy_descriptorEv,
                            __ZN4TSCH27NegativeNumberStyle_IsValidEi,
                            __ZN4TSCH28CommandAddGridColumnsArchive12InternalSwapEPS0_,
                            __ZN4TSCH28CommandAddGridColumnsArchive14_InternalParseEPKcPN6google8protobuf8internal12ParseContextE,
                            __ZN4TSCH28CommandAddGridColumnsArchive15clear_column_idEv,
                            __ZN4TSCH28CommandAddGridColumnsArchive16default_instanceEv,
                            __ZN4TSCH28CommandAddGridColumnsArchive20clear_column_id_listEv,
                            __ZN4TSCH28CommandAddGridColumnsArchive26clear_undo_deletion_end_idEv,
                            __ZN4TSCH28CommandAddGridColumnsArchive28clear_undo_deletion_start_idEv,
                            __ZN4TSCH28CommandAddGridColumnsArchive5ClearEv,
                            __ZN4TSCH28CommandAddGridColumnsArchive8CopyFromERKN6google8protobuf7MessageE,
                            __ZN4TSCH28CommandAddGridColumnsArchive8CopyFromERKS0_,
                            __ZN4TSCH28CommandAddGridColumnsArchive9ArenaDtorEPv,
                            __ZN4TSCH28CommandAddGridColumnsArchive9MergeFromERKN6google8protobuf7MessageE,
                            __ZN4TSCH28CommandAddGridColumnsArchive9MergeFromERKS0_,
                            __ZN4TSCH28CommandAddGridColumnsArchive9_Internal20undo_deletion_end_idEPKS0_,
                            __ZN4TSCH28CommandAddGridColumnsArchive9_Internal22undo_deletion_start_idEPKS0_,
                            __ZN4TSCH28CommandAddGridColumnsArchive9_Internal5superEPKS0_,
                            __ZN4TSCH28CommandAddGridColumnsArchive9_Internal9column_idEPKS0_,
                            __ZN4TSCH28CommandAddGridColumnsArchiveC1EPN6google8protobuf5ArenaE,
                            __ZN4TSCH28CommandAddGridColumnsArchiveC1ERKS0_,
                            __ZN4TSCH28CommandAddGridColumnsArchiveC2EPN6google8protobuf5ArenaE,
                            __ZN4TSCH28CommandAddGridColumnsArchiveC2ERKS0_,
                            __ZN4TSCH28CommandAddGridColumnsArchiveD0Ev,
                            __ZN4TSCH28CommandAddGridColumnsArchiveD1Ev,
                            __ZN4TSCH28CommandAddGridColumnsArchiveD2Ev,
                            __ZN4TSCH28CommandDeleteGridRowsArchive12InternalSwapEPS0_,
                            __ZN4TSCH28CommandDeleteGridRowsArchive14_InternalParseEPKcPN6google8protobuf8internal12ParseContextE,
                            __ZN4TSCH28CommandDeleteGridRowsArchive16clear_cut_valuesEv,
                            __ZN4TSCH28CommandDeleteGridRowsArchive16clear_end_row_idEv,
                            __ZN4TSCH28CommandDeleteGridRowsArchive16default_instanceEv,
                            __ZN4TSCH28CommandDeleteGridRowsArchive18clear_start_row_idEv,
                            __ZN4TSCH28CommandDeleteGridRowsArchive22clear_undo_row_id_listEv,
                            __ZN4TSCH28CommandDeleteGridRowsArchive25clear_undo_column_id_listEv,
                            __ZN4TSCH28CommandDeleteGridRowsArchive27clear_undo_row_insertion_idEv,
                            __ZN4TSCH28CommandDeleteGridRowsArchive30clear_undo_column_insertion_idEv,
                            __ZN4TSCH28CommandDeleteGridRowsArchive5ClearEv,
                            __ZN4TSCH28CommandDeleteGridRowsArchive8CopyFromERKN6google8protobuf7MessageE,
                            __ZN4TSCH28CommandDeleteGridRowsArchive8CopyFromERKS0_,
                            __ZN4TSCH28CommandDeleteGridRowsArchive9ArenaDtorEPv,
                            __ZN4TSCH28CommandDeleteGridRowsArchive9MergeFromERKN6google8protobuf7MessageE,
                            __ZN4TSCH28CommandDeleteGridRowsArchive9MergeFromERKS0_,
                            __ZN4TSCH28CommandDeleteGridRowsArchive9_Internal10end_row_idEPKS0_,
                            __ZN4TSCH28CommandDeleteGridRowsArchive9_Internal12start_row_idEPKS0_,
                            __ZN4TSCH28CommandDeleteGridRowsArchive9_Internal21undo_row_insertion_idEPKS0_,
                            __ZN4TSCH28CommandDeleteGridRowsArchive9_Internal24undo_column_insertion_idEPKS0_,
                            __ZN4TSCH28CommandDeleteGridRowsArchive9_Internal5superEPKS0_,
                            __ZN4TSCH28CommandDeleteGridRowsArchiveC1EPN6google8protobuf5ArenaE,
                            __ZN4TSCH28CommandDeleteGridRowsArchiveC1ERKS0_,
                            __ZN4TSCH28CommandDeleteGridRowsArchiveC2EPN6google8protobuf5ArenaE,
                            __ZN4TSCH28CommandDeleteGridRowsArchiveC2ERKS0_,
                            __ZN4TSCH28CommandDeleteGridRowsArchiveD0Ev,
                            __ZN4TSCH28CommandDeleteGridRowsArchiveD1Ev,
                            __ZN4TSCH28CommandDeleteGridRowsArchiveD2Ev,
                            __ZN4TSCH28CommandSetLegendFrameArchive12InternalSwapEPS0_,
                            __ZN4TSCH28CommandSetLegendFrameArchive14_InternalParseEPKcPN6google8protobuf8internal12ParseContextE,
                            __ZN4TSCH28CommandSetLegendFrameArchive16default_instanceEv,
                            __ZN4TSCH28CommandSetLegendFrameArchive22clear_new_legend_frameEv,
                            __ZN4TSCH28CommandSetLegendFrameArchive22clear_old_legend_frameEv,
                            __ZN4TSCH28CommandSetLegendFrameArchive5ClearEv,
                            __ZN4TSCH28CommandSetLegendFrameArchive8CopyFromERKN6google8protobuf7MessageE,
                            __ZN4TSCH28CommandSetLegendFrameArchive8CopyFromERKS0_,
                            __ZN4TSCH28CommandSetLegendFrameArchive9ArenaDtorEPv,
                            __ZN4TSCH28CommandSetLegendFrameArchive9MergeFromERKN6google8protobuf7MessageE,
                            __ZN4TSCH28CommandSetLegendFrameArchive9MergeFromERKS0_,
                            __ZN4TSCH28CommandSetLegendFrameArchive9_Internal16new_legend_frameEPKS0_,
                            __ZN4TSCH28CommandSetLegendFrameArchive9_Internal16old_legend_frameEPKS0_,
                            __ZN4TSCH28CommandSetLegendFrameArchive9_Internal5superEPKS0_,
                            __ZN4TSCH28CommandSetLegendFrameArchiveC1EPN6google8protobuf5ArenaE,
                            __ZN4TSCH28CommandSetLegendFrameArchiveC1ERKS0_,
                            __ZN4TSCH28CommandSetLegendFrameArchiveC2EPN6google8protobuf5ArenaE,
                            __ZN4TSCH28CommandSetLegendFrameArchiveC2ERKS0_,
                            __ZN4TSCH28CommandSetLegendFrameArchiveD0Ev,
                            __ZN4TSCH28CommandSetLegendFrameArchiveD1Ev,
                            __ZN4TSCH28CommandSetLegendFrameArchiveD2Ev,
                            __ZN4TSCH28DEPRECATEDChart3DFillArchive10clear_fillEv,
                            __ZN4TSCH28DEPRECATEDChart3DFillArchive12InternalSwapEPS0_,
                            __ZN4TSCH28DEPRECATEDChart3DFillArchive14_InternalParseEPKcPN6google8protobuf8internal12ParseContextE,
                            __ZN4TSCH28DEPRECATEDChart3DFillArchive16default_instanceEv,
                            __ZN4TSCH28DEPRECATEDChart3DFillArchive19clear_lightingmodelEv,
                            __ZN4TSCH28DEPRECATEDChart3DFillArchive5ClearEv,
                            __ZN4TSCH28DEPRECATEDChart3DFillArchive8CopyFromERKN6google8protobuf7MessageE,
                            __ZN4TSCH28DEPRECATEDChart3DFillArchive8CopyFromERKS0_,
                            __ZN4TSCH28DEPRECATEDChart3DFillArchive9ArenaDtorEPv,
                            __ZN4TSCH28DEPRECATEDChart3DFillArchive9MergeFromERKN6google8protobuf7MessageE,
                            __ZN4TSCH28DEPRECATEDChart3DFillArchive9MergeFromERKS0_,
                            __ZN4TSCH28DEPRECATEDChart3DFillArchive9_Internal13lightingmodelEPKS0_,
                            __ZN4TSCH28DEPRECATEDChart3DFillArchive9_Internal4fillEPKS0_,
                            __ZN4TSCH28DEPRECATEDChart3DFillArchiveC1EPN6google8protobuf5ArenaE,
                            __ZN4TSCH28DEPRECATEDChart3DFillArchiveC1ERKS0_,
                            __ZN4TSCH28DEPRECATEDChart3DFillArchiveC2EPN6google8protobuf5ArenaE,
                            __ZN4TSCH28DEPRECATEDChart3DFillArchiveC2ERKS0_,
                            __ZN4TSCH28DEPRECATEDChart3DFillArchiveD0Ev,
                            __ZN4TSCH28DEPRECATEDChart3DFillArchiveD1Ev,
                            __ZN4TSCH28DEPRECATEDChart3DFillArchiveD2Ev,
                            __ZN4TSCH28ReferenceLineNonStyleArchive11clear_superEv,
                            __ZN4TSCH28ReferenceLineNonStyleArchive12InternalSwapEPS0_,
                            __ZN4TSCH28ReferenceLineNonStyleArchive14_InternalParseEPKcPN6google8protobuf8internal12ParseContextE,
                            __ZN4TSCH28ReferenceLineNonStyleArchive16default_instanceEv,
                            __ZN4TSCH28ReferenceLineNonStyleArchive5ClearEv,
                            __ZN4TSCH28ReferenceLineNonStyleArchive8CopyFromERKN6google8protobuf7MessageE,
                            __ZN4TSCH28ReferenceLineNonStyleArchive8CopyFromERKS0_,
                            __ZN4TSCH28ReferenceLineNonStyleArchive9ArenaDtorEPv,
                            __ZN4TSCH28ReferenceLineNonStyleArchive9MergeFromERKN6google8protobuf7MessageE,
                            __ZN4TSCH28ReferenceLineNonStyleArchive9MergeFromERKS0_,
                            __ZN4TSCH28ReferenceLineNonStyleArchive9_Internal5superEPKS0_,
                            __ZN4TSCH28ReferenceLineNonStyleArchiveC1EPN6google8protobuf5ArenaE,
                            __ZN4TSCH28ReferenceLineNonStyleArchiveC1ERKS0_,
                            __ZN4TSCH28ReferenceLineNonStyleArchiveC2EPN6google8protobuf5ArenaE,
                            __ZN4TSCH28ReferenceLineNonStyleArchiveC2ERKS0_,
                            __ZN4TSCH28ReferenceLineNonStyleArchiveD0Ev,
                            __ZN4TSCH28ReferenceLineNonStyleArchiveD1Ev,
                            __ZN4TSCH28ReferenceLineNonStyleArchiveD2Ev,
                            __ZN4TSCH28TextureTilingFace_descriptorEv,
                            __ZN4TSCH28TextureTilingMode_descriptorEv,
                            __ZN4TSCH28TextureTilingWrap_descriptorEv,
                            __ZN4TSCH28_GridValue_default_instance_E,
                            __ZN4TSCH28preset_reference_line_stylesE,
                            __ZN4TSCH29Chart3DDiffuseMaterialArchive12InternalSwapEPS0_,
                            __ZN4TSCH29Chart3DDiffuseMaterialArchive14_InternalParseEPKcPN6google8protobuf8internal12ParseContextE,
                            __ZN4TSCH29Chart3DDiffuseMaterialArchive16default_instanceEv,
                            __ZN4TSCH29Chart3DDiffuseMaterialArchive5ClearEv,
                            __ZN4TSCH29Chart3DDiffuseMaterialArchive8CopyFromERKN6google8protobuf7MessageE,
                            __ZN4TSCH29Chart3DDiffuseMaterialArchive8CopyFromERKS0_,
                            __ZN4TSCH29Chart3DDiffuseMaterialArchive9ArenaDtorEPv,
                            __ZN4TSCH29Chart3DDiffuseMaterialArchive9MergeFromERKN6google8protobuf7MessageE,
                            __ZN4TSCH29Chart3DDiffuseMaterialArchive9MergeFromERKS0_,
                            __ZN4TSCH29Chart3DDiffuseMaterialArchive9_Internal5superEPKS0_,
                            __ZN4TSCH29Chart3DDiffuseMaterialArchiveC1EPN6google8protobuf5ArenaE,
                            __ZN4TSCH29Chart3DDiffuseMaterialArchiveC1ERKS0_,
                            __ZN4TSCH29Chart3DDiffuseMaterialArchiveC2EPN6google8protobuf5ArenaE,
                            __ZN4TSCH29Chart3DDiffuseMaterialArchiveC2ERKS0_,
                            __ZN4TSCH29Chart3DDiffuseMaterialArchiveD0Ev,
                            __ZN4TSCH29Chart3DDiffuseMaterialArchiveD1Ev,
                            __ZN4TSCH29Chart3DDiffuseMaterialArchiveD2Ev,
                            __ZN4TSCH29Chart3DLightingPackageArchive12InternalSwapEPS0_,
                            __ZN4TSCH29Chart3DLightingPackageArchive14_InternalParseEPKcPN6google8protobuf8internal12ParseContextE,
                            __ZN4TSCH29Chart3DLightingPackageArchive16default_instanceEv,
                            __ZN4TSCH29Chart3DLightingPackageArchive5ClearEv,
                            __ZN4TSCH29Chart3DLightingPackageArchive8CopyFromERKN6google8protobuf7MessageE,
                            __ZN4TSCH29Chart3DLightingPackageArchive8CopyFromERKS0_,
                            __ZN4TSCH29Chart3DLightingPackageArchive9ArenaDtorEPv,
                            __ZN4TSCH29Chart3DLightingPackageArchive9MergeFromERKN6google8protobuf7MessageE,
                            __ZN4TSCH29Chart3DLightingPackageArchive9MergeFromERKS0_,
                            __ZN4TSCH29Chart3DLightingPackageArchiveC1EPN6google8protobuf5ArenaE,
                            __ZN4TSCH29Chart3DLightingPackageArchiveC1ERKS0_,
                            __ZN4TSCH29Chart3DLightingPackageArchiveC2EPN6google8protobuf5ArenaE,
                            __ZN4TSCH29Chart3DLightingPackageArchiveC2ERKS0_,
                            __ZN4TSCH29Chart3DLightingPackageArchiveD0Ev,
                            __ZN4TSCH29Chart3DLightingPackageArchiveD1Ev,
                            __ZN4TSCH29Chart3DLightingPackageArchiveD2Ev,
                            __ZN4TSCH29ChartGarlicLabelFormatUpgrade12InternalSwapEPS0_,
                            __ZN4TSCH29ChartGarlicLabelFormatUpgrade14_InternalParseEPKcPN6google8protobuf8internal12ParseContextE,
                            __ZN4TSCH29ChartGarlicLabelFormatUpgrade16default_instanceEv,
                            __ZN4TSCH29ChartGarlicLabelFormatUpgrade27garlic_label_format_upgradeE,
                            __ZN4TSCH29ChartGarlicLabelFormatUpgrade36kGarlicLabelFormatUpgradeFieldNumberE,
                            __ZN4TSCH29ChartGarlicLabelFormatUpgrade5ClearEv,
                            __ZN4TSCH29ChartGarlicLabelFormatUpgrade8CopyFromERKN6google8protobuf7MessageE,
                            __ZN4TSCH29ChartGarlicLabelFormatUpgrade8CopyFromERKS0_,
                            __ZN4TSCH29ChartGarlicLabelFormatUpgrade9ArenaDtorEPv,
                            __ZN4TSCH29ChartGarlicLabelFormatUpgrade9MergeFromERKN6google8protobuf7MessageE,
                            __ZN4TSCH29ChartGarlicLabelFormatUpgrade9MergeFromERKS0_,
                            __ZN4TSCH29ChartGarlicLabelFormatUpgradeC1EPN6google8protobuf5ArenaE,
                            __ZN4TSCH29ChartGarlicLabelFormatUpgradeC1ERKS0_,
                            __ZN4TSCH29ChartGarlicLabelFormatUpgradeC2EPN6google8protobuf5ArenaE,
                            __ZN4TSCH29ChartGarlicLabelFormatUpgradeC2ERKS0_,
                            __ZN4TSCH29ChartGarlicLabelFormatUpgradeD0Ev,
                            __ZN4TSCH29ChartGarlicLabelFormatUpgradeD1Ev,
                            __ZN4TSCH29ChartGarlicLabelFormatUpgradeD2Ev,
                            __ZN4TSCH29ChartSelectionPathTypeArchive12InternalSwapEPS0_,
                            __ZN4TSCH29ChartSelectionPathTypeArchive14_InternalParseEPKcPN6google8protobuf8internal12ParseContextE,
                            __ZN4TSCH29ChartSelectionPathTypeArchive16default_instanceEv,
                            __ZN4TSCH29ChartSelectionPathTypeArchive5ClearEv,
                            __ZN4TSCH29ChartSelectionPathTypeArchive8CopyFromERKN6google8protobuf7MessageE,
                            __ZN4TSCH29ChartSelectionPathTypeArchive8CopyFromERKS0_,
                            __ZN4TSCH29ChartSelectionPathTypeArchive9ArenaDtorEPv,
                            __ZN4TSCH29ChartSelectionPathTypeArchive9MergeFromERKN6google8protobuf7MessageE,
                            __ZN4TSCH29ChartSelectionPathTypeArchive9MergeFromERKS0_,
                            __ZN4TSCH29ChartSelectionPathTypeArchiveC1EPN6google8protobuf5ArenaE,
                            __ZN4TSCH29ChartSelectionPathTypeArchiveC1ERKS0_,
                            __ZN4TSCH29ChartSelectionPathTypeArchiveC2EPN6google8protobuf5ArenaE,
                            __ZN4TSCH29ChartSelectionPathTypeArchiveC2ERKS0_,
                            __ZN4TSCH29ChartSelectionPathTypeArchiveD0Ev,
                            __ZN4TSCH29ChartSelectionPathTypeArchiveD1Ev,
                            __ZN4TSCH29ChartSelectionPathTypeArchiveD2Ev,
                            __ZN4TSCH29CommandCleanupGeometryArchive12InternalSwapEPS0_,
                            __ZN4TSCH29CommandCleanupGeometryArchive14_InternalParseEPKcPN6google8protobuf8internal12ParseContextE,
                            __ZN4TSCH29CommandCleanupGeometryArchive16default_instanceEv,
                            __ZN4TSCH29CommandCleanupGeometryArchive26clear_original_legend_rectEv,
                            __ZN4TSCH29CommandCleanupGeometryArchive27clear_info_geometry_commandEv,
                            __ZN4TSCH29CommandCleanupGeometryArchive31clear_anchor_attachment_commandEv,
                            __ZN4TSCH29CommandCleanupGeometryArchive5ClearEv,
                            __ZN4TSCH29CommandCleanupGeometryArchive8CopyFromERKN6google8protobuf7MessageE,
                            __ZN4TSCH29CommandCleanupGeometryArchive8CopyFromERKS0_,
                            __ZN4TSCH29CommandCleanupGeometryArchive9ArenaDtorEPv,
                            __ZN4TSCH29CommandCleanupGeometryArchive9MergeFromERKN6google8protobuf7MessageE,
                            __ZN4TSCH29CommandCleanupGeometryArchive9MergeFromERKS0_,
                            __ZN4TSCH29CommandCleanupGeometryArchive9_Internal20original_legend_rectEPKS0_,
                            __ZN4TSCH29CommandCleanupGeometryArchive9_Internal21info_geometry_commandEPKS0_,
                            __ZN4TSCH29CommandCleanupGeometryArchive9_Internal25anchor_attachment_commandEPKS0_,
                            __ZN4TSCH29CommandCleanupGeometryArchive9_Internal5superEPKS0_,
                            __ZN4TSCH29CommandCleanupGeometryArchiveC1EPN6google8protobuf5ArenaE,
                            __ZN4TSCH29CommandCleanupGeometryArchiveC1ERKS0_,
                            __ZN4TSCH29CommandCleanupGeometryArchiveC2EPN6google8protobuf5ArenaE,
                            __ZN4TSCH29CommandCleanupGeometryArchiveC2ERKS0_,
                            __ZN4TSCH29CommandCleanupGeometryArchiveD0Ev,
                            __ZN4TSCH29CommandCleanupGeometryArchiveD1Ev,
                            __ZN4TSCH29CommandCleanupGeometryArchiveD2Ev,
                            __ZN4TSCH29CommandInduced3DChartGeometry11clear_superEv,
                            __ZN4TSCH29CommandInduced3DChartGeometry12InternalSwapEPS0_,
                            __ZN4TSCH29CommandInduced3DChartGeometry14_InternalParseEPKcPN6google8protobuf8internal12ParseContextE,
                            __ZN4TSCH29CommandInduced3DChartGeometry16default_instanceEv,
                            __ZN4TSCH29CommandInduced3DChartGeometry5ClearEv,
                            __ZN4TSCH29CommandInduced3DChartGeometry8CopyFromERKN6google8protobuf7MessageE,
                            __ZN4TSCH29CommandInduced3DChartGeometry8CopyFromERKS0_,
                            __ZN4TSCH29CommandInduced3DChartGeometry9ArenaDtorEPv,
                            __ZN4TSCH29CommandInduced3DChartGeometry9MergeFromERKN6google8protobuf7MessageE,
                            __ZN4TSCH29CommandInduced3DChartGeometry9MergeFromERKS0_,
                            __ZN4TSCH29CommandInduced3DChartGeometry9_Internal5superEPKS0_,
                            __ZN4TSCH29CommandInduced3DChartGeometryC1EPN6google8protobuf5ArenaE,
                            __ZN4TSCH29CommandInduced3DChartGeometryC1ERKS0_,
                            __ZN4TSCH29CommandInduced3DChartGeometryC2EPN6google8protobuf5ArenaE,
                            __ZN4TSCH29CommandInduced3DChartGeometryC2ERKS0_,
                            __ZN4TSCH29CommandInduced3DChartGeometryD0Ev,
                            __ZN4TSCH29CommandInduced3DChartGeometryD1Ev,
                            __ZN4TSCH29CommandInduced3DChartGeometryD2Ev,
                            __ZN4TSCH29CommandMoveGridColumnsArchive12InternalSwapEPS0_,
                            __ZN4TSCH29CommandMoveGridColumnsArchive14_InternalParseEPKcPN6google8protobuf8internal12ParseContextE,
                            __ZN4TSCH29CommandMoveGridColumnsArchive16default_instanceEv,
                            __ZN4TSCH29CommandMoveGridColumnsArchive19clear_end_column_idEv,
                            __ZN4TSCH29CommandMoveGridColumnsArchive21clear_after_column_idEv,
                            __ZN4TSCH29CommandMoveGridColumnsArchive21clear_start_column_idEv,
                            __ZN4TSCH29CommandMoveGridColumnsArchive26clear_undo_after_column_idEv,
                            __ZN4TSCH29CommandMoveGridColumnsArchive5ClearEv,
                            __ZN4TSCH29CommandMoveGridColumnsArchive8CopyFromERKN6google8protobuf7MessageE,
                            __ZN4TSCH29CommandMoveGridColumnsArchive8CopyFromERKS0_,
                            __ZN4TSCH29CommandMoveGridColumnsArchive9ArenaDtorEPv,
                            __ZN4TSCH29CommandMoveGridColumnsArchive9MergeFromERKN6google8protobuf7MessageE,
                            __ZN4TSCH29CommandMoveGridColumnsArchive9MergeFromERKS0_,
                            __ZN4TSCH29CommandMoveGridColumnsArchive9_Internal13end_column_idEPKS0_,
                            __ZN4TSCH29CommandMoveGridColumnsArchive9_Internal15after_column_idEPKS0_,
                            __ZN4TSCH29CommandMoveGridColumnsArchive9_Internal15start_column_idEPKS0_,
                            __ZN4TSCH29CommandMoveGridColumnsArchive9_Internal20undo_after_column_idEPKS0_,
                            __ZN4TSCH29CommandMoveGridColumnsArchive9_Internal5superEPKS0_,
                            __ZN4TSCH29CommandMoveGridColumnsArchiveC1EPN6google8protobuf5ArenaE,
                            __ZN4TSCH29CommandMoveGridColumnsArchiveC1ERKS0_,
                            __ZN4TSCH29CommandMoveGridColumnsArchiveC2EPN6google8protobuf5ArenaE,
                            __ZN4TSCH29CommandMoveGridColumnsArchiveC2ERKS0_,
                            __ZN4TSCH29CommandMoveGridColumnsArchiveD0Ev,
                            __ZN4TSCH29CommandMoveGridColumnsArchiveD1Ev,
                            __ZN4TSCH29CommandMoveGridColumnsArchiveD2Ev,
                            __ZN4TSCH29CommandSetCategoryNameArchive12InternalSwapEPS0_,
                            __ZN4TSCH29CommandSetCategoryNameArchive14_InternalParseEPKcPN6google8protobuf8internal12ParseContextE,
                            __ZN4TSCH29CommandSetCategoryNameArchive16default_instanceEv,
                            __ZN4TSCH29CommandSetCategoryNameArchive5ClearEv,
                            __ZN4TSCH29CommandSetCategoryNameArchive8CopyFromERKN6google8protobuf7MessageE,
                            __ZN4TSCH29CommandSetCategoryNameArchive8CopyFromERKS0_,
                            __ZN4TSCH29CommandSetCategoryNameArchive9ArenaDtorEPv,
                            __ZN4TSCH29CommandSetCategoryNameArchive9MergeFromERKN6google8protobuf7MessageE,
                            __ZN4TSCH29CommandSetCategoryNameArchive9MergeFromERKS0_,
                            __ZN4TSCH29CommandSetCategoryNameArchive9_Internal5superEPKS0_,
                            __ZN4TSCH29CommandSetCategoryNameArchiveC1EPN6google8protobuf5ArenaE,
                            __ZN4TSCH29CommandSetCategoryNameArchiveC1ERKS0_,
                            __ZN4TSCH29CommandSetCategoryNameArchiveC2EPN6google8protobuf5ArenaE,
                            __ZN4TSCH29CommandSetCategoryNameArchiveC2ERKS0_,
                            __ZN4TSCH29CommandSetCategoryNameArchiveD0Ev,
                            __ZN4TSCH29CommandSetCategoryNameArchiveD1Ev,
                            __ZN4TSCH29CommandSetCategoryNameArchiveD2Ev,
                            __ZN4TSCH29series_supports_callout_linesE,
                            __ZN4TSCH30ApplyPresetBehavior_descriptorEv,
                            __ZN4TSCH30CDESelectionTransformerArchive12InternalSwapEPS0_,
                            __ZN4TSCH30CDESelectionTransformerArchive14_InternalParseEPKcPN6google8protobuf8internal12ParseContextE,
                            __ZN4TSCH30CDESelectionTransformerArchive16default_instanceEv,
                            __ZN4TSCH30CDESelectionTransformerArchive19clear_cde_selectionEv,
                            __ZN4TSCH30CDESelectionTransformerArchive5ClearEv,
                            __ZN4TSCH30CDESelectionTransformerArchive8CopyFromERKN6google8protobuf7MessageE,
                            __ZN4TSCH30CDESelectionTransformerArchive8CopyFromERKS0_,
                            __ZN4TSCH30CDESelectionTransformerArchive9ArenaDtorEPv,
                            __ZN4TSCH30CDESelectionTransformerArchive9MergeFromERKN6google8protobuf7MessageE,
                            __ZN4TSCH30CDESelectionTransformerArchive9MergeFromERKS0_,
                            __ZN4TSCH30CDESelectionTransformerArchive9_Internal13cde_selectionEPKS0_,
                            __ZN4TSCH30CDESelectionTransformerArchiveC1EPN6google8protobuf5ArenaE,
                            __ZN4TSCH30CDESelectionTransformerArchiveC1ERKS0_,
                            __ZN4TSCH30CDESelectionTransformerArchiveC2EPN6google8protobuf5ArenaE,
                            __ZN4TSCH30CDESelectionTransformerArchiveC2ERKS0_,
                            __ZN4TSCH30CDESelectionTransformerArchiveD0Ev,
                            __ZN4TSCH30CDESelectionTransformerArchiveD1Ev,
                            __ZN4TSCH30CDESelectionTransformerArchiveD2Ev,
                            __ZN4TSCH30Chart3DDirectionalLightArchive12InternalSwapEPS0_,
                            __ZN4TSCH30Chart3DDirectionalLightArchive14_InternalParseEPKcPN6google8protobuf8internal12ParseContextE,
                            __ZN4TSCH30Chart3DDirectionalLightArchive16default_instanceEv,
                            __ZN4TSCH30Chart3DDirectionalLightArchive5ClearEv,
                            __ZN4TSCH30Chart3DDirectionalLightArchive8CopyFromERKN6google8protobuf7MessageE,
                            __ZN4TSCH30Chart3DDirectionalLightArchive8CopyFromERKS0_,
                            __ZN4TSCH30Chart3DDirectionalLightArchive9ArenaDtorEPv,
                            __ZN4TSCH30Chart3DDirectionalLightArchive9MergeFromERKN6google8protobuf7MessageE,
                            __ZN4TSCH30Chart3DDirectionalLightArchive9MergeFromERKS0_,
                            __ZN4TSCH30Chart3DDirectionalLightArchive9_Internal9directionEPKS0_,
                            __ZN4TSCH30Chart3DDirectionalLightArchiveC1EPN6google8protobuf5ArenaE,
                            __ZN4TSCH30Chart3DDirectionalLightArchiveC1ERKS0_,
                            __ZN4TSCH30Chart3DDirectionalLightArchiveC2EPN6google8protobuf5ArenaE,
                            __ZN4TSCH30Chart3DDirectionalLightArchiveC2ERKS0_,
                            __ZN4TSCH30Chart3DDirectionalLightArchiveD0Ev,
                            __ZN4TSCH30Chart3DDirectionalLightArchiveD1Ev,
                            __ZN4TSCH30Chart3DDirectionalLightArchiveD2Ev,
                            __ZN4TSCH30Chart3DEmissiveMaterialArchive12InternalSwapEPS0_,
                            __ZN4TSCH30Chart3DEmissiveMaterialArchive14_InternalParseEPKcPN6google8protobuf8internal12ParseContextE,
                            __ZN4TSCH30Chart3DEmissiveMaterialArchive16default_instanceEv,
                            __ZN4TSCH30Chart3DEmissiveMaterialArchive5ClearEv,
                            __ZN4TSCH30Chart3DEmissiveMaterialArchive8CopyFromERKN6google8protobuf7MessageE,
                            __ZN4TSCH30Chart3DEmissiveMaterialArchive8CopyFromERKS0_,
                            __ZN4TSCH30Chart3DEmissiveMaterialArchive9ArenaDtorEPv,
                            __ZN4TSCH30Chart3DEmissiveMaterialArchive9MergeFromERKN6google8protobuf7MessageE,
                            __ZN4TSCH30Chart3DEmissiveMaterialArchive9MergeFromERKS0_,
                            __ZN4TSCH30Chart3DEmissiveMaterialArchive9_Internal5superEPKS0_,
                            __ZN4TSCH30Chart3DEmissiveMaterialArchiveC1EPN6google8protobuf5ArenaE,
                            __ZN4TSCH30Chart3DEmissiveMaterialArchiveC1ERKS0_,
                            __ZN4TSCH30Chart3DEmissiveMaterialArchiveC2EPN6google8protobuf5ArenaE,
                            __ZN4TSCH30Chart3DEmissiveMaterialArchiveC2ERKS0_,
                            __ZN4TSCH30Chart3DEmissiveMaterialArchiveD0Ev,
                            __ZN4TSCH30Chart3DEmissiveMaterialArchiveD1Ev,
                            __ZN4TSCH30Chart3DEmissiveMaterialArchiveD2Ev,
                            __ZN4TSCH30Chart3DModulateMaterialArchive12InternalSwapEPS0_,
                            __ZN4TSCH30Chart3DModulateMaterialArchive14_InternalParseEPKcPN6google8protobuf8internal12ParseContextE,
                            __ZN4TSCH30Chart3DModulateMaterialArchive16default_instanceEv,
                            __ZN4TSCH30Chart3DModulateMaterialArchive5ClearEv,
                            __ZN4TSCH30Chart3DModulateMaterialArchive8CopyFromERKN6google8protobuf7MessageE,
                            __ZN4TSCH30Chart3DModulateMaterialArchive8CopyFromERKS0_,
                            __ZN4TSCH30Chart3DModulateMaterialArchive9ArenaDtorEPv,
                            __ZN4TSCH30Chart3DModulateMaterialArchive9MergeFromERKN6google8protobuf7MessageE,
                            __ZN4TSCH30Chart3DModulateMaterialArchive9MergeFromERKS0_,
                            __ZN4TSCH30Chart3DModulateMaterialArchive9_Internal5superEPKS0_,
                            __ZN4TSCH30Chart3DModulateMaterialArchiveC1EPN6google8protobuf5ArenaE,
                            __ZN4TSCH30Chart3DModulateMaterialArchiveC1ERKS0_,
                            __ZN4TSCH30Chart3DModulateMaterialArchiveC2EPN6google8protobuf5ArenaE,
                            __ZN4TSCH30Chart3DModulateMaterialArchiveC2ERKS0_,
                            __ZN4TSCH30Chart3DModulateMaterialArchiveD0Ev,
                            __ZN4TSCH30Chart3DModulateMaterialArchiveD1Ev,
                            __ZN4TSCH30Chart3DModulateMaterialArchiveD2Ev,
                            __ZN4TSCH30Chart3DSpecularMaterialArchive12InternalSwapEPS0_,
                            __ZN4TSCH30Chart3DSpecularMaterialArchive14_InternalParseEPKcPN6google8protobuf8internal12ParseContextE,
                            __ZN4TSCH30Chart3DSpecularMaterialArchive16default_instanceEv,
                            __ZN4TSCH30Chart3DSpecularMaterialArchive5ClearEv,
                            __ZN4TSCH30Chart3DSpecularMaterialArchive8CopyFromERKN6google8protobuf7MessageE,
                            __ZN4TSCH30Chart3DSpecularMaterialArchive8CopyFromERKS0_,
                            __ZN4TSCH30Chart3DSpecularMaterialArchive9ArenaDtorEPv,
                            __ZN4TSCH30Chart3DSpecularMaterialArchive9MergeFromERKN6google8protobuf7MessageE,
                            __ZN4TSCH30Chart3DSpecularMaterialArchive9MergeFromERKS0_,
                            __ZN4TSCH30Chart3DSpecularMaterialArchive9_Internal5superEPKS0_,
                            __ZN4TSCH30Chart3DSpecularMaterialArchiveC1EPN6google8protobuf5ArenaE,
                            __ZN4TSCH30Chart3DSpecularMaterialArchiveC1ERKS0_,
                            __ZN4TSCH30Chart3DSpecularMaterialArchiveC2EPN6google8protobuf5ArenaE,
                            __ZN4TSCH30Chart3DSpecularMaterialArchiveC2ERKS0_,
                            __ZN4TSCH30Chart3DSpecularMaterialArchiveD0Ev,
                            __ZN4TSCH30Chart3DSpecularMaterialArchiveD1Ev,
                            __ZN4TSCH30Chart3DSpecularMaterialArchiveD2Ev,
                            __ZN4TSCH30Chart3DTexturesMaterialArchive12InternalSwapEPS0_,
                            __ZN4TSCH30Chart3DTexturesMaterialArchive14_InternalParseEPKcPN6google8protobuf8internal12ParseContextE,
                            __ZN4TSCH30Chart3DTexturesMaterialArchive16default_instanceEv,
                            __ZN4TSCH30Chart3DTexturesMaterialArchive5ClearEv,
                            __ZN4TSCH30Chart3DTexturesMaterialArchive8CopyFromERKN6google8protobuf7MessageE,
                            __ZN4TSCH30Chart3DTexturesMaterialArchive8CopyFromERKS0_,
                            __ZN4TSCH30Chart3DTexturesMaterialArchive9ArenaDtorEPv,
                            __ZN4TSCH30Chart3DTexturesMaterialArchive9MergeFromERKN6google8protobuf7MessageE,
                            __ZN4TSCH30Chart3DTexturesMaterialArchive9MergeFromERKS0_,
                            __ZN4TSCH30Chart3DTexturesMaterialArchive9_Internal5colorEPKS0_,
                            __ZN4TSCH30Chart3DTexturesMaterialArchiveC1EPN6google8protobuf5ArenaE,
                            __ZN4TSCH30Chart3DTexturesMaterialArchiveC1ERKS0_,
                            __ZN4TSCH30Chart3DTexturesMaterialArchiveC2EPN6google8protobuf5ArenaE,
                            __ZN4TSCH30Chart3DTexturesMaterialArchiveC2ERKS0_,
                            __ZN4TSCH30Chart3DTexturesMaterialArchiveD0Ev,
                            __ZN4TSCH30Chart3DTexturesMaterialArchiveD1Ev,
                            __ZN4TSCH30Chart3DTexturesMaterialArchiveD2Ev,
                            __ZN4TSCH30ChartReferenceLineNonStyleItem10clear_uuidEv,
                            __ZN4TSCH30ChartReferenceLineNonStyleItem12InternalSwapEPS0_,
                            __ZN4TSCH30ChartReferenceLineNonStyleItem14_InternalParseEPKcPN6google8protobuf8internal12ParseContextE,
                            __ZN4TSCH30ChartReferenceLineNonStyleItem15clear_non_styleEv,
                            __ZN4TSCH30ChartReferenceLineNonStyleItem16default_instanceEv,
                            __ZN4TSCH30ChartReferenceLineNonStyleItem5ClearEv,
                            __ZN4TSCH30ChartReferenceLineNonStyleItem8CopyFromERKN6google8protobuf7MessageE,
                            __ZN4TSCH30ChartReferenceLineNonStyleItem8CopyFromERKS0_,
                            __ZN4TSCH30ChartReferenceLineNonStyleItem9ArenaDtorEPv,
                            __ZN4TSCH30ChartReferenceLineNonStyleItem9MergeFromERKN6google8protobuf7MessageE,
                            __ZN4TSCH30ChartReferenceLineNonStyleItem9MergeFromERKS0_,
                            __ZN4TSCH30ChartReferenceLineNonStyleItem9_Internal4uuidEPKS0_,
                            __ZN4TSCH30ChartReferenceLineNonStyleItem9_Internal9non_styleEPKS0_,
                            __ZN4TSCH30ChartReferenceLineNonStyleItemC1EPN6google8protobuf5ArenaE,
                            __ZN4TSCH30ChartReferenceLineNonStyleItemC1ERKS0_,
                            __ZN4TSCH30ChartReferenceLineNonStyleItemC2EPN6google8protobuf5ArenaE,
                            __ZN4TSCH30ChartReferenceLineNonStyleItemC2ERKS0_,
                            __ZN4TSCH30ChartReferenceLineNonStyleItemD0Ev,
                            __ZN4TSCH30ChartReferenceLineNonStyleItemD1Ev,
                            __ZN4TSCH30ChartReferenceLineNonStyleItemD2Ev,
                            __ZN4TSCH30CommandAddReferenceLineArchive10clear_uuidEv,
                            __ZN4TSCH30CommandAddReferenceLineArchive11clear_styleEv,
                            __ZN4TSCH30CommandAddReferenceLineArchive12InternalSwapEPS0_,
                            __ZN4TSCH30CommandAddReferenceLineArchive13clear_axis_idEv,
                            __ZN4TSCH30CommandAddReferenceLineArchive14_InternalParseEPKcPN6google8protobuf8internal12ParseContextE,
                            __ZN4TSCH30CommandAddReferenceLineArchive15clear_non_styleEv,
                            __ZN4TSCH30CommandAddReferenceLineArchive16default_instanceEv,
                            __ZN4TSCH30CommandAddReferenceLineArchive22clear_paragraph_stylesEv,
                            __ZN4TSCH30CommandAddReferenceLineArchive23clear_rollback_commandsEv,
                            __ZN4TSCH30CommandAddReferenceLineArchive5ClearEv,
                            __ZN4TSCH30CommandAddReferenceLineArchive8CopyFromERKN6google8protobuf7MessageE,
                            __ZN4TSCH30CommandAddReferenceLineArchive8CopyFromERKS0_,
                            __ZN4TSCH30CommandAddReferenceLineArchive9ArenaDtorEPv,
                            __ZN4TSCH30CommandAddReferenceLineArchive9MergeFromERKN6google8protobuf7MessageE,
                            __ZN4TSCH30CommandAddReferenceLineArchive9MergeFromERKS0_,
                            __ZN4TSCH30CommandAddReferenceLineArchive9_Internal4uuidEPKS0_,
                            __ZN4TSCH30CommandAddReferenceLineArchive9_Internal5styleEPKS0_,
                            __ZN4TSCH30CommandAddReferenceLineArchive9_Internal5superEPKS0_,
                            __ZN4TSCH30CommandAddReferenceLineArchive9_Internal7axis_idEPKS0_,
                            __ZN4TSCH30CommandAddReferenceLineArchive9_Internal9non_styleEPKS0_,
                            __ZN4TSCH30CommandAddReferenceLineArchiveC1EPN6google8protobuf5ArenaE,
                            __ZN4TSCH30CommandAddReferenceLineArchiveC1ERKS0_,
                            __ZN4TSCH30CommandAddReferenceLineArchiveC2EPN6google8protobuf5ArenaE,
                            __ZN4TSCH30CommandAddReferenceLineArchiveC2ERKS0_,
                            __ZN4TSCH30CommandAddReferenceLineArchiveD0Ev,
                            __ZN4TSCH30CommandAddReferenceLineArchiveD1Ev,
                            __ZN4TSCH30CommandAddReferenceLineArchiveD2Ev,
                            __ZN4TSCH30CommandInducedReplaceChartGrid11clear_superEv,
                            __ZN4TSCH30CommandInducedReplaceChartGrid12InternalSwapEPS0_,
                            __ZN4TSCH30CommandInducedReplaceChartGrid14_InternalParseEPKcPN6google8protobuf8internal12ParseContextE,
                            __ZN4TSCH30CommandInducedReplaceChartGrid16default_instanceEv,
                            __ZN4TSCH30CommandInducedReplaceChartGrid5ClearEv,
                            __ZN4TSCH30CommandInducedReplaceChartGrid8CopyFromERKN6google8protobuf7MessageE,
                            __ZN4TSCH30CommandInducedReplaceChartGrid8CopyFromERKS0_,
                            __ZN4TSCH30CommandInducedReplaceChartGrid9ArenaDtorEPv,
                            __ZN4TSCH30CommandInducedReplaceChartGrid9MergeFromERKN6google8protobuf7MessageE,
                            __ZN4TSCH30CommandInducedReplaceChartGrid9MergeFromERKS0_,
                            __ZN4TSCH30CommandInducedReplaceChartGrid9_Internal5superEPKS0_,
                            __ZN4TSCH30CommandInducedReplaceChartGridC1EPN6google8protobuf5ArenaE,
                            __ZN4TSCH30CommandInducedReplaceChartGridC1ERKS0_,
                            __ZN4TSCH30CommandInducedReplaceChartGridC2EPN6google8protobuf5ArenaE,
                            __ZN4TSCH30CommandInducedReplaceChartGridC2ERKS0_,
                            __ZN4TSCH30CommandInducedReplaceChartGridD0Ev,
                            __ZN4TSCH30CommandInducedReplaceChartGridD1Ev,
                            __ZN4TSCH30CommandInducedReplaceChartGridD2Ev,
                            __ZN4TSCH30CommandMutatePropertiesArchive12InternalSwapEPS0_,
                            __ZN4TSCH30CommandMutatePropertiesArchive14_InternalParseEPKcPN6google8protobuf8internal12ParseContextE,
                            __ZN4TSCH30CommandMutatePropertiesArchive16default_instanceEv,
                            __ZN4TSCH30CommandMutatePropertiesArchive18clear_rollback_cmdEv,
                            __ZN4TSCH30CommandMutatePropertiesArchive5ClearEv,
                            __ZN4TSCH30CommandMutatePropertiesArchive8CopyFromERKN6google8protobuf7MessageE,
                            __ZN4TSCH30CommandMutatePropertiesArchive8CopyFromERKS0_,
                            __ZN4TSCH30CommandMutatePropertiesArchive9ArenaDtorEPv,
                            __ZN4TSCH30CommandMutatePropertiesArchive9MergeFromERKN6google8protobuf7MessageE,
                            __ZN4TSCH30CommandMutatePropertiesArchive9MergeFromERKS0_,
                            __ZN4TSCH30CommandMutatePropertiesArchive9_Internal12rollback_cmdEPKS0_,
                            __ZN4TSCH30CommandMutatePropertiesArchive9_Internal5superEPKS0_,
                            __ZN4TSCH30CommandMutatePropertiesArchiveC1EPN6google8protobuf5ArenaE,
                            __ZN4TSCH30CommandMutatePropertiesArchiveC1ERKS0_,
                            __ZN4TSCH30CommandMutatePropertiesArchiveC2EPN6google8protobuf5ArenaE,
                            __ZN4TSCH30CommandMutatePropertiesArchiveC2ERKS0_,
                            __ZN4TSCH30CommandMutatePropertiesArchiveD0Ev,
                            __ZN4TSCH30CommandMutatePropertiesArchiveD1Ev,
                            __ZN4TSCH30CommandMutatePropertiesArchiveD2Ev,
                            __ZN4TSCH30CommandReplaceImageDataArchive12InternalSwapEPS0_,
                            __ZN4TSCH30CommandReplaceImageDataArchive14_InternalParseEPKcPN6google8protobuf8internal12ParseContextE,
                            __ZN4TSCH30CommandReplaceImageDataArchive16default_instanceEv,
                            __ZN4TSCH30CommandReplaceImageDataArchive23clear_chart_style_stateEv,
                            __ZN4TSCH30CommandReplaceImageDataArchive24clear_style_swap_commandEv,
                            __ZN4TSCH30CommandReplaceImageDataArchive31clear_inverse_chart_style_stateEv,
                            __ZN4TSCH30CommandReplaceImageDataArchive5ClearEv,
                            __ZN4TSCH30CommandReplaceImageDataArchive8CopyFromERKN6google8protobuf7MessageE,
                            __ZN4TSCH30CommandReplaceImageDataArchive8CopyFromERKS0_,
                            __ZN4TSCH30CommandReplaceImageDataArchive9ArenaDtorEPv,
                            __ZN4TSCH30CommandReplaceImageDataArchive9MergeFromERKN6google8protobuf7MessageE,
                            __ZN4TSCH30CommandReplaceImageDataArchive9MergeFromERKS0_,
                            __ZN4TSCH30CommandReplaceImageDataArchive9_Internal17chart_style_stateEPKS0_,
                            __ZN4TSCH30CommandReplaceImageDataArchive9_Internal18style_swap_commandEPKS0_,
                            __ZN4TSCH30CommandReplaceImageDataArchive9_Internal25inverse_chart_style_stateEPKS0_,
                            __ZN4TSCH30CommandReplaceImageDataArchive9_Internal5superEPKS0_,
                            __ZN4TSCH30CommandReplaceImageDataArchiveC1EPN6google8protobuf5ArenaE,
                            __ZN4TSCH30CommandReplaceImageDataArchiveC1ERKS0_,
                            __ZN4TSCH30CommandReplaceImageDataArchiveC2EPN6google8protobuf5ArenaE,
                            __ZN4TSCH30CommandReplaceImageDataArchiveC2ERKS0_,
                            __ZN4TSCH30CommandReplaceImageDataArchiveD0Ev,
                            __ZN4TSCH30CommandReplaceImageDataArchiveD1Ev,
                            __ZN4TSCH30CommandReplaceImageDataArchiveD2Ev,
                            __ZN4TSCH30CommandSetGridDirectionArchive12InternalSwapEPS0_,
                            __ZN4TSCH30CommandSetGridDirectionArchive14_InternalParseEPKcPN6google8protobuf8internal12ParseContextE,
                            __ZN4TSCH30CommandSetGridDirectionArchive16default_instanceEv,
                            __ZN4TSCH30CommandSetGridDirectionArchive5ClearEv,
                            __ZN4TSCH30CommandSetGridDirectionArchive8CopyFromERKN6google8protobuf7MessageE,
                            __ZN4TSCH30CommandSetGridDirectionArchive8CopyFromERKS0_,
                            __ZN4TSCH30CommandSetGridDirectionArchive9ArenaDtorEPv,
                            __ZN4TSCH30CommandSetGridDirectionArchive9MergeFromERKN6google8protobuf7MessageE,
                            __ZN4TSCH30CommandSetGridDirectionArchive9MergeFromERKS0_,
                            __ZN4TSCH30CommandSetGridDirectionArchive9_Internal5superEPKS0_,
                            __ZN4TSCH30CommandSetGridDirectionArchiveC1EPN6google8protobuf5ArenaE,
                            __ZN4TSCH30CommandSetGridDirectionArchiveC1ERKS0_,
                            __ZN4TSCH30CommandSetGridDirectionArchiveC2EPN6google8protobuf5ArenaE,
                            __ZN4TSCH30CommandSetGridDirectionArchiveC2ERKS0_,
                            __ZN4TSCH30CommandSetGridDirectionArchiveD0Ev,
                            __ZN4TSCH30CommandSetGridDirectionArchiveD1Ev,
                            __ZN4TSCH30CommandSetGridDirectionArchiveD2Ev,
                            __ZN4TSCH30CommandSetScatterFormatArchive12InternalSwapEPS0_,
                            __ZN4TSCH30CommandSetScatterFormatArchive14_InternalParseEPKcPN6google8protobuf8internal12ParseContextE,
                            __ZN4TSCH30CommandSetScatterFormatArchive16default_instanceEv,
                            __ZN4TSCH30CommandSetScatterFormatArchive5ClearEv,
                            __ZN4TSCH30CommandSetScatterFormatArchive8CopyFromERKN6google8protobuf7MessageE,
                            __ZN4TSCH30CommandSetScatterFormatArchive8CopyFromERKS0_,
                            __ZN4TSCH30CommandSetScatterFormatArchive9ArenaDtorEPv,
                            __ZN4TSCH30CommandSetScatterFormatArchive9MergeFromERKN6google8protobuf7MessageE,
                            __ZN4TSCH30CommandSetScatterFormatArchive9MergeFromERKS0_,
                            __ZN4TSCH30CommandSetScatterFormatArchive9_Internal5superEPKS0_,
                            __ZN4TSCH30CommandSetScatterFormatArchiveC1EPN6google8protobuf5ArenaE,
                            __ZN4TSCH30CommandSetScatterFormatArchiveC1ERKS0_,
                            __ZN4TSCH30CommandSetScatterFormatArchiveC2EPN6google8protobuf5ArenaE,
                            __ZN4TSCH30CommandSetScatterFormatArchiveC2ERKS0_,
                            __ZN4TSCH30CommandSetScatterFormatArchiveD0Ev,
                            __ZN4TSCH30CommandSetScatterFormatArchiveD1Ev,
                            __ZN4TSCH30CommandSetScatterFormatArchiveD2Ev,
                            __ZN4TSCH30NegativeNumberStyle_descriptorEv,
                            __ZN4TSCH30TextureTilingXPosition_IsValidEi,
                            __ZN4TSCH30TextureTilingYPosition_IsValidEi,
                            __ZN4TSCH30_RectArchive_default_instance_E,
                            __ZN4TSCH31Chart3DShininessMaterialArchive12InternalSwapEPS0_,
                            __ZN4TSCH31Chart3DShininessMaterialArchive14_InternalParseEPKcPN6google8protobuf8internal12ParseContextE,
                            __ZN4TSCH31Chart3DShininessMaterialArchive16default_instanceEv,
                            __ZN4TSCH31Chart3DShininessMaterialArchive5ClearEv,
                            __ZN4TSCH31Chart3DShininessMaterialArchive8CopyFromERKN6google8protobuf7MessageE,
                            __ZN4TSCH31Chart3DShininessMaterialArchive8CopyFromERKS0_,
                            __ZN4TSCH31Chart3DShininessMaterialArchive9ArenaDtorEPv,
                            __ZN4TSCH31Chart3DShininessMaterialArchive9MergeFromERKN6google8protobuf7MessageE,
                            __ZN4TSCH31Chart3DShininessMaterialArchive9MergeFromERKS0_,
                            __ZN4TSCH31Chart3DShininessMaterialArchive9_Internal5superEPKS0_,
                            __ZN4TSCH31Chart3DShininessMaterialArchiveC1EPN6google8protobuf5ArenaE,
                            __ZN4TSCH31Chart3DShininessMaterialArchiveC1ERKS0_,
                            __ZN4TSCH31Chart3DShininessMaterialArchiveC2EPN6google8protobuf5ArenaE,
                            __ZN4TSCH31Chart3DShininessMaterialArchiveC2ERKS0_,
                            __ZN4TSCH31Chart3DShininessMaterialArchiveD0Ev,
                            __ZN4TSCH31Chart3DShininessMaterialArchiveD1Ev,
                            __ZN4TSCH31Chart3DShininessMaterialArchiveD2Ev,
                            __ZN4TSCH31ChartPasteboardAdditionsArchive12InternalSwapEPS0_,
                            __ZN4TSCH31ChartPasteboardAdditionsArchive14_InternalParseEPKcPN6google8protobuf8internal12ParseContextE,
                            __ZN4TSCH31ChartPasteboardAdditionsArchive16default_instanceEv,
                            __ZN4TSCH31ChartPasteboardAdditionsArchive26preset_uuid_for_pasteboardE,
                            __ZN4TSCH31ChartPasteboardAdditionsArchive27preset_index_for_pasteboardE,
                            __ZN4TSCH31ChartPasteboardAdditionsArchive33custom_format_list_for_pasteboardE,
                            __ZN4TSCH31ChartPasteboardAdditionsArchive35kPresetUuidForPasteboardFieldNumberE,
                            __ZN4TSCH31ChartPasteboardAdditionsArchive36kPresetIndexForPasteboardFieldNumberE,
                            __ZN4TSCH31ChartPasteboardAdditionsArchive41kCustomFormatListForPasteboardFieldNumberE,
                            __ZN4TSCH31ChartPasteboardAdditionsArchive5ClearEv,
                            __ZN4TSCH31ChartPasteboardAdditionsArchive8CopyFromERKN6google8protobuf7MessageE,
                            __ZN4TSCH31ChartPasteboardAdditionsArchive8CopyFromERKS0_,
                            __ZN4TSCH31ChartPasteboardAdditionsArchive9ArenaDtorEPv,
                            __ZN4TSCH31ChartPasteboardAdditionsArchive9MergeFromERKN6google8protobuf7MessageE,
                            __ZN4TSCH31ChartPasteboardAdditionsArchive9MergeFromERKS0_,
                            __ZN4TSCH31ChartPasteboardAdditionsArchiveC1EPN6google8protobuf5ArenaE,
                            __ZN4TSCH31ChartPasteboardAdditionsArchiveC1ERKS0_,
                            __ZN4TSCH31ChartPasteboardAdditionsArchiveC2EPN6google8protobuf5ArenaE,
                            __ZN4TSCH31ChartPasteboardAdditionsArchiveC2ERKS0_,
                            __ZN4TSCH31ChartPasteboardAdditionsArchiveD0Ev,
                            __ZN4TSCH31ChartPasteboardAdditionsArchiveD1Ev,
                            __ZN4TSCH31ChartPasteboardAdditionsArchiveD2Ev,
                            __ZN4TSCH31CommandDeleteGridColumnsArchive12InternalSwapEPS0_,
                            __ZN4TSCH31CommandDeleteGridColumnsArchive14_InternalParseEPKcPN6google8protobuf8internal12ParseContextE,
                            __ZN4TSCH31CommandDeleteGridColumnsArchive16clear_cut_valuesEv,
                            __ZN4TSCH31CommandDeleteGridColumnsArchive16default_instanceEv,
                            __ZN4TSCH31CommandDeleteGridColumnsArchive19clear_end_column_idEv,
                            __ZN4TSCH31CommandDeleteGridColumnsArchive21clear_start_column_idEv,
                            __ZN4TSCH31CommandDeleteGridColumnsArchive22clear_undo_row_id_listEv,
                            __ZN4TSCH31CommandDeleteGridColumnsArchive25clear_undo_column_id_listEv,
                            __ZN4TSCH31CommandDeleteGridColumnsArchive27clear_undo_row_insertion_idEv,
                            __ZN4TSCH31CommandDeleteGridColumnsArchive30clear_undo_column_insertion_idEv,
                            __ZN4TSCH31CommandDeleteGridColumnsArchive5ClearEv,
                            __ZN4TSCH31CommandDeleteGridColumnsArchive8CopyFromERKN6google8protobuf7MessageE,
                            __ZN4TSCH31CommandDeleteGridColumnsArchive8CopyFromERKS0_,
                            __ZN4TSCH31CommandDeleteGridColumnsArchive9ArenaDtorEPv,
                            __ZN4TSCH31CommandDeleteGridColumnsArchive9MergeFromERKN6google8protobuf7MessageE,
                            __ZN4TSCH31CommandDeleteGridColumnsArchive9MergeFromERKS0_,
                            __ZN4TSCH31CommandDeleteGridColumnsArchive9_Internal13end_column_idEPKS0_,
                            __ZN4TSCH31CommandDeleteGridColumnsArchive9_Internal15start_column_idEPKS0_,
                            __ZN4TSCH31CommandDeleteGridColumnsArchive9_Internal21undo_row_insertion_idEPKS0_,
                            __ZN4TSCH31CommandDeleteGridColumnsArchive9_Internal24undo_column_insertion_idEPKS0_,
                            __ZN4TSCH31CommandDeleteGridColumnsArchive9_Internal5superEPKS0_,
                            __ZN4TSCH31CommandDeleteGridColumnsArchiveC1EPN6google8protobuf5ArenaE,
                            __ZN4TSCH31CommandDeleteGridColumnsArchiveC1ERKS0_,
                            __ZN4TSCH31CommandDeleteGridColumnsArchiveC2EPN6google8protobuf5ArenaE,
                            __ZN4TSCH31CommandDeleteGridColumnsArchiveC2ERKS0_,
                            __ZN4TSCH31CommandDeleteGridColumnsArchiveD0Ev,
                            __ZN4TSCH31CommandDeleteGridColumnsArchiveD1Ev,
                            __ZN4TSCH31CommandDeleteGridColumnsArchiveD2Ev,
                            __ZN4TSCH31CommandReplaceGridValuesArchive12InternalSwapEPS0_,
                            __ZN4TSCH31CommandReplaceGridValuesArchive14_InternalParseEPKcPN6google8protobuf8internal12ParseContextE,
                            __ZN4TSCH31CommandReplaceGridValuesArchive16default_instanceEv,
                            __ZN4TSCH31CommandReplaceGridValuesArchive19clear_add_row_uuidsEv,
                            __ZN4TSCH31CommandReplaceGridValuesArchive19clear_new_data_rowsEv,
                            __ZN4TSCH31CommandReplaceGridValuesArchive19clear_old_data_rowsEv,
                            __ZN4TSCH31CommandReplaceGridValuesArchive22clear_add_column_uuidsEv,
                            __ZN4TSCH31CommandReplaceGridValuesArchive22clear_delete_row_uuidsEv,
                            __ZN4TSCH31CommandReplaceGridValuesArchive22clear_update_row_uuidsEv,
                            __ZN4TSCH31CommandReplaceGridValuesArchive25clear_delete_column_uuidsEv,
                            __ZN4TSCH31CommandReplaceGridValuesArchive25clear_update_column_uuidsEv,
                            __ZN4TSCH31CommandReplaceGridValuesArchive5ClearEv,
                            __ZN4TSCH31CommandReplaceGridValuesArchive8CopyFromERKN6google8protobuf7MessageE,
                            __ZN4TSCH31CommandReplaceGridValuesArchive8CopyFromERKS0_,
                            __ZN4TSCH31CommandReplaceGridValuesArchive9ArenaDtorEPv,
                            __ZN4TSCH31CommandReplaceGridValuesArchive9MergeFromERKN6google8protobuf7MessageE,
                            __ZN4TSCH31CommandReplaceGridValuesArchive9MergeFromERKS0_,
                            __ZN4TSCH31CommandReplaceGridValuesArchive9_Internal5superEPKS0_,
                            __ZN4TSCH31CommandReplaceGridValuesArchiveC1EPN6google8protobuf5ArenaE,
                            __ZN4TSCH31CommandReplaceGridValuesArchiveC1ERKS0_,
                            __ZN4TSCH31CommandReplaceGridValuesArchiveC2EPN6google8protobuf5ArenaE,
                            __ZN4TSCH31CommandReplaceGridValuesArchiveC2ERKS0_,
                            __ZN4TSCH31CommandReplaceGridValuesArchiveD0Ev,
                            __ZN4TSCH31CommandReplaceGridValuesArchiveD1Ev,
                            __ZN4TSCH31CommandReplaceGridValuesArchiveD2Ev,
                            __ZN4TSCH31TextureTilingContinuity_IsValidEi,
                            __ZN4TSCH31_ChartArchive_default_instance_E,
                            __ZN4TSCH31_ChartUIState_default_instance_E,
                            __ZN4TSCH31scene3d_settings_constant_depthE,
                            __ZN4TSCH32Chart3DEnvironmentPackageArchive12InternalSwapEPS0_,
                            __ZN4TSCH32Chart3DEnvironmentPackageArchive14_InternalParseEPKcPN6google8protobuf8internal12ParseContextE,
                            __ZN4TSCH32Chart3DEnvironmentPackageArchive16default_instanceEv,
                            __ZN4TSCH32Chart3DEnvironmentPackageArchive5ClearEv,
                            __ZN4TSCH32Chart3DEnvironmentPackageArchive8CopyFromERKN6google8protobuf7MessageE,
                            __ZN4TSCH32Chart3DEnvironmentPackageArchive8CopyFromERKS0_,
                            __ZN4TSCH32Chart3DEnvironmentPackageArchive9ArenaDtorEPv,
                            __ZN4TSCH32Chart3DEnvironmentPackageArchive9MergeFromERKN6google8protobuf7MessageE,
                            __ZN4TSCH32Chart3DEnvironmentPackageArchive9MergeFromERKS0_,
                            __ZN4TSCH32Chart3DEnvironmentPackageArchiveC1EPN6google8protobuf5ArenaE,
                            __ZN4TSCH32Chart3DEnvironmentPackageArchiveC1ERKS0_,
                            __ZN4TSCH32Chart3DEnvironmentPackageArchiveC2EPN6google8protobuf5ArenaE,
                            __ZN4TSCH32Chart3DEnvironmentPackageArchiveC2ERKS0_,
                            __ZN4TSCH32Chart3DEnvironmentPackageArchiveD0Ev,
                            __ZN4TSCH32Chart3DEnvironmentPackageArchiveD1Ev,
                            __ZN4TSCH32Chart3DEnvironmentPackageArchiveD2Ev,
                            __ZN4TSCH32Chart3DImageTextureTilingArchive12InternalSwapEPS0_,
                            __ZN4TSCH32Chart3DImageTextureTilingArchive14_InternalParseEPKcPN6google8protobuf8internal12ParseContextE,
                            __ZN4TSCH32Chart3DImageTextureTilingArchive16default_instanceEv,
                            __ZN4TSCH32Chart3DImageTextureTilingArchive5ClearEv,
                            __ZN4TSCH32Chart3DImageTextureTilingArchive8CopyFromERKN6google8protobuf7MessageE,
                            __ZN4TSCH32Chart3DImageTextureTilingArchive8CopyFromERKS0_,
                            __ZN4TSCH32Chart3DImageTextureTilingArchive9ArenaDtorEPv,
                            __ZN4TSCH32Chart3DImageTextureTilingArchive9MergeFromERKN6google8protobuf7MessageE,
                            __ZN4TSCH32Chart3DImageTextureTilingArchive9MergeFromERKS0_,
                            __ZN4TSCH32Chart3DImageTextureTilingArchive9_Internal5superEPKS0_,
                            __ZN4TSCH32Chart3DImageTextureTilingArchiveC1EPN6google8protobuf5ArenaE,
                            __ZN4TSCH32Chart3DImageTextureTilingArchiveC1ERKS0_,
                            __ZN4TSCH32Chart3DImageTextureTilingArchiveC2EPN6google8protobuf5ArenaE,
                            __ZN4TSCH32Chart3DImageTextureTilingArchiveC2ERKS0_,
                            __ZN4TSCH32Chart3DImageTextureTilingArchiveD0Ev,
                            __ZN4TSCH32Chart3DImageTextureTilingArchiveD1Ev,
                            __ZN4TSCH32Chart3DImageTextureTilingArchiveD2Ev,
                            __ZN4TSCH32Chart3DPhongLightingModelArchive12InternalSwapEPS0_,
                            __ZN4TSCH32Chart3DPhongLightingModelArchive14_InternalParseEPKcPN6google8protobuf8internal12ParseContextE,
                            __ZN4TSCH32Chart3DPhongLightingModelArchive16default_instanceEv,
                            __ZN4TSCH32Chart3DPhongLightingModelArchive5ClearEv,
                            __ZN4TSCH32Chart3DPhongLightingModelArchive8CopyFromERKN6google8protobuf7MessageE,
                            __ZN4TSCH32Chart3DPhongLightingModelArchive8CopyFromERKS0_,
                            __ZN4TSCH32Chart3DPhongLightingModelArchive9ArenaDtorEPv,
                            __ZN4TSCH32Chart3DPhongLightingModelArchive9MergeFromERKN6google8protobuf7MessageE,
                            __ZN4TSCH32Chart3DPhongLightingModelArchive9MergeFromERKS0_,
                            __ZN4TSCH32Chart3DPhongLightingModelArchive9_Internal9materialsEPKS0_,
                            __ZN4TSCH32Chart3DPhongLightingModelArchiveC1EPN6google8protobuf5ArenaE,
                            __ZN4TSCH32Chart3DPhongLightingModelArchiveC1ERKS0_,
                            __ZN4TSCH32Chart3DPhongLightingModelArchiveC2EPN6google8protobuf5ArenaE,
                            __ZN4TSCH32Chart3DPhongLightingModelArchiveC2ERKS0_,
                            __ZN4TSCH32Chart3DPhongLightingModelArchiveD0Ev,
                            __ZN4TSCH32Chart3DPhongLightingModelArchiveD1Ev,
                            __ZN4TSCH32Chart3DPhongLightingModelArchiveD2Ev,
                            __ZN4TSCH32CommandReplaceThemePresetArchive11clear_superEv,
                            __ZN4TSCH32CommandReplaceThemePresetArchive11clear_themeEv,
                            __ZN4TSCH32CommandReplaceThemePresetArchive12InternalSwapEPS0_,
                            __ZN4TSCH32CommandReplaceThemePresetArchive14_InternalParseEPKcPN6google8protobuf8internal12ParseContextE,
                            __ZN4TSCH32CommandReplaceThemePresetArchive16clear_new_presetEv,
                            __ZN4TSCH32CommandReplaceThemePresetArchive16clear_old_presetEv,
                            __ZN4TSCH32CommandReplaceThemePresetArchive16default_instanceEv,
                            __ZN4TSCH32CommandReplaceThemePresetArchive5ClearEv,
                            __ZN4TSCH32CommandReplaceThemePresetArchive8CopyFromERKN6google8protobuf7MessageE,
                            __ZN4TSCH32CommandReplaceThemePresetArchive8CopyFromERKS0_,
                            __ZN4TSCH32CommandReplaceThemePresetArchive9ArenaDtorEPv,
                            __ZN4TSCH32CommandReplaceThemePresetArchive9MergeFromERKN6google8protobuf7MessageE,
                            __ZN4TSCH32CommandReplaceThemePresetArchive9MergeFromERKS0_,
                            __ZN4TSCH32CommandReplaceThemePresetArchive9_Internal10new_presetEPKS0_,
                            __ZN4TSCH32CommandReplaceThemePresetArchive9_Internal10old_presetEPKS0_,
                            __ZN4TSCH32CommandReplaceThemePresetArchive9_Internal5superEPKS0_,
                            __ZN4TSCH32CommandReplaceThemePresetArchive9_Internal5themeEPKS0_,
                            __ZN4TSCH32CommandReplaceThemePresetArchiveC1EPN6google8protobuf5ArenaE,
                            __ZN4TSCH32CommandReplaceThemePresetArchiveC1ERKS0_,
                            __ZN4TSCH32CommandReplaceThemePresetArchiveC2EPN6google8protobuf5ArenaE,
                            __ZN4TSCH32CommandReplaceThemePresetArchiveC2ERKS0_,
                            __ZN4TSCH32CommandReplaceThemePresetArchiveD0Ev,
                            __ZN4TSCH32CommandReplaceThemePresetArchiveD1Ev,
                            __ZN4TSCH32CommandReplaceThemePresetArchiveD2Ev,
                            __ZN4TSCH32axis_supports_custom_date_formatE,
                            __ZN4TSCH33Chart3DEnvironmentMaterialArchive12InternalSwapEPS0_,
                            __ZN4TSCH33Chart3DEnvironmentMaterialArchive14_InternalParseEPKcPN6google8protobuf8internal12ParseContextE,
                            __ZN4TSCH33Chart3DEnvironmentMaterialArchive16default_instanceEv,
                            __ZN4TSCH33Chart3DEnvironmentMaterialArchive5ClearEv,
                            __ZN4TSCH33Chart3DEnvironmentMaterialArchive8CopyFromERKN6google8protobuf7MessageE,
                            __ZN4TSCH33Chart3DEnvironmentMaterialArchive8CopyFromERKS0_,
                            __ZN4TSCH33Chart3DEnvironmentMaterialArchive9ArenaDtorEPv,
                            __ZN4TSCH33Chart3DEnvironmentMaterialArchive9MergeFromERKN6google8protobuf7MessageE,
                            __ZN4TSCH33Chart3DEnvironmentMaterialArchive9MergeFromERKS0_,
                            __ZN4TSCH33Chart3DEnvironmentMaterialArchive9_Internal5superEPKS0_,
                            __ZN4TSCH33Chart3DEnvironmentMaterialArchiveC1EPN6google8protobuf5ArenaE,
                            __ZN4TSCH33Chart3DEnvironmentMaterialArchiveC1ERKS0_,
                            __ZN4TSCH33Chart3DEnvironmentMaterialArchiveC2EPN6google8protobuf5ArenaE,
                            __ZN4TSCH33Chart3DEnvironmentMaterialArchiveC2ERKS0_,
                            __ZN4TSCH33Chart3DEnvironmentMaterialArchiveD0Ev,
                            __ZN4TSCH33Chart3DEnvironmentMaterialArchiveD1Ev,
                            __ZN4TSCH33Chart3DEnvironmentMaterialArchiveD2Ev,
                            __ZN4TSCH33Chart3DTSPImageDataTextureArchive10clear_dataEv,
                            __ZN4TSCH33Chart3DTSPImageDataTextureArchive12InternalSwapEPS0_,
                            __ZN4TSCH33Chart3DTSPImageDataTextureArchive14_InternalParseEPKcPN6google8protobuf8internal12ParseContextE,
                            __ZN4TSCH33Chart3DTSPImageDataTextureArchive16clear_mipmapdataEv,
                            __ZN4TSCH33Chart3DTSPImageDataTextureArchive16default_instanceEv,
                            __ZN4TSCH33Chart3DTSPImageDataTextureArchive19clear_database_dataEv,
                            __ZN4TSCH33Chart3DTSPImageDataTextureArchive25clear_database_mipmapdataEv,
                            __ZN4TSCH33Chart3DTSPImageDataTextureArchive5ClearEv,
                            __ZN4TSCH33Chart3DTSPImageDataTextureArchive8CopyFromERKN6google8protobuf7MessageE,
                            __ZN4TSCH33Chart3DTSPImageDataTextureArchive8CopyFromERKS0_,
                            __ZN4TSCH33Chart3DTSPImageDataTextureArchive9ArenaDtorEPv,
                            __ZN4TSCH33Chart3DTSPImageDataTextureArchive9MergeFromERKN6google8protobuf7MessageE,
                            __ZN4TSCH33Chart3DTSPImageDataTextureArchive9MergeFromERKS0_,
                            __ZN4TSCH33Chart3DTSPImageDataTextureArchive9_Internal10mipmapdataEPKS0_,
                            __ZN4TSCH33Chart3DTSPImageDataTextureArchive9_Internal13database_dataEPKS0_,
                            __ZN4TSCH33Chart3DTSPImageDataTextureArchive9_Internal19database_mipmapdataEPKS0_,
                            __ZN4TSCH33Chart3DTSPImageDataTextureArchive9_Internal4dataEPKS0_,
                            __ZN4TSCH33Chart3DTSPImageDataTextureArchiveC1EPN6google8protobuf5ArenaE,
                            __ZN4TSCH33Chart3DTSPImageDataTextureArchiveC1ERKS0_,
                            __ZN4TSCH33Chart3DTSPImageDataTextureArchiveC2EPN6google8protobuf5ArenaE,
                            __ZN4TSCH33Chart3DTSPImageDataTextureArchiveC2ERKS0_,
                            __ZN4TSCH33Chart3DTSPImageDataTextureArchiveD0Ev,
                            __ZN4TSCH33Chart3DTSPImageDataTextureArchiveD1Ev,
                            __ZN4TSCH33Chart3DTSPImageDataTextureArchiveD2Ev,
                            __ZN4TSCH33ChartSelectionPathArgumentArchive12InternalSwapEPS0_,
                            __ZN4TSCH33ChartSelectionPathArgumentArchive14_InternalParseEPKcPN6google8protobuf8internal12ParseContextE,
                            __ZN4TSCH33ChartSelectionPathArgumentArchive16default_instanceEv,
                            __ZN4TSCH33ChartSelectionPathArgumentArchive5ClearEv,
                            __ZN4TSCH33ChartSelectionPathArgumentArchive8CopyFromERKN6google8protobuf7MessageE,
                            __ZN4TSCH33ChartSelectionPathArgumentArchive8CopyFromERKS0_,
                            __ZN4TSCH33ChartSelectionPathArgumentArchive9ArenaDtorEPv,
                            __ZN4TSCH33ChartSelectionPathArgumentArchive9MergeFromERKN6google8protobuf7MessageE,
                            __ZN4TSCH33ChartSelectionPathArgumentArchive9MergeFromERKS0_,
                            __ZN4TSCH33ChartSelectionPathArgumentArchive9_Internal7axis_idEPKS0_,
                            __ZN4TSCH33ChartSelectionPathArgumentArchiveC1EPN6google8protobuf5ArenaE,
                            __ZN4TSCH33ChartSelectionPathArgumentArchiveC1ERKS0_,
                            __ZN4TSCH33ChartSelectionPathArgumentArchiveC2EPN6google8protobuf5ArenaE,
                            __ZN4TSCH33ChartSelectionPathArgumentArchiveC2ERKS0_,
                            __ZN4TSCH33ChartSelectionPathArgumentArchiveD0Ev,
                            __ZN4TSCH33ChartSelectionPathArgumentArchiveD1Ev,
                            __ZN4TSCH33ChartSelectionPathArgumentArchiveD2Ev,
                            __ZN4TSCH33ChartUIStateMultiDataIndexUpgrade12InternalSwapEPS0_,
                            __ZN4TSCH33ChartUIStateMultiDataIndexUpgrade14_InternalParseEPKcPN6google8protobuf8internal12ParseContextE,
                            __ZN4TSCH33ChartUIStateMultiDataIndexUpgrade16default_instanceEv,
                            __ZN4TSCH33ChartUIStateMultiDataIndexUpgrade19upgraded_from_modelE,
                            __ZN4TSCH33ChartUIStateMultiDataIndexUpgrade29kUpgradedFromModelFieldNumberE,
                            __ZN4TSCH33ChartUIStateMultiDataIndexUpgrade5ClearEv,
                            __ZN4TSCH33ChartUIStateMultiDataIndexUpgrade8CopyFromERKN6google8protobuf7MessageE,
                            __ZN4TSCH33ChartUIStateMultiDataIndexUpgrade8CopyFromERKS0_,
                            __ZN4TSCH33ChartUIStateMultiDataIndexUpgrade9ArenaDtorEPv,
                            __ZN4TSCH33ChartUIStateMultiDataIndexUpgrade9MergeFromERKN6google8protobuf7MessageE,
                            __ZN4TSCH33ChartUIStateMultiDataIndexUpgrade9MergeFromERKS0_,
                            __ZN4TSCH33ChartUIStateMultiDataIndexUpgradeC1EPN6google8protobuf5ArenaE,
                            __ZN4TSCH33ChartUIStateMultiDataIndexUpgradeC1ERKS0_,
                            __ZN4TSCH33ChartUIStateMultiDataIndexUpgradeC2EPN6google8protobuf5ArenaE,
                            __ZN4TSCH33ChartUIStateMultiDataIndexUpgradeC2ERKS0_,
                            __ZN4TSCH33ChartUIStateMultiDataIndexUpgradeD0Ev,
                            __ZN4TSCH33ChartUIStateMultiDataIndexUpgradeD1Ev,
                            __ZN4TSCH33ChartUIStateMultiDataIndexUpgradeD2Ev,
                            __ZN4TSCH33CommandDeleteReferenceLineArchive10clear_uuidEv,
                            __ZN4TSCH33CommandDeleteReferenceLineArchive11clear_styleEv,
                            __ZN4TSCH33CommandDeleteReferenceLineArchive12InternalSwapEPS0_,
                            __ZN4TSCH33CommandDeleteReferenceLineArchive13clear_axis_idEv,
                            __ZN4TSCH33CommandDeleteReferenceLineArchive14_InternalParseEPKcPN6google8protobuf8internal12ParseContextE,
                            __ZN4TSCH33CommandDeleteReferenceLineArchive15clear_non_styleEv,
                            __ZN4TSCH33CommandDeleteReferenceLineArchive16default_instanceEv,
                            __ZN4TSCH33CommandDeleteReferenceLineArchive22clear_paragraph_stylesEv,
                            __ZN4TSCH33CommandDeleteReferenceLineArchive24clear_style_swap_commandEv,
                            __ZN4TSCH33CommandDeleteReferenceLineArchive5ClearEv,
                            __ZN4TSCH33CommandDeleteReferenceLineArchive8CopyFromERKN6google8protobuf7MessageE,
                            __ZN4TSCH33CommandDeleteReferenceLineArchive8CopyFromERKS0_,
                            __ZN4TSCH33CommandDeleteReferenceLineArchive9ArenaDtorEPv,
                            __ZN4TSCH33CommandDeleteReferenceLineArchive9MergeFromERKN6google8protobuf7MessageE,
                            __ZN4TSCH33CommandDeleteReferenceLineArchive9MergeFromERKS0_,
                            __ZN4TSCH33CommandDeleteReferenceLineArchive9_Internal18style_swap_commandEPKS0_,
                            __ZN4TSCH33CommandDeleteReferenceLineArchive9_Internal4uuidEPKS0_,
                            __ZN4TSCH33CommandDeleteReferenceLineArchive9_Internal5styleEPKS0_,
                            __ZN4TSCH33CommandDeleteReferenceLineArchive9_Internal5superEPKS0_,
                            __ZN4TSCH33CommandDeleteReferenceLineArchive9_Internal7axis_idEPKS0_,
                            __ZN4TSCH33CommandDeleteReferenceLineArchive9_Internal9non_styleEPKS0_,
                            __ZN4TSCH33CommandDeleteReferenceLineArchiveC1EPN6google8protobuf5ArenaE,
                            __ZN4TSCH33CommandDeleteReferenceLineArchiveC1ERKS0_,
                            __ZN4TSCH33CommandDeleteReferenceLineArchiveC2EPN6google8protobuf5ArenaE,
                            __ZN4TSCH33CommandDeleteReferenceLineArchiveC2ERKS0_,
                            __ZN4TSCH33CommandDeleteReferenceLineArchiveD0Ev,
                            __ZN4TSCH33CommandDeleteReferenceLineArchiveD1Ev,
                            __ZN4TSCH33CommandDeleteReferenceLineArchiveD2Ev,
                            __ZN4TSCH33CommandReplaceCustomFormatArchive12InternalSwapEPS0_,
                            __ZN4TSCH33CommandReplaceCustomFormatArchive14_InternalParseEPKcPN6google8protobuf8internal12ParseContextE,
                            __ZN4TSCH33CommandReplaceCustomFormatArchive16default_instanceEv,
                            __ZN4TSCH33CommandReplaceCustomFormatArchive18clear_rollback_cmdEv,
                            __ZN4TSCH33CommandReplaceCustomFormatArchive23clear_new_format_objectEv,
                            __ZN4TSCH33CommandReplaceCustomFormatArchive23clear_old_format_objectEv,
                            __ZN4TSCH33CommandReplaceCustomFormatArchive5ClearEv,
                            __ZN4TSCH33CommandReplaceCustomFormatArchive8CopyFromERKN6google8protobuf7MessageE,
                            __ZN4TSCH33CommandReplaceCustomFormatArchive8CopyFromERKS0_,
                            __ZN4TSCH33CommandReplaceCustomFormatArchive9ArenaDtorEPv,
                            __ZN4TSCH33CommandReplaceCustomFormatArchive9MergeFromERKN6google8protobuf7MessageE,
                            __ZN4TSCH33CommandReplaceCustomFormatArchive9MergeFromERKS0_,
                            __ZN4TSCH33CommandReplaceCustomFormatArchive9_Internal12rollback_cmdEPKS0_,
                            __ZN4TSCH33CommandReplaceCustomFormatArchive9_Internal17new_format_objectEPKS0_,
                            __ZN4TSCH33CommandReplaceCustomFormatArchive9_Internal17old_format_objectEPKS0_,
                            __ZN4TSCH33CommandReplaceCustomFormatArchive9_Internal5superEPKS0_,
                            __ZN4TSCH33CommandReplaceCustomFormatArchiveC1EPN6google8protobuf5ArenaE,
                            __ZN4TSCH33CommandReplaceCustomFormatArchiveC1ERKS0_,
                            __ZN4TSCH33CommandReplaceCustomFormatArchiveC2EPN6google8protobuf5ArenaE,
                            __ZN4TSCH33CommandReplaceCustomFormatArchiveC2ERKS0_,
                            __ZN4TSCH33CommandReplaceCustomFormatArchiveD0Ev,
                            __ZN4TSCH33CommandReplaceCustomFormatArchiveD1Ev,
                            __ZN4TSCH33CommandReplaceCustomFormatArchiveD2Ev,
                            __ZN4TSCH33TextureTilingXPosition_descriptorEv,
                            __ZN4TSCH33TextureTilingYPosition_descriptorEv,
                            __ZN4TSCH33_StyleOwnerPath_default_instance_E,
                            __ZN4TSCH34Chart3DPhongMaterialPackageArchive12InternalSwapEPS0_,
                            __ZN4TSCH34Chart3DPhongMaterialPackageArchive14_InternalParseEPKcPN6google8protobuf8internal12ParseContextE,
                            __ZN4TSCH34Chart3DPhongMaterialPackageArchive16default_instanceEv,
                            __ZN4TSCH34Chart3DPhongMaterialPackageArchive5ClearEv,
                            __ZN4TSCH34Chart3DPhongMaterialPackageArchive8CopyFromERKN6google8protobuf7MessageE,
                            __ZN4TSCH34Chart3DPhongMaterialPackageArchive8CopyFromERKS0_,
                            __ZN4TSCH34Chart3DPhongMaterialPackageArchive9ArenaDtorEPv,
                            __ZN4TSCH34Chart3DPhongMaterialPackageArchive9MergeFromERKN6google8protobuf7MessageE,
                            __ZN4TSCH34Chart3DPhongMaterialPackageArchive9MergeFromERKS0_,
                            __ZN4TSCH34Chart3DPhongMaterialPackageArchive9_Internal7diffuseEPKS0_,
                            __ZN4TSCH34Chart3DPhongMaterialPackageArchive9_Internal8emissiveEPKS0_,
                            __ZN4TSCH34Chart3DPhongMaterialPackageArchive9_Internal8modulateEPKS0_,
                            __ZN4TSCH34Chart3DPhongMaterialPackageArchive9_Internal8specularEPKS0_,
                            __ZN4TSCH34Chart3DPhongMaterialPackageArchive9_Internal9shininessEPKS0_,
                            __ZN4TSCH34Chart3DPhongMaterialPackageArchiveC1EPN6google8protobuf5ArenaE,
                            __ZN4TSCH34Chart3DPhongMaterialPackageArchiveC1ERKS0_,
                            __ZN4TSCH34Chart3DPhongMaterialPackageArchiveC2EPN6google8protobuf5ArenaE,
                            __ZN4TSCH34Chart3DPhongMaterialPackageArchiveC2ERKS0_,
                            __ZN4TSCH34Chart3DPhongMaterialPackageArchiveD0Ev,
                            __ZN4TSCH34Chart3DPhongMaterialPackageArchiveD1Ev,
                            __ZN4TSCH34Chart3DPhongMaterialPackageArchiveD2Ev,
                            __ZN4TSCH34ChartSupportsRoundedCornersArchive12InternalSwapEPS0_,
                            __ZN4TSCH34ChartSupportsRoundedCornersArchive14_InternalParseEPKcPN6google8protobuf8internal12ParseContextE,
                            __ZN4TSCH34ChartSupportsRoundedCornersArchive16default_instanceEv,
                            __ZN4TSCH34ChartSupportsRoundedCornersArchive24supports_rounded_cornersE,
                            __ZN4TSCH34ChartSupportsRoundedCornersArchive34kSupportsRoundedCornersFieldNumberE,
                            __ZN4TSCH34ChartSupportsRoundedCornersArchive35deprecated_supports_rounded_cornersE,
                            __ZN4TSCH34ChartSupportsRoundedCornersArchive44kDeprecatedSupportsRoundedCornersFieldNumberE,
                            __ZN4TSCH34ChartSupportsRoundedCornersArchive5ClearEv,
                            __ZN4TSCH34ChartSupportsRoundedCornersArchive8CopyFromERKN6google8protobuf7MessageE,
                            __ZN4TSCH34ChartSupportsRoundedCornersArchive8CopyFromERKS0_,
                            __ZN4TSCH34ChartSupportsRoundedCornersArchive9ArenaDtorEPv,
                            __ZN4TSCH34ChartSupportsRoundedCornersArchive9MergeFromERKN6google8protobuf7MessageE,
                            __ZN4TSCH34ChartSupportsRoundedCornersArchive9MergeFromERKS0_,
                            __ZN4TSCH34ChartSupportsRoundedCornersArchiveC1EPN6google8protobuf5ArenaE,
                            __ZN4TSCH34ChartSupportsRoundedCornersArchiveC1ERKS0_,
                            __ZN4TSCH34ChartSupportsRoundedCornersArchiveC2EPN6google8protobuf5ArenaE,
                            __ZN4TSCH34ChartSupportsRoundedCornersArchiveC2ERKS0_,
                            __ZN4TSCH34ChartSupportsRoundedCornersArchiveD0Ev,
                            __ZN4TSCH34ChartSupportsRoundedCornersArchiveD1Ev,
                            __ZN4TSCH34ChartSupportsRoundedCornersArchiveD2Ev,
                            __ZN4TSCH34CommandSetMultiDataSetIndexArchive12InternalSwapEPS0_,
                            __ZN4TSCH34CommandSetMultiDataSetIndexArchive14_InternalParseEPKcPN6google8protobuf8internal12ParseContextE,
                            __ZN4TSCH34CommandSetMultiDataSetIndexArchive16default_instanceEv,
                            __ZN4TSCH34CommandSetMultiDataSetIndexArchive5ClearEv,
                            __ZN4TSCH34CommandSetMultiDataSetIndexArchive8CopyFromERKN6google8protobuf7MessageE,
                            __ZN4TSCH34CommandSetMultiDataSetIndexArchive8CopyFromERKS0_,
                            __ZN4TSCH34CommandSetMultiDataSetIndexArchive9ArenaDtorEPv,
                            __ZN4TSCH34CommandSetMultiDataSetIndexArchive9MergeFromERKN6google8protobuf7MessageE,
                            __ZN4TSCH34CommandSetMultiDataSetIndexArchive9MergeFromERKS0_,
                            __ZN4TSCH34CommandSetMultiDataSetIndexArchive9_Internal5superEPKS0_,
                            __ZN4TSCH34CommandSetMultiDataSetIndexArchiveC1EPN6google8protobuf5ArenaE,
                            __ZN4TSCH34CommandSetMultiDataSetIndexArchiveC1ERKS0_,
                            __ZN4TSCH34CommandSetMultiDataSetIndexArchiveC2EPN6google8protobuf5ArenaE,
                            __ZN4TSCH34CommandSetMultiDataSetIndexArchiveC2ERKS0_,
                            __ZN4TSCH34CommandSetMultiDataSetIndexArchiveD0Ev,
                            __ZN4TSCH34CommandSetMultiDataSetIndexArchiveD1Ev,
                            __ZN4TSCH34CommandSetMultiDataSetIndexArchiveD2Ev,
                            __ZN4TSCH34TextureTilingContinuity_descriptorEv,
                            __ZN4TSCH34axis_supports_custom_number_formatE,
                            __ZN4TSCH34series_supports_custom_date_formatE,
                            __ZN4TSCH35ChartAxisReferenceLineStylesArchive12InternalSwapEPS0_,
                            __ZN4TSCH35ChartAxisReferenceLineStylesArchive14_InternalParseEPKcPN6google8protobuf8internal12ParseContextE,
                            __ZN4TSCH35ChartAxisReferenceLineStylesArchive16default_instanceEv,
                            __ZN4TSCH35ChartAxisReferenceLineStylesArchive27clear_reference_line_stylesEv,
                            __ZN4TSCH35ChartAxisReferenceLineStylesArchive5ClearEv,
                            __ZN4TSCH35ChartAxisReferenceLineStylesArchive8CopyFromERKN6google8protobuf7MessageE,
                            __ZN4TSCH35ChartAxisReferenceLineStylesArchive8CopyFromERKS0_,
                            __ZN4TSCH35ChartAxisReferenceLineStylesArchive9ArenaDtorEPv,
                            __ZN4TSCH35ChartAxisReferenceLineStylesArchive9MergeFromERKN6google8protobuf7MessageE,
                            __ZN4TSCH35ChartAxisReferenceLineStylesArchive9MergeFromERKS0_,
                            __ZN4TSCH35ChartAxisReferenceLineStylesArchive9_Internal21reference_line_stylesEPKS0_,
                            __ZN4TSCH35ChartAxisReferenceLineStylesArchive9_Internal7axis_idEPKS0_,
                            __ZN4TSCH35ChartAxisReferenceLineStylesArchiveC1EPN6google8protobuf5ArenaE,
                            __ZN4TSCH35ChartAxisReferenceLineStylesArchiveC1ERKS0_,
                            __ZN4TSCH35ChartAxisReferenceLineStylesArchiveC2EPN6google8protobuf5ArenaE,
                            __ZN4TSCH35ChartAxisReferenceLineStylesArchiveC2ERKS0_,
                            __ZN4TSCH35ChartAxisReferenceLineStylesArchiveD0Ev,
                            __ZN4TSCH35ChartAxisReferenceLineStylesArchiveD1Ev,
                            __ZN4TSCH35ChartAxisReferenceLineStylesArchiveD2Ev,
                            __ZN4TSCH35ChartSubselectionTransformerArchive12InternalSwapEPS0_,
                            __ZN4TSCH35ChartSubselectionTransformerArchive12clear_helperEv,
                            __ZN4TSCH35ChartSubselectionTransformerArchive14_InternalParseEPKcPN6google8protobuf8internal12ParseContextE,
                            __ZN4TSCH35ChartSubselectionTransformerArchive15clear_selectionEv,
                            __ZN4TSCH35ChartSubselectionTransformerArchive16default_instanceEv,
                            __ZN4TSCH35ChartSubselectionTransformerArchive5ClearEv,
                            __ZN4TSCH35ChartSubselectionTransformerArchive8CopyFromERKN6google8protobuf7MessageE,
                            __ZN4TSCH35ChartSubselectionTransformerArchive8CopyFromERKS0_,
                            __ZN4TSCH35ChartSubselectionTransformerArchive9ArenaDtorEPv,
                            __ZN4TSCH35ChartSubselectionTransformerArchive9MergeFromERKN6google8protobuf7MessageE,
                            __ZN4TSCH35ChartSubselectionTransformerArchive9MergeFromERKS0_,
                            __ZN4TSCH35ChartSubselectionTransformerArchive9_Internal6helperEPKS0_,
                            __ZN4TSCH35ChartSubselectionTransformerArchive9_Internal9selectionEPKS0_,
                            __ZN4TSCH35ChartSubselectionTransformerArchiveC1EPN6google8protobuf5ArenaE,
                            __ZN4TSCH35ChartSubselectionTransformerArchiveC1ERKS0_,
                            __ZN4TSCH35ChartSubselectionTransformerArchiveC2EPN6google8protobuf5ArenaE,
                            __ZN4TSCH35ChartSubselectionTransformerArchiveC2ERKS0_,
                            __ZN4TSCH35ChartSubselectionTransformerArchiveD0Ev,
                            __ZN4TSCH35ChartSubselectionTransformerArchiveD1Ev,
                            __ZN4TSCH35ChartSubselectionTransformerArchiveD2Ev,
                            __ZN4TSCH35_ChartGridArchive_default_instance_E,
                            __ZN4TSCH35_ChartStylePreset_default_instance_E,
                            __ZN4TSCH35last_applied_fill_set_lookup_stringE,
                            __ZN4TSCH36Chart3DBaseImageTextureTilingArchive12InternalSwapEPS0_,
                            __ZN4TSCH36Chart3DBaseImageTextureTilingArchive14_InternalParseEPKcPN6google8protobuf8internal12ParseContextE,
                            __ZN4TSCH36Chart3DBaseImageTextureTilingArchive16default_instanceEv,
                            __ZN4TSCH36Chart3DBaseImageTextureTilingArchive5ClearEv,
                            __ZN4TSCH36Chart3DBaseImageTextureTilingArchive8CopyFromERKN6google8protobuf7MessageE,
                            __ZN4TSCH36Chart3DBaseImageTextureTilingArchive8CopyFromERKS0_,
                            __ZN4TSCH36Chart3DBaseImageTextureTilingArchive9ArenaDtorEPv,
                            __ZN4TSCH36Chart3DBaseImageTextureTilingArchive9MergeFromERKN6google8protobuf7MessageE,
                            __ZN4TSCH36Chart3DBaseImageTextureTilingArchive9MergeFromERKS0_,
                            __ZN4TSCH36Chart3DBaseImageTextureTilingArchive9_Internal5scaleEPKS0_,
                            __ZN4TSCH36Chart3DBaseImageTextureTilingArchiveC1EPN6google8protobuf5ArenaE,
                            __ZN4TSCH36Chart3DBaseImageTextureTilingArchiveC1ERKS0_,
                            __ZN4TSCH36Chart3DBaseImageTextureTilingArchiveC2EPN6google8protobuf5ArenaE,
                            __ZN4TSCH36Chart3DBaseImageTextureTilingArchiveC2ERKS0_,
                            __ZN4TSCH36Chart3DBaseImageTextureTilingArchiveD0Ev,
                            __ZN4TSCH36Chart3DBaseImageTextureTilingArchiveD1Ev,
                            __ZN4TSCH36Chart3DBaseImageTextureTilingArchiveD2Ev,
                            __ZN4TSCH36ChartTextSelectionTransformerArchive12InternalSwapEPS0_,
                            __ZN4TSCH36ChartTextSelectionTransformerArchive14_InternalParseEPKcPN6google8protobuf8internal12ParseContextE,
                            __ZN4TSCH36ChartTextSelectionTransformerArchive15clear_selectionEv,
                            __ZN4TSCH36ChartTextSelectionTransformerArchive16default_instanceEv,
                            __ZN4TSCH36ChartTextSelectionTransformerArchive5ClearEv,
                            __ZN4TSCH36ChartTextSelectionTransformerArchive8CopyFromERKN6google8protobuf7MessageE,
                            __ZN4TSCH36ChartTextSelectionTransformerArchive8CopyFromERKS0_,
                            __ZN4TSCH36ChartTextSelectionTransformerArchive9ArenaDtorEPv,
                            __ZN4TSCH36ChartTextSelectionTransformerArchive9MergeFromERKN6google8protobuf7MessageE,
                            __ZN4TSCH36ChartTextSelectionTransformerArchive9MergeFromERKS0_,
                            __ZN4TSCH36ChartTextSelectionTransformerArchive9_Internal9selectionEPKS0_,
                            __ZN4TSCH36ChartTextSelectionTransformerArchiveC1EPN6google8protobuf5ArenaE,
                            __ZN4TSCH36ChartTextSelectionTransformerArchiveC1ERKS0_,
                            __ZN4TSCH36ChartTextSelectionTransformerArchiveC2EPN6google8protobuf5ArenaE,
                            __ZN4TSCH36ChartTextSelectionTransformerArchiveC2ERKS0_,
                            __ZN4TSCH36ChartTextSelectionTransformerArchiveD0Ev,
                            __ZN4TSCH36ChartTextSelectionTransformerArchiveD1Ev,
                            __ZN4TSCH36ChartTextSelectionTransformerArchiveD2Ev,
                            __ZN4TSCH36ChartsNSArrayOfNSNumberDoubleArchive12InternalSwapEPS0_,
                            __ZN4TSCH36ChartsNSArrayOfNSNumberDoubleArchive14_InternalParseEPKcPN6google8protobuf8internal12ParseContextE,
                            __ZN4TSCH36ChartsNSArrayOfNSNumberDoubleArchive16default_instanceEv,
                            __ZN4TSCH36ChartsNSArrayOfNSNumberDoubleArchive5ClearEv,
                            __ZN4TSCH36ChartsNSArrayOfNSNumberDoubleArchive8CopyFromERKN6google8protobuf7MessageE,
                            __ZN4TSCH36ChartsNSArrayOfNSNumberDoubleArchive8CopyFromERKS0_,
                            __ZN4TSCH36ChartsNSArrayOfNSNumberDoubleArchive9ArenaDtorEPv,
                            __ZN4TSCH36ChartsNSArrayOfNSNumberDoubleArchive9MergeFromERKN6google8protobuf7MessageE,
                            __ZN4TSCH36ChartsNSArrayOfNSNumberDoubleArchive9MergeFromERKS0_,
                            __ZN4TSCH36ChartsNSArrayOfNSNumberDoubleArchiveC1EPN6google8protobuf5ArenaE,
                            __ZN4TSCH36ChartsNSArrayOfNSNumberDoubleArchiveC1ERKS0_,
                            __ZN4TSCH36ChartsNSArrayOfNSNumberDoubleArchiveC2EPN6google8protobuf5ArenaE,
                            __ZN4TSCH36ChartsNSArrayOfNSNumberDoubleArchiveC2ERKS0_,
                            __ZN4TSCH36ChartsNSArrayOfNSNumberDoubleArchiveD0Ev,
                            __ZN4TSCH36ChartsNSArrayOfNSNumberDoubleArchiveD1Ev,
                            __ZN4TSCH36ChartsNSArrayOfNSNumberDoubleArchiveD2Ev,
                            __ZN4TSCH36PropertyValueStorageContainerArchive12InternalSwapEPS0_,
                            __ZN4TSCH36PropertyValueStorageContainerArchive14_InternalParseEPKcPN6google8protobuf8internal12ParseContextE,
                            __ZN4TSCH36PropertyValueStorageContainerArchive16default_instanceEv,
                            __ZN4TSCH36PropertyValueStorageContainerArchive17clear_chart_styleEv,
                            __ZN4TSCH36PropertyValueStorageContainerArchive18clear_legend_styleEv,
                            __ZN4TSCH36PropertyValueStorageContainerArchive20clear_chart_nonstyleEv,
                            __ZN4TSCH36PropertyValueStorageContainerArchive21clear_legend_nonstyleEv,
                            __ZN4TSCH36PropertyValueStorageContainerArchive22clear_paragraph_stylesEv,
                            __ZN4TSCH36PropertyValueStorageContainerArchive22clear_series_nonstylesEv,
                            __ZN4TSCH36PropertyValueStorageContainerArchive23clear_value_axis_stylesEv,
                            __ZN4TSCH36PropertyValueStorageContainerArchive25clear_series_theme_stylesEv,
                            __ZN4TSCH36PropertyValueStorageContainerArchive26clear_category_axis_stylesEv,
                            __ZN4TSCH36PropertyValueStorageContainerArchive26clear_value_axis_nonstylesEv,
                            __ZN4TSCH36PropertyValueStorageContainerArchive27clear_series_private_stylesEv,
                            __ZN4TSCH36PropertyValueStorageContainerArchive29clear_category_axis_nonstylesEv,
                            __ZN4TSCH36PropertyValueStorageContainerArchive5ClearEv,
                            __ZN4TSCH36PropertyValueStorageContainerArchive8CopyFromERKN6google8protobuf7MessageE,
                            __ZN4TSCH36PropertyValueStorageContainerArchive8CopyFromERKS0_,
                            __ZN4TSCH36PropertyValueStorageContainerArchive9ArenaDtorEPv,
                            __ZN4TSCH36PropertyValueStorageContainerArchive9MergeFromERKN6google8protobuf7MessageE,
                            __ZN4TSCH36PropertyValueStorageContainerArchive9MergeFromERKS0_,
                            __ZN4TSCH36PropertyValueStorageContainerArchive9_Internal11chart_styleEPKS0_,
                            __ZN4TSCH36PropertyValueStorageContainerArchive9_Internal12legend_styleEPKS0_,
                            __ZN4TSCH36PropertyValueStorageContainerArchive9_Internal14chart_nonstyleEPKS0_,
                            __ZN4TSCH36PropertyValueStorageContainerArchive9_Internal15legend_nonstyleEPKS0_,
                            __ZN4TSCH36PropertyValueStorageContainerArchive9_Internal16paragraph_stylesEPKS0_,
                            __ZN4TSCH36PropertyValueStorageContainerArchive9_Internal16series_nonstylesEPKS0_,
                            __ZN4TSCH36PropertyValueStorageContainerArchive9_Internal17value_axis_stylesEPKS0_,
                            __ZN4TSCH36PropertyValueStorageContainerArchive9_Internal19series_theme_stylesEPKS0_,
                            __ZN4TSCH36PropertyValueStorageContainerArchive9_Internal20category_axis_stylesEPKS0_,
                            __ZN4TSCH36PropertyValueStorageContainerArchive9_Internal20value_axis_nonstylesEPKS0_,
                            __ZN4TSCH36PropertyValueStorageContainerArchive9_Internal21series_private_stylesEPKS0_,
                            __ZN4TSCH36PropertyValueStorageContainerArchive9_Internal23category_axis_nonstylesEPKS0_,
                            __ZN4TSCH36PropertyValueStorageContainerArchiveC1EPN6google8protobuf5ArenaE,
                            __ZN4TSCH36PropertyValueStorageContainerArchiveC1ERKS0_,
                            __ZN4TSCH36PropertyValueStorageContainerArchiveC2EPN6google8protobuf5ArenaE,
                            __ZN4TSCH36PropertyValueStorageContainerArchiveC2ERKS0_,
                            __ZN4TSCH36PropertyValueStorageContainerArchiveD0Ev,
                            __ZN4TSCH36PropertyValueStorageContainerArchiveD1Ev,
                            __ZN4TSCH36PropertyValueStorageContainerArchiveD2Ev,
                            __ZN4TSCH36_ChartStyleArchive_default_instance_E,
                            __ZN4TSCH36series_supports_custom_number_formatE,
                            __ZN4TSCH37ChartPresetReferenceLineStylesArchive12InternalSwapEPS0_,
                            __ZN4TSCH37ChartPresetReferenceLineStylesArchive14_InternalParseEPKcPN6google8protobuf8internal12ParseContextE,
                            __ZN4TSCH37ChartPresetReferenceLineStylesArchive16default_instanceEv,
                            __ZN4TSCH37ChartPresetReferenceLineStylesArchive27clear_reference_line_stylesEv,
                            __ZN4TSCH37ChartPresetReferenceLineStylesArchive5ClearEv,
                            __ZN4TSCH37ChartPresetReferenceLineStylesArchive8CopyFromERKN6google8protobuf7MessageE,
                            __ZN4TSCH37ChartPresetReferenceLineStylesArchive8CopyFromERKS0_,
                            __ZN4TSCH37ChartPresetReferenceLineStylesArchive9ArenaDtorEPv,
                            __ZN4TSCH37ChartPresetReferenceLineStylesArchive9MergeFromERKN6google8protobuf7MessageE,
                            __ZN4TSCH37ChartPresetReferenceLineStylesArchive9MergeFromERKS0_,
                            __ZN4TSCH37ChartPresetReferenceLineStylesArchiveC1EPN6google8protobuf5ArenaE,
                            __ZN4TSCH37ChartPresetReferenceLineStylesArchiveC1ERKS0_,
                            __ZN4TSCH37ChartPresetReferenceLineStylesArchiveC2EPN6google8protobuf5ArenaE,
                            __ZN4TSCH37ChartPresetReferenceLineStylesArchiveC2ERKS0_,
                            __ZN4TSCH37ChartPresetReferenceLineStylesArchiveD0Ev,
                            __ZN4TSCH37ChartPresetReferenceLineStylesArchiveD1Ev,
                            __ZN4TSCH37ChartPresetReferenceLineStylesArchiveD2Ev,
                            __ZN4TSCH37_Chart3DFillArchive_default_instance_E,
                            __ZN4TSCH37_ChartAxisIDArchive_default_instance_E,
                            __ZN4TSCH37_LegendStyleArchive_default_instance_E,
                            __ZN4TSCH38ChartAxisReferenceLineNonStylesArchive12InternalSwapEPS0_,
                            __ZN4TSCH38ChartAxisReferenceLineNonStylesArchive14_InternalParseEPKcPN6google8protobuf8internal12ParseContextE,
                            __ZN4TSCH38ChartAxisReferenceLineNonStylesArchive16default_instanceEv,
                            __ZN4TSCH38ChartAxisReferenceLineNonStylesArchive5ClearEv,
                            __ZN4TSCH38ChartAxisReferenceLineNonStylesArchive8CopyFromERKN6google8protobuf7MessageE,
                            __ZN4TSCH38ChartAxisReferenceLineNonStylesArchive8CopyFromERKS0_,
                            __ZN4TSCH38ChartAxisReferenceLineNonStylesArchive9ArenaDtorEPv,
                            __ZN4TSCH38ChartAxisReferenceLineNonStylesArchive9MergeFromERKN6google8protobuf7MessageE,
                            __ZN4TSCH38ChartAxisReferenceLineNonStylesArchive9MergeFromERKS0_,
                            __ZN4TSCH38ChartAxisReferenceLineNonStylesArchive9_Internal7axis_idEPKS0_,
                            __ZN4TSCH38ChartAxisReferenceLineNonStylesArchiveC1EPN6google8protobuf5ArenaE,
                            __ZN4TSCH38ChartAxisReferenceLineNonStylesArchiveC1ERKS0_,
                            __ZN4TSCH38ChartAxisReferenceLineNonStylesArchiveC2EPN6google8protobuf5ArenaE,
                            __ZN4TSCH38ChartAxisReferenceLineNonStylesArchiveC2ERKS0_,
                            __ZN4TSCH38ChartAxisReferenceLineNonStylesArchiveD0Ev,
                            __ZN4TSCH38ChartAxisReferenceLineNonStylesArchiveD1Ev,
                            __ZN4TSCH38ChartAxisReferenceLineNonStylesArchiveD2Ev,
                            __ZN4TSCH38_Chart3DLightArchive_default_instance_E,
                            __ZN4TSCH38_ChartCommandArchive_default_instance_E,
                            __ZN4TSCH38_ChartFillSetArchive_default_instance_E,
                            __ZN4TSCH38_ChartPresetsArchive_default_instance_E,
                            __ZN4TSCH39ChartPreserveAppearanceForPresetArchive12InternalSwapEPS0_,
                            __ZN4TSCH39ChartPreserveAppearanceForPresetArchive14_InternalParseEPKcPN6google8protobuf8internal12ParseContextE,
                            __ZN4TSCH39ChartPreserveAppearanceForPresetArchive16default_instanceEv,
                            __ZN4TSCH39ChartPreserveAppearanceForPresetArchive31appearance_preserved_for_presetE,
                            __ZN4TSCH39ChartPreserveAppearanceForPresetArchive40kAppearancePreservedForPresetFieldNumberE,
                            __ZN4TSCH39ChartPreserveAppearanceForPresetArchive5ClearEv,
                            __ZN4TSCH39ChartPreserveAppearanceForPresetArchive8CopyFromERKN6google8protobuf7MessageE,
                            __ZN4TSCH39ChartPreserveAppearanceForPresetArchive8CopyFromERKS0_,
                            __ZN4TSCH39ChartPreserveAppearanceForPresetArchive9ArenaDtorEPv,
                            __ZN4TSCH39ChartPreserveAppearanceForPresetArchive9MergeFromERKN6google8protobuf7MessageE,
                            __ZN4TSCH39ChartPreserveAppearanceForPresetArchive9MergeFromERKS0_,
                            __ZN4TSCH39ChartPreserveAppearanceForPresetArchiveC1EPN6google8protobuf5ArenaE,
                            __ZN4TSCH39ChartPreserveAppearanceForPresetArchiveC1ERKS0_,
                            __ZN4TSCH39ChartPreserveAppearanceForPresetArchiveC2EPN6google8protobuf5ArenaE,
                            __ZN4TSCH39ChartPreserveAppearanceForPresetArchiveC2ERKS0_,
                            __ZN4TSCH39ChartPreserveAppearanceForPresetArchiveD0Ev,
                            __ZN4TSCH39ChartPreserveAppearanceForPresetArchiveD1Ev,
                            __ZN4TSCH39ChartPreserveAppearanceForPresetArchiveD2Ev,
                            __ZN4TSCH39_Chart3DVectorArchive_default_instance_E,
                            __ZN4TSCH39_ChartDrawableArchive_default_instance_E,
                            __ZN4TSCH39_ChartMediatorArchive_default_instance_E,
                            __ZN4TSCH39_ChartNonStyleArchive_default_instance_E,
                            __ZN4TSCH40Chart3DFixedFunctionLightingModelArchive12InternalSwapEPS0_,
                            __ZN4TSCH40Chart3DFixedFunctionLightingModelArchive14_InternalParseEPKcPN6google8protobuf8internal12ParseContextE,
                            __ZN4TSCH40Chart3DFixedFunctionLightingModelArchive16default_instanceEv,
                            __ZN4TSCH40Chart3DFixedFunctionLightingModelArchive5ClearEv,
                            __ZN4TSCH40Chart3DFixedFunctionLightingModelArchive8CopyFromERKN6google8protobuf7MessageE,
                            __ZN4TSCH40Chart3DFixedFunctionLightingModelArchive8CopyFromERKS0_,
                            __ZN4TSCH40Chart3DFixedFunctionLightingModelArchive9ArenaDtorEPv,
                            __ZN4TSCH40Chart3DFixedFunctionLightingModelArchive9MergeFromERKN6google8protobuf7MessageE,
                            __ZN4TSCH40Chart3DFixedFunctionLightingModelArchive9MergeFromERKS0_,
                            __ZN4TSCH40Chart3DFixedFunctionLightingModelArchive9_Internal9materialsEPKS0_,
                            __ZN4TSCH40Chart3DFixedFunctionLightingModelArchiveC1EPN6google8protobuf5ArenaE,
                            __ZN4TSCH40Chart3DFixedFunctionLightingModelArchiveC1ERKS0_,
                            __ZN4TSCH40Chart3DFixedFunctionLightingModelArchiveC2EPN6google8protobuf5ArenaE,
                            __ZN4TSCH40Chart3DFixedFunctionLightingModelArchiveC2ERKS0_,
                            __ZN4TSCH40Chart3DFixedFunctionLightingModelArchiveD0Ev,
                            __ZN4TSCH40Chart3DFixedFunctionLightingModelArchiveD1Ev,
                            __ZN4TSCH40Chart3DFixedFunctionLightingModelArchiveD2Ev,
                            __ZN4TSCH40ChartDrawableSelectionTransformerArchive11clear_superEv,
                            __ZN4TSCH40ChartDrawableSelectionTransformerArchive12InternalSwapEPS0_,
                            __ZN4TSCH40ChartDrawableSelectionTransformerArchive14_InternalParseEPKcPN6google8protobuf8internal12ParseContextE,
                            __ZN4TSCH40ChartDrawableSelectionTransformerArchive16default_instanceEv,
                            __ZN4TSCH40ChartDrawableSelectionTransformerArchive5ClearEv,
                            __ZN4TSCH40ChartDrawableSelectionTransformerArchive8CopyFromERKN6google8protobuf7MessageE,
                            __ZN4TSCH40ChartDrawableSelectionTransformerArchive8CopyFromERKS0_,
                            __ZN4TSCH40ChartDrawableSelectionTransformerArchive9ArenaDtorEPv,
                            __ZN4TSCH40ChartDrawableSelectionTransformerArchive9MergeFromERKN6google8protobuf7MessageE,
                            __ZN4TSCH40ChartDrawableSelectionTransformerArchive9MergeFromERKS0_,
                            __ZN4TSCH40ChartDrawableSelectionTransformerArchive9_Internal5superEPKS0_,
                            __ZN4TSCH40ChartDrawableSelectionTransformerArchiveC1EPN6google8protobuf5ArenaE,
                            __ZN4TSCH40ChartDrawableSelectionTransformerArchiveC1ERKS0_,
                            __ZN4TSCH40ChartDrawableSelectionTransformerArchiveC2EPN6google8protobuf5ArenaE,
                            __ZN4TSCH40ChartDrawableSelectionTransformerArchiveC2ERKS0_,
                            __ZN4TSCH40ChartDrawableSelectionTransformerArchiveD0Ev,
                            __ZN4TSCH40ChartDrawableSelectionTransformerArchiveD1Ev,
                            __ZN4TSCH40ChartDrawableSelectionTransformerArchiveD2Ev,
                            __ZN4TSCH40ChartGridArchive_ChartGridRowColumnIdMap12InternalSwapEPS0_,
                            __ZN4TSCH40ChartGridArchive_ChartGridRowColumnIdMap14_InternalParseEPKcPN6google8protobuf8internal12ParseContextE,
                            __ZN4TSCH40ChartGridArchive_ChartGridRowColumnIdMap16default_instanceEv,
                            __ZN4TSCH40ChartGridArchive_ChartGridRowColumnIdMap5ClearEv,
                            __ZN4TSCH40ChartGridArchive_ChartGridRowColumnIdMap8CopyFromERKN6google8protobuf7MessageE,
                            __ZN4TSCH40ChartGridArchive_ChartGridRowColumnIdMap8CopyFromERKS0_,
                            __ZN4TSCH40ChartGridArchive_ChartGridRowColumnIdMap9ArenaDtorEPv,
                            __ZN4TSCH40ChartGridArchive_ChartGridRowColumnIdMap9MergeFromERKN6google8protobuf7MessageE,
                            __ZN4TSCH40ChartGridArchive_ChartGridRowColumnIdMap9MergeFromERKS0_,
                            __ZN4TSCH40ChartGridArchive_ChartGridRowColumnIdMapC1EPN6google8protobuf5ArenaE,
                            __ZN4TSCH40ChartGridArchive_ChartGridRowColumnIdMapC1ERKS0_,
                            __ZN4TSCH40ChartGridArchive_ChartGridRowColumnIdMapC2EPN6google8protobuf5ArenaE,
                            __ZN4TSCH40ChartGridArchive_ChartGridRowColumnIdMapC2ERKS0_,
                            __ZN4TSCH40ChartGridArchive_ChartGridRowColumnIdMapD0Ev,
                            __ZN4TSCH40ChartGridArchive_ChartGridRowColumnIdMapD1Ev,
                            __ZN4TSCH40ChartGridArchive_ChartGridRowColumnIdMapD2Ev,
                            __ZN4TSCH40_ChartAxisStyleArchive_default_instance_E,
                            __ZN4TSCH40_ChartSelectionArchive_default_instance_E,
                            __ZN4TSCH40_LegendNonStyleArchive_default_instance_E,
                            __ZN4TSCH41ChartSubselectionTransformerHelperArchive12InternalSwapEPS0_,
                            __ZN4TSCH41ChartSubselectionTransformerHelperArchive14_InternalParseEPKcPN6google8protobuf8internal12ParseContextE,
                            __ZN4TSCH41ChartSubselectionTransformerHelperArchive15clear_selectionEv,
                            __ZN4TSCH41ChartSubselectionTransformerHelperArchive16default_instanceEv,
                            __ZN4TSCH41ChartSubselectionTransformerHelperArchive5ClearEv,
                            __ZN4TSCH41ChartSubselectionTransformerHelperArchive8CopyFromERKN6google8protobuf7MessageE,
                            __ZN4TSCH41ChartSubselectionTransformerHelperArchive8CopyFromERKS0_,
                            __ZN4TSCH41ChartSubselectionTransformerHelperArchive9ArenaDtorEPv,
                            __ZN4TSCH41ChartSubselectionTransformerHelperArchive9MergeFromERKN6google8protobuf7MessageE,
                            __ZN4TSCH41ChartSubselectionTransformerHelperArchive9MergeFromERKS0_,
                            __ZN4TSCH41ChartSubselectionTransformerHelperArchive9_Internal9selectionEPKS0_,
                            __ZN4TSCH41ChartSubselectionTransformerHelperArchiveC1EPN6google8protobuf5ArenaE,
                            __ZN4TSCH41ChartSubselectionTransformerHelperArchiveC1ERKS0_,
                            __ZN4TSCH41ChartSubselectionTransformerHelperArchiveC2EPN6google8protobuf5ArenaE,
                            __ZN4TSCH41ChartSubselectionTransformerHelperArchiveC2ERKS0_,
                            __ZN4TSCH41ChartSubselectionTransformerHelperArchiveD0Ev,
                            __ZN4TSCH41ChartSubselectionTransformerHelperArchiveD1Ev,
                            __ZN4TSCH41ChartSubselectionTransformerHelperArchiveD2Ev,
                            __ZN4TSCH41ChartSupportsSeriesPropertySpacingArchive12InternalSwapEPS0_,
                            __ZN4TSCH41ChartSupportsSeriesPropertySpacingArchive14_InternalParseEPKcPN6google8protobuf8internal12ParseContextE,
                            __ZN4TSCH41ChartSupportsSeriesPropertySpacingArchive16default_instanceEv,
                            __ZN4TSCH41ChartSupportsSeriesPropertySpacingArchive33supports_series_error_bar_spacingE,
                            __ZN4TSCH41ChartSupportsSeriesPropertySpacingArchive35supports_series_value_label_spacingE,
                            __ZN4TSCH41ChartSupportsSeriesPropertySpacingArchive41kSupportsSeriesErrorBarSpacingFieldNumberE,
                            __ZN4TSCH41ChartSupportsSeriesPropertySpacingArchive43kSupportsSeriesValueLabelSpacingFieldNumberE,
                            __ZN4TSCH41ChartSupportsSeriesPropertySpacingArchive5ClearEv,
                            __ZN4TSCH41ChartSupportsSeriesPropertySpacingArchive8CopyFromERKN6google8protobuf7MessageE,
                            __ZN4TSCH41ChartSupportsSeriesPropertySpacingArchive8CopyFromERKS0_,
                            __ZN4TSCH41ChartSupportsSeriesPropertySpacingArchive9ArenaDtorEPv,
                            __ZN4TSCH41ChartSupportsSeriesPropertySpacingArchive9MergeFromERKN6google8protobuf7MessageE,
                            __ZN4TSCH41ChartSupportsSeriesPropertySpacingArchive9MergeFromERKS0_,
                            __ZN4TSCH41ChartSupportsSeriesPropertySpacingArchiveC1EPN6google8protobuf5ArenaE,
                            __ZN4TSCH41ChartSupportsSeriesPropertySpacingArchiveC1ERKS0_,
                            __ZN4TSCH41ChartSupportsSeriesPropertySpacingArchiveC2EPN6google8protobuf5ArenaE,
                            __ZN4TSCH41ChartSupportsSeriesPropertySpacingArchiveC2ERKS0_,
                            __ZN4TSCH41ChartSupportsSeriesPropertySpacingArchiveD0Ev,
                            __ZN4TSCH41ChartSupportsSeriesPropertySpacingArchiveD1Ev,
                            __ZN4TSCH41ChartSupportsSeriesPropertySpacingArchiveD2Ev,
                            __ZN4TSCH41_CommandChartApplyTheme_default_instance_E,
                            __ZN4TSCH42_Chart3DSpotLightArchive_default_instance_E,
                            __ZN4TSCH42_ChartSeriesStyleArchive_default_instance_E,
                            __ZN4TSCH42_CommandChartApplyPreset_default_instance_E,
                            __ZN4TSCH42_CommandStyleSwapArchive_default_instance_E,
                            __ZN4TSCH43_Chart3DPointLightArchive_default_instance_E,
                            __ZN4TSCH43_ChartAxisNonStyleArchive_default_instance_E,
                            __ZN4TSCH43_ChartCDESelectionArchive_default_instance_E,
                            __ZN4TSCH43_ChartGarlicMinMaxUpgrade_default_instance_E,
                            __ZN4TSCH43_CommandPasteStyleArchive_default_instance_E,
                            __ZN4TSCH44ChartAxisReferenceLineSparseNonStylesArchive12InternalSwapEPS0_,
                            __ZN4TSCH44ChartAxisReferenceLineSparseNonStylesArchive14_InternalParseEPKcPN6google8protobuf8internal12ParseContextE,
                            __ZN4TSCH44ChartAxisReferenceLineSparseNonStylesArchive16default_instanceEv,
                            __ZN4TSCH44ChartAxisReferenceLineSparseNonStylesArchive5ClearEv,
                            __ZN4TSCH44ChartAxisReferenceLineSparseNonStylesArchive8CopyFromERKN6google8protobuf7MessageE,
                            __ZN4TSCH44ChartAxisReferenceLineSparseNonStylesArchive8CopyFromERKS0_,
                            __ZN4TSCH44ChartAxisReferenceLineSparseNonStylesArchive9ArenaDtorEPv,
                            __ZN4TSCH44ChartAxisReferenceLineSparseNonStylesArchive9MergeFromERKN6google8protobuf7MessageE,
                            __ZN4TSCH44ChartAxisReferenceLineSparseNonStylesArchive9MergeFromERKS0_,
                            __ZN4TSCH44ChartAxisReferenceLineSparseNonStylesArchive9_Internal7axis_idEPKS0_,
                            __ZN4TSCH44ChartAxisReferenceLineSparseNonStylesArchiveC1EPN6google8protobuf5ArenaE,
                            __ZN4TSCH44ChartAxisReferenceLineSparseNonStylesArchiveC1ERKS0_,
                            __ZN4TSCH44ChartAxisReferenceLineSparseNonStylesArchiveC2EPN6google8protobuf5ArenaE,
                            __ZN4TSCH44ChartAxisReferenceLineSparseNonStylesArchiveC2ERKS0_,
                            __ZN4TSCH44ChartAxisReferenceLineSparseNonStylesArchiveD0Ev,
                            __ZN4TSCH44ChartAxisReferenceLineSparseNonStylesArchiveD1Ev,
                            __ZN4TSCH44ChartAxisReferenceLineSparseNonStylesArchiveD2Ev,
                            __ZN4TSCH44CommandSetFontFamilyArchive_StyleSemanticTag12InternalSwapEPS0_,
                            __ZN4TSCH44CommandSetFontFamilyArchive_StyleSemanticTag14_InternalParseEPKcPN6google8protobuf8internal12ParseContextE,
                            __ZN4TSCH44CommandSetFontFamilyArchive_StyleSemanticTag16default_instanceEv,
                            __ZN4TSCH44CommandSetFontFamilyArchive_StyleSemanticTag5ClearEv,
                            __ZN4TSCH44CommandSetFontFamilyArchive_StyleSemanticTag8CopyFromERKN6google8protobuf7MessageE,
                            __ZN4TSCH44CommandSetFontFamilyArchive_StyleSemanticTag8CopyFromERKS0_,
                            __ZN4TSCH44CommandSetFontFamilyArchive_StyleSemanticTag9ArenaDtorEPv,
                            __ZN4TSCH44CommandSetFontFamilyArchive_StyleSemanticTag9MergeFromERKN6google8protobuf7MessageE,
                            __ZN4TSCH44CommandSetFontFamilyArchive_StyleSemanticTag9MergeFromERKS0_,
                            __ZN4TSCH44CommandSetFontFamilyArchive_StyleSemanticTagC1EPN6google8protobuf5ArenaE,
                            __ZN4TSCH44CommandSetFontFamilyArchive_StyleSemanticTagC1ERKS0_,
                            __ZN4TSCH44CommandSetFontFamilyArchive_StyleSemanticTagC2EPN6google8protobuf5ArenaE,
                            __ZN4TSCH44CommandSetFontFamilyArchive_StyleSemanticTagC2ERKS0_,
                            __ZN4TSCH44CommandSetFontFamilyArchive_StyleSemanticTagD0Ev,
                            __ZN4TSCH44CommandSetFontFamilyArchive_StyleSemanticTagD1Ev,
                            __ZN4TSCH44CommandSetFontFamilyArchive_StyleSemanticTagD2Ev,
                            __ZN4TSCH44_ChartSelectionPathArchive_default_instance_E,
                            __ZN4TSCH44_CommandAddGridRowsArchive_default_instance_E,
                            __ZN4TSCH44_CommandInvalidateWPCaches_default_instance_E,
                            __ZN4TSCH44_ReferenceLineStyleArchive_default_instance_E,
                            __ZN4TSCH44_StyleSwapUndoTupleArchive_default_instance_E,
                            __ZN4TSCH45_ChartMultiDataIndexUpgrade_default_instance_E,
                            __ZN4TSCH45_ChartReferenceLinesArchive_default_instance_E,
                            __ZN4TSCH45_ChartSeriesNonStyleArchive_default_instance_E,
                            __ZN4TSCH45_CommandApplyFillSetArchive_default_instance_E,
                            __ZN4TSCH45_CommandMoveGridRowsArchive_default_instance_E,
                            __ZN4TSCH45_CommandScaleAllTextArchive_default_instance_E,
                            __ZN4TSCH45_CommandSetChartTypeArchive_default_instance_E,
                            __ZN4TSCH45_CommandSetGridValueArchive_default_instance_E,
                            __ZN4TSCH45_StylePasteboardDataArchive_default_instance_E,
                            __ZN4TSCH45_StyleSwapUndoTuplesArchive_default_instance_E,
                            __ZN4TSCH46ChartGridArchive_ChartGridRowColumnIdMap_Entry12InternalSwapEPS0_,
                            __ZN4TSCH46ChartGridArchive_ChartGridRowColumnIdMap_Entry14_InternalParseEPKcPN6google8protobuf8internal12ParseContextE,
                            __ZN4TSCH46ChartGridArchive_ChartGridRowColumnIdMap_Entry16default_instanceEv,
                            __ZN4TSCH46ChartGridArchive_ChartGridRowColumnIdMap_Entry5ClearEv,
                            __ZN4TSCH46ChartGridArchive_ChartGridRowColumnIdMap_Entry8CopyFromERKN6google8protobuf7MessageE,
                            __ZN4TSCH46ChartGridArchive_ChartGridRowColumnIdMap_Entry8CopyFromERKS0_,
                            __ZN4TSCH46ChartGridArchive_ChartGridRowColumnIdMap_Entry9ArenaDtorEPv,
                            __ZN4TSCH46ChartGridArchive_ChartGridRowColumnIdMap_Entry9MergeFromERKN6google8protobuf7MessageE,
                            __ZN4TSCH46ChartGridArchive_ChartGridRowColumnIdMap_Entry9MergeFromERKS0_,
                            __ZN4TSCH46ChartGridArchive_ChartGridRowColumnIdMap_EntryC1EPN6google8protobuf5ArenaE,
                            __ZN4TSCH46ChartGridArchive_ChartGridRowColumnIdMap_EntryC1ERKS0_,
                            __ZN4TSCH46ChartGridArchive_ChartGridRowColumnIdMap_EntryC2EPN6google8protobuf5ArenaE,
                            __ZN4TSCH46ChartGridArchive_ChartGridRowColumnIdMap_EntryC2ERKS0_,
                            __ZN4TSCH46ChartGridArchive_ChartGridRowColumnIdMap_EntryD0Ev,
                            __ZN4TSCH46ChartGridArchive_ChartGridRowColumnIdMap_EntryD1Ev,
                            __ZN4TSCH46ChartGridArchive_ChartGridRowColumnIdMap_EntryD2Ev,
                            __ZN4TSCH46_Chart3DLightingModelArchive_default_instance_E,
                            __ZN4TSCH46_ChartFormatStructExtensions_default_instance_E,
                            __ZN4TSCH46_ChartsNSNumberDoubleArchive_default_instance_E,
                            __ZN4TSCH46_CommandSetFontFamilyArchive_default_instance_E,
                            __ZN4TSCH46_CommandSetPieWedgeExplosion_default_instance_E,
                            __ZN4TSCH46_CommandSetSeriesNameArchive_default_instance_E,
                            __ZN4TSCH46_CommandSetSeriesTypeArchive_default_instance_E,
                            __ZN4TSCH47_CommandAddGridColumnsArchive_default_instance_E,
                            __ZN4TSCH47_CommandDeleteGridRowsArchive_default_instance_E,
                            __ZN4TSCH47_CommandSetLegendFrameArchive_default_instance_E,
                            __ZN4TSCH47_DEPRECATEDChart3DFillArchive_default_instance_E,
                            __ZN4TSCH47_ReferenceLineNonStyleArchive_default_instance_E,
                            __ZN4TSCH48ChartRefLineSubselectionTransformerHelperArchive12InternalSwapEPS0_,
                            __ZN4TSCH48ChartRefLineSubselectionTransformerHelperArchive14_InternalParseEPKcPN6google8protobuf8internal12ParseContextE,
                            __ZN4TSCH48ChartRefLineSubselectionTransformerHelperArchive16default_instanceEv,
                            __ZN4TSCH48ChartRefLineSubselectionTransformerHelperArchive35clear_selected_reference_line_uuidsEv,
                            __ZN4TSCH48ChartRefLineSubselectionTransformerHelperArchive5ClearEv,
                            __ZN4TSCH48ChartRefLineSubselectionTransformerHelperArchive8CopyFromERKN6google8protobuf7MessageE,
                            __ZN4TSCH48ChartRefLineSubselectionTransformerHelperArchive8CopyFromERKS0_,
                            __ZN4TSCH48ChartRefLineSubselectionTransformerHelperArchive9ArenaDtorEPv,
                            __ZN4TSCH48ChartRefLineSubselectionTransformerHelperArchive9MergeFromERKN6google8protobuf7MessageE,
                            __ZN4TSCH48ChartRefLineSubselectionTransformerHelperArchive9MergeFromERKS0_,
                            __ZN4TSCH48ChartRefLineSubselectionTransformerHelperArchive9_Internal5superEPKS0_,
                            __ZN4TSCH48ChartRefLineSubselectionTransformerHelperArchiveC1EPN6google8protobuf5ArenaE,
                            __ZN4TSCH48ChartRefLineSubselectionTransformerHelperArchiveC1ERKS0_,
                            __ZN4TSCH48ChartRefLineSubselectionTransformerHelperArchiveC2EPN6google8protobuf5ArenaE,
                            __ZN4TSCH48ChartRefLineSubselectionTransformerHelperArchiveC2ERKS0_,
                            __ZN4TSCH48ChartRefLineSubselectionTransformerHelperArchiveD0Ev,
                            __ZN4TSCH48ChartRefLineSubselectionTransformerHelperArchiveD1Ev,
                            __ZN4TSCH48ChartRefLineSubselectionTransformerHelperArchiveD2Ev,
                            __ZN4TSCH48_Chart3DDiffuseMaterialArchive_default_instance_E,
                            __ZN4TSCH48_Chart3DLightingPackageArchive_default_instance_E,
                            __ZN4TSCH48_ChartGarlicLabelFormatUpgrade_default_instance_E,
                            __ZN4TSCH48_ChartSelectionPathTypeArchive_default_instance_E,
                            __ZN4TSCH48_CommandCleanupGeometryArchive_default_instance_E,
                            __ZN4TSCH48_CommandInduced3DChartGeometry_default_instance_E,
                            __ZN4TSCH48_CommandMoveGridColumnsArchive_default_instance_E,
                            __ZN4TSCH48_CommandSetCategoryNameArchive_default_instance_E,
                            __ZN4TSCH48property_value_storage_container_reference_linesE,
                            __ZN4TSCH49ChartSubselectionIdentityTransformerHelperArchive12InternalSwapEPS0_,
                            __ZN4TSCH49ChartSubselectionIdentityTransformerHelperArchive14_InternalParseEPKcPN6google8protobuf8internal12ParseContextE,
                            __ZN4TSCH49ChartSubselectionIdentityTransformerHelperArchive16default_instanceEv,
                            __ZN4TSCH49ChartSubselectionIdentityTransformerHelperArchive5ClearEv,
                            __ZN4TSCH49ChartSubselectionIdentityTransformerHelperArchive8CopyFromERKN6google8protobuf7MessageE,
                            __ZN4TSCH49ChartSubselectionIdentityTransformerHelperArchive8CopyFromERKS0_,
                            __ZN4TSCH49ChartSubselectionIdentityTransformerHelperArchive9ArenaDtorEPv,
                            __ZN4TSCH49ChartSubselectionIdentityTransformerHelperArchive9MergeFromERKN6google8protobuf7MessageE,
                            __ZN4TSCH49ChartSubselectionIdentityTransformerHelperArchive9MergeFromERKS0_,
                            __ZN4TSCH49ChartSubselectionIdentityTransformerHelperArchive9_Internal5superEPKS0_,
                            __ZN4TSCH49ChartSubselectionIdentityTransformerHelperArchiveC1EPN6google8protobuf5ArenaE,
                            __ZN4TSCH49ChartSubselectionIdentityTransformerHelperArchiveC1ERKS0_,
                            __ZN4TSCH49ChartSubselectionIdentityTransformerHelperArchiveC2EPN6google8protobuf5ArenaE,
                            __ZN4TSCH49ChartSubselectionIdentityTransformerHelperArchiveC2ERKS0_,
                            __ZN4TSCH49ChartSubselectionIdentityTransformerHelperArchiveD0Ev,
                            __ZN4TSCH49ChartSubselectionIdentityTransformerHelperArchiveD1Ev,
                            __ZN4TSCH49ChartSubselectionIdentityTransformerHelperArchiveD2Ev,
                            __ZN4TSCH49_CDESelectionTransformerArchive_default_instance_E,
                            __ZN4TSCH49_Chart3DDirectionalLightArchive_default_instance_E,
                            __ZN4TSCH49_Chart3DEmissiveMaterialArchive_default_instance_E,
                            __ZN4TSCH49_Chart3DModulateMaterialArchive_default_instance_E,
                            __ZN4TSCH49_Chart3DSpecularMaterialArchive_default_instance_E,
                            __ZN4TSCH49_Chart3DTexturesMaterialArchive_default_instance_E,
                            __ZN4TSCH49_ChartReferenceLineNonStyleItem_default_instance_E,
                            __ZN4TSCH49_CommandAddReferenceLineArchive_default_instance_E,
                            __ZN4TSCH49_CommandInducedReplaceChartGrid_default_instance_E,
                            __ZN4TSCH49_CommandMutatePropertiesArchive_default_instance_E,
                            __ZN4TSCH49_CommandReplaceImageDataArchive_default_instance_E,
                            __ZN4TSCH49_CommandSetGridDirectionArchive_default_instance_E,
                            __ZN4TSCH49_CommandSetScatterFormatArchive_default_instance_E,
                            __ZN4TSCH50ChartSupportsProportionalBendedCalloutLinesArchive12InternalSwapEPS0_,
                            __ZN4TSCH50ChartSupportsProportionalBendedCalloutLinesArchive14_InternalParseEPKcPN6google8protobuf8internal12ParseContextE,
                            __ZN4TSCH50ChartSupportsProportionalBendedCalloutLinesArchive16default_instanceEv,
                            __ZN4TSCH50ChartSupportsProportionalBendedCalloutLinesArchive42supports_proportional_bended_callout_linesE,
                            __ZN4TSCH50ChartSupportsProportionalBendedCalloutLinesArchive50kSupportsProportionalBendedCalloutLinesFieldNumberE,
                            __ZN4TSCH50ChartSupportsProportionalBendedCalloutLinesArchive5ClearEv,
                            __ZN4TSCH50ChartSupportsProportionalBendedCalloutLinesArchive8CopyFromERKN6google8protobuf7MessageE,
                            __ZN4TSCH50ChartSupportsProportionalBendedCalloutLinesArchive8CopyFromERKS0_,
                            __ZN4TSCH50ChartSupportsProportionalBendedCalloutLinesArchive9ArenaDtorEPv,
                            __ZN4TSCH50ChartSupportsProportionalBendedCalloutLinesArchive9MergeFromERKN6google8protobuf7MessageE,
                            __ZN4TSCH50ChartSupportsProportionalBendedCalloutLinesArchive9MergeFromERKS0_,
                            __ZN4TSCH50ChartSupportsProportionalBendedCalloutLinesArchiveC1EPN6google8protobuf5ArenaE,
                            __ZN4TSCH50ChartSupportsProportionalBendedCalloutLinesArchiveC1ERKS0_,
                            __ZN4TSCH50ChartSupportsProportionalBendedCalloutLinesArchiveC2EPN6google8protobuf5ArenaE,
                            __ZN4TSCH50ChartSupportsProportionalBendedCalloutLinesArchiveC2ERKS0_,
                            __ZN4TSCH50ChartSupportsProportionalBendedCalloutLinesArchiveD0Ev,
                            __ZN4TSCH50ChartSupportsProportionalBendedCalloutLinesArchiveD1Ev,
                            __ZN4TSCH50ChartSupportsProportionalBendedCalloutLinesArchiveD2Ev,
                            __ZN4TSCH50PropertyValueStorageContainerReferenceLinesArchive12InternalSwapEPS0_,
                            __ZN4TSCH50PropertyValueStorageContainerReferenceLinesArchive14_InternalParseEPKcPN6google8protobuf8internal12ParseContextE,
                            __ZN4TSCH50PropertyValueStorageContainerReferenceLinesArchive16default_instanceEv,
                            __ZN4TSCH50PropertyValueStorageContainerReferenceLinesArchive39clear_theme_preset_reference_line_styleEv,
                            __ZN4TSCH50PropertyValueStorageContainerReferenceLinesArchive5ClearEv,
                            __ZN4TSCH50PropertyValueStorageContainerReferenceLinesArchive8CopyFromERKN6google8protobuf7MessageE,
                            __ZN4TSCH50PropertyValueStorageContainerReferenceLinesArchive8CopyFromERKS0_,
                            __ZN4TSCH50PropertyValueStorageContainerReferenceLinesArchive9ArenaDtorEPv,
                            __ZN4TSCH50PropertyValueStorageContainerReferenceLinesArchive9MergeFromERKN6google8protobuf7MessageE,
                            __ZN4TSCH50PropertyValueStorageContainerReferenceLinesArchive9MergeFromERKS0_,
                            __ZN4TSCH50PropertyValueStorageContainerReferenceLinesArchive9_Internal33theme_preset_reference_line_styleEPKS0_,
                            __ZN4TSCH50PropertyValueStorageContainerReferenceLinesArchiveC1EPN6google8protobuf5ArenaE,
                            __ZN4TSCH50PropertyValueStorageContainerReferenceLinesArchiveC1ERKS0_,
                            __ZN4TSCH50PropertyValueStorageContainerReferenceLinesArchiveC2EPN6google8protobuf5ArenaE,
                            __ZN4TSCH50PropertyValueStorageContainerReferenceLinesArchiveC2ERKS0_,
                            __ZN4TSCH50PropertyValueStorageContainerReferenceLinesArchiveD0Ev,
                            __ZN4TSCH50PropertyValueStorageContainerReferenceLinesArchiveD1Ev,
                            __ZN4TSCH50PropertyValueStorageContainerReferenceLinesArchiveD2Ev,
                            __ZN4TSCH50_Chart3DShininessMaterialArchive_default_instance_E,
                            __ZN4TSCH50_ChartPasteboardAdditionsArchive_default_instance_E,
                            __ZN4TSCH50_CommandDeleteGridColumnsArchive_default_instance_E,
                            __ZN4TSCH50_CommandReplaceGridValuesArchive_default_instance_E,
                            __ZN4TSCH51_Chart3DEnvironmentPackageArchive_default_instance_E,
                            __ZN4TSCH51_Chart3DImageTextureTilingArchive_default_instance_E,
                            __ZN4TSCH51_Chart3DPhongLightingModelArchive_default_instance_E,
                            __ZN4TSCH51_CommandReplaceThemePresetArchive_default_instance_E,
                            __ZN4TSCH52_Chart3DEnvironmentMaterialArchive_default_instance_E,
                            __ZN4TSCH52_Chart3DTSPImageDataTextureArchive_default_instance_E,
                            __ZN4TSCH52_ChartSelectionPathArgumentArchive_default_instance_E,
                            __ZN4TSCH52_ChartUIStateMultiDataIndexUpgrade_default_instance_E,
                            __ZN4TSCH52_CommandDeleteReferenceLineArchive_default_instance_E,
                            __ZN4TSCH52_CommandReplaceCustomFormatArchive_default_instance_E,
                            __ZN4TSCH53CommandMutatePropertiesArchive_ParagraphStyleDeltaMap12InternalSwapEPS0_,
                            __ZN4TSCH53CommandMutatePropertiesArchive_ParagraphStyleDeltaMap14_InternalParseEPKcPN6google8protobuf8internal12ParseContextE,
                            __ZN4TSCH53CommandMutatePropertiesArchive_ParagraphStyleDeltaMap16default_instanceEv,
                            __ZN4TSCH53CommandMutatePropertiesArchive_ParagraphStyleDeltaMap5ClearEv,
                            __ZN4TSCH53CommandMutatePropertiesArchive_ParagraphStyleDeltaMap8CopyFromERKN6google8protobuf7MessageE,
                            __ZN4TSCH53CommandMutatePropertiesArchive_ParagraphStyleDeltaMap8CopyFromERKS0_,
                            __ZN4TSCH53CommandMutatePropertiesArchive_ParagraphStyleDeltaMap9ArenaDtorEPv,
                            __ZN4TSCH53CommandMutatePropertiesArchive_ParagraphStyleDeltaMap9MergeFromERKN6google8protobuf7MessageE,
                            __ZN4TSCH53CommandMutatePropertiesArchive_ParagraphStyleDeltaMap9MergeFromERKS0_,
                            __ZN4TSCH53CommandMutatePropertiesArchive_ParagraphStyleDeltaMap9_Internal11forward_mapEPKS0_,
                            __ZN4TSCH53CommandMutatePropertiesArchive_ParagraphStyleDeltaMap9_Internal11reverse_mapEPKS0_,
                            __ZN4TSCH53CommandMutatePropertiesArchive_ParagraphStyleDeltaMap9_Internal16style_owner_pathEPKS0_,
                            __ZN4TSCH53CommandMutatePropertiesArchive_ParagraphStyleDeltaMapC1EPN6google8protobuf5ArenaE,
                            __ZN4TSCH53CommandMutatePropertiesArchive_ParagraphStyleDeltaMapC1ERKS0_,
                            __ZN4TSCH53CommandMutatePropertiesArchive_ParagraphStyleDeltaMapC2EPN6google8protobuf5ArenaE,
                            __ZN4TSCH53CommandMutatePropertiesArchive_ParagraphStyleDeltaMapC2ERKS0_,
                            __ZN4TSCH53CommandMutatePropertiesArchive_ParagraphStyleDeltaMapD0Ev,
                            __ZN4TSCH53CommandMutatePropertiesArchive_ParagraphStyleDeltaMapD1Ev,
                            __ZN4TSCH53CommandMutatePropertiesArchive_ParagraphStyleDeltaMapD2Ev,
                            __ZN4TSCH53_Chart3DPhongMaterialPackageArchive_default_instance_E,
                            __ZN4TSCH53_ChartSupportsRoundedCornersArchive_default_instance_E,
                            __ZN4TSCH53_CommandSetMultiDataSetIndexArchive_default_instance_E,
                            __ZN4TSCH54CommandMutatePropertiesArchive_GenericPropertyDeltaMap12InternalSwapEPS0_,
                            __ZN4TSCH54CommandMutatePropertiesArchive_GenericPropertyDeltaMap14_InternalParseEPKcPN6google8protobuf8internal12ParseContextE,
                            __ZN4TSCH54CommandMutatePropertiesArchive_GenericPropertyDeltaMap16default_instanceEv,
                            __ZN4TSCH54CommandMutatePropertiesArchive_GenericPropertyDeltaMap5ClearEv,
                            __ZN4TSCH54CommandMutatePropertiesArchive_GenericPropertyDeltaMap8CopyFromERKN6google8protobuf7MessageE,
                            __ZN4TSCH54CommandMutatePropertiesArchive_GenericPropertyDeltaMap8CopyFromERKS0_,
                            __ZN4TSCH54CommandMutatePropertiesArchive_GenericPropertyDeltaMap9ArenaDtorEPv,
                            __ZN4TSCH54CommandMutatePropertiesArchive_GenericPropertyDeltaMap9MergeFromERKN6google8protobuf7MessageE,
                            __ZN4TSCH54CommandMutatePropertiesArchive_GenericPropertyDeltaMap9MergeFromERKS0_,
                            __ZN4TSCH54CommandMutatePropertiesArchive_GenericPropertyDeltaMap9_Internal11forward_mapEPKS0_,
                            __ZN4TSCH54CommandMutatePropertiesArchive_GenericPropertyDeltaMap9_Internal11reverse_mapEPKS0_,
                            __ZN4TSCH54CommandMutatePropertiesArchive_GenericPropertyDeltaMap9_Internal16style_owner_pathEPKS0_,
                            __ZN4TSCH54CommandMutatePropertiesArchive_GenericPropertyDeltaMapC1EPN6google8protobuf5ArenaE,
                            __ZN4TSCH54CommandMutatePropertiesArchive_GenericPropertyDeltaMapC1ERKS0_,
                            __ZN4TSCH54CommandMutatePropertiesArchive_GenericPropertyDeltaMapC2EPN6google8protobuf5ArenaE,
                            __ZN4TSCH54CommandMutatePropertiesArchive_GenericPropertyDeltaMapC2ERKS0_,
                            __ZN4TSCH54CommandMutatePropertiesArchive_GenericPropertyDeltaMapD0Ev,
                            __ZN4TSCH54CommandMutatePropertiesArchive_GenericPropertyDeltaMapD1Ev,
                            __ZN4TSCH54CommandMutatePropertiesArchive_GenericPropertyDeltaMapD2Ev,
                            __ZN4TSCH54CommandReplaceCustomFormatArchive_FormatObjectMutation12InternalSwapEPS0_,
                            __ZN4TSCH54CommandReplaceCustomFormatArchive_FormatObjectMutation14_InternalParseEPKcPN6google8protobuf8internal12ParseContextE,
                            __ZN4TSCH54CommandReplaceCustomFormatArchive_FormatObjectMutation16default_instanceEv,
                            __ZN4TSCH54CommandReplaceCustomFormatArchive_FormatObjectMutation19clear_format_objectEv,
                            __ZN4TSCH54CommandReplaceCustomFormatArchive_FormatObjectMutation5ClearEv,
                            __ZN4TSCH54CommandReplaceCustomFormatArchive_FormatObjectMutation8CopyFromERKN6google8protobuf7MessageE,
                            __ZN4TSCH54CommandReplaceCustomFormatArchive_FormatObjectMutation8CopyFromERKS0_,
                            __ZN4TSCH54CommandReplaceCustomFormatArchive_FormatObjectMutation9ArenaDtorEPv,
                            __ZN4TSCH54CommandReplaceCustomFormatArchive_FormatObjectMutation9MergeFromERKN6google8protobuf7MessageE,
                            __ZN4TSCH54CommandReplaceCustomFormatArchive_FormatObjectMutation9MergeFromERKS0_,
                            __ZN4TSCH54CommandReplaceCustomFormatArchive_FormatObjectMutation9_Internal13format_objectEPKS0_,
                            __ZN4TSCH54CommandReplaceCustomFormatArchive_FormatObjectMutationC1EPN6google8protobuf5ArenaE,
                            __ZN4TSCH54CommandReplaceCustomFormatArchive_FormatObjectMutationC1ERKS0_,
                            __ZN4TSCH54CommandReplaceCustomFormatArchive_FormatObjectMutationC2EPN6google8protobuf5ArenaE,
                            __ZN4TSCH54CommandReplaceCustomFormatArchive_FormatObjectMutationC2ERKS0_,
                            __ZN4TSCH54CommandReplaceCustomFormatArchive_FormatObjectMutationD0Ev,
                            __ZN4TSCH54CommandReplaceCustomFormatArchive_FormatObjectMutationD1Ev,
                            __ZN4TSCH54CommandReplaceCustomFormatArchive_FormatObjectMutationD2Ev,
                            __ZN4TSCH54_ChartAxisReferenceLineStylesArchive_default_instance_E,
                            __ZN4TSCH54_ChartSubselectionTransformerArchive_default_instance_E,
                            __ZN4TSCH55CommandReplaceThemePresetArchive_StyleAndIdentifierPair11clear_styleEv,
                            __ZN4TSCH55CommandReplaceThemePresetArchive_StyleAndIdentifierPair12InternalSwapEPS0_,
                            __ZN4TSCH55CommandReplaceThemePresetArchive_StyleAndIdentifierPair14_InternalParseEPKcPN6google8protobuf8internal12ParseContextE,
                            __ZN4TSCH55CommandReplaceThemePresetArchive_StyleAndIdentifierPair16default_instanceEv,
                            __ZN4TSCH55CommandReplaceThemePresetArchive_StyleAndIdentifierPair5ClearEv,
                            __ZN4TSCH55CommandReplaceThemePresetArchive_StyleAndIdentifierPair8CopyFromERKN6google8protobuf7MessageE,
                            __ZN4TSCH55CommandReplaceThemePresetArchive_StyleAndIdentifierPair8CopyFromERKS0_,
                            __ZN4TSCH55CommandReplaceThemePresetArchive_StyleAndIdentifierPair9ArenaDtorEPv,
                            __ZN4TSCH55CommandReplaceThemePresetArchive_StyleAndIdentifierPair9MergeFromERKN6google8protobuf7MessageE,
                            __ZN4TSCH55CommandReplaceThemePresetArchive_StyleAndIdentifierPair9MergeFromERKS0_,
                            __ZN4TSCH55CommandReplaceThemePresetArchive_StyleAndIdentifierPair9_Internal5styleEPKS0_,
                            __ZN4TSCH55CommandReplaceThemePresetArchive_StyleAndIdentifierPairC1EPN6google8protobuf5ArenaE,
                            __ZN4TSCH55CommandReplaceThemePresetArchive_StyleAndIdentifierPairC1ERKS0_,
                            __ZN4TSCH55CommandReplaceThemePresetArchive_StyleAndIdentifierPairC2EPN6google8protobuf5ArenaE,
                            __ZN4TSCH55CommandReplaceThemePresetArchive_StyleAndIdentifierPairC2ERKS0_,
                            __ZN4TSCH55CommandReplaceThemePresetArchive_StyleAndIdentifierPairD0Ev,
                            __ZN4TSCH55CommandReplaceThemePresetArchive_StyleAndIdentifierPairD1Ev,
                            __ZN4TSCH55CommandReplaceThemePresetArchive_StyleAndIdentifierPairD2Ev,
                            __ZN4TSCH55_Chart3DBaseImageTextureTilingArchive_default_instance_E,
                            __ZN4TSCH55_ChartTextSelectionTransformerArchive_default_instance_E,
                            __ZN4TSCH55_ChartsNSArrayOfNSNumberDoubleArchive_default_instance_E,
                            __ZN4TSCH55_PropertyValueStorageContainerArchive_default_instance_E,
                            __ZN4TSCH56_ChartPresetReferenceLineStylesArchive_default_instance_E,
                            __ZN4TSCH57_ChartAxisReferenceLineNonStylesArchive_default_instance_E,
                            __ZN4TSCH58_ChartPreserveAppearanceForPresetArchive_default_instance_E,
                            __ZN4TSCH59_Chart3DFixedFunctionLightingModelArchive_default_instance_E,
                            __ZN4TSCH59_ChartDrawableSelectionTransformerArchive_default_instance_E,
                            __ZN4TSCH59_ChartGridArchive_ChartGridRowColumnIdMap_default_instance_E,
                            __ZN4TSCH60_ChartSubselectionTransformerHelperArchive_default_instance_E,
                            __ZN4TSCH60_ChartSupportsSeriesPropertySpacingArchive_default_instance_E,
                            __ZN4TSCH61CommandSetFontFamilyArchive_SemanticParagraphStyleMutationMap12InternalSwapEPS0_,
                            __ZN4TSCH61CommandSetFontFamilyArchive_SemanticParagraphStyleMutationMap14_InternalParseEPKcPN6google8protobuf8internal12ParseContextE,
                            __ZN4TSCH61CommandSetFontFamilyArchive_SemanticParagraphStyleMutationMap16default_instanceEv,
                            __ZN4TSCH61CommandSetFontFamilyArchive_SemanticParagraphStyleMutationMap5ClearEv,
                            __ZN4TSCH61CommandSetFontFamilyArchive_SemanticParagraphStyleMutationMap8CopyFromERKN6google8protobuf7MessageE,
                            __ZN4TSCH61CommandSetFontFamilyArchive_SemanticParagraphStyleMutationMap8CopyFromERKS0_,
                            __ZN4TSCH61CommandSetFontFamilyArchive_SemanticParagraphStyleMutationMap9ArenaDtorEPv,
                            __ZN4TSCH61CommandSetFontFamilyArchive_SemanticParagraphStyleMutationMap9MergeFromERKN6google8protobuf7MessageE,
                            __ZN4TSCH61CommandSetFontFamilyArchive_SemanticParagraphStyleMutationMap9MergeFromERKS0_,
                            __ZN4TSCH61CommandSetFontFamilyArchive_SemanticParagraphStyleMutationMap9_Internal11forward_mapEPKS0_,
                            __ZN4TSCH61CommandSetFontFamilyArchive_SemanticParagraphStyleMutationMap9_Internal11reverse_mapEPKS0_,
                            __ZN4TSCH61CommandSetFontFamilyArchive_SemanticParagraphStyleMutationMap9_Internal18style_semantic_tagEPKS0_,
                            __ZN4TSCH61CommandSetFontFamilyArchive_SemanticParagraphStyleMutationMapC1EPN6google8protobuf5ArenaE,
                            __ZN4TSCH61CommandSetFontFamilyArchive_SemanticParagraphStyleMutationMapC1ERKS0_,
                            __ZN4TSCH61CommandSetFontFamilyArchive_SemanticParagraphStyleMutationMapC2EPN6google8protobuf5ArenaE,
                            __ZN4TSCH61CommandSetFontFamilyArchive_SemanticParagraphStyleMutationMapC2ERKS0_,
                            __ZN4TSCH61CommandSetFontFamilyArchive_SemanticParagraphStyleMutationMapD0Ev,
                            __ZN4TSCH61CommandSetFontFamilyArchive_SemanticParagraphStyleMutationMapD1Ev,
                            __ZN4TSCH61CommandSetFontFamilyArchive_SemanticParagraphStyleMutationMapD2Ev,
                            __ZN4TSCH63_ChartAxisReferenceLineSparseNonStylesArchive_default_instance_E,
                            __ZN4TSCH63_CommandSetFontFamilyArchive_StyleSemanticTag_default_instance_E,
                            __ZN4TSCH65_ChartGridArchive_ChartGridRowColumnIdMap_Entry_default_instance_E,
                            __ZN4TSCH67_ChartRefLineSubselectionTransformerHelperArchive_default_instance_E,
                            __ZN4TSCH68_ChartSubselectionIdentityTransformerHelperArchive_default_instance_E,
                            __ZN4TSCH69_ChartSupportsProportionalBendedCalloutLinesArchive_default_instance_E,
                            __ZN4TSCH69_PropertyValueStorageContainerReferenceLinesArchive_default_instance_E,
                            __ZN4TSCH6PreUFF16ChartGridArchive12InternalSwapEPS1_,
                            __ZN4TSCH6PreUFF16ChartGridArchive14_InternalParseEPKcPN6google8protobuf8internal12ParseContextE,
                            __ZN4TSCH6PreUFF16ChartGridArchive16default_instanceEv,
                            __ZN4TSCH6PreUFF16ChartGridArchive5ClearEv,
                            __ZN4TSCH6PreUFF16ChartGridArchive8CopyFromERKN6google8protobuf7MessageE,
                            __ZN4TSCH6PreUFF16ChartGridArchive8CopyFromERKS1_,
                            __ZN4TSCH6PreUFF16ChartGridArchive9ArenaDtorEPv,
                            __ZN4TSCH6PreUFF16ChartGridArchive9MergeFromERKN6google8protobuf7MessageE,
                            __ZN4TSCH6PreUFF16ChartGridArchive9MergeFromERKS1_,
                            __ZN4TSCH6PreUFF16ChartGridArchiveC1EPN6google8protobuf5ArenaE,
                            __ZN4TSCH6PreUFF16ChartGridArchiveC1ERKS1_,
                            __ZN4TSCH6PreUFF16ChartGridArchiveC2EPN6google8protobuf5ArenaE,
                            __ZN4TSCH6PreUFF16ChartGridArchiveC2ERKS1_,
                            __ZN4TSCH6PreUFF16ChartGridArchiveD0Ev,
                            __ZN4TSCH6PreUFF16ChartGridArchiveD1Ev,
                            __ZN4TSCH6PreUFF16ChartGridArchiveD2Ev,
                            __ZN4TSCH6PreUFF16ChartInfoArchive11clear_styleEv,
                            __ZN4TSCH6PreUFF16ChartInfoArchive11clear_superEv,
                            __ZN4TSCH6PreUFF16ChartInfoArchive12InternalSwapEPS1_,
                            __ZN4TSCH6PreUFF16ChartInfoArchive14_InternalParseEPKcPN6google8protobuf8internal12ParseContextE,
                            __ZN4TSCH6PreUFF16ChartInfoArchive14clear_mediatorEv,
                            __ZN4TSCH6PreUFF16ChartInfoArchive15clear_non_styleEv,
                            __ZN4TSCH6PreUFF16ChartInfoArchive16default_instanceEv,
                            __ZN4TSCH6PreUFF16ChartInfoArchive22clear_paragraph_stylesEv,
                            __ZN4TSCH6PreUFF16ChartInfoArchive23clear_inner_chart_frameEv,
                            __ZN4TSCH6PreUFF16ChartInfoArchive23clear_series_non_stylesEv,
                            __ZN4TSCH6PreUFF16ChartInfoArchive23clear_value_axis_stylesEv,
                            __ZN4TSCH6PreUFF16ChartInfoArchive24clear_cde_preview_originEv,
                            __ZN4TSCH6PreUFF16ChartInfoArchive24clear_chart_style_presetEv,
                            __ZN4TSCH6PreUFF16ChartInfoArchive25clear_series_theme_stylesEv,
                            __ZN4TSCH6PreUFF16ChartInfoArchive26clear_category_axis_stylesEv,
                            __ZN4TSCH6PreUFF16ChartInfoArchive26clear_value_axis_nonstylesEv,
                            __ZN4TSCH6PreUFF16ChartInfoArchive27clear_series_private_stylesEv,
                            __ZN4TSCH6PreUFF16ChartInfoArchive29clear_category_axis_nonstylesEv,
                            __ZN4TSCH6PreUFF16ChartInfoArchive5ClearEv,
                            __ZN4TSCH6PreUFF16ChartInfoArchive8CopyFromERKN6google8protobuf7MessageE,
                            __ZN4TSCH6PreUFF16ChartInfoArchive8CopyFromERKS1_,
                            __ZN4TSCH6PreUFF16ChartInfoArchive9ArenaDtorEPv,
                            __ZN4TSCH6PreUFF16ChartInfoArchive9MergeFromERKN6google8protobuf7MessageE,
                            __ZN4TSCH6PreUFF16ChartInfoArchive9MergeFromERKS1_,
                            __ZN4TSCH6PreUFF16ChartInfoArchive9_Internal11chart_modelEPKS1_,
                            __ZN4TSCH6PreUFF16ChartInfoArchive9_Internal12legend_modelEPKS1_,
                            __ZN4TSCH6PreUFF16ChartInfoArchive9_Internal17inner_chart_frameEPKS1_,
                            __ZN4TSCH6PreUFF16ChartInfoArchive9_Internal17series_non_stylesEPKS1_,
                            __ZN4TSCH6PreUFF16ChartInfoArchive9_Internal18cde_preview_originEPKS1_,
                            __ZN4TSCH6PreUFF16ChartInfoArchive9_Internal18chart_style_presetEPKS1_,
                            __ZN4TSCH6PreUFF16ChartInfoArchive9_Internal21series_private_stylesEPKS1_,
                            __ZN4TSCH6PreUFF16ChartInfoArchive9_Internal5styleEPKS1_,
                            __ZN4TSCH6PreUFF16ChartInfoArchive9_Internal5superEPKS1_,
                            __ZN4TSCH6PreUFF16ChartInfoArchive9_Internal8mediatorEPKS1_,
                            __ZN4TSCH6PreUFF16ChartInfoArchive9_Internal9non_styleEPKS1_,
                            __ZN4TSCH6PreUFF16ChartInfoArchiveC1EPN6google8protobuf5ArenaE,
                            __ZN4TSCH6PreUFF16ChartInfoArchiveC1ERKS1_,
                            __ZN4TSCH6PreUFF16ChartInfoArchiveC2EPN6google8protobuf5ArenaE,
                            __ZN4TSCH6PreUFF16ChartInfoArchiveC2ERKS1_,
                            __ZN4TSCH6PreUFF16ChartInfoArchiveD0Ev,
                            __ZN4TSCH6PreUFF16ChartInfoArchiveD1Ev,
                            __ZN4TSCH6PreUFF16ChartInfoArchiveD2Ev,
                            __ZN4TSCH6PreUFF17ChartModelArchive10clear_gridEv,
                            __ZN4TSCH6PreUFF17ChartModelArchive10clear_infoEv,
                            __ZN4TSCH6PreUFF17ChartModelArchive12InternalSwapEPS1_,
                            __ZN4TSCH6PreUFF17ChartModelArchive14_InternalParseEPKcPN6google8protobuf8internal12ParseContextE,
                            __ZN4TSCH6PreUFF17ChartModelArchive16default_instanceEv,
                            __ZN4TSCH6PreUFF17ChartModelArchive5ClearEv,
                            __ZN4TSCH6PreUFF17ChartModelArchive8CopyFromERKN6google8protobuf7MessageE,
                            __ZN4TSCH6PreUFF17ChartModelArchive8CopyFromERKS1_,
                            __ZN4TSCH6PreUFF17ChartModelArchive9ArenaDtorEPv,
                            __ZN4TSCH6PreUFF17ChartModelArchive9MergeFromERKN6google8protobuf7MessageE,
                            __ZN4TSCH6PreUFF17ChartModelArchive9MergeFromERKS1_,
                            __ZN4TSCH6PreUFF17ChartModelArchive9_Internal11inline_gridEPKS1_,
                            __ZN4TSCH6PreUFF17ChartModelArchive9_Internal4gridEPKS1_,
                            __ZN4TSCH6PreUFF17ChartModelArchive9_Internal4infoEPKS1_,
                            __ZN4TSCH6PreUFF17ChartModelArchiveC1EPN6google8protobuf5ArenaE,
                            __ZN4TSCH6PreUFF17ChartModelArchiveC1ERKS1_,
                            __ZN4TSCH6PreUFF17ChartModelArchiveC2EPN6google8protobuf5ArenaE,
                            __ZN4TSCH6PreUFF17ChartModelArchiveC2ERKS1_,
                            __ZN4TSCH6PreUFF17ChartModelArchiveD0Ev,
                            __ZN4TSCH6PreUFF17ChartModelArchiveD1Ev,
                            __ZN4TSCH6PreUFF17ChartModelArchiveD2Ev,
                            __ZN4TSCH6PreUFF17ChartStyleArchive11clear_superEv,
                            __ZN4TSCH6PreUFF17ChartStyleArchive12InternalSwapEPS1_,
                            __ZN4TSCH6PreUFF17ChartStyleArchive14_InternalParseEPKcPN6google8protobuf8internal12ParseContextE,
                            __ZN4TSCH6PreUFF17ChartStyleArchive16default_instanceEv,
                            __ZN4TSCH6PreUFF17ChartStyleArchive36clear_tschchartinfodefaulttitlecolorEv,
                            __ZN4TSCH6PreUFF17ChartStyleArchive38clear_tschchartinfodefaultbordershadowEv,
                            __ZN4TSCH6PreUFF17ChartStyleArchive38clear_tschchartinfodefaultborderstrokeEv,
                            __ZN4TSCH6PreUFF17ChartStyleArchive39clear_tschchartinfobar3dlightingpackageEv,
                            __ZN4TSCH6PreUFF17ChartStyleArchive39clear_tschchartinfopie3dlightingpackageEv,
                            __ZN4TSCH6PreUFF17ChartStyleArchive40clear_tschchartinfoarea3dlightingpackageEv,
                            __ZN4TSCH6PreUFF17ChartStyleArchive40clear_tschchartinfobardeprecated3dshadowEv,
                            __ZN4TSCH6PreUFF17ChartStyleArchive40clear_tschchartinfodefaultbackgroundfillEv,
                            __ZN4TSCH6PreUFF17ChartStyleArchive40clear_tschchartinfoline3dlightingpackageEv,
                            __ZN4TSCH6PreUFF17ChartStyleArchive40clear_tschchartinfopiedeprecated3dshadowEv,
                            __ZN4TSCH6PreUFF17ChartStyleArchive41clear_tschchartinfoareadeprecated3dshadowEv,
                            __ZN4TSCH6PreUFF17ChartStyleArchive41clear_tschchartinfolinedeprecated3dshadowEv,
                            __ZN4TSCH6PreUFF17ChartStyleArchive42clear_tschchartinfocolumn3dlightingpackageEv,
                            __ZN4TSCH6PreUFF17ChartStyleArchive42clear_tschchartinfodefaultbackgroundstrokeEv,
                            __ZN4TSCH6PreUFF17ChartStyleArchive43clear_tschchartinfocolumndeprecated3dshadowEv,
                            __ZN4TSCH6PreUFF17ChartStyleArchive43clear_tschchartinfodefault3dlightingpackageEv,
                            __ZN4TSCH6PreUFF17ChartStyleArchive44clear_tschchartinfodefaultgridbackgroundfillEv,
                            __ZN4TSCH6PreUFF17ChartStyleArchive59clear_tschchartinfodefaultdeprecatedtrendlineequationshadowEv,
                            __ZN4TSCH6PreUFF17ChartStyleArchive59clear_tschchartinfodefaultdeprecatedtrendlinersquaredshadowEv,
                            __ZN4TSCH6PreUFF17ChartStyleArchive5ClearEv,
                            __ZN4TSCH6PreUFF17ChartStyleArchive8CopyFromERKN6google8protobuf7MessageE,
                            __ZN4TSCH6PreUFF17ChartStyleArchive8CopyFromERKS1_,
                            __ZN4TSCH6PreUFF17ChartStyleArchive9ArenaDtorEPv,
                            __ZN4TSCH6PreUFF17ChartStyleArchive9MergeFromERKN6google8protobuf7MessageE,
                            __ZN4TSCH6PreUFF17ChartStyleArchive9MergeFromERKS1_,
                            __ZN4TSCH6PreUFF17ChartStyleArchive9_Internal30tschchartinfodefaulttitlecolorEPKS1_,
                            __ZN4TSCH6PreUFF17ChartStyleArchive9_Internal32tschchartinfodefaultbordershadowEPKS1_,
                            __ZN4TSCH6PreUFF17ChartStyleArchive9_Internal32tschchartinfodefaultborderstrokeEPKS1_,
                            __ZN4TSCH6PreUFF17ChartStyleArchive9_Internal33tschchartinfobar3dlightingpackageEPKS1_,
                            __ZN4TSCH6PreUFF17ChartStyleArchive9_Internal33tschchartinfopie3dlightingpackageEPKS1_,
                            __ZN4TSCH6PreUFF17ChartStyleArchive9_Internal34tschchartinfoarea3dlightingpackageEPKS1_,
                            __ZN4TSCH6PreUFF17ChartStyleArchive9_Internal34tschchartinfobardeprecated3dshadowEPKS1_,
                            __ZN4TSCH6PreUFF17ChartStyleArchive9_Internal34tschchartinfodefaultbackgroundfillEPKS1_,
                            __ZN4TSCH6PreUFF17ChartStyleArchive9_Internal34tschchartinfoline3dlightingpackageEPKS1_,
                            __ZN4TSCH6PreUFF17ChartStyleArchive9_Internal34tschchartinfopiedeprecated3dshadowEPKS1_,
                            __ZN4TSCH6PreUFF17ChartStyleArchive9_Internal35tschchartinfoareadeprecated3dshadowEPKS1_,
                            __ZN4TSCH6PreUFF17ChartStyleArchive9_Internal35tschchartinfolinedeprecated3dshadowEPKS1_,
                            __ZN4TSCH6PreUFF17ChartStyleArchive9_Internal36tschchartinfocolumn3dlightingpackageEPKS1_,
                            __ZN4TSCH6PreUFF17ChartStyleArchive9_Internal36tschchartinfodefaultbackgroundstrokeEPKS1_,
                            __ZN4TSCH6PreUFF17ChartStyleArchive9_Internal37tschchartinfocolumndeprecated3dshadowEPKS1_,
                            __ZN4TSCH6PreUFF17ChartStyleArchive9_Internal37tschchartinfodefault3dlightingpackageEPKS1_,
                            __ZN4TSCH6PreUFF17ChartStyleArchive9_Internal38tschchartinfodefaultgridbackgroundfillEPKS1_,
                            __ZN4TSCH6PreUFF17ChartStyleArchive9_Internal53tschchartinfodefaultdeprecatedtrendlineequationshadowEPKS1_,
                            __ZN4TSCH6PreUFF17ChartStyleArchive9_Internal53tschchartinfodefaultdeprecatedtrendlinersquaredshadowEPKS1_,
                            __ZN4TSCH6PreUFF17ChartStyleArchive9_Internal5superEPKS1_,
                            __ZN4TSCH6PreUFF17ChartStyleArchiveC1EPN6google8protobuf5ArenaE,
                            __ZN4TSCH6PreUFF17ChartStyleArchiveC1ERKS1_,
                            __ZN4TSCH6PreUFF17ChartStyleArchiveC2EPN6google8protobuf5ArenaE,
                            __ZN4TSCH6PreUFF17ChartStyleArchiveC2ERKS1_,
                            __ZN4TSCH6PreUFF17ChartStyleArchiveD0Ev,
                            __ZN4TSCH6PreUFF17ChartStyleArchiveD1Ev,
                            __ZN4TSCH6PreUFF17ChartStyleArchiveD2Ev,
                            __ZN4TSCH6PreUFF18LegendModelArchive10clear_infoEv,
                            __ZN4TSCH6PreUFF18LegendModelArchive11clear_frameEv,
                            __ZN4TSCH6PreUFF18LegendModelArchive11clear_styleEv,
                            __ZN4TSCH6PreUFF18LegendModelArchive12InternalSwapEPS1_,
                            __ZN4TSCH6PreUFF18LegendModelArchive14_InternalParseEPKcPN6google8protobuf8internal12ParseContextE,
                            __ZN4TSCH6PreUFF18LegendModelArchive15clear_non_styleEv,
                            __ZN4TSCH6PreUFF18LegendModelArchive16default_instanceEv,
                            __ZN4TSCH6PreUFF18LegendModelArchive5ClearEv,
                            __ZN4TSCH6PreUFF18LegendModelArchive8CopyFromERKN6google8protobuf7MessageE,
                            __ZN4TSCH6PreUFF18LegendModelArchive8CopyFromERKS1_,
                            __ZN4TSCH6PreUFF18LegendModelArchive9ArenaDtorEPv,
                            __ZN4TSCH6PreUFF18LegendModelArchive9MergeFromERKN6google8protobuf7MessageE,
                            __ZN4TSCH6PreUFF18LegendModelArchive9MergeFromERKS1_,
                            __ZN4TSCH6PreUFF18LegendModelArchive9_Internal4infoEPKS1_,
                            __ZN4TSCH6PreUFF18LegendModelArchive9_Internal5frameEPKS1_,
                            __ZN4TSCH6PreUFF18LegendModelArchive9_Internal5styleEPKS1_,
                            __ZN4TSCH6PreUFF18LegendModelArchive9_Internal9non_styleEPKS1_,
                            __ZN4TSCH6PreUFF18LegendModelArchiveC1EPN6google8protobuf5ArenaE,
                            __ZN4TSCH6PreUFF18LegendModelArchiveC1ERKS1_,
                            __ZN4TSCH6PreUFF18LegendModelArchiveC2EPN6google8protobuf5ArenaE,
                            __ZN4TSCH6PreUFF18LegendModelArchiveC2ERKS1_,
                            __ZN4TSCH6PreUFF18LegendModelArchiveD0Ev,
                            __ZN4TSCH6PreUFF18LegendModelArchiveD1Ev,
                            __ZN4TSCH6PreUFF18LegendModelArchiveD2Ev,
                            __ZN4TSCH6PreUFF18LegendStyleArchive11clear_superEv,
                            __ZN4TSCH6PreUFF18LegendStyleArchive12InternalSwapEPS1_,
                            __ZN4TSCH6PreUFF18LegendStyleArchive14_InternalParseEPKcPN6google8protobuf8internal12ParseContextE,
                            __ZN4TSCH6PreUFF18LegendStyleArchive16default_instanceEv,
                            __ZN4TSCH6PreUFF18LegendStyleArchive32clear_tschlegendmodeldefaultfillEv,
                            __ZN4TSCH6PreUFF18LegendStyleArchive34clear_tschlegendmodeldefaultshadowEv,
                            __ZN4TSCH6PreUFF18LegendStyleArchive34clear_tschlegendmodeldefaultstrokeEv,
                            __ZN4TSCH6PreUFF18LegendStyleArchive5ClearEv,
                            __ZN4TSCH6PreUFF18LegendStyleArchive8CopyFromERKN6google8protobuf7MessageE,
                            __ZN4TSCH6PreUFF18LegendStyleArchive8CopyFromERKS1_,
                            __ZN4TSCH6PreUFF18LegendStyleArchive9ArenaDtorEPv,
                            __ZN4TSCH6PreUFF18LegendStyleArchive9MergeFromERKN6google8protobuf7MessageE,
                            __ZN4TSCH6PreUFF18LegendStyleArchive9MergeFromERKS1_,
                            __ZN4TSCH6PreUFF18LegendStyleArchive9_Internal26tschlegendmodeldefaultfillEPKS1_,
                            __ZN4TSCH6PreUFF18LegendStyleArchive9_Internal28tschlegendmodeldefaultshadowEPKS1_,
                            __ZN4TSCH6PreUFF18LegendStyleArchive9_Internal28tschlegendmodeldefaultstrokeEPKS1_,
                            __ZN4TSCH6PreUFF18LegendStyleArchive9_Internal5superEPKS1_,
                            __ZN4TSCH6PreUFF18LegendStyleArchiveC1EPN6google8protobuf5ArenaE,
                            __ZN4TSCH6PreUFF18LegendStyleArchiveC1ERKS1_,
                            __ZN4TSCH6PreUFF18LegendStyleArchiveC2EPN6google8protobuf5ArenaE,
                            __ZN4TSCH6PreUFF18LegendStyleArchiveC2ERKS1_,
                            __ZN4TSCH6PreUFF18LegendStyleArchiveD0Ev,
                            __ZN4TSCH6PreUFF18LegendStyleArchiveD1Ev,
                            __ZN4TSCH6PreUFF18LegendStyleArchiveD2Ev,
                            __ZN4TSCH6PreUFF20ChartNonStyleArchive11clear_superEv,
                            __ZN4TSCH6PreUFF20ChartNonStyleArchive12InternalSwapEPS1_,
                            __ZN4TSCH6PreUFF20ChartNonStyleArchive14_InternalParseEPKcPN6google8protobuf8internal12ParseContextE,
                            __ZN4TSCH6PreUFF20ChartNonStyleArchive16default_instanceEv,
                            __ZN4TSCH6PreUFF20ChartNonStyleArchive29clear_tschchartinfobar3dscaleEv,
                            __ZN4TSCH6PreUFF20ChartNonStyleArchive29clear_tschchartinfopie3dscaleEv,
                            __ZN4TSCH6PreUFF20ChartNonStyleArchive30clear_tschchartinfoarea3dscaleEv,
                            __ZN4TSCH6PreUFF20ChartNonStyleArchive30clear_tschchartinfoline3dscaleEv,
                            __ZN4TSCH6PreUFF20ChartNonStyleArchive32clear_tschchartinfocolumn3dscaleEv,
                            __ZN4TSCH6PreUFF20ChartNonStyleArchive33clear_tschchartinfodefault3dscaleEv,
                            __ZN4TSCH6PreUFF20ChartNonStyleArchive36clear_tschchartinfodefault3drotationEv,
                            __ZN4TSCH6PreUFF20ChartNonStyleArchive36clear_tschchartinfodefault3dviewportEv,
                            __ZN4TSCH6PreUFF20ChartNonStyleArchive49clear_tschchartinfobardeprecated3dlightingpackageEv,
                            __ZN4TSCH6PreUFF20ChartNonStyleArchive49clear_tschchartinfopiedeprecated3dlightingpackageEv,
                            __ZN4TSCH6PreUFF20ChartNonStyleArchive50clear_tschchartinfoareadeprecated3dlightingpackageEv,
                            __ZN4TSCH6PreUFF20ChartNonStyleArchive50clear_tschchartinfolinedeprecated3dlightingpackageEv,
                            __ZN4TSCH6PreUFF20ChartNonStyleArchive52clear_tschchartinfocolumndeprecated3dlightingpackageEv,
                            __ZN4TSCH6PreUFF20ChartNonStyleArchive53clear_tschchartinfodefaultdeprecated3dlightingpackageEv,
                            __ZN4TSCH6PreUFF20ChartNonStyleArchive5ClearEv,
                            __ZN4TSCH6PreUFF20ChartNonStyleArchive8CopyFromERKN6google8protobuf7MessageE,
                            __ZN4TSCH6PreUFF20ChartNonStyleArchive8CopyFromERKS1_,
                            __ZN4TSCH6PreUFF20ChartNonStyleArchive9ArenaDtorEPv,
                            __ZN4TSCH6PreUFF20ChartNonStyleArchive9MergeFromERKN6google8protobuf7MessageE,
                            __ZN4TSCH6PreUFF20ChartNonStyleArchive9MergeFromERKS1_,
                            __ZN4TSCH6PreUFF20ChartNonStyleArchive9_Internal23tschchartinfobar3dscaleEPKS1_,
                            __ZN4TSCH6PreUFF20ChartNonStyleArchive9_Internal23tschchartinfopie3dscaleEPKS1_,
                            __ZN4TSCH6PreUFF20ChartNonStyleArchive9_Internal24tschchartinfoarea3dscaleEPKS1_,
                            __ZN4TSCH6PreUFF20ChartNonStyleArchive9_Internal24tschchartinfoline3dscaleEPKS1_,
                            __ZN4TSCH6PreUFF20ChartNonStyleArchive9_Internal26tschchartinfocolumn3dscaleEPKS1_,
                            __ZN4TSCH6PreUFF20ChartNonStyleArchive9_Internal27tschchartinfodefault3dscaleEPKS1_,
                            __ZN4TSCH6PreUFF20ChartNonStyleArchive9_Internal30tschchartinfodefault3drotationEPKS1_,
                            __ZN4TSCH6PreUFF20ChartNonStyleArchive9_Internal30tschchartinfodefault3dviewportEPKS1_,
                            __ZN4TSCH6PreUFF20ChartNonStyleArchive9_Internal43tschchartinfobardeprecated3dlightingpackageEPKS1_,
                            __ZN4TSCH6PreUFF20ChartNonStyleArchive9_Internal43tschchartinfopiedeprecated3dlightingpackageEPKS1_,
                            __ZN4TSCH6PreUFF20ChartNonStyleArchive9_Internal44tschchartinfoareadeprecated3dlightingpackageEPKS1_,
                            __ZN4TSCH6PreUFF20ChartNonStyleArchive9_Internal44tschchartinfolinedeprecated3dlightingpackageEPKS1_,
                            __ZN4TSCH6PreUFF20ChartNonStyleArchive9_Internal46tschchartinfocolumndeprecated3dlightingpackageEPKS1_,
                            __ZN4TSCH6PreUFF20ChartNonStyleArchive9_Internal47tschchartinfodefaultdeprecated3dlightingpackageEPKS1_,
                            __ZN4TSCH6PreUFF20ChartNonStyleArchive9_Internal5superEPKS1_,
                            __ZN4TSCH6PreUFF20ChartNonStyleArchiveC1EPN6google8protobuf5ArenaE,
                            __ZN4TSCH6PreUFF20ChartNonStyleArchiveC1ERKS1_,
                            __ZN4TSCH6PreUFF20ChartNonStyleArchiveC2EPN6google8protobuf5ArenaE,
                            __ZN4TSCH6PreUFF20ChartNonStyleArchiveC2ERKS1_,
                            __ZN4TSCH6PreUFF20ChartNonStyleArchiveD0Ev,
                            __ZN4TSCH6PreUFF20ChartNonStyleArchiveD1Ev,
                            __ZN4TSCH6PreUFF20ChartNonStyleArchiveD2Ev,
                            __ZN4TSCH6PreUFF21ChartAxisStyleArchive11clear_superEv,
                            __ZN4TSCH6PreUFF21ChartAxisStyleArchive12InternalSwapEPS1_,
                            __ZN4TSCH6PreUFF21ChartAxisStyleArchive14_InternalParseEPKcPN6google8protobuf8internal12ParseContextE,
                            __ZN4TSCH6PreUFF21ChartAxisStyleArchive16default_instanceEv,
                            __ZN4TSCH6PreUFF21ChartAxisStyleArchive40clear_tschchartaxisvalue3dgridlinestrokeEv,
                            __ZN4TSCH6PreUFF21ChartAxisStyleArchive43clear_tschchartaxiscategory3dgridlinestrokeEv,
                            __ZN4TSCH6PreUFF21ChartAxisStyleArchive43clear_tschchartaxisvaluemajorgridlineshadowEv,
                            __ZN4TSCH6PreUFF21ChartAxisStyleArchive43clear_tschchartaxisvaluemajorgridlinestrokeEv,
                            __ZN4TSCH6PreUFF21ChartAxisStyleArchive43clear_tschchartaxisvalueminorgridlineshadowEv,
                            __ZN4TSCH6PreUFF21ChartAxisStyleArchive43clear_tschchartaxisvalueminorgridlinestrokeEv,
                            __ZN4TSCH6PreUFF21ChartAxisStyleArchive46clear_tschchartaxiscategorymajorgridlineshadowEv,
                            __ZN4TSCH6PreUFF21ChartAxisStyleArchive46clear_tschchartaxiscategorymajorgridlinestrokeEv,
                            __ZN4TSCH6PreUFF21ChartAxisStyleArchive46clear_tschchartaxiscategoryminorgridlineshadowEv,
                            __ZN4TSCH6PreUFF21ChartAxisStyleArchive46clear_tschchartaxiscategoryminorgridlinestrokeEv,
                            __ZN4TSCH6PreUFF21ChartAxisStyleArchive5ClearEv,
                            __ZN4TSCH6PreUFF21ChartAxisStyleArchive8CopyFromERKN6google8protobuf7MessageE,
                            __ZN4TSCH6PreUFF21ChartAxisStyleArchive8CopyFromERKS1_,
                            __ZN4TSCH6PreUFF21ChartAxisStyleArchive9ArenaDtorEPv,
                            __ZN4TSCH6PreUFF21ChartAxisStyleArchive9MergeFromERKN6google8protobuf7MessageE,
                            __ZN4TSCH6PreUFF21ChartAxisStyleArchive9MergeFromERKS1_,
                            __ZN4TSCH6PreUFF21ChartAxisStyleArchive9_Internal34tschchartaxisvalue3dgridlinestrokeEPKS1_,
                            __ZN4TSCH6PreUFF21ChartAxisStyleArchive9_Internal37tschchartaxiscategory3dgridlinestrokeEPKS1_,
                            __ZN4TSCH6PreUFF21ChartAxisStyleArchive9_Internal37tschchartaxisvaluemajorgridlineshadowEPKS1_,
                            __ZN4TSCH6PreUFF21ChartAxisStyleArchive9_Internal37tschchartaxisvaluemajorgridlinestrokeEPKS1_,
                            __ZN4TSCH6PreUFF21ChartAxisStyleArchive9_Internal37tschchartaxisvalueminorgridlineshadowEPKS1_,
                            __ZN4TSCH6PreUFF21ChartAxisStyleArchive9_Internal37tschchartaxisvalueminorgridlinestrokeEPKS1_,
                            __ZN4TSCH6PreUFF21ChartAxisStyleArchive9_Internal40tschchartaxiscategorymajorgridlineshadowEPKS1_,
                            __ZN4TSCH6PreUFF21ChartAxisStyleArchive9_Internal40tschchartaxiscategorymajorgridlinestrokeEPKS1_,
                            __ZN4TSCH6PreUFF21ChartAxisStyleArchive9_Internal40tschchartaxiscategoryminorgridlineshadowEPKS1_,
                            __ZN4TSCH6PreUFF21ChartAxisStyleArchive9_Internal40tschchartaxiscategoryminorgridlinestrokeEPKS1_,
                            __ZN4TSCH6PreUFF21ChartAxisStyleArchive9_Internal5superEPKS1_,
                            __ZN4TSCH6PreUFF21ChartAxisStyleArchiveC1EPN6google8protobuf5ArenaE,
                            __ZN4TSCH6PreUFF21ChartAxisStyleArchiveC1ERKS1_,
                            __ZN4TSCH6PreUFF21ChartAxisStyleArchiveC2EPN6google8protobuf5ArenaE,
                            __ZN4TSCH6PreUFF21ChartAxisStyleArchiveC2ERKS1_,
                            __ZN4TSCH6PreUFF21ChartAxisStyleArchiveD0Ev,
                            __ZN4TSCH6PreUFF21ChartAxisStyleArchiveD1Ev,
                            __ZN4TSCH6PreUFF21ChartAxisStyleArchiveD2Ev,
                            __ZN4TSCH6PreUFF21LegendNonStyleArchive11clear_superEv,
                            __ZN4TSCH6PreUFF21LegendNonStyleArchive12InternalSwapEPS1_,
                            __ZN4TSCH6PreUFF21LegendNonStyleArchive14_InternalParseEPKcPN6google8protobuf8internal12ParseContextE,
                            __ZN4TSCH6PreUFF21LegendNonStyleArchive16default_instanceEv,
                            __ZN4TSCH6PreUFF21LegendNonStyleArchive5ClearEv,
                            __ZN4TSCH6PreUFF21LegendNonStyleArchive8CopyFromERKN6google8protobuf7MessageE,
                            __ZN4TSCH6PreUFF21LegendNonStyleArchive8CopyFromERKS1_,
                            __ZN4TSCH6PreUFF21LegendNonStyleArchive9ArenaDtorEPv,
                            __ZN4TSCH6PreUFF21LegendNonStyleArchive9MergeFromERKN6google8protobuf7MessageE,
                            __ZN4TSCH6PreUFF21LegendNonStyleArchive9MergeFromERKS1_,
                            __ZN4TSCH6PreUFF21LegendNonStyleArchive9_Internal5superEPKS1_,
                            __ZN4TSCH6PreUFF21LegendNonStyleArchiveC1EPN6google8protobuf5ArenaE,
                            __ZN4TSCH6PreUFF21LegendNonStyleArchiveC1ERKS1_,
                            __ZN4TSCH6PreUFF21LegendNonStyleArchiveC2EPN6google8protobuf5ArenaE,
                            __ZN4TSCH6PreUFF21LegendNonStyleArchiveC2ERKS1_,
                            __ZN4TSCH6PreUFF21LegendNonStyleArchiveD0Ev,
                            __ZN4TSCH6PreUFF21LegendNonStyleArchiveD1Ev,
                            __ZN4TSCH6PreUFF21LegendNonStyleArchiveD2Ev,
                            __ZN4TSCH6PreUFF23ChartSeriesStyleArchive11clear_superEv,
                            __ZN4TSCH6PreUFF23ChartSeriesStyleArchive12InternalSwapEPS1_,
                            __ZN4TSCH6PreUFF23ChartSeriesStyleArchive14_InternalParseEPKcPN6google8protobuf8internal12ParseContextE,
                            __ZN4TSCH6PreUFF23ChartSeriesStyleArchive16default_instanceEv,
                            __ZN4TSCH6PreUFF23ChartSeriesStyleArchive28clear_tschchartseriesbarfillEv,
                            __ZN4TSCH6PreUFF23ChartSeriesStyleArchive28clear_tschchartseriespiefillEv,
                            __ZN4TSCH6PreUFF23ChartSeriesStyleArchive29clear_tschchartseriesareafillEv,
                            __ZN4TSCH6PreUFF23ChartSeriesStyleArchive30clear_tschchartseries3dbarfillEv,
                            __ZN4TSCH6PreUFF23ChartSeriesStyleArchive30clear_tschchartseries3dpiefillEv,
                            __ZN4TSCH6PreUFF23ChartSeriesStyleArchive30clear_tschchartseriesbarshadowEv,
                            __ZN4TSCH6PreUFF23ChartSeriesStyleArchive30clear_tschchartseriesbarstrokeEv,
                            __ZN4TSCH6PreUFF23ChartSeriesStyleArchive30clear_tschchartseriespieshadowEv,
                            __ZN4TSCH6PreUFF23ChartSeriesStyleArchive30clear_tschchartseriespiestrokeEv,
                            __ZN4TSCH6PreUFF23ChartSeriesStyleArchive31clear_tschchartseries3dareafillEv,
                            __ZN4TSCH6PreUFF23ChartSeriesStyleArchive31clear_tschchartseries3dlinefillEv,
                            __ZN4TSCH6PreUFF23ChartSeriesStyleArchive31clear_tschchartseriesareashadowEv,
                            __ZN4TSCH6PreUFF23ChartSeriesStyleArchive31clear_tschchartseriesareastrokeEv,
                            __ZN4TSCH6PreUFF23ChartSeriesStyleArchive31clear_tschchartseriescolumnfillEv,
                            __ZN4TSCH6PreUFF23ChartSeriesStyleArchive31clear_tschchartserieslineshadowEv,
                            __ZN4TSCH6PreUFF23ChartSeriesStyleArchive31clear_tschchartserieslinestrokeEv,
                            __ZN4TSCH6PreUFF23ChartSeriesStyleArchive32clear_tschchartseries3dbarshadowEv,
                            __ZN4TSCH6PreUFF23ChartSeriesStyleArchive32clear_tschchartseries3dpieshadowEv,
                            __ZN4TSCH6PreUFF23ChartSeriesStyleArchive32clear_tschchartseriesdefaultfillEv,
                            __ZN4TSCH6PreUFF23ChartSeriesStyleArchive33clear_tschchartseries3dareashadowEv,
                            __ZN4TSCH6PreUFF23ChartSeriesStyleArchive33clear_tschchartseries3dcolumnfillEv,
                            __ZN4TSCH6PreUFF23ChartSeriesStyleArchive33clear_tschchartseries3dlineshadowEv,
                            __ZN4TSCH6PreUFF23ChartSeriesStyleArchive33clear_tschchartseriesbubbleshadowEv,
                            __ZN4TSCH6PreUFF23ChartSeriesStyleArchive33clear_tschchartseriesbubblestrokeEv,
                            __ZN4TSCH6PreUFF23ChartSeriesStyleArchive34clear_tschchartseriesdefaultshadowEv,
                            __ZN4TSCH6PreUFF23ChartSeriesStyleArchive34clear_tschchartseriesmixedareafillEv,
                            __ZN4TSCH6PreUFF23ChartSeriesStyleArchive34clear_tschchartseriesscattershadowEv,
                            __ZN4TSCH6PreUFF23ChartSeriesStyleArchive34clear_tschchartseriesscatterstrokeEv,
                            __ZN4TSCH6PreUFF23ChartSeriesStyleArchive35clear_tschchartseries3dcolumnshadowEv,
                            __ZN4TSCH6PreUFF23ChartSeriesStyleArchive35clear_tschchartseriesareasymbolfillEv,
                            __ZN4TSCH6PreUFF23ChartSeriesStyleArchive35clear_tschchartserieslinesymbolfillEv,
                            __ZN4TSCH6PreUFF23ChartSeriesStyleArchive36clear_tschchartseriesmixedareashadowEv,
                            __ZN4TSCH6PreUFF23ChartSeriesStyleArchive36clear_tschchartseriesmixedareastrokeEv,
                            __ZN4TSCH6PreUFF23ChartSeriesStyleArchive36clear_tschchartseriesmixedcolumnfillEv,
                            __ZN4TSCH6PreUFF23ChartSeriesStyleArchive36clear_tschchartseriesmixedlineshadowEv,
                            __ZN4TSCH6PreUFF23ChartSeriesStyleArchive36clear_tschchartseriesmixedlinestrokeEv,
                            __ZN4TSCH6PreUFF23ChartSeriesStyleArchive37clear_tschchartseriesareasymbolstrokeEv,
                            __ZN4TSCH6PreUFF23ChartSeriesStyleArchive37clear_tschchartseriesbubblesymbolfillEv,
                            __ZN4TSCH6PreUFF23ChartSeriesStyleArchive37clear_tschchartserieslinesymbolstrokeEv,
                            __ZN4TSCH6PreUFF23ChartSeriesStyleArchive38clear_tschchartseriesmixedcolumnshadowEv,
                            __ZN4TSCH6PreUFF23ChartSeriesStyleArchive38clear_tschchartseriesmixedcolumnstrokeEv,
                            __ZN4TSCH6PreUFF23ChartSeriesStyleArchive38clear_tschchartseriesscattersymbolfillEv,
                            __ZN4TSCH6PreUFF23ChartSeriesStyleArchive39clear_tschchartseriesbubblesymbolstrokeEv,
                            __ZN4TSCH6PreUFF23ChartSeriesStyleArchive40clear_tschchartseriesbardeprecated3dfillEv,
                            __ZN4TSCH6PreUFF23ChartSeriesStyleArchive40clear_tschchartseriesmixedareasymbolfillEv,
                            __ZN4TSCH6PreUFF23ChartSeriesStyleArchive40clear_tschchartseriesmixedlinesymbolfillEv,
                            __ZN4TSCH6PreUFF23ChartSeriesStyleArchive40clear_tschchartseriespiedeprecated3dfillEv,
                            __ZN4TSCH6PreUFF23ChartSeriesStyleArchive40clear_tschchartseriesscattersymbolstrokeEv,
                            __ZN4TSCH6PreUFF23ChartSeriesStyleArchive41clear_tschchartseriesareadeprecated3dfillEv,
                            __ZN4TSCH6PreUFF23ChartSeriesStyleArchive41clear_tschchartserieslinedeprecated3dfillEv,
                            __ZN4TSCH6PreUFF23ChartSeriesStyleArchive42clear_tschchartseriesdefaulterrorbarshadowEv,
                            __ZN4TSCH6PreUFF23ChartSeriesStyleArchive42clear_tschchartseriesdefaulterrorbarstrokeEv,
                            __ZN4TSCH6PreUFF23ChartSeriesStyleArchive42clear_tschchartseriesmixedareasymbolstrokeEv,
                            __ZN4TSCH6PreUFF23ChartSeriesStyleArchive42clear_tschchartseriesmixedlinesymbolstrokeEv,
                            __ZN4TSCH6PreUFF23ChartSeriesStyleArchive43clear_tschchartseriescolumndeprecated3dfillEv,
                            __ZN4TSCH6PreUFF23ChartSeriesStyleArchive43clear_tschchartseriesdefaulterrorbarlineendEv,
                            __ZN4TSCH6PreUFF23ChartSeriesStyleArchive43clear_tschchartseriesdefaulttrendlineshadowEv,
                            __ZN4TSCH6PreUFF23ChartSeriesStyleArchive43clear_tschchartseriesdefaulttrendlinestrokeEv,
                            __ZN4TSCH6PreUFF23ChartSeriesStyleArchive44clear_tschchartseriesdefaultdeprecated3dfillEv,
                            __ZN4TSCH6PreUFF23ChartSeriesStyleArchive50clear_tschchartseriesdefaulterrorbarstrokescatterxEv,
                            __ZN4TSCH6PreUFF23ChartSeriesStyleArchive51clear_tschchartseriesdefaulterrorbarlineendscatterxEv,
                            __ZN4TSCH6PreUFF23ChartSeriesStyleArchive5ClearEv,
                            __ZN4TSCH6PreUFF23ChartSeriesStyleArchive8CopyFromERKN6google8protobuf7MessageE,
                            __ZN4TSCH6PreUFF23ChartSeriesStyleArchive8CopyFromERKS1_,
                            __ZN4TSCH6PreUFF23ChartSeriesStyleArchive9ArenaDtorEPv,
                            __ZN4TSCH6PreUFF23ChartSeriesStyleArchive9MergeFromERKN6google8protobuf7MessageE,
                            __ZN4TSCH6PreUFF23ChartSeriesStyleArchive9MergeFromERKS1_,
                            __ZN4TSCH6PreUFF23ChartSeriesStyleArchive9_Internal22tschchartseriesbarfillEPKS1_,
                            __ZN4TSCH6PreUFF23ChartSeriesStyleArchive9_Internal22tschchartseriespiefillEPKS1_,
                            __ZN4TSCH6PreUFF23ChartSeriesStyleArchive9_Internal23tschchartseriesareafillEPKS1_,
                            __ZN4TSCH6PreUFF23ChartSeriesStyleArchive9_Internal24tschchartseries3dbarfillEPKS1_,
                            __ZN4TSCH6PreUFF23ChartSeriesStyleArchive9_Internal24tschchartseries3dpiefillEPKS1_,
                            __ZN4TSCH6PreUFF23ChartSeriesStyleArchive9_Internal24tschchartseriesbarshadowEPKS1_,
                            __ZN4TSCH6PreUFF23ChartSeriesStyleArchive9_Internal24tschchartseriesbarstrokeEPKS1_,
                            __ZN4TSCH6PreUFF23ChartSeriesStyleArchive9_Internal24tschchartseriespieshadowEPKS1_,
                            __ZN4TSCH6PreUFF23ChartSeriesStyleArchive9_Internal24tschchartseriespiestrokeEPKS1_,
                            __ZN4TSCH6PreUFF23ChartSeriesStyleArchive9_Internal25tschchartseries3dareafillEPKS1_,
                            __ZN4TSCH6PreUFF23ChartSeriesStyleArchive9_Internal25tschchartseries3dlinefillEPKS1_,
                            __ZN4TSCH6PreUFF23ChartSeriesStyleArchive9_Internal25tschchartseriesareashadowEPKS1_,
                            __ZN4TSCH6PreUFF23ChartSeriesStyleArchive9_Internal25tschchartseriesareastrokeEPKS1_,
                            __ZN4TSCH6PreUFF23ChartSeriesStyleArchive9_Internal25tschchartseriescolumnfillEPKS1_,
                            __ZN4TSCH6PreUFF23ChartSeriesStyleArchive9_Internal25tschchartserieslineshadowEPKS1_,
                            __ZN4TSCH6PreUFF23ChartSeriesStyleArchive9_Internal25tschchartserieslinestrokeEPKS1_,
                            __ZN4TSCH6PreUFF23ChartSeriesStyleArchive9_Internal26tschchartseries3dbarshadowEPKS1_,
                            __ZN4TSCH6PreUFF23ChartSeriesStyleArchive9_Internal26tschchartseries3dpieshadowEPKS1_,
                            __ZN4TSCH6PreUFF23ChartSeriesStyleArchive9_Internal26tschchartseriesdefaultfillEPKS1_,
                            __ZN4TSCH6PreUFF23ChartSeriesStyleArchive9_Internal27tschchartseries3dareashadowEPKS1_,
                            __ZN4TSCH6PreUFF23ChartSeriesStyleArchive9_Internal27tschchartseries3dcolumnfillEPKS1_,
                            __ZN4TSCH6PreUFF23ChartSeriesStyleArchive9_Internal27tschchartseries3dlineshadowEPKS1_,
                            __ZN4TSCH6PreUFF23ChartSeriesStyleArchive9_Internal27tschchartseriesbubbleshadowEPKS1_,
                            __ZN4TSCH6PreUFF23ChartSeriesStyleArchive9_Internal27tschchartseriesbubblestrokeEPKS1_,
                            __ZN4TSCH6PreUFF23ChartSeriesStyleArchive9_Internal28tschchartseriesdefaultshadowEPKS1_,
                            __ZN4TSCH6PreUFF23ChartSeriesStyleArchive9_Internal28tschchartseriesmixedareafillEPKS1_,
                            __ZN4TSCH6PreUFF23ChartSeriesStyleArchive9_Internal28tschchartseriesscattershadowEPKS1_,
                            __ZN4TSCH6PreUFF23ChartSeriesStyleArchive9_Internal28tschchartseriesscatterstrokeEPKS1_,
                            __ZN4TSCH6PreUFF23ChartSeriesStyleArchive9_Internal29tschchartseries3dcolumnshadowEPKS1_,
                            __ZN4TSCH6PreUFF23ChartSeriesStyleArchive9_Internal29tschchartseriesareasymbolfillEPKS1_,
                            __ZN4TSCH6PreUFF23ChartSeriesStyleArchive9_Internal29tschchartserieslinesymbolfillEPKS1_,
                            __ZN4TSCH6PreUFF23ChartSeriesStyleArchive9_Internal30tschchartseriesmixedareashadowEPKS1_,
                            __ZN4TSCH6PreUFF23ChartSeriesStyleArchive9_Internal30tschchartseriesmixedareastrokeEPKS1_,
                            __ZN4TSCH6PreUFF23ChartSeriesStyleArchive9_Internal30tschchartseriesmixedcolumnfillEPKS1_,
                            __ZN4TSCH6PreUFF23ChartSeriesStyleArchive9_Internal30tschchartseriesmixedlineshadowEPKS1_,
                            __ZN4TSCH6PreUFF23ChartSeriesStyleArchive9_Internal30tschchartseriesmixedlinestrokeEPKS1_,
                            __ZN4TSCH6PreUFF23ChartSeriesStyleArchive9_Internal31tschchartseriesareasymbolstrokeEPKS1_,
                            __ZN4TSCH6PreUFF23ChartSeriesStyleArchive9_Internal31tschchartseriesbubblesymbolfillEPKS1_,
                            __ZN4TSCH6PreUFF23ChartSeriesStyleArchive9_Internal31tschchartserieslinesymbolstrokeEPKS1_,
                            __ZN4TSCH6PreUFF23ChartSeriesStyleArchive9_Internal32tschchartseriesmixedcolumnshadowEPKS1_,
                            __ZN4TSCH6PreUFF23ChartSeriesStyleArchive9_Internal32tschchartseriesmixedcolumnstrokeEPKS1_,
                            __ZN4TSCH6PreUFF23ChartSeriesStyleArchive9_Internal32tschchartseriesscattersymbolfillEPKS1_,
                            __ZN4TSCH6PreUFF23ChartSeriesStyleArchive9_Internal33tschchartseriesbubblesymbolstrokeEPKS1_,
                            __ZN4TSCH6PreUFF23ChartSeriesStyleArchive9_Internal34tschchartseriesbardeprecated3dfillEPKS1_,
                            __ZN4TSCH6PreUFF23ChartSeriesStyleArchive9_Internal34tschchartseriesmixedareasymbolfillEPKS1_,
                            __ZN4TSCH6PreUFF23ChartSeriesStyleArchive9_Internal34tschchartseriesmixedlinesymbolfillEPKS1_,
                            __ZN4TSCH6PreUFF23ChartSeriesStyleArchive9_Internal34tschchartseriespiedeprecated3dfillEPKS1_,
                            __ZN4TSCH6PreUFF23ChartSeriesStyleArchive9_Internal34tschchartseriesscattersymbolstrokeEPKS1_,
                            __ZN4TSCH6PreUFF23ChartSeriesStyleArchive9_Internal35tschchartseriesareadeprecated3dfillEPKS1_,
                            __ZN4TSCH6PreUFF23ChartSeriesStyleArchive9_Internal35tschchartserieslinedeprecated3dfillEPKS1_,
                            __ZN4TSCH6PreUFF23ChartSeriesStyleArchive9_Internal36tschchartseriesdefaulterrorbarshadowEPKS1_,
                            __ZN4TSCH6PreUFF23ChartSeriesStyleArchive9_Internal36tschchartseriesdefaulterrorbarstrokeEPKS1_,
                            __ZN4TSCH6PreUFF23ChartSeriesStyleArchive9_Internal36tschchartseriesmixedareasymbolstrokeEPKS1_,
                            __ZN4TSCH6PreUFF23ChartSeriesStyleArchive9_Internal36tschchartseriesmixedlinesymbolstrokeEPKS1_,
                            __ZN4TSCH6PreUFF23ChartSeriesStyleArchive9_Internal37tschchartseriescolumndeprecated3dfillEPKS1_,
                            __ZN4TSCH6PreUFF23ChartSeriesStyleArchive9_Internal37tschchartseriesdefaulterrorbarlineendEPKS1_,
                            __ZN4TSCH6PreUFF23ChartSeriesStyleArchive9_Internal37tschchartseriesdefaulttrendlineshadowEPKS1_,
                            __ZN4TSCH6PreUFF23ChartSeriesStyleArchive9_Internal37tschchartseriesdefaulttrendlinestrokeEPKS1_,
                            __ZN4TSCH6PreUFF23ChartSeriesStyleArchive9_Internal38tschchartseriesdefaultdeprecated3dfillEPKS1_,
                            __ZN4TSCH6PreUFF23ChartSeriesStyleArchive9_Internal44tschchartseriesdefaulterrorbarstrokescatterxEPKS1_,
                            __ZN4TSCH6PreUFF23ChartSeriesStyleArchive9_Internal45tschchartseriesdefaulterrorbarlineendscatterxEPKS1_,
                            __ZN4TSCH6PreUFF23ChartSeriesStyleArchive9_Internal5superEPKS1_,
                            __ZN4TSCH6PreUFF23ChartSeriesStyleArchiveC1EPN6google8protobuf5ArenaE,
                            __ZN4TSCH6PreUFF23ChartSeriesStyleArchiveC1ERKS1_,
                            __ZN4TSCH6PreUFF23ChartSeriesStyleArchiveC2EPN6google8protobuf5ArenaE,
                            __ZN4TSCH6PreUFF23ChartSeriesStyleArchiveC2ERKS1_,
                            __ZN4TSCH6PreUFF23ChartSeriesStyleArchiveD0Ev,
                            __ZN4TSCH6PreUFF23ChartSeriesStyleArchiveD1Ev,
                            __ZN4TSCH6PreUFF23ChartSeriesStyleArchiveD2Ev,
                            __ZN4TSCH6PreUFF24ChartAxisNonStyleArchive11clear_superEv,
                            __ZN4TSCH6PreUFF24ChartAxisNonStyleArchive12InternalSwapEPS1_,
                            __ZN4TSCH6PreUFF24ChartAxisNonStyleArchive14_InternalParseEPKcPN6google8protobuf8internal12ParseContextE,
                            __ZN4TSCH6PreUFF24ChartAxisNonStyleArchive16default_instanceEv,
                            __ZN4TSCH6PreUFF24ChartAxisNonStyleArchive33clear_tschchartaxisdefaultusermaxEv,
                            __ZN4TSCH6PreUFF24ChartAxisNonStyleArchive33clear_tschchartaxisdefaultuserminEv,
                            __ZN4TSCH6PreUFF24ChartAxisNonStyleArchive5ClearEv,
                            __ZN4TSCH6PreUFF24ChartAxisNonStyleArchive8CopyFromERKN6google8protobuf7MessageE,
                            __ZN4TSCH6PreUFF24ChartAxisNonStyleArchive8CopyFromERKS1_,
                            __ZN4TSCH6PreUFF24ChartAxisNonStyleArchive9ArenaDtorEPv,
                            __ZN4TSCH6PreUFF24ChartAxisNonStyleArchive9MergeFromERKN6google8protobuf7MessageE,
                            __ZN4TSCH6PreUFF24ChartAxisNonStyleArchive9MergeFromERKS1_,
                            __ZN4TSCH6PreUFF24ChartAxisNonStyleArchive9_Internal27tschchartaxisdefaultusermaxEPKS1_,
                            __ZN4TSCH6PreUFF24ChartAxisNonStyleArchive9_Internal27tschchartaxisdefaultuserminEPKS1_,
                            __ZN4TSCH6PreUFF24ChartAxisNonStyleArchive9_Internal32tschchartaxisdefaultnumberformatEPKS1_,
                            __ZN4TSCH6PreUFF24ChartAxisNonStyleArchive9_Internal5superEPKS1_,
                            __ZN4TSCH6PreUFF24ChartAxisNonStyleArchiveC1EPN6google8protobuf5ArenaE,
                            __ZN4TSCH6PreUFF24ChartAxisNonStyleArchiveC1ERKS1_,
                            __ZN4TSCH6PreUFF24ChartAxisNonStyleArchiveC2EPN6google8protobuf5ArenaE,
                            __ZN4TSCH6PreUFF24ChartAxisNonStyleArchiveC2ERKS1_,
                            __ZN4TSCH6PreUFF24ChartAxisNonStyleArchiveD0Ev,
                            __ZN4TSCH6PreUFF24ChartAxisNonStyleArchiveD1Ev,
                            __ZN4TSCH6PreUFF24ChartAxisNonStyleArchiveD2Ev,
                            __ZN4TSCH6PreUFF25ChartGridArchive_ValueRow12InternalSwapEPS1_,
                            __ZN4TSCH6PreUFF25ChartGridArchive_ValueRow14_InternalParseEPKcPN6google8protobuf8internal12ParseContextE,
                            __ZN4TSCH6PreUFF25ChartGridArchive_ValueRow16default_instanceEv,
                            __ZN4TSCH6PreUFF25ChartGridArchive_ValueRow5ClearEv,
                            __ZN4TSCH6PreUFF25ChartGridArchive_ValueRow8CopyFromERKN6google8protobuf7MessageE,
                            __ZN4TSCH6PreUFF25ChartGridArchive_ValueRow8CopyFromERKS1_,
                            __ZN4TSCH6PreUFF25ChartGridArchive_ValueRow9ArenaDtorEPv,
                            __ZN4TSCH6PreUFF25ChartGridArchive_ValueRow9MergeFromERKN6google8protobuf7MessageE,
                            __ZN4TSCH6PreUFF25ChartGridArchive_ValueRow9MergeFromERKS1_,
                            __ZN4TSCH6PreUFF25ChartGridArchive_ValueRowC1EPN6google8protobuf5ArenaE,
                            __ZN4TSCH6PreUFF25ChartGridArchive_ValueRowC1ERKS1_,
                            __ZN4TSCH6PreUFF25ChartGridArchive_ValueRowC2EPN6google8protobuf5ArenaE,
                            __ZN4TSCH6PreUFF25ChartGridArchive_ValueRowC2ERKS1_,
                            __ZN4TSCH6PreUFF25ChartGridArchive_ValueRowD0Ev,
                            __ZN4TSCH6PreUFF25ChartGridArchive_ValueRowD1Ev,
                            __ZN4TSCH6PreUFF25ChartGridArchive_ValueRowD2Ev,
                            __ZN4TSCH6PreUFF25ChartsNumberFormatArchive12InternalSwapEPS1_,
                            __ZN4TSCH6PreUFF25ChartsNumberFormatArchive14_InternalParseEPKcPN6google8protobuf8internal12ParseContextE,
                            __ZN4TSCH6PreUFF25ChartsNumberFormatArchive16default_instanceEv,
                            __ZN4TSCH6PreUFF25ChartsNumberFormatArchive43clear_interstitial_string_insertion_indexesEv,
                            __ZN4TSCH6PreUFF25ChartsNumberFormatArchive5ClearEv,
                            __ZN4TSCH6PreUFF25ChartsNumberFormatArchive8CopyFromERKN6google8protobuf7MessageE,
                            __ZN4TSCH6PreUFF25ChartsNumberFormatArchive8CopyFromERKS1_,
                            __ZN4TSCH6PreUFF25ChartsNumberFormatArchive9ArenaDtorEPv,
                            __ZN4TSCH6PreUFF25ChartsNumberFormatArchive9MergeFromERKN6google8protobuf7MessageE,
                            __ZN4TSCH6PreUFF25ChartsNumberFormatArchive9MergeFromERKS1_,
                            __ZN4TSCH6PreUFF25ChartsNumberFormatArchive9_Internal37interstitial_string_insertion_indexesEPKS1_,
                            __ZN4TSCH6PreUFF25ChartsNumberFormatArchiveC1EPN6google8protobuf5ArenaE,
                            __ZN4TSCH6PreUFF25ChartsNumberFormatArchiveC1ERKS1_,
                            __ZN4TSCH6PreUFF25ChartsNumberFormatArchiveC2EPN6google8protobuf5ArenaE,
                            __ZN4TSCH6PreUFF25ChartsNumberFormatArchiveC2ERKS1_,
                            __ZN4TSCH6PreUFF25ChartsNumberFormatArchiveD0Ev,
                            __ZN4TSCH6PreUFF25ChartsNumberFormatArchiveD1Ev,
                            __ZN4TSCH6PreUFF25ChartsNumberFormatArchiveD2Ev,
                            __ZN4TSCH6PreUFF26ChartSeriesNonStyleArchive11clear_superEv,
                            __ZN4TSCH6PreUFF26ChartSeriesNonStyleArchive12InternalSwapEPS1_,
                            __ZN4TSCH6PreUFF26ChartSeriesNonStyleArchive14_InternalParseEPKcPN6google8protobuf8internal12ParseContextE,
                            __ZN4TSCH6PreUFF26ChartSeriesNonStyleArchive16default_instanceEv,
                            __ZN4TSCH6PreUFF26ChartSeriesNonStyleArchive54clear_tschchartseriesdefaulterrorbarcustomnegativedataEv,
                            __ZN4TSCH6PreUFF26ChartSeriesNonStyleArchive54clear_tschchartseriesdefaulterrorbarcustompositivedataEv,
                            __ZN4TSCH6PreUFF26ChartSeriesNonStyleArchive5ClearEv,
                            __ZN4TSCH6PreUFF26ChartSeriesNonStyleArchive62clear_tschchartseriesdefaulterrorbarcustomnegativedatascatterxEv,
                            __ZN4TSCH6PreUFF26ChartSeriesNonStyleArchive62clear_tschchartseriesdefaulterrorbarcustompositivedatascatterxEv,
                            __ZN4TSCH6PreUFF26ChartSeriesNonStyleArchive8CopyFromERKN6google8protobuf7MessageE,
                            __ZN4TSCH6PreUFF26ChartSeriesNonStyleArchive8CopyFromERKS1_,
                            __ZN4TSCH6PreUFF26ChartSeriesNonStyleArchive9ArenaDtorEPv,
                            __ZN4TSCH6PreUFF26ChartSeriesNonStyleArchive9MergeFromERKN6google8protobuf7MessageE,
                            __ZN4TSCH6PreUFF26ChartSeriesNonStyleArchive9MergeFromERKS1_,
                            __ZN4TSCH6PreUFF26ChartSeriesNonStyleArchive9_Internal30tschchartseriespienumberformatEPKS1_,
                            __ZN4TSCH6PreUFF26ChartSeriesNonStyleArchive9_Internal34tschchartseriesdefaultnumberformatEPKS1_,
                            __ZN4TSCH6PreUFF26ChartSeriesNonStyleArchive9_Internal41tschchartseriesstackedpercentnumberformatEPKS1_,
                            __ZN4TSCH6PreUFF26ChartSeriesNonStyleArchive9_Internal48tschchartseriesdefaulterrorbarcustomnegativedataEPKS1_,
                            __ZN4TSCH6PreUFF26ChartSeriesNonStyleArchive9_Internal48tschchartseriesdefaulterrorbarcustompositivedataEPKS1_,
                            __ZN4TSCH6PreUFF26ChartSeriesNonStyleArchive9_Internal56tschchartseriesdefaulterrorbarcustomnegativedatascatterxEPKS1_,
                            __ZN4TSCH6PreUFF26ChartSeriesNonStyleArchive9_Internal56tschchartseriesdefaulterrorbarcustompositivedatascatterxEPKS1_,
                            __ZN4TSCH6PreUFF26ChartSeriesNonStyleArchive9_Internal5superEPKS1_,
                            __ZN4TSCH6PreUFF26ChartSeriesNonStyleArchiveC1EPN6google8protobuf5ArenaE,
                            __ZN4TSCH6PreUFF26ChartSeriesNonStyleArchiveC1ERKS1_,
                            __ZN4TSCH6PreUFF26ChartSeriesNonStyleArchiveC2EPN6google8protobuf5ArenaE,
                            __ZN4TSCH6PreUFF26ChartSeriesNonStyleArchiveC2ERKS1_,
                            __ZN4TSCH6PreUFF26ChartSeriesNonStyleArchiveD0Ev,
                            __ZN4TSCH6PreUFF26ChartSeriesNonStyleArchiveD1Ev,
                            __ZN4TSCH6PreUFF26ChartSeriesNonStyleArchiveD2Ev,
                            __ZN4TSCH6PreUFF35_ChartGridArchive_default_instance_E,
                            __ZN4TSCH6PreUFF35_ChartInfoArchive_default_instance_E,
                            __ZN4TSCH6PreUFF36_ChartModelArchive_default_instance_E,
                            __ZN4TSCH6PreUFF36_ChartStyleArchive_default_instance_E,
                            __ZN4TSCH6PreUFF37_LegendModelArchive_default_instance_E,
                            __ZN4TSCH6PreUFF37_LegendStyleArchive_default_instance_E,
                            __ZN4TSCH6PreUFF39_ChartNonStyleArchive_default_instance_E,
                            __ZN4TSCH6PreUFF40_ChartAxisStyleArchive_default_instance_E,
                            __ZN4TSCH6PreUFF40_LegendNonStyleArchive_default_instance_E,
                            __ZN4TSCH6PreUFF42_ChartSeriesStyleArchive_default_instance_E,
                            __ZN4TSCH6PreUFF43_ChartAxisNonStyleArchive_default_instance_E,
                            __ZN4TSCH6PreUFF44_ChartGridArchive_ValueRow_default_instance_E,
                            __ZN4TSCH6PreUFF44_ChartsNumberFormatArchive_default_instance_E,
                            __ZN4TSCH6PreUFF45_ChartSeriesNonStyleArchive_default_instance_E,
                            __ZN4TSCH6fill3dE,
                            __ZN4TSCH70CommandMutatePropertiesArchive_GenericPropertyDeltaMap_GenericMapUnion12InternalSwapEPS0_,
                            __ZN4TSCH70CommandMutatePropertiesArchive_GenericPropertyDeltaMap_GenericMapUnion14_InternalParseEPKcPN6google8protobuf8internal12ParseContextE,
                            __ZN4TSCH70CommandMutatePropertiesArchive_GenericPropertyDeltaMap_GenericMapUnion14clear_axis_mapEv,
                            __ZN4TSCH70CommandMutatePropertiesArchive_GenericPropertyDeltaMap_GenericMapUnion15clear_chart_mapEv,
                            __ZN4TSCH70CommandMutatePropertiesArchive_GenericPropertyDeltaMap_GenericMapUnion16clear_legend_mapEv,
                            __ZN4TSCH70CommandMutatePropertiesArchive_GenericPropertyDeltaMap_GenericMapUnion16clear_series_mapEv,
                            __ZN4TSCH70CommandMutatePropertiesArchive_GenericPropertyDeltaMap_GenericMapUnion16default_instanceEv,
                            __ZN4TSCH70CommandMutatePropertiesArchive_GenericPropertyDeltaMap_GenericMapUnion24clear_reference_line_mapEv,
                            __ZN4TSCH70CommandMutatePropertiesArchive_GenericPropertyDeltaMap_GenericMapUnion5ClearEv,
                            __ZN4TSCH70CommandMutatePropertiesArchive_GenericPropertyDeltaMap_GenericMapUnion8CopyFromERKN6google8protobuf7MessageE,
                            __ZN4TSCH70CommandMutatePropertiesArchive_GenericPropertyDeltaMap_GenericMapUnion8CopyFromERKS0_,
                            __ZN4TSCH70CommandMutatePropertiesArchive_GenericPropertyDeltaMap_GenericMapUnion9ArenaDtorEPv,
                            __ZN4TSCH70CommandMutatePropertiesArchive_GenericPropertyDeltaMap_GenericMapUnion9MergeFromERKN6google8protobuf7MessageE,
                            __ZN4TSCH70CommandMutatePropertiesArchive_GenericPropertyDeltaMap_GenericMapUnion9MergeFromERKS0_,
                            __ZN4TSCH70CommandMutatePropertiesArchive_GenericPropertyDeltaMap_GenericMapUnion9_Internal10legend_mapEPKS0_,
                            __ZN4TSCH70CommandMutatePropertiesArchive_GenericPropertyDeltaMap_GenericMapUnion9_Internal10series_mapEPKS0_,
                            __ZN4TSCH70CommandMutatePropertiesArchive_GenericPropertyDeltaMap_GenericMapUnion9_Internal18reference_line_mapEPKS0_,
                            __ZN4TSCH70CommandMutatePropertiesArchive_GenericPropertyDeltaMap_GenericMapUnion9_Internal8axis_mapEPKS0_,
                            __ZN4TSCH70CommandMutatePropertiesArchive_GenericPropertyDeltaMap_GenericMapUnion9_Internal9chart_mapEPKS0_,
                            __ZN4TSCH70CommandMutatePropertiesArchive_GenericPropertyDeltaMap_GenericMapUnionC1EPN6google8protobuf5ArenaE,
                            __ZN4TSCH70CommandMutatePropertiesArchive_GenericPropertyDeltaMap_GenericMapUnionC1ERKS0_,
                            __ZN4TSCH70CommandMutatePropertiesArchive_GenericPropertyDeltaMap_GenericMapUnionC2EPN6google8protobuf5ArenaE,
                            __ZN4TSCH70CommandMutatePropertiesArchive_GenericPropertyDeltaMap_GenericMapUnionC2ERKS0_,
                            __ZN4TSCH70CommandMutatePropertiesArchive_GenericPropertyDeltaMap_GenericMapUnionD0Ev,
                            __ZN4TSCH70CommandMutatePropertiesArchive_GenericPropertyDeltaMap_GenericMapUnionD1Ev,
                            __ZN4TSCH70CommandMutatePropertiesArchive_GenericPropertyDeltaMap_GenericMapUnionD2Ev,
                            __ZN4TSCH72_CommandMutatePropertiesArchive_ParagraphStyleDeltaMap_default_instance_E,
                            __ZN4TSCH73_CommandMutatePropertiesArchive_GenericPropertyDeltaMap_default_instance_E,
                            __ZN4TSCH73_CommandReplaceCustomFormatArchive_FormatObjectMutation_default_instance_E,
                            __ZN4TSCH74_CommandReplaceThemePresetArchive_StyleAndIdentifierPair_default_instance_E,
                            __ZN4TSCH7GridRow12InternalSwapEPS0_,
                            __ZN4TSCH7GridRow14_InternalParseEPKcPN6google8protobuf8internal12ParseContextE,
                            __ZN4TSCH7GridRow16default_instanceEv,
                            __ZN4TSCH7GridRow5ClearEv,
                            __ZN4TSCH7GridRow8CopyFromERKN6google8protobuf7MessageE,
                            __ZN4TSCH7GridRow8CopyFromERKS0_,
                            __ZN4TSCH7GridRow9ArenaDtorEPv,
                            __ZN4TSCH7GridRow9MergeFromERKN6google8protobuf7MessageE,
                            __ZN4TSCH7GridRow9MergeFromERKS0_,
                            __ZN4TSCH7GridRowC1EPN6google8protobuf5ArenaE,
                            __ZN4TSCH7GridRowC1ERKS0_,
                            __ZN4TSCH7GridRowC2EPN6google8protobuf5ArenaE,
                            __ZN4TSCH7GridRowC2ERKS0_, __ZN4TSCH7GridRowD0Ev,
                            __ZN4TSCH7GridRowD1Ev, __ZN4TSCH7GridRowD2Ev,
                            __ZN4TSCH80_CommandSetFontFamilyArchive_SemanticParagraphStyleMutationMap_default_instance_E,
                            __ZN4TSCH86CommandMutatePropertiesArchive_ParagraphStyleDeltaMap_ParagraphStylePropertyMapArchive12InternalSwapEPS0_,
                            __ZN4TSCH86CommandMutatePropertiesArchive_ParagraphStyleDeltaMap_ParagraphStylePropertyMapArchive14_InternalParseEPKcPN6google8protobuf8internal12ParseContextE,
                            __ZN4TSCH86CommandMutatePropertiesArchive_ParagraphStyleDeltaMap_ParagraphStylePropertyMapArchive16default_instanceEv,
                            __ZN4TSCH86CommandMutatePropertiesArchive_ParagraphStyleDeltaMap_ParagraphStylePropertyMapArchive21clear_char_propertiesEv,
                            __ZN4TSCH86CommandMutatePropertiesArchive_ParagraphStyleDeltaMap_ParagraphStylePropertyMapArchive21clear_para_propertiesEv,
                            __ZN4TSCH86CommandMutatePropertiesArchive_ParagraphStyleDeltaMap_ParagraphStylePropertyMapArchive5ClearEv,
                            __ZN4TSCH86CommandMutatePropertiesArchive_ParagraphStyleDeltaMap_ParagraphStylePropertyMapArchive8CopyFromERKN6google8protobuf7MessageE,
                            __ZN4TSCH86CommandMutatePropertiesArchive_ParagraphStyleDeltaMap_ParagraphStylePropertyMapArchive8CopyFromERKS0_,
                            __ZN4TSCH86CommandMutatePropertiesArchive_ParagraphStyleDeltaMap_ParagraphStylePropertyMapArchive9ArenaDtorEPv,
                            __ZN4TSCH86CommandMutatePropertiesArchive_ParagraphStyleDeltaMap_ParagraphStylePropertyMapArchive9MergeFromERKN6google8protobuf7MessageE,
                            __ZN4TSCH86CommandMutatePropertiesArchive_ParagraphStyleDeltaMap_ParagraphStylePropertyMapArchive9MergeFromERKS0_,
                            __ZN4TSCH86CommandMutatePropertiesArchive_ParagraphStyleDeltaMap_ParagraphStylePropertyMapArchive9_Internal15char_propertiesEPKS0_,
                            __ZN4TSCH86CommandMutatePropertiesArchive_ParagraphStyleDeltaMap_ParagraphStylePropertyMapArchive9_Internal15para_propertiesEPKS0_,
                            __ZN4TSCH86CommandMutatePropertiesArchive_ParagraphStyleDeltaMap_ParagraphStylePropertyMapArchiveC1EPN6google8protobuf5ArenaE,
                            __ZN4TSCH86CommandMutatePropertiesArchive_ParagraphStyleDeltaMap_ParagraphStylePropertyMapArchiveC1ERKS0_,
                            __ZN4TSCH86CommandMutatePropertiesArchive_ParagraphStyleDeltaMap_ParagraphStylePropertyMapArchiveC2EPN6google8protobuf5ArenaE,
                            __ZN4TSCH86CommandMutatePropertiesArchive_ParagraphStyleDeltaMap_ParagraphStylePropertyMapArchiveC2ERKS0_,
                            __ZN4TSCH86CommandMutatePropertiesArchive_ParagraphStyleDeltaMap_ParagraphStylePropertyMapArchiveD0Ev,
                            __ZN4TSCH86CommandMutatePropertiesArchive_ParagraphStyleDeltaMap_ParagraphStylePropertyMapArchiveD1Ev,
                            __ZN4TSCH86CommandMutatePropertiesArchive_ParagraphStyleDeltaMap_ParagraphStylePropertyMapArchiveD2Ev,
                            __ZN4TSCH89_CommandMutatePropertiesArchive_GenericPropertyDeltaMap_GenericMapUnion_default_instance_E,
                            __ZN4TSCH94CommandSetFontFamilyArchive_SemanticParagraphStyleMutationMap_ParagraphStylePropertyMapArchive12InternalSwapEPS0_,
                            __ZN4TSCH94CommandSetFontFamilyArchive_SemanticParagraphStyleMutationMap_ParagraphStylePropertyMapArchive14_InternalParseEPKcPN6google8protobuf8internal12ParseContextE,
                            __ZN4TSCH94CommandSetFontFamilyArchive_SemanticParagraphStyleMutationMap_ParagraphStylePropertyMapArchive16default_instanceEv,
                            __ZN4TSCH94CommandSetFontFamilyArchive_SemanticParagraphStyleMutationMap_ParagraphStylePropertyMapArchive21clear_char_propertiesEv,
                            __ZN4TSCH94CommandSetFontFamilyArchive_SemanticParagraphStyleMutationMap_ParagraphStylePropertyMapArchive21clear_para_propertiesEv,
                            __ZN4TSCH94CommandSetFontFamilyArchive_SemanticParagraphStyleMutationMap_ParagraphStylePropertyMapArchive5ClearEv,
                            __ZN4TSCH94CommandSetFontFamilyArchive_SemanticParagraphStyleMutationMap_ParagraphStylePropertyMapArchive8CopyFromERKN6google8protobuf7MessageE,
                            __ZN4TSCH94CommandSetFontFamilyArchive_SemanticParagraphStyleMutationMap_ParagraphStylePropertyMapArchive8CopyFromERKS0_,
                            __ZN4TSCH94CommandSetFontFamilyArchive_SemanticParagraphStyleMutationMap_ParagraphStylePropertyMapArchive9ArenaDtorEPv,
                            __ZN4TSCH94CommandSetFontFamilyArchive_SemanticParagraphStyleMutationMap_ParagraphStylePropertyMapArchive9MergeFromERKN6google8protobuf7MessageE,
                            __ZN4TSCH94CommandSetFontFamilyArchive_SemanticParagraphStyleMutationMap_ParagraphStylePropertyMapArchive9MergeFromERKS0_,
                            __ZN4TSCH94CommandSetFontFamilyArchive_SemanticParagraphStyleMutationMap_ParagraphStylePropertyMapArchive9_Internal15char_propertiesEPKS0_,
                            __ZN4TSCH94CommandSetFontFamilyArchive_SemanticParagraphStyleMutationMap_ParagraphStylePropertyMapArchive9_Internal15para_propertiesEPKS0_,
                            __ZN4TSCH94CommandSetFontFamilyArchive_SemanticParagraphStyleMutationMap_ParagraphStylePropertyMapArchiveC1EPN6google8protobuf5ArenaE,
                            __ZN4TSCH94CommandSetFontFamilyArchive_SemanticParagraphStyleMutationMap_ParagraphStylePropertyMapArchiveC1ERKS0_,
                            __ZN4TSCH94CommandSetFontFamilyArchive_SemanticParagraphStyleMutationMap_ParagraphStylePropertyMapArchiveC2EPN6google8protobuf5ArenaE,
                            __ZN4TSCH94CommandSetFontFamilyArchive_SemanticParagraphStyleMutationMap_ParagraphStylePropertyMapArchiveC2ERKS0_,
                            __ZN4TSCH94CommandSetFontFamilyArchive_SemanticParagraphStyleMutationMap_ParagraphStylePropertyMapArchiveD0Ev,
                            __ZN4TSCH94CommandSetFontFamilyArchive_SemanticParagraphStyleMutationMap_ParagraphStylePropertyMapArchiveD1Ev,
                            __ZN4TSCH94CommandSetFontFamilyArchive_SemanticParagraphStyleMutationMap_ParagraphStylePropertyMapArchiveD2Ev,
                            __ZN4TSCH9Generated17ChartStyleArchive12InternalSwapEPS1_,
                            __ZN4TSCH9Generated17ChartStyleArchive14_InternalParseEPKcPN6google8protobuf8internal12ParseContextE,
                            __ZN4TSCH9Generated17ChartStyleArchive16default_instanceEv,
                            __ZN4TSCH9Generated17ChartStyleArchive19kCurrentFieldNumberE,
                            __ZN4TSCH9Generated17ChartStyleArchive36clear_tschchartinfodefaulttitlecolorEv,
                            __ZN4TSCH9Generated17ChartStyleArchive38clear_tschchartinfodefaultbordershadowEv,
                            __ZN4TSCH9Generated17ChartStyleArchive38clear_tschchartinfodefaultborderstrokeEv,
                            __ZN4TSCH9Generated17ChartStyleArchive39clear_tschchartinfobar3dlightingpackageEv,
                            __ZN4TSCH9Generated17ChartStyleArchive39clear_tschchartinfopie3dlightingpackageEv,
                            __ZN4TSCH9Generated17ChartStyleArchive40clear_tschchartinfoarea3dlightingpackageEv,
                            __ZN4TSCH9Generated17ChartStyleArchive40clear_tschchartinfodefaultbackgroundfillEv,
                            __ZN4TSCH9Generated17ChartStyleArchive40clear_tschchartinfoline3dlightingpackageEv,
                            __ZN4TSCH9Generated17ChartStyleArchive42clear_tschchartinfocolumn3dlightingpackageEv,
                            __ZN4TSCH9Generated17ChartStyleArchive42clear_tschchartinfodefaultbackgroundstrokeEv,
                            __ZN4TSCH9Generated17ChartStyleArchive43clear_tschchartinfodefault3dlightingpackageEv,
                            __ZN4TSCH9Generated17ChartStyleArchive44clear_tschchartinfodefaultgridbackgroundfillEv,
                            __ZN4TSCH9Generated17ChartStyleArchive5ClearEv,
                            __ZN4TSCH9Generated17ChartStyleArchive7currentE,
                            __ZN4TSCH9Generated17ChartStyleArchive8CopyFromERKN6google8protobuf7MessageE,
                            __ZN4TSCH9Generated17ChartStyleArchive8CopyFromERKS1_,
                            __ZN4TSCH9Generated17ChartStyleArchive9ArenaDtorEPv,
                            __ZN4TSCH9Generated17ChartStyleArchive9MergeFromERKN6google8protobuf7MessageE,
                            __ZN4TSCH9Generated17ChartStyleArchive9MergeFromERKS1_,
                            __ZN4TSCH9Generated17ChartStyleArchive9_Internal30tschchartinfodefaulttitlecolorEPKS1_,
                            __ZN4TSCH9Generated17ChartStyleArchive9_Internal32tschchartinfodefaultbordershadowEPKS1_,
                            __ZN4TSCH9Generated17ChartStyleArchive9_Internal32tschchartinfodefaultborderstrokeEPKS1_,
                            __ZN4TSCH9Generated17ChartStyleArchive9_Internal33tschchartinfobar3dlightingpackageEPKS1_,
                            __ZN4TSCH9Generated17ChartStyleArchive9_Internal33tschchartinfopie3dlightingpackageEPKS1_,
                            __ZN4TSCH9Generated17ChartStyleArchive9_Internal34tschchartinfoarea3dlightingpackageEPKS1_,
                            __ZN4TSCH9Generated17ChartStyleArchive9_Internal34tschchartinfodefaultbackgroundfillEPKS1_,
                            __ZN4TSCH9Generated17ChartStyleArchive9_Internal34tschchartinfoline3dlightingpackageEPKS1_,
                            __ZN4TSCH9Generated17ChartStyleArchive9_Internal36tschchartinfocolumn3dlightingpackageEPKS1_,
                            __ZN4TSCH9Generated17ChartStyleArchive9_Internal36tschchartinfodefaultbackgroundstrokeEPKS1_,
                            __ZN4TSCH9Generated17ChartStyleArchive9_Internal37tschchartinfodefault3dlightingpackageEPKS1_,
                            __ZN4TSCH9Generated17ChartStyleArchive9_Internal38tschchartinfodefaultgridbackgroundfillEPKS1_,
                            __ZN4TSCH9Generated17ChartStyleArchiveC1EPN6google8protobuf5ArenaE,
                            __ZN4TSCH9Generated17ChartStyleArchiveC1ERKS1_,
                            __ZN4TSCH9Generated17ChartStyleArchiveC2EPN6google8protobuf5ArenaE,
                            __ZN4TSCH9Generated17ChartStyleArchiveC2ERKS1_,
                            __ZN4TSCH9Generated17ChartStyleArchiveD0Ev,
                            __ZN4TSCH9Generated17ChartStyleArchiveD1Ev,
                            __ZN4TSCH9Generated17ChartStyleArchiveD2Ev,
                            __ZN4TSCH9Generated18LegendStyleArchive12InternalSwapEPS1_,
                            __ZN4TSCH9Generated18LegendStyleArchive14_InternalParseEPKcPN6google8protobuf8internal12ParseContextE,
                            __ZN4TSCH9Generated18LegendStyleArchive16default_instanceEv,
                            __ZN4TSCH9Generated18LegendStyleArchive19kCurrentFieldNumberE,
                            __ZN4TSCH9Generated18LegendStyleArchive32clear_tschlegendmodeldefaultfillEv,
                            __ZN4TSCH9Generated18LegendStyleArchive34clear_tschlegendmodeldefaultshadowEv,
                            __ZN4TSCH9Generated18LegendStyleArchive34clear_tschlegendmodeldefaultstrokeEv,
                            __ZN4TSCH9Generated18LegendStyleArchive5ClearEv,
                            __ZN4TSCH9Generated18LegendStyleArchive7currentE,
                            __ZN4TSCH9Generated18LegendStyleArchive8CopyFromERKN6google8protobuf7MessageE,
                            __ZN4TSCH9Generated18LegendStyleArchive8CopyFromERKS1_,
                            __ZN4TSCH9Generated18LegendStyleArchive9ArenaDtorEPv,
                            __ZN4TSCH9Generated18LegendStyleArchive9MergeFromERKN6google8protobuf7MessageE,
                            __ZN4TSCH9Generated18LegendStyleArchive9MergeFromERKS1_,
                            __ZN4TSCH9Generated18LegendStyleArchive9_Internal26tschlegendmodeldefaultfillEPKS1_,
                            __ZN4TSCH9Generated18LegendStyleArchive9_Internal28tschlegendmodeldefaultshadowEPKS1_,
                            __ZN4TSCH9Generated18LegendStyleArchive9_Internal28tschlegendmodeldefaultstrokeEPKS1_,
                            __ZN4TSCH9Generated18LegendStyleArchiveC1EPN6google8protobuf5ArenaE,
                            __ZN4TSCH9Generated18LegendStyleArchiveC1ERKS1_,
                            __ZN4TSCH9Generated18LegendStyleArchiveC2EPN6google8protobuf5ArenaE,
                            __ZN4TSCH9Generated18LegendStyleArchiveC2ERKS1_,
                            __ZN4TSCH9Generated18LegendStyleArchiveD0Ev,
                            __ZN4TSCH9Generated18LegendStyleArchiveD1Ev,
                            __ZN4TSCH9Generated18LegendStyleArchiveD2Ev,
                            __ZN4TSCH9Generated20ChartNonStyleArchive12InternalSwapEPS1_,
                            __ZN4TSCH9Generated20ChartNonStyleArchive14_InternalParseEPKcPN6google8protobuf8internal12ParseContextE,
                            __ZN4TSCH9Generated20ChartNonStyleArchive16default_instanceEv,
                            __ZN4TSCH9Generated20ChartNonStyleArchive19kCurrentFieldNumberE,
                            __ZN4TSCH9Generated20ChartNonStyleArchive29clear_tschchartinfobar3dscaleEv,
                            __ZN4TSCH9Generated20ChartNonStyleArchive29clear_tschchartinfopie3dscaleEv,
                            __ZN4TSCH9Generated20ChartNonStyleArchive30clear_tschchartinfoarea3dscaleEv,
                            __ZN4TSCH9Generated20ChartNonStyleArchive30clear_tschchartinfoline3dscaleEv,
                            __ZN4TSCH9Generated20ChartNonStyleArchive32clear_tschchartinfocolumn3dscaleEv,
                            __ZN4TSCH9Generated20ChartNonStyleArchive33clear_tschchartinfodefault3dscaleEv,
                            __ZN4TSCH9Generated20ChartNonStyleArchive36clear_tschchartinfodefault3drotationEv,
                            __ZN4TSCH9Generated20ChartNonStyleArchive36clear_tschchartinfodefault3dviewportEv,
                            __ZN4TSCH9Generated20ChartNonStyleArchive5ClearEv,
                            __ZN4TSCH9Generated20ChartNonStyleArchive7currentE,
                            __ZN4TSCH9Generated20ChartNonStyleArchive8CopyFromERKN6google8protobuf7MessageE,
                            __ZN4TSCH9Generated20ChartNonStyleArchive8CopyFromERKS1_,
                            __ZN4TSCH9Generated20ChartNonStyleArchive9ArenaDtorEPv,
                            __ZN4TSCH9Generated20ChartNonStyleArchive9MergeFromERKN6google8protobuf7MessageE,
                            __ZN4TSCH9Generated20ChartNonStyleArchive9MergeFromERKS1_,
                            __ZN4TSCH9Generated20ChartNonStyleArchive9_Internal23tschchartinfobar3dscaleEPKS1_,
                            __ZN4TSCH9Generated20ChartNonStyleArchive9_Internal23tschchartinfopie3dscaleEPKS1_,
                            __ZN4TSCH9Generated20ChartNonStyleArchive9_Internal24tschchartinfoarea3dscaleEPKS1_,
                            __ZN4TSCH9Generated20ChartNonStyleArchive9_Internal24tschchartinfoline3dscaleEPKS1_,
                            __ZN4TSCH9Generated20ChartNonStyleArchive9_Internal26tschchartinfocolumn3dscaleEPKS1_,
                            __ZN4TSCH9Generated20ChartNonStyleArchive9_Internal27tschchartinfodefault3dscaleEPKS1_,
                            __ZN4TSCH9Generated20ChartNonStyleArchive9_Internal30tschchartinfodefault3drotationEPKS1_,
                            __ZN4TSCH9Generated20ChartNonStyleArchive9_Internal30tschchartinfodefault3dviewportEPKS1_,
                            __ZN4TSCH9Generated20ChartNonStyleArchiveC1EPN6google8protobuf5ArenaE,
                            __ZN4TSCH9Generated20ChartNonStyleArchiveC1ERKS1_,
                            __ZN4TSCH9Generated20ChartNonStyleArchiveC2EPN6google8protobuf5ArenaE,
                            __ZN4TSCH9Generated20ChartNonStyleArchiveC2ERKS1_,
                            __ZN4TSCH9Generated20ChartNonStyleArchiveD0Ev,
                            __ZN4TSCH9Generated20ChartNonStyleArchiveD1Ev,
                            __ZN4TSCH9Generated20ChartNonStyleArchiveD2Ev,
                            __ZN4TSCH9Generated21ChartAxisStyleArchive12InternalSwapEPS1_,
                            __ZN4TSCH9Generated21ChartAxisStyleArchive14_InternalParseEPKcPN6google8protobuf8internal12ParseContextE,
                            __ZN4TSCH9Generated21ChartAxisStyleArchive16default_instanceEv,
                            __ZN4TSCH9Generated21ChartAxisStyleArchive19kCurrentFieldNumberE,
                            __ZN4TSCH9Generated21ChartAxisStyleArchive40clear_tschchartaxisvalue3dgridlinestrokeEv,
                            __ZN4TSCH9Generated21ChartAxisStyleArchive43clear_tschchartaxiscategory3dgridlinestrokeEv,
                            __ZN4TSCH9Generated21ChartAxisStyleArchive43clear_tschchartaxisvaluemajorgridlineshadowEv,
                            __ZN4TSCH9Generated21ChartAxisStyleArchive43clear_tschchartaxisvaluemajorgridlinestrokeEv,
                            __ZN4TSCH9Generated21ChartAxisStyleArchive43clear_tschchartaxisvalueminorgridlineshadowEv,
                            __ZN4TSCH9Generated21ChartAxisStyleArchive43clear_tschchartaxisvalueminorgridlinestrokeEv,
                            __ZN4TSCH9Generated21ChartAxisStyleArchive46clear_tschchartaxiscategorymajorgridlineshadowEv,
                            __ZN4TSCH9Generated21ChartAxisStyleArchive46clear_tschchartaxiscategorymajorgridlinestrokeEv,
                            __ZN4TSCH9Generated21ChartAxisStyleArchive46clear_tschchartaxiscategoryminorgridlineshadowEv,
                            __ZN4TSCH9Generated21ChartAxisStyleArchive46clear_tschchartaxiscategoryminorgridlinestrokeEv,
                            __ZN4TSCH9Generated21ChartAxisStyleArchive5ClearEv,
                            __ZN4TSCH9Generated21ChartAxisStyleArchive7currentE,
                            __ZN4TSCH9Generated21ChartAxisStyleArchive8CopyFromERKN6google8protobuf7MessageE,
                            __ZN4TSCH9Generated21ChartAxisStyleArchive8CopyFromERKS1_,
                            __ZN4TSCH9Generated21ChartAxisStyleArchive9ArenaDtorEPv,
                            __ZN4TSCH9Generated21ChartAxisStyleArchive9MergeFromERKN6google8protobuf7MessageE,
                            __ZN4TSCH9Generated21ChartAxisStyleArchive9MergeFromERKS1_,
                            __ZN4TSCH9Generated21ChartAxisStyleArchive9_Internal34tschchartaxisvalue3dgridlinestrokeEPKS1_,
                            __ZN4TSCH9Generated21ChartAxisStyleArchive9_Internal37tschchartaxiscategory3dgridlinestrokeEPKS1_,
                            __ZN4TSCH9Generated21ChartAxisStyleArchive9_Internal37tschchartaxisvaluemajorgridlineshadowEPKS1_,
                            __ZN4TSCH9Generated21ChartAxisStyleArchive9_Internal37tschchartaxisvaluemajorgridlinestrokeEPKS1_,
                            __ZN4TSCH9Generated21ChartAxisStyleArchive9_Internal37tschchartaxisvalueminorgridlineshadowEPKS1_,
                            __ZN4TSCH9Generated21ChartAxisStyleArchive9_Internal37tschchartaxisvalueminorgridlinestrokeEPKS1_,
                            __ZN4TSCH9Generated21ChartAxisStyleArchive9_Internal40tschchartaxiscategorymajorgridlineshadowEPKS1_,
                            __ZN4TSCH9Generated21ChartAxisStyleArchive9_Internal40tschchartaxiscategorymajorgridlinestrokeEPKS1_,
                            __ZN4TSCH9Generated21ChartAxisStyleArchive9_Internal40tschchartaxiscategoryminorgridlineshadowEPKS1_,
                            __ZN4TSCH9Generated21ChartAxisStyleArchive9_Internal40tschchartaxiscategoryminorgridlinestrokeEPKS1_,
                            __ZN4TSCH9Generated21ChartAxisStyleArchiveC1EPN6google8protobuf5ArenaE,
                            __ZN4TSCH9Generated21ChartAxisStyleArchiveC1ERKS1_,
                            __ZN4TSCH9Generated21ChartAxisStyleArchiveC2EPN6google8protobuf5ArenaE,
                            __ZN4TSCH9Generated21ChartAxisStyleArchiveC2ERKS1_,
                            __ZN4TSCH9Generated21ChartAxisStyleArchiveD0Ev,
                            __ZN4TSCH9Generated21ChartAxisStyleArchiveD1Ev,
                            __ZN4TSCH9Generated21ChartAxisStyleArchiveD2Ev,
                            __ZN4TSCH9Generated21LegendNonStyleArchive12InternalSwapEPS1_,
                            __ZN4TSCH9Generated21LegendNonStyleArchive14_InternalParseEPKcPN6google8protobuf8internal12ParseContextE,
                            __ZN4TSCH9Generated21LegendNonStyleArchive16default_instanceEv,
                            __ZN4TSCH9Generated21LegendNonStyleArchive19kCurrentFieldNumberE,
                            __ZN4TSCH9Generated21LegendNonStyleArchive5ClearEv,
                            __ZN4TSCH9Generated21LegendNonStyleArchive7currentE,
                            __ZN4TSCH9Generated21LegendNonStyleArchive8CopyFromERKN6google8protobuf7MessageE,
                            __ZN4TSCH9Generated21LegendNonStyleArchive8CopyFromERKS1_,
                            __ZN4TSCH9Generated21LegendNonStyleArchive9ArenaDtorEPv,
                            __ZN4TSCH9Generated21LegendNonStyleArchive9MergeFromERKN6google8protobuf7MessageE,
                            __ZN4TSCH9Generated21LegendNonStyleArchive9MergeFromERKS1_,
                            __ZN4TSCH9Generated21LegendNonStyleArchiveC1EPN6google8protobuf5ArenaE,
                            __ZN4TSCH9Generated21LegendNonStyleArchiveC1ERKS1_,
                            __ZN4TSCH9Generated21LegendNonStyleArchiveC2EPN6google8protobuf5ArenaE,
                            __ZN4TSCH9Generated21LegendNonStyleArchiveC2ERKS1_,
                            __ZN4TSCH9Generated21LegendNonStyleArchiveD0Ev,
                            __ZN4TSCH9Generated21LegendNonStyleArchiveD1Ev,
                            __ZN4TSCH9Generated21LegendNonStyleArchiveD2Ev,
                            __ZN4TSCH9Generated23ChartSeriesStyleArchive12InternalSwapEPS1_,
                            __ZN4TSCH9Generated23ChartSeriesStyleArchive14_InternalParseEPKcPN6google8protobuf8internal12ParseContextE,
                            __ZN4TSCH9Generated23ChartSeriesStyleArchive16default_instanceEv,
                            __ZN4TSCH9Generated23ChartSeriesStyleArchive19kCurrentFieldNumberE,
                            __ZN4TSCH9Generated23ChartSeriesStyleArchive28clear_tschchartseriesbarfillEv,
                            __ZN4TSCH9Generated23ChartSeriesStyleArchive28clear_tschchartseriespiefillEv,
                            __ZN4TSCH9Generated23ChartSeriesStyleArchive29clear_tschchartseriesareafillEv,
                            __ZN4TSCH9Generated23ChartSeriesStyleArchive30clear_tschchartseries3dbarfillEv,
                            __ZN4TSCH9Generated23ChartSeriesStyleArchive30clear_tschchartseries3dpiefillEv,
                            __ZN4TSCH9Generated23ChartSeriesStyleArchive30clear_tschchartseriesbarshadowEv,
                            __ZN4TSCH9Generated23ChartSeriesStyleArchive30clear_tschchartseriesbarstrokeEv,
                            __ZN4TSCH9Generated23ChartSeriesStyleArchive30clear_tschchartseriespieshadowEv,
                            __ZN4TSCH9Generated23ChartSeriesStyleArchive30clear_tschchartseriespiestrokeEv,
                            __ZN4TSCH9Generated23ChartSeriesStyleArchive31clear_tschchartseries3dareafillEv,
                            __ZN4TSCH9Generated23ChartSeriesStyleArchive31clear_tschchartseries3dlinefillEv,
                            __ZN4TSCH9Generated23ChartSeriesStyleArchive31clear_tschchartseriesareashadowEv,
                            __ZN4TSCH9Generated23ChartSeriesStyleArchive31clear_tschchartseriesareastrokeEv,
                            __ZN4TSCH9Generated23ChartSeriesStyleArchive31clear_tschchartseriescolumnfillEv,
                            __ZN4TSCH9Generated23ChartSeriesStyleArchive31clear_tschchartserieslineshadowEv,
                            __ZN4TSCH9Generated23ChartSeriesStyleArchive31clear_tschchartserieslinestrokeEv,
                            __ZN4TSCH9Generated23ChartSeriesStyleArchive32clear_tschchartseries3dbarshadowEv,
                            __ZN4TSCH9Generated23ChartSeriesStyleArchive32clear_tschchartseries3dpieshadowEv,
                            __ZN4TSCH9Generated23ChartSeriesStyleArchive32clear_tschchartseriesdefaultfillEv,
                            __ZN4TSCH9Generated23ChartSeriesStyleArchive33clear_tschchartseries3dareashadowEv,
                            __ZN4TSCH9Generated23ChartSeriesStyleArchive33clear_tschchartseries3dcolumnfillEv,
                            __ZN4TSCH9Generated23ChartSeriesStyleArchive33clear_tschchartseries3dlineshadowEv,
                            __ZN4TSCH9Generated23ChartSeriesStyleArchive33clear_tschchartseriesbubbleshadowEv,
                            __ZN4TSCH9Generated23ChartSeriesStyleArchive33clear_tschchartseriesbubblestrokeEv,
                            __ZN4TSCH9Generated23ChartSeriesStyleArchive34clear_tschchartseriesdefaultshadowEv,
                            __ZN4TSCH9Generated23ChartSeriesStyleArchive34clear_tschchartseriesmixedareafillEv,
                            __ZN4TSCH9Generated23ChartSeriesStyleArchive34clear_tschchartseriesradarareafillEv,
                            __ZN4TSCH9Generated23ChartSeriesStyleArchive34clear_tschchartseriesscattershadowEv,
                            __ZN4TSCH9Generated23ChartSeriesStyleArchive34clear_tschchartseriesscatterstrokeEv,
                            __ZN4TSCH9Generated23ChartSeriesStyleArchive35clear_tschchartseries3dcolumnshadowEv,
                            __ZN4TSCH9Generated23ChartSeriesStyleArchive35clear_tschchartseriesareasymbolfillEv,
                            __ZN4TSCH9Generated23ChartSeriesStyleArchive35clear_tschchartserieslinesymbolfillEv,
                            __ZN4TSCH9Generated23ChartSeriesStyleArchive36clear_tschchartseriesmixedareashadowEv,
                            __ZN4TSCH9Generated23ChartSeriesStyleArchive36clear_tschchartseriesmixedareastrokeEv,
                            __ZN4TSCH9Generated23ChartSeriesStyleArchive36clear_tschchartseriesmixedcolumnfillEv,
                            __ZN4TSCH9Generated23ChartSeriesStyleArchive36clear_tschchartseriesmixedlineshadowEv,
                            __ZN4TSCH9Generated23ChartSeriesStyleArchive36clear_tschchartseriesmixedlinestrokeEv,
                            __ZN4TSCH9Generated23ChartSeriesStyleArchive36clear_tschchartseriesradarareashadowEv,
                            __ZN4TSCH9Generated23ChartSeriesStyleArchive36clear_tschchartseriesradarareastrokeEv,
                            __ZN4TSCH9Generated23ChartSeriesStyleArchive37clear_tschchartseriesareasymbolstrokeEv,
                            __ZN4TSCH9Generated23ChartSeriesStyleArchive37clear_tschchartseriesbubblesymbolfillEv,
                            __ZN4TSCH9Generated23ChartSeriesStyleArchive37clear_tschchartserieslinesymbolstrokeEv,
                            __ZN4TSCH9Generated23ChartSeriesStyleArchive38clear_tschchartseriesmixedcolumnshadowEv,
                            __ZN4TSCH9Generated23ChartSeriesStyleArchive38clear_tschchartseriesmixedcolumnstrokeEv,
                            __ZN4TSCH9Generated23ChartSeriesStyleArchive38clear_tschchartseriesscattersymbolfillEv,
                            __ZN4TSCH9Generated23ChartSeriesStyleArchive39clear_tschchartseriesbubblesymbolstrokeEv,
                            __ZN4TSCH9Generated23ChartSeriesStyleArchive40clear_tschchartseriesmixedareasymbolfillEv,
                            __ZN4TSCH9Generated23ChartSeriesStyleArchive40clear_tschchartseriesmixedlinesymbolfillEv,
                            __ZN4TSCH9Generated23ChartSeriesStyleArchive40clear_tschchartseriesradarareasymbolfillEv,
                            __ZN4TSCH9Generated23ChartSeriesStyleArchive40clear_tschchartseriesscattersymbolstrokeEv,
                            __ZN4TSCH9Generated23ChartSeriesStyleArchive42clear_tschchartseriesdefaulterrorbarshadowEv,
                            __ZN4TSCH9Generated23ChartSeriesStyleArchive42clear_tschchartseriesdefaulterrorbarstrokeEv,
                            __ZN4TSCH9Generated23ChartSeriesStyleArchive42clear_tschchartseriesmixedareasymbolstrokeEv,
                            __ZN4TSCH9Generated23ChartSeriesStyleArchive42clear_tschchartseriesmixedlinesymbolstrokeEv,
                            __ZN4TSCH9Generated23ChartSeriesStyleArchive42clear_tschchartseriesradarareasymbolstrokeEv,
                            __ZN4TSCH9Generated23ChartSeriesStyleArchive43clear_tschchartseriesdefaulterrorbarlineendEv,
                            __ZN4TSCH9Generated23ChartSeriesStyleArchive43clear_tschchartseriesdefaulttrendlineshadowEv,
                            __ZN4TSCH9Generated23ChartSeriesStyleArchive43clear_tschchartseriesdefaulttrendlinestrokeEv,
                            __ZN4TSCH9Generated23ChartSeriesStyleArchive49clear_tschchartseriesdefaultcalloutlineendlineendEv,
                            __ZN4TSCH9Generated23ChartSeriesStyleArchive50clear_tschchartseriesdefaultcalloutlinestrokestyleEv,
                            __ZN4TSCH9Generated23ChartSeriesStyleArchive50clear_tschchartseriesdefaulterrorbarstrokescatterxEv,
                            __ZN4TSCH9Generated23ChartSeriesStyleArchive51clear_tschchartseriesdefaultcalloutlinestartlineendEv,
                            __ZN4TSCH9Generated23ChartSeriesStyleArchive51clear_tschchartseriesdefaulterrorbarlineendscatterxEv,
                            __ZN4TSCH9Generated23ChartSeriesStyleArchive5ClearEv,
                            __ZN4TSCH9Generated23ChartSeriesStyleArchive7currentE,
                            __ZN4TSCH9Generated23ChartSeriesStyleArchive8CopyFromERKN6google8protobuf7MessageE,
                            __ZN4TSCH9Generated23ChartSeriesStyleArchive8CopyFromERKS1_,
                            __ZN4TSCH9Generated23ChartSeriesStyleArchive9ArenaDtorEPv,
                            __ZN4TSCH9Generated23ChartSeriesStyleArchive9MergeFromERKN6google8protobuf7MessageE,
                            __ZN4TSCH9Generated23ChartSeriesStyleArchive9MergeFromERKS1_,
                            __ZN4TSCH9Generated23ChartSeriesStyleArchive9_Internal22tschchartseriesbarfillEPKS1_,
                            __ZN4TSCH9Generated23ChartSeriesStyleArchive9_Internal22tschchartseriespiefillEPKS1_,
                            __ZN4TSCH9Generated23ChartSeriesStyleArchive9_Internal23tschchartseriesareafillEPKS1_,
                            __ZN4TSCH9Generated23ChartSeriesStyleArchive9_Internal24tschchartseries3dbarfillEPKS1_,
                            __ZN4TSCH9Generated23ChartSeriesStyleArchive9_Internal24tschchartseries3dpiefillEPKS1_,
                            __ZN4TSCH9Generated23ChartSeriesStyleArchive9_Internal24tschchartseriesbarshadowEPKS1_,
                            __ZN4TSCH9Generated23ChartSeriesStyleArchive9_Internal24tschchartseriesbarstrokeEPKS1_,
                            __ZN4TSCH9Generated23ChartSeriesStyleArchive9_Internal24tschchartseriespieshadowEPKS1_,
                            __ZN4TSCH9Generated23ChartSeriesStyleArchive9_Internal24tschchartseriespiestrokeEPKS1_,
                            __ZN4TSCH9Generated23ChartSeriesStyleArchive9_Internal25tschchartseries3dareafillEPKS1_,
                            __ZN4TSCH9Generated23ChartSeriesStyleArchive9_Internal25tschchartseries3dlinefillEPKS1_,
                            __ZN4TSCH9Generated23ChartSeriesStyleArchive9_Internal25tschchartseriesareashadowEPKS1_,
                            __ZN4TSCH9Generated23ChartSeriesStyleArchive9_Internal25tschchartseriesareastrokeEPKS1_,
                            __ZN4TSCH9Generated23ChartSeriesStyleArchive9_Internal25tschchartseriescolumnfillEPKS1_,
                            __ZN4TSCH9Generated23ChartSeriesStyleArchive9_Internal25tschchartserieslineshadowEPKS1_,
                            __ZN4TSCH9Generated23ChartSeriesStyleArchive9_Internal25tschchartserieslinestrokeEPKS1_,
                            __ZN4TSCH9Generated23ChartSeriesStyleArchive9_Internal26tschchartseries3dbarshadowEPKS1_,
                            __ZN4TSCH9Generated23ChartSeriesStyleArchive9_Internal26tschchartseries3dpieshadowEPKS1_,
                            __ZN4TSCH9Generated23ChartSeriesStyleArchive9_Internal26tschchartseriesdefaultfillEPKS1_,
                            __ZN4TSCH9Generated23ChartSeriesStyleArchive9_Internal27tschchartseries3dareashadowEPKS1_,
                            __ZN4TSCH9Generated23ChartSeriesStyleArchive9_Internal27tschchartseries3dcolumnfillEPKS1_,
                            __ZN4TSCH9Generated23ChartSeriesStyleArchive9_Internal27tschchartseries3dlineshadowEPKS1_,
                            __ZN4TSCH9Generated23ChartSeriesStyleArchive9_Internal27tschchartseriesbubbleshadowEPKS1_,
                            __ZN4TSCH9Generated23ChartSeriesStyleArchive9_Internal27tschchartseriesbubblestrokeEPKS1_,
                            __ZN4TSCH9Generated23ChartSeriesStyleArchive9_Internal28tschchartseriesdefaultshadowEPKS1_,
                            __ZN4TSCH9Generated23ChartSeriesStyleArchive9_Internal28tschchartseriesmixedareafillEPKS1_,
                            __ZN4TSCH9Generated23ChartSeriesStyleArchive9_Internal28tschchartseriesradarareafillEPKS1_,
                            __ZN4TSCH9Generated23ChartSeriesStyleArchive9_Internal28tschchartseriesscattershadowEPKS1_,
                            __ZN4TSCH9Generated23ChartSeriesStyleArchive9_Internal28tschchartseriesscatterstrokeEPKS1_,
                            __ZN4TSCH9Generated23ChartSeriesStyleArchive9_Internal29tschchartseries3dcolumnshadowEPKS1_,
                            __ZN4TSCH9Generated23ChartSeriesStyleArchive9_Internal29tschchartseriesareasymbolfillEPKS1_,
                            __ZN4TSCH9Generated23ChartSeriesStyleArchive9_Internal29tschchartserieslinesymbolfillEPKS1_,
                            __ZN4TSCH9Generated23ChartSeriesStyleArchive9_Internal30tschchartseriesmixedareashadowEPKS1_,
                            __ZN4TSCH9Generated23ChartSeriesStyleArchive9_Internal30tschchartseriesmixedareastrokeEPKS1_,
                            __ZN4TSCH9Generated23ChartSeriesStyleArchive9_Internal30tschchartseriesmixedcolumnfillEPKS1_,
                            __ZN4TSCH9Generated23ChartSeriesStyleArchive9_Internal30tschchartseriesmixedlineshadowEPKS1_,
                            __ZN4TSCH9Generated23ChartSeriesStyleArchive9_Internal30tschchartseriesmixedlinestrokeEPKS1_,
                            __ZN4TSCH9Generated23ChartSeriesStyleArchive9_Internal30tschchartseriesradarareashadowEPKS1_,
                            __ZN4TSCH9Generated23ChartSeriesStyleArchive9_Internal30tschchartseriesradarareastrokeEPKS1_,
                            __ZN4TSCH9Generated23ChartSeriesStyleArchive9_Internal31tschchartseriesareasymbolstrokeEPKS1_,
                            __ZN4TSCH9Generated23ChartSeriesStyleArchive9_Internal31tschchartseriesbubblesymbolfillEPKS1_,
                            __ZN4TSCH9Generated23ChartSeriesStyleArchive9_Internal31tschchartserieslinesymbolstrokeEPKS1_,
                            __ZN4TSCH9Generated23ChartSeriesStyleArchive9_Internal32tschchartseriesmixedcolumnshadowEPKS1_,
                            __ZN4TSCH9Generated23ChartSeriesStyleArchive9_Internal32tschchartseriesmixedcolumnstrokeEPKS1_,
                            __ZN4TSCH9Generated23ChartSeriesStyleArchive9_Internal32tschchartseriesscattersymbolfillEPKS1_,
                            __ZN4TSCH9Generated23ChartSeriesStyleArchive9_Internal33tschchartseriesbubblesymbolstrokeEPKS1_,
                            __ZN4TSCH9Generated23ChartSeriesStyleArchive9_Internal34tschchartseriesmixedareasymbolfillEPKS1_,
                            __ZN4TSCH9Generated23ChartSeriesStyleArchive9_Internal34tschchartseriesmixedlinesymbolfillEPKS1_,
                            __ZN4TSCH9Generated23ChartSeriesStyleArchive9_Internal34tschchartseriesradarareasymbolfillEPKS1_,
                            __ZN4TSCH9Generated23ChartSeriesStyleArchive9_Internal34tschchartseriesscattersymbolstrokeEPKS1_,
                            __ZN4TSCH9Generated23ChartSeriesStyleArchive9_Internal36tschchartseriesdefaulterrorbarshadowEPKS1_,
                            __ZN4TSCH9Generated23ChartSeriesStyleArchive9_Internal36tschchartseriesdefaulterrorbarstrokeEPKS1_,
                            __ZN4TSCH9Generated23ChartSeriesStyleArchive9_Internal36tschchartseriesmixedareasymbolstrokeEPKS1_,
                            __ZN4TSCH9Generated23ChartSeriesStyleArchive9_Internal36tschchartseriesmixedlinesymbolstrokeEPKS1_,
                            __ZN4TSCH9Generated23ChartSeriesStyleArchive9_Internal36tschchartseriesradarareasymbolstrokeEPKS1_,
                            __ZN4TSCH9Generated23ChartSeriesStyleArchive9_Internal37tschchartseriesdefaulterrorbarlineendEPKS1_,
                            __ZN4TSCH9Generated23ChartSeriesStyleArchive9_Internal37tschchartseriesdefaulttrendlineshadowEPKS1_,
                            __ZN4TSCH9Generated23ChartSeriesStyleArchive9_Internal37tschchartseriesdefaulttrendlinestrokeEPKS1_,
                            __ZN4TSCH9Generated23ChartSeriesStyleArchive9_Internal43tschchartseriesdefaultcalloutlineendlineendEPKS1_,
                            __ZN4TSCH9Generated23ChartSeriesStyleArchive9_Internal44tschchartseriesdefaultcalloutlinestrokestyleEPKS1_,
                            __ZN4TSCH9Generated23ChartSeriesStyleArchive9_Internal44tschchartseriesdefaulterrorbarstrokescatterxEPKS1_,
                            __ZN4TSCH9Generated23ChartSeriesStyleArchive9_Internal45tschchartseriesdefaultcalloutlinestartlineendEPKS1_,
                            __ZN4TSCH9Generated23ChartSeriesStyleArchive9_Internal45tschchartseriesdefaulterrorbarlineendscatterxEPKS1_,
                            __ZN4TSCH9Generated23ChartSeriesStyleArchiveC1EPN6google8protobuf5ArenaE,
                            __ZN4TSCH9Generated23ChartSeriesStyleArchiveC1ERKS1_,
                            __ZN4TSCH9Generated23ChartSeriesStyleArchiveC2EPN6google8protobuf5ArenaE,
                            __ZN4TSCH9Generated23ChartSeriesStyleArchiveC2ERKS1_,
                            __ZN4TSCH9Generated23ChartSeriesStyleArchiveD0Ev,
                            __ZN4TSCH9Generated23ChartSeriesStyleArchiveD1Ev,
                            __ZN4TSCH9Generated23ChartSeriesStyleArchiveD2Ev,
                            __ZN4TSCH9Generated24ChartAxisNonStyleArchive12InternalSwapEPS1_,
                            __ZN4TSCH9Generated24ChartAxisNonStyleArchive14_InternalParseEPKcPN6google8protobuf8internal12ParseContextE,
                            __ZN4TSCH9Generated24ChartAxisNonStyleArchive16default_instanceEv,
                            __ZN4TSCH9Generated24ChartAxisNonStyleArchive19kCurrentFieldNumberE,
                            __ZN4TSCH9Generated24ChartAxisNonStyleArchive33clear_tschchartaxisdefaultusermaxEv,
                            __ZN4TSCH9Generated24ChartAxisNonStyleArchive33clear_tschchartaxisdefaultuserminEv,
                            __ZN4TSCH9Generated24ChartAxisNonStyleArchive36clear_tschchartaxisdefaultdateformatEv,
                            __ZN4TSCH9Generated24ChartAxisNonStyleArchive38clear_tschchartaxisdefaultnumberformatEv,
                            __ZN4TSCH9Generated24ChartAxisNonStyleArchive39clear_tschchartaxisdefault1_0dateformatEv,
                            __ZN4TSCH9Generated24ChartAxisNonStyleArchive40clear_tschchartaxisdefaultdurationformatEv,
                            __ZN4TSCH9Generated24ChartAxisNonStyleArchive41clear_tschchartaxisdefault1_0numberformatEv,
                            __ZN4TSCH9Generated24ChartAxisNonStyleArchive5ClearEv,
                            __ZN4TSCH9Generated24ChartAxisNonStyleArchive7currentE,
                            __ZN4TSCH9Generated24ChartAxisNonStyleArchive8CopyFromERKN6google8protobuf7MessageE,
                            __ZN4TSCH9Generated24ChartAxisNonStyleArchive8CopyFromERKS1_,
                            __ZN4TSCH9Generated24ChartAxisNonStyleArchive9ArenaDtorEPv,
                            __ZN4TSCH9Generated24ChartAxisNonStyleArchive9MergeFromERKN6google8protobuf7MessageE,
                            __ZN4TSCH9Generated24ChartAxisNonStyleArchive9MergeFromERKS1_,
                            __ZN4TSCH9Generated24ChartAxisNonStyleArchive9_Internal27tschchartaxisdefaultusermaxEPKS1_,
                            __ZN4TSCH9Generated24ChartAxisNonStyleArchive9_Internal27tschchartaxisdefaultuserminEPKS1_,
                            __ZN4TSCH9Generated24ChartAxisNonStyleArchive9_Internal30tschchartaxisdefaultdateformatEPKS1_,
                            __ZN4TSCH9Generated24ChartAxisNonStyleArchive9_Internal32tschchartaxisdefaultnumberformatEPKS1_,
                            __ZN4TSCH9Generated24ChartAxisNonStyleArchive9_Internal33tschchartaxisdefault1_0dateformatEPKS1_,
                            __ZN4TSCH9Generated24ChartAxisNonStyleArchive9_Internal34tschchartaxisdefaultdurationformatEPKS1_,
                            __ZN4TSCH9Generated24ChartAxisNonStyleArchive9_Internal35tschchartaxisdefault1_0numberformatEPKS1_,
                            __ZN4TSCH9Generated24ChartAxisNonStyleArchiveC1EPN6google8protobuf5ArenaE,
                            __ZN4TSCH9Generated24ChartAxisNonStyleArchiveC1ERKS1_,
                            __ZN4TSCH9Generated24ChartAxisNonStyleArchiveC2EPN6google8protobuf5ArenaE,
                            __ZN4TSCH9Generated24ChartAxisNonStyleArchiveC2ERKS1_,
                            __ZN4TSCH9Generated24ChartAxisNonStyleArchiveD0Ev,
                            __ZN4TSCH9Generated24ChartAxisNonStyleArchiveD1Ev,
                            __ZN4TSCH9Generated24ChartAxisNonStyleArchiveD2Ev,
                            __ZN4TSCH9Generated25ReferenceLineStyleArchive12InternalSwapEPS1_,
                            __ZN4TSCH9Generated25ReferenceLineStyleArchive14_InternalParseEPKcPN6google8protobuf8internal12ParseContextE,
                            __ZN4TSCH9Generated25ReferenceLineStyleArchive16default_instanceEv,
                            __ZN4TSCH9Generated25ReferenceLineStyleArchive19kCurrentFieldNumberE,
                            __ZN4TSCH9Generated25ReferenceLineStyleArchive36clear_tschreferencelinedefaultshadowEv,
                            __ZN4TSCH9Generated25ReferenceLineStyleArchive36clear_tschreferencelinedefaultstrokeEv,
                            __ZN4TSCH9Generated25ReferenceLineStyleArchive5ClearEv,
                            __ZN4TSCH9Generated25ReferenceLineStyleArchive7currentE,
                            __ZN4TSCH9Generated25ReferenceLineStyleArchive8CopyFromERKN6google8protobuf7MessageE,
                            __ZN4TSCH9Generated25ReferenceLineStyleArchive8CopyFromERKS1_,
                            __ZN4TSCH9Generated25ReferenceLineStyleArchive9ArenaDtorEPv,
                            __ZN4TSCH9Generated25ReferenceLineStyleArchive9MergeFromERKN6google8protobuf7MessageE,
                            __ZN4TSCH9Generated25ReferenceLineStyleArchive9MergeFromERKS1_,
                            __ZN4TSCH9Generated25ReferenceLineStyleArchive9_Internal30tschreferencelinedefaultshadowEPKS1_,
                            __ZN4TSCH9Generated25ReferenceLineStyleArchive9_Internal30tschreferencelinedefaultstrokeEPKS1_,
                            __ZN4TSCH9Generated25ReferenceLineStyleArchiveC1EPN6google8protobuf5ArenaE,
                            __ZN4TSCH9Generated25ReferenceLineStyleArchiveC1ERKS1_,
                            __ZN4TSCH9Generated25ReferenceLineStyleArchiveC2EPN6google8protobuf5ArenaE,
                            __ZN4TSCH9Generated25ReferenceLineStyleArchiveC2ERKS1_,
                            __ZN4TSCH9Generated25ReferenceLineStyleArchiveD0Ev,
                            __ZN4TSCH9Generated25ReferenceLineStyleArchiveD1Ev,
                            __ZN4TSCH9Generated25ReferenceLineStyleArchiveD2Ev,
                            __ZN4TSCH9Generated26ChartSeriesNonStyleArchive12InternalSwapEPS1_,
                            __ZN4TSCH9Generated26ChartSeriesNonStyleArchive14_InternalParseEPKcPN6google8protobuf8internal12ParseContextE,
                            __ZN4TSCH9Generated26ChartSeriesNonStyleArchive16default_instanceEv,
                            __ZN4TSCH9Generated26ChartSeriesNonStyleArchive19kCurrentFieldNumberE,
                            __ZN4TSCH9Generated26ChartSeriesNonStyleArchive36clear_tschchartseriespienumberformatEv,
                            __ZN4TSCH9Generated26ChartSeriesNonStyleArchive38clear_tschchartseriesdefaultdateformatEv,
                            __ZN4TSCH9Generated26ChartSeriesNonStyleArchive39clear_tschchartseriespie1_0numberformatEv,
                            __ZN4TSCH9Generated26ChartSeriesNonStyleArchive40clear_tschchartseriesdefaultnumberformatEv,
                            __ZN4TSCH9Generated26ChartSeriesNonStyleArchive41clear_tschchartseriesdefault1_0dateformatEv,
                            __ZN4TSCH9Generated26ChartSeriesNonStyleArchive42clear_tschchartseriesdefaultdurationformatEv,
                            __ZN4TSCH9Generated26ChartSeriesNonStyleArchive43clear_tschchartseriesdefault1_0numberformatEv,
                            __ZN4TSCH9Generated26ChartSeriesNonStyleArchive47clear_tschchartseriesstackedpercentnumberformatEv,
                            __ZN4TSCH9Generated26ChartSeriesNonStyleArchive54clear_tschchartseriesdefaulterrorbarcustomnegativedataEv,
                            __ZN4TSCH9Generated26ChartSeriesNonStyleArchive54clear_tschchartseriesdefaulterrorbarcustompositivedataEv,
                            __ZN4TSCH9Generated26ChartSeriesNonStyleArchive5ClearEv,
                            __ZN4TSCH9Generated26ChartSeriesNonStyleArchive62clear_tschchartseriesdefaulterrorbarcustomnegativedatascatterxEv,
                            __ZN4TSCH9Generated26ChartSeriesNonStyleArchive62clear_tschchartseriesdefaulterrorbarcustompositivedatascatterxEv,
                            __ZN4TSCH9Generated26ChartSeriesNonStyleArchive7currentE,
                            __ZN4TSCH9Generated26ChartSeriesNonStyleArchive8CopyFromERKN6google8protobuf7MessageE,
                            __ZN4TSCH9Generated26ChartSeriesNonStyleArchive8CopyFromERKS1_,
                            __ZN4TSCH9Generated26ChartSeriesNonStyleArchive9ArenaDtorEPv,
                            __ZN4TSCH9Generated26ChartSeriesNonStyleArchive9MergeFromERKN6google8protobuf7MessageE,
                            __ZN4TSCH9Generated26ChartSeriesNonStyleArchive9MergeFromERKS1_,
                            __ZN4TSCH9Generated26ChartSeriesNonStyleArchive9_Internal30tschchartseriespienumberformatEPKS1_,
                            __ZN4TSCH9Generated26ChartSeriesNonStyleArchive9_Internal32tschchartseriesdefaultdateformatEPKS1_,
                            __ZN4TSCH9Generated26ChartSeriesNonStyleArchive9_Internal33tschchartseriespie1_0numberformatEPKS1_,
                            __ZN4TSCH9Generated26ChartSeriesNonStyleArchive9_Internal34tschchartseriesdefaultnumberformatEPKS1_,
                            __ZN4TSCH9Generated26ChartSeriesNonStyleArchive9_Internal35tschchartseriesdefault1_0dateformatEPKS1_,
                            __ZN4TSCH9Generated26ChartSeriesNonStyleArchive9_Internal36tschchartseriesdefaultdurationformatEPKS1_,
                            __ZN4TSCH9Generated26ChartSeriesNonStyleArchive9_Internal37tschchartseriesdefault1_0numberformatEPKS1_,
                            __ZN4TSCH9Generated26ChartSeriesNonStyleArchive9_Internal41tschchartseriesstackedpercentnumberformatEPKS1_,
                            __ZN4TSCH9Generated26ChartSeriesNonStyleArchive9_Internal48tschchartseriesdefaulterrorbarcustomnegativedataEPKS1_,
                            __ZN4TSCH9Generated26ChartSeriesNonStyleArchive9_Internal48tschchartseriesdefaulterrorbarcustompositivedataEPKS1_,
                            __ZN4TSCH9Generated26ChartSeriesNonStyleArchive9_Internal56tschchartseriesdefaulterrorbarcustomnegativedatascatterxEPKS1_,
                            __ZN4TSCH9Generated26ChartSeriesNonStyleArchive9_Internal56tschchartseriesdefaulterrorbarcustompositivedatascatterxEPKS1_,
                            __ZN4TSCH9Generated26ChartSeriesNonStyleArchiveC1EPN6google8protobuf5ArenaE,
                            __ZN4TSCH9Generated26ChartSeriesNonStyleArchiveC1ERKS1_,
                            __ZN4TSCH9Generated26ChartSeriesNonStyleArchiveC2EPN6google8protobuf5ArenaE,
                            __ZN4TSCH9Generated26ChartSeriesNonStyleArchiveC2ERKS1_,
                            __ZN4TSCH9Generated26ChartSeriesNonStyleArchiveD0Ev,
                            __ZN4TSCH9Generated26ChartSeriesNonStyleArchiveD1Ev,
                            __ZN4TSCH9Generated26ChartSeriesNonStyleArchiveD2Ev,
                            __ZN4TSCH9Generated28ReferenceLineNonStyleArchive12InternalSwapEPS1_,
                            __ZN4TSCH9Generated28ReferenceLineNonStyleArchive14_InternalParseEPKcPN6google8protobuf8internal12ParseContextE,
                            __ZN4TSCH9Generated28ReferenceLineNonStyleArchive16default_instanceEv,
                            __ZN4TSCH9Generated28ReferenceLineNonStyleArchive19kCurrentFieldNumberE,
                            __ZN4TSCH9Generated28ReferenceLineNonStyleArchive41clear_tschreferencelinedefaultcustomvalueEv,
                            __ZN4TSCH9Generated28ReferenceLineNonStyleArchive5ClearEv,
                            __ZN4TSCH9Generated28ReferenceLineNonStyleArchive7currentE,
                            __ZN4TSCH9Generated28ReferenceLineNonStyleArchive8CopyFromERKN6google8protobuf7MessageE,
                            __ZN4TSCH9Generated28ReferenceLineNonStyleArchive8CopyFromERKS1_,
                            __ZN4TSCH9Generated28ReferenceLineNonStyleArchive9ArenaDtorEPv,
                            __ZN4TSCH9Generated28ReferenceLineNonStyleArchive9MergeFromERKN6google8protobuf7MessageE,
                            __ZN4TSCH9Generated28ReferenceLineNonStyleArchive9MergeFromERKS1_,
                            __ZN4TSCH9Generated28ReferenceLineNonStyleArchive9_Internal35tschreferencelinedefaultcustomvalueEPKS1_,
                            __ZN4TSCH9Generated28ReferenceLineNonStyleArchiveC1EPN6google8protobuf5ArenaE,
                            __ZN4TSCH9Generated28ReferenceLineNonStyleArchiveC1ERKS1_,
                            __ZN4TSCH9Generated28ReferenceLineNonStyleArchiveC2EPN6google8protobuf5ArenaE,
                            __ZN4TSCH9Generated28ReferenceLineNonStyleArchiveC2ERKS1_,
                            __ZN4TSCH9Generated28ReferenceLineNonStyleArchiveD0Ev,
                            __ZN4TSCH9Generated28ReferenceLineNonStyleArchiveD1Ev,
                            __ZN4TSCH9Generated28ReferenceLineNonStyleArchiveD2Ev,
                            __ZN4TSCH9Generated30ChartGenericPropertyMapArchive12InternalSwapEPS1_,
                            __ZN4TSCH9Generated30ChartGenericPropertyMapArchive14_InternalParseEPKcPN6google8protobuf8internal12ParseContextE,
                            __ZN4TSCH9Generated30ChartGenericPropertyMapArchive16default_instanceEv,
                            __ZN4TSCH9Generated30ChartGenericPropertyMapArchive26clear_tschchartinfo3dscaleEv,
                            __ZN4TSCH9Generated30ChartGenericPropertyMapArchive29clear_tschchartinfo3drotationEv,
                            __ZN4TSCH9Generated30ChartGenericPropertyMapArchive29clear_tschchartinfo3dviewportEv,
                            __ZN4TSCH9Generated30ChartGenericPropertyMapArchive29clear_tschchartinfotitlecolorEv,
                            __ZN4TSCH9Generated30ChartGenericPropertyMapArchive31clear_tschchartinfobordershadowEv,
                            __ZN4TSCH9Generated30ChartGenericPropertyMapArchive31clear_tschchartinfoborderstrokeEv,
                            __ZN4TSCH9Generated30ChartGenericPropertyMapArchive33clear_tschchartinfobackgroundfillEv,
                            __ZN4TSCH9Generated30ChartGenericPropertyMapArchive35clear_tschchartinfobackgroundstrokeEv,
                            __ZN4TSCH9Generated30ChartGenericPropertyMapArchive36clear_tschchartinfo3dlightingpackageEv,
                            __ZN4TSCH9Generated30ChartGenericPropertyMapArchive37clear_tschchartinfogridbackgroundfillEv,
                            __ZN4TSCH9Generated30ChartGenericPropertyMapArchive5ClearEv,
                            __ZN4TSCH9Generated30ChartGenericPropertyMapArchive8CopyFromERKN6google8protobuf7MessageE,
                            __ZN4TSCH9Generated30ChartGenericPropertyMapArchive8CopyFromERKS1_,
                            __ZN4TSCH9Generated30ChartGenericPropertyMapArchive9ArenaDtorEPv,
                            __ZN4TSCH9Generated30ChartGenericPropertyMapArchive9MergeFromERKN6google8protobuf7MessageE,
                            __ZN4TSCH9Generated30ChartGenericPropertyMapArchive9MergeFromERKS1_,
                            __ZN4TSCH9Generated30ChartGenericPropertyMapArchive9_Internal20tschchartinfo3dscaleEPKS1_,
                            __ZN4TSCH9Generated30ChartGenericPropertyMapArchive9_Internal23tschchartinfo3drotationEPKS1_,
                            __ZN4TSCH9Generated30ChartGenericPropertyMapArchive9_Internal23tschchartinfo3dviewportEPKS1_,
                            __ZN4TSCH9Generated30ChartGenericPropertyMapArchive9_Internal23tschchartinfotitlecolorEPKS1_,
                            __ZN4TSCH9Generated30ChartGenericPropertyMapArchive9_Internal25tschchartinfobordershadowEPKS1_,
                            __ZN4TSCH9Generated30ChartGenericPropertyMapArchive9_Internal25tschchartinfoborderstrokeEPKS1_,
                            __ZN4TSCH9Generated30ChartGenericPropertyMapArchive9_Internal27tschchartinfobackgroundfillEPKS1_,
                            __ZN4TSCH9Generated30ChartGenericPropertyMapArchive9_Internal29tschchartinfobackgroundstrokeEPKS1_,
                            __ZN4TSCH9Generated30ChartGenericPropertyMapArchive9_Internal30tschchartinfo3dlightingpackageEPKS1_,
                            __ZN4TSCH9Generated30ChartGenericPropertyMapArchive9_Internal31tschchartinfogridbackgroundfillEPKS1_,
                            __ZN4TSCH9Generated30ChartGenericPropertyMapArchiveC1EPN6google8protobuf5ArenaE,
                            __ZN4TSCH9Generated30ChartGenericPropertyMapArchiveC1ERKS1_,
                            __ZN4TSCH9Generated30ChartGenericPropertyMapArchiveC2EPN6google8protobuf5ArenaE,
                            __ZN4TSCH9Generated30ChartGenericPropertyMapArchiveC2ERKS1_,
                            __ZN4TSCH9Generated30ChartGenericPropertyMapArchiveD0Ev,
                            __ZN4TSCH9Generated30ChartGenericPropertyMapArchiveD1Ev,
                            __ZN4TSCH9Generated30ChartGenericPropertyMapArchiveD2Ev,
                            __ZN4TSCH9Generated31LegendGenericPropertyMapArchive12InternalSwapEPS1_,
                            __ZN4TSCH9Generated31LegendGenericPropertyMapArchive14_InternalParseEPKcPN6google8protobuf8internal12ParseContextE,
                            __ZN4TSCH9Generated31LegendGenericPropertyMapArchive16default_instanceEv,
                            __ZN4TSCH9Generated31LegendGenericPropertyMapArchive25clear_tschlegendmodelfillEv,
                            __ZN4TSCH9Generated31LegendGenericPropertyMapArchive27clear_tschlegendmodelshadowEv,
                            __ZN4TSCH9Generated31LegendGenericPropertyMapArchive27clear_tschlegendmodelstrokeEv,
                            __ZN4TSCH9Generated31LegendGenericPropertyMapArchive5ClearEv,
                            __ZN4TSCH9Generated31LegendGenericPropertyMapArchive8CopyFromERKN6google8protobuf7MessageE,
                            __ZN4TSCH9Generated31LegendGenericPropertyMapArchive8CopyFromERKS1_,
                            __ZN4TSCH9Generated31LegendGenericPropertyMapArchive9ArenaDtorEPv,
                            __ZN4TSCH9Generated31LegendGenericPropertyMapArchive9MergeFromERKN6google8protobuf7MessageE,
                            __ZN4TSCH9Generated31LegendGenericPropertyMapArchive9MergeFromERKS1_,
                            __ZN4TSCH9Generated31LegendGenericPropertyMapArchive9_Internal19tschlegendmodelfillEPKS1_,
                            __ZN4TSCH9Generated31LegendGenericPropertyMapArchive9_Internal21tschlegendmodelshadowEPKS1_,
                            __ZN4TSCH9Generated31LegendGenericPropertyMapArchive9_Internal21tschlegendmodelstrokeEPKS1_,
                            __ZN4TSCH9Generated31LegendGenericPropertyMapArchiveC1EPN6google8protobuf5ArenaE,
                            __ZN4TSCH9Generated31LegendGenericPropertyMapArchiveC1ERKS1_,
                            __ZN4TSCH9Generated31LegendGenericPropertyMapArchiveC2EPN6google8protobuf5ArenaE,
                            __ZN4TSCH9Generated31LegendGenericPropertyMapArchiveC2ERKS1_,
                            __ZN4TSCH9Generated31LegendGenericPropertyMapArchiveD0Ev,
                            __ZN4TSCH9Generated31LegendGenericPropertyMapArchiveD1Ev,
                            __ZN4TSCH9Generated31LegendGenericPropertyMapArchiveD2Ev,
                            __ZN4TSCH9Generated34ChartAxisGenericPropertyMapArchive12InternalSwapEPS1_,
                            __ZN4TSCH9Generated34ChartAxisGenericPropertyMapArchive14_InternalParseEPKcPN6google8protobuf8internal12ParseContextE,
                            __ZN4TSCH9Generated34ChartAxisGenericPropertyMapArchive16default_instanceEv,
                            __ZN4TSCH9Generated34ChartAxisGenericPropertyMapArchive26clear_tschchartaxisusermaxEv,
                            __ZN4TSCH9Generated34ChartAxisGenericPropertyMapArchive26clear_tschchartaxisuserminEv,
                            __ZN4TSCH9Generated34ChartAxisGenericPropertyMapArchive29clear_tschchartaxisdateformatEv,
                            __ZN4TSCH9Generated34ChartAxisGenericPropertyMapArchive31clear_tschchartaxisnumberformatEv,
                            __ZN4TSCH9Generated34ChartAxisGenericPropertyMapArchive32clear_tschchartaxis1_0dateformatEv,
                            __ZN4TSCH9Generated34ChartAxisGenericPropertyMapArchive33clear_tschchartaxisdurationformatEv,
                            __ZN4TSCH9Generated34ChartAxisGenericPropertyMapArchive34clear_tschchartaxis1_0numberformatEv,
                            __ZN4TSCH9Generated34ChartAxisGenericPropertyMapArchive35clear_tschchartaxis3dgridlinestrokeEv,
                            __ZN4TSCH9Generated34ChartAxisGenericPropertyMapArchive38clear_tschchartaxismajorgridlineshadowEv,
                            __ZN4TSCH9Generated34ChartAxisGenericPropertyMapArchive38clear_tschchartaxismajorgridlinestrokeEv,
                            __ZN4TSCH9Generated34ChartAxisGenericPropertyMapArchive38clear_tschchartaxisminorgridlineshadowEv,
                            __ZN4TSCH9Generated34ChartAxisGenericPropertyMapArchive38clear_tschchartaxisminorgridlinestrokeEv,
                            __ZN4TSCH9Generated34ChartAxisGenericPropertyMapArchive5ClearEv,
                            __ZN4TSCH9Generated34ChartAxisGenericPropertyMapArchive8CopyFromERKN6google8protobuf7MessageE,
                            __ZN4TSCH9Generated34ChartAxisGenericPropertyMapArchive8CopyFromERKS1_,
                            __ZN4TSCH9Generated34ChartAxisGenericPropertyMapArchive9ArenaDtorEPv,
                            __ZN4TSCH9Generated34ChartAxisGenericPropertyMapArchive9MergeFromERKN6google8protobuf7MessageE,
                            __ZN4TSCH9Generated34ChartAxisGenericPropertyMapArchive9MergeFromERKS1_,
                            __ZN4TSCH9Generated34ChartAxisGenericPropertyMapArchive9_Internal20tschchartaxisusermaxEPKS1_,
                            __ZN4TSCH9Generated34ChartAxisGenericPropertyMapArchive9_Internal20tschchartaxisuserminEPKS1_,
                            __ZN4TSCH9Generated34ChartAxisGenericPropertyMapArchive9_Internal23tschchartaxisdateformatEPKS1_,
                            __ZN4TSCH9Generated34ChartAxisGenericPropertyMapArchive9_Internal25tschchartaxisnumberformatEPKS1_,
                            __ZN4TSCH9Generated34ChartAxisGenericPropertyMapArchive9_Internal26tschchartaxis1_0dateformatEPKS1_,
                            __ZN4TSCH9Generated34ChartAxisGenericPropertyMapArchive9_Internal27tschchartaxisdurationformatEPKS1_,
                            __ZN4TSCH9Generated34ChartAxisGenericPropertyMapArchive9_Internal28tschchartaxis1_0numberformatEPKS1_,
                            __ZN4TSCH9Generated34ChartAxisGenericPropertyMapArchive9_Internal29tschchartaxis3dgridlinestrokeEPKS1_,
                            __ZN4TSCH9Generated34ChartAxisGenericPropertyMapArchive9_Internal32tschchartaxismajorgridlineshadowEPKS1_,
                            __ZN4TSCH9Generated34ChartAxisGenericPropertyMapArchive9_Internal32tschchartaxismajorgridlinestrokeEPKS1_,
                            __ZN4TSCH9Generated34ChartAxisGenericPropertyMapArchive9_Internal32tschchartaxisminorgridlineshadowEPKS1_,
                            __ZN4TSCH9Generated34ChartAxisGenericPropertyMapArchive9_Internal32tschchartaxisminorgridlinestrokeEPKS1_,
                            __ZN4TSCH9Generated34ChartAxisGenericPropertyMapArchiveC1EPN6google8protobuf5ArenaE,
                            __ZN4TSCH9Generated34ChartAxisGenericPropertyMapArchiveC1ERKS1_,
                            __ZN4TSCH9Generated34ChartAxisGenericPropertyMapArchiveC2EPN6google8protobuf5ArenaE,
                            __ZN4TSCH9Generated34ChartAxisGenericPropertyMapArchiveC2ERKS1_,
                            __ZN4TSCH9Generated34ChartAxisGenericPropertyMapArchiveD0Ev,
                            __ZN4TSCH9Generated34ChartAxisGenericPropertyMapArchiveD1Ev,
                            __ZN4TSCH9Generated34ChartAxisGenericPropertyMapArchiveD2Ev,
                            __ZN4TSCH9Generated36ChartSeriesGenericPropertyMapArchive12InternalSwapEPS1_,
                            __ZN4TSCH9Generated36ChartSeriesGenericPropertyMapArchive14_InternalParseEPKcPN6google8protobuf8internal12ParseContextE,
                            __ZN4TSCH9Generated36ChartSeriesGenericPropertyMapArchive16default_instanceEv,
                            __ZN4TSCH9Generated36ChartSeriesGenericPropertyMapArchive25clear_tschchartseriesfillEv,
                            __ZN4TSCH9Generated36ChartSeriesGenericPropertyMapArchive27clear_tschchartseriesshadowEv,
                            __ZN4TSCH9Generated36ChartSeriesGenericPropertyMapArchive27clear_tschchartseriesstrokeEv,
                            __ZN4TSCH9Generated36ChartSeriesGenericPropertyMapArchive31clear_tschchartseriesdateformatEv,
                            __ZN4TSCH9Generated36ChartSeriesGenericPropertyMapArchive31clear_tschchartseriessymbolfillEv,
                            __ZN4TSCH9Generated36ChartSeriesGenericPropertyMapArchive33clear_tschchartseriesnumberformatEv,
                            __ZN4TSCH9Generated36ChartSeriesGenericPropertyMapArchive33clear_tschchartseriessymbolstrokeEv,
                            __ZN4TSCH9Generated36ChartSeriesGenericPropertyMapArchive34clear_tschchartseries1_0dateformatEv,
                            __ZN4TSCH9Generated36ChartSeriesGenericPropertyMapArchive35clear_tschchartseriesdurationformatEv,
                            __ZN4TSCH9Generated36ChartSeriesGenericPropertyMapArchive35clear_tschchartserieserrorbarshadowEv,
                            __ZN4TSCH9Generated36ChartSeriesGenericPropertyMapArchive35clear_tschchartserieserrorbarstrokeEv,
                            __ZN4TSCH9Generated36ChartSeriesGenericPropertyMapArchive36clear_tschchartseries1_0numberformatEv,
                            __ZN4TSCH9Generated36ChartSeriesGenericPropertyMapArchive36clear_tschchartserieserrorbarlineendEv,
                            __ZN4TSCH9Generated36ChartSeriesGenericPropertyMapArchive36clear_tschchartseriestrendlineshadowEv,
                            __ZN4TSCH9Generated36ChartSeriesGenericPropertyMapArchive36clear_tschchartseriestrendlinestrokeEv,
                            __ZN4TSCH9Generated36ChartSeriesGenericPropertyMapArchive40clear_tschchartseriespercentnumberformatEv,
                            __ZN4TSCH9Generated36ChartSeriesGenericPropertyMapArchive42clear_tschchartseriescalloutlineendlineendEv,
                            __ZN4TSCH9Generated36ChartSeriesGenericPropertyMapArchive43clear_tschchartseriescalloutlinestrokestyleEv,
                            __ZN4TSCH9Generated36ChartSeriesGenericPropertyMapArchive43clear_tschchartserieserrorbarstrokescatterxEv,
                            __ZN4TSCH9Generated36ChartSeriesGenericPropertyMapArchive44clear_tschchartseriescalloutlinestartlineendEv,
                            __ZN4TSCH9Generated36ChartSeriesGenericPropertyMapArchive44clear_tschchartserieserrorbarlineendscatterxEv,
                            __ZN4TSCH9Generated36ChartSeriesGenericPropertyMapArchive47clear_tschchartserieserrorbarcustomnegativedataEv,
                            __ZN4TSCH9Generated36ChartSeriesGenericPropertyMapArchive47clear_tschchartserieserrorbarcustompositivedataEv,
                            __ZN4TSCH9Generated36ChartSeriesGenericPropertyMapArchive55clear_tschchartserieserrorbarcustomnegativedatascatterxEv,
                            __ZN4TSCH9Generated36ChartSeriesGenericPropertyMapArchive55clear_tschchartserieserrorbarcustompositivedatascatterxEv,
                            __ZN4TSCH9Generated36ChartSeriesGenericPropertyMapArchive5ClearEv,
                            __ZN4TSCH9Generated36ChartSeriesGenericPropertyMapArchive8CopyFromERKN6google8protobuf7MessageE,
                            __ZN4TSCH9Generated36ChartSeriesGenericPropertyMapArchive8CopyFromERKS1_,
                            __ZN4TSCH9Generated36ChartSeriesGenericPropertyMapArchive9ArenaDtorEPv,
                            __ZN4TSCH9Generated36ChartSeriesGenericPropertyMapArchive9MergeFromERKN6google8protobuf7MessageE,
                            __ZN4TSCH9Generated36ChartSeriesGenericPropertyMapArchive9MergeFromERKS1_,
                            __ZN4TSCH9Generated36ChartSeriesGenericPropertyMapArchive9_Internal19tschchartseriesfillEPKS1_,
                            __ZN4TSCH9Generated36ChartSeriesGenericPropertyMapArchive9_Internal21tschchartseriesshadowEPKS1_,
                            __ZN4TSCH9Generated36ChartSeriesGenericPropertyMapArchive9_Internal21tschchartseriesstrokeEPKS1_,
                            __ZN4TSCH9Generated36ChartSeriesGenericPropertyMapArchive9_Internal25tschchartseriesdateformatEPKS1_,
                            __ZN4TSCH9Generated36ChartSeriesGenericPropertyMapArchive9_Internal25tschchartseriessymbolfillEPKS1_,
                            __ZN4TSCH9Generated36ChartSeriesGenericPropertyMapArchive9_Internal27tschchartseriesnumberformatEPKS1_,
                            __ZN4TSCH9Generated36ChartSeriesGenericPropertyMapArchive9_Internal27tschchartseriessymbolstrokeEPKS1_,
                            __ZN4TSCH9Generated36ChartSeriesGenericPropertyMapArchive9_Internal28tschchartseries1_0dateformatEPKS1_,
                            __ZN4TSCH9Generated36ChartSeriesGenericPropertyMapArchive9_Internal29tschchartseriesdurationformatEPKS1_,
                            __ZN4TSCH9Generated36ChartSeriesGenericPropertyMapArchive9_Internal29tschchartserieserrorbarshadowEPKS1_,
                            __ZN4TSCH9Generated36ChartSeriesGenericPropertyMapArchive9_Internal29tschchartserieserrorbarstrokeEPKS1_,
                            __ZN4TSCH9Generated36ChartSeriesGenericPropertyMapArchive9_Internal30tschchartseries1_0numberformatEPKS1_,
                            __ZN4TSCH9Generated36ChartSeriesGenericPropertyMapArchive9_Internal30tschchartserieserrorbarlineendEPKS1_,
                            __ZN4TSCH9Generated36ChartSeriesGenericPropertyMapArchive9_Internal30tschchartseriestrendlineshadowEPKS1_,
                            __ZN4TSCH9Generated36ChartSeriesGenericPropertyMapArchive9_Internal30tschchartseriestrendlinestrokeEPKS1_,
                            __ZN4TSCH9Generated36ChartSeriesGenericPropertyMapArchive9_Internal34tschchartseriespercentnumberformatEPKS1_,
                            __ZN4TSCH9Generated36ChartSeriesGenericPropertyMapArchive9_Internal36tschchartseriescalloutlineendlineendEPKS1_,
                            __ZN4TSCH9Generated36ChartSeriesGenericPropertyMapArchive9_Internal37tschchartseriescalloutlinestrokestyleEPKS1_,
                            __ZN4TSCH9Generated36ChartSeriesGenericPropertyMapArchive9_Internal37tschchartserieserrorbarstrokescatterxEPKS1_,
                            __ZN4TSCH9Generated36ChartSeriesGenericPropertyMapArchive9_Internal38tschchartseriescalloutlinestartlineendEPKS1_,
                            __ZN4TSCH9Generated36ChartSeriesGenericPropertyMapArchive9_Internal38tschchartserieserrorbarlineendscatterxEPKS1_,
                            __ZN4TSCH9Generated36ChartSeriesGenericPropertyMapArchive9_Internal41tschchartserieserrorbarcustomnegativedataEPKS1_,
                            __ZN4TSCH9Generated36ChartSeriesGenericPropertyMapArchive9_Internal41tschchartserieserrorbarcustompositivedataEPKS1_,
                            __ZN4TSCH9Generated36ChartSeriesGenericPropertyMapArchive9_Internal49tschchartserieserrorbarcustomnegativedatascatterxEPKS1_,
                            __ZN4TSCH9Generated36ChartSeriesGenericPropertyMapArchive9_Internal49tschchartserieserrorbarcustompositivedatascatterxEPKS1_,
                            __ZN4TSCH9Generated36ChartSeriesGenericPropertyMapArchiveC1EPN6google8protobuf5ArenaE,
                            __ZN4TSCH9Generated36ChartSeriesGenericPropertyMapArchiveC1ERKS1_,
                            __ZN4TSCH9Generated36ChartSeriesGenericPropertyMapArchiveC2EPN6google8protobuf5ArenaE,
                            __ZN4TSCH9Generated36ChartSeriesGenericPropertyMapArchiveC2ERKS1_,
                            __ZN4TSCH9Generated36ChartSeriesGenericPropertyMapArchiveD0Ev,
                            __ZN4TSCH9Generated36ChartSeriesGenericPropertyMapArchiveD1Ev,
                            __ZN4TSCH9Generated36ChartSeriesGenericPropertyMapArchiveD2Ev,
                            __ZN4TSCH9Generated36_ChartStyleArchive_default_instance_E,
                            __ZN4TSCH9Generated37_LegendStyleArchive_default_instance_E,
                            __ZN4TSCH9Generated38ReferenceLineGenericPropertyMapArchive12InternalSwapEPS1_,
                            __ZN4TSCH9Generated38ReferenceLineGenericPropertyMapArchive14_InternalParseEPKcPN6google8protobuf8internal12ParseContextE,
                            __ZN4TSCH9Generated38ReferenceLineGenericPropertyMapArchive16default_instanceEv,
                            __ZN4TSCH9Generated38ReferenceLineGenericPropertyMapArchive29clear_tschreferencelineshadowEv,
                            __ZN4TSCH9Generated38ReferenceLineGenericPropertyMapArchive29clear_tschreferencelinestrokeEv,
                            __ZN4TSCH9Generated38ReferenceLineGenericPropertyMapArchive34clear_tschreferencelinecustomvalueEv,
                            __ZN4TSCH9Generated38ReferenceLineGenericPropertyMapArchive5ClearEv,
                            __ZN4TSCH9Generated38ReferenceLineGenericPropertyMapArchive8CopyFromERKN6google8protobuf7MessageE,
                            __ZN4TSCH9Generated38ReferenceLineGenericPropertyMapArchive8CopyFromERKS1_,
                            __ZN4TSCH9Generated38ReferenceLineGenericPropertyMapArchive9ArenaDtorEPv,
                            __ZN4TSCH9Generated38ReferenceLineGenericPropertyMapArchive9MergeFromERKN6google8protobuf7MessageE,
                            __ZN4TSCH9Generated38ReferenceLineGenericPropertyMapArchive9MergeFromERKS1_,
                            __ZN4TSCH9Generated38ReferenceLineGenericPropertyMapArchive9_Internal23tschreferencelineshadowEPKS1_,
                            __ZN4TSCH9Generated38ReferenceLineGenericPropertyMapArchive9_Internal23tschreferencelinestrokeEPKS1_,
                            __ZN4TSCH9Generated38ReferenceLineGenericPropertyMapArchive9_Internal28tschreferencelinecustomvalueEPKS1_,
                            __ZN4TSCH9Generated38ReferenceLineGenericPropertyMapArchiveC1EPN6google8protobuf5ArenaE,
                            __ZN4TSCH9Generated38ReferenceLineGenericPropertyMapArchiveC1ERKS1_,
                            __ZN4TSCH9Generated38ReferenceLineGenericPropertyMapArchiveC2EPN6google8protobuf5ArenaE,
                            __ZN4TSCH9Generated38ReferenceLineGenericPropertyMapArchiveC2ERKS1_,
                            __ZN4TSCH9Generated38ReferenceLineGenericPropertyMapArchiveD0Ev,
                            __ZN4TSCH9Generated38ReferenceLineGenericPropertyMapArchiveD1Ev,
                            __ZN4TSCH9Generated38ReferenceLineGenericPropertyMapArchiveD2Ev,
                            __ZN4TSCH9Generated39_ChartNonStyleArchive_default_instance_E,
                            __ZN4TSCH9Generated40_ChartAxisStyleArchive_default_instance_E,
                            __ZN4TSCH9Generated40_LegendNonStyleArchive_default_instance_E,
                            __ZN4TSCH9Generated42_ChartSeriesStyleArchive_default_instance_E,
                            __ZN4TSCH9Generated43_ChartAxisNonStyleArchive_default_instance_E,
                            __ZN4TSCH9Generated44_ReferenceLineStyleArchive_default_instance_E,
                            __ZN4TSCH9Generated45_ChartSeriesNonStyleArchive_default_instance_E,
                            __ZN4TSCH9Generated47_ReferenceLineNonStyleArchive_default_instance_E,
                            __ZN4TSCH9Generated49_ChartGenericPropertyMapArchive_default_instance_E,
                            __ZN4TSCH9Generated50_LegendGenericPropertyMapArchive_default_instance_E,
                            __ZN4TSCH9Generated53_ChartAxisGenericPropertyMapArchive_default_instance_E,
                            __ZN4TSCH9Generated55_ChartSeriesGenericPropertyMapArchive_default_instance_E,
                            __ZN4TSCH9Generated57_ReferenceLineGenericPropertyMapArchive_default_instance_E,
                            __ZN4TSCH9GridValue12InternalSwapEPS0_,
                            __ZN4TSCH9GridValue14_InternalParseEPKcPN6google8protobuf8internal12ParseContextE,
                            __ZN4TSCH9GridValue16default_instanceEv,
                            __ZN4TSCH9GridValue5ClearEv,
                            __ZN4TSCH9GridValue8CopyFromERKN6google8protobuf7MessageE,
                            __ZN4TSCH9GridValue8CopyFromERKS0_,
                            __ZN4TSCH9GridValue9ArenaDtorEPv,
                            __ZN4TSCH9GridValue9MergeFromERKN6google8protobuf7MessageE,
                            __ZN4TSCH9GridValue9MergeFromERKS0_,
                            __ZN4TSCH9GridValueC1EPN6google8protobuf5ArenaE,
                            __ZN4TSCH9GridValueC1ERKS0_,
                            __ZN4TSCH9GridValueC2EPN6google8protobuf5ArenaE,
                            __ZN4TSCH9GridValueC2ERKS0_, __ZN4TSCH9GridValueD0Ev,
                            __ZN4TSCH9GridValueD1Ev, __ZN4TSCH9GridValueD2Ev,
                            __ZN6TSCH3D11LineClipper12setClampModeEb,
                            __ZN6TSCH3D11LineClipperC1Eff,
                            __ZN6TSCH3D11LineClipperC2Eff,
                            __ZN6TSCH3D11OpenGLStubs10BindBufferEjj,
                            __ZN6TSCH3D11OpenGLStubs10BufferDataEjlPKvj,
                            __ZN6TSCH3D11OpenGLStubs10ClearColorEffff,
                            __ZN6TSCH3D11OpenGLStubs10ClearDepthEf,
                            __ZN6TSCH3D11OpenGLStubs10DrawArraysEjii,
                            __ZN6TSCH3D11OpenGLStubs10GenBuffersEiPj,
                            __ZN6TSCH3D11OpenGLStubs10GetStringiEjj,
                            __ZN6TSCH3D11OpenGLStubs10ReadPixelsEiiiijjPv,
                            __ZN6TSCH3D11OpenGLStubs10TexImage2DEjiiiiijjPKv,
                            __ZN6TSCH3D11OpenGLStubs10TexImage3DEjiiiiiijjPKv,
                            __ZN6TSCH3D11OpenGLStubs10Uniform1fvEiiPKf,
                            __ZN6TSCH3D11OpenGLStubs10Uniform1ivEiiPKi,
                            __ZN6TSCH3D11OpenGLStubs10Uniform2fvEiiPKf,
                            __ZN6TSCH3D11OpenGLStubs10Uniform2ivEiiPKi,
                            __ZN6TSCH3D11OpenGLStubs10Uniform3fvEiiPKf,
                            __ZN6TSCH3D11OpenGLStubs10Uniform3ivEiiPKi,
                            __ZN6TSCH3D11OpenGLStubs10Uniform4fvEiiPKf,
                            __ZN6TSCH3D11OpenGLStubs10Uniform4ivEiiPKi,
                            __ZN6TSCH3D11OpenGLStubs10UseProgramEj,
                            __ZN6TSCH3D11OpenGLStubs11BindTextureEjj,
                            __ZN6TSCH3D11OpenGLStubs11GenTexturesEiPj,
                            __ZN6TSCH3D11OpenGLStubs11GetBooleanvEjPh,
                            __ZN6TSCH3D11OpenGLStubs11GetIntegervEjPi,
                            __ZN6TSCH3D11OpenGLStubs11GetShaderivEjjPi,
                            __ZN6TSCH3D11OpenGLStubs11LinkProgramEj,
                            __ZN6TSCH3D11OpenGLStubs11PixelStoreiEji,
                            __ZN6TSCH3D11OpenGLStubs12AttachShaderEjj,
                            __ZN6TSCH3D11OpenGLStubs12CreateShaderEj,
                            __ZN6TSCH3D11OpenGLStubs12DeleteShaderEj,
                            __ZN6TSCH3D11OpenGLStubs12DrawElementsEjijPKv,
                            __ZN6TSCH3D11OpenGLStubs12GetProgramivEjjPi,
                            __ZN6TSCH3D11OpenGLStubs12ShaderSourceEjiPPKcPKi,
                            __ZN6TSCH3D11OpenGLStubs13ActiveTextureEj,
                            __ZN6TSCH3D11OpenGLStubs13CompileShaderEj,
                            __ZN6TSCH3D11OpenGLStubs13CreateProgramEv,
                            __ZN6TSCH3D11OpenGLStubs13DeleteBuffersEiPKj,
                            __ZN6TSCH3D11OpenGLStubs13DeleteProgramEj,
                            __ZN6TSCH3D11OpenGLStubs13IsFramebufferEj,
                            __ZN6TSCH3D11OpenGLStubs13PolygonOffsetEff,
                            __ZN6TSCH3D11OpenGLStubs13TexParameterfEjjf,
                            __ZN6TSCH3D11OpenGLStubs13TexParameteriEjji,
                            __ZN6TSCH3D11OpenGLStubs14DeleteTexturesEiPKj,
                            __ZN6TSCH3D11OpenGLStubs14GenerateMipmapEj,
                            __ZN6TSCH3D11OpenGLStubs14IsRenderbufferEj,
                            __ZN6TSCH3D11OpenGLStubs14VertexAttrib1fEjf,
                            __ZN6TSCH3D11OpenGLStubs14VertexAttrib2fEjff,
                            __ZN6TSCH3D11OpenGLStubs14VertexAttrib3fEjfff,
                            __ZN6TSCH3D11OpenGLStubs14VertexAttrib4fEjffff,
                            __ZN6TSCH3D11OpenGLStubs15BindFramebufferEjj,
                            __ZN6TSCH3D11OpenGLStubs15BindVertexArrayEj,
                            __ZN6TSCH3D11OpenGLStubs15GenFramebuffersEiPj,
                            __ZN6TSCH3D11OpenGLStubs15GenVertexArraysEiPj,
                            __ZN6TSCH3D11OpenGLStubs15GetActiveAttribEjjiPiS1_PjPc,
                            __ZN6TSCH3D11OpenGLStubs16BindRenderbufferEjj,
                            __ZN6TSCH3D11OpenGLStubs16GenRenderbuffersEiPj,
                            __ZN6TSCH3D11OpenGLStubs16GetShaderInfoLogEjiPiPc,
                            __ZN6TSCH3D11OpenGLStubs16UniformMatrix2fvEiihPKf,
                            __ZN6TSCH3D11OpenGLStubs16UniformMatrix3fvEiihPKf,
                            __ZN6TSCH3D11OpenGLStubs16UniformMatrix4fvEiihPKf,
                            __ZN6TSCH3D11OpenGLStubs17BlendFuncSeparateEjjjj,
                            __ZN6TSCH3D11OpenGLStubs17GetAttribLocationEjPKc,
                            __ZN6TSCH3D11OpenGLStubs18DeleteFramebuffersEiPKj,
                            __ZN6TSCH3D11OpenGLStubs18DeleteVertexArraysEiPKj,
                            __ZN6TSCH3D11OpenGLStubs18DiscardFramebufferEjiPKj,
                            __ZN6TSCH3D11OpenGLStubs18GetUniformLocationEjPKc,
                            __ZN6TSCH3D11OpenGLStubs19DeleteRenderbuffersEiPKj,
                            __ZN6TSCH3D11OpenGLStubs19RenderbufferStorageEjjii,
                            __ZN6TSCH3D11OpenGLStubs19VertexAttribPointerEjijhiPKv,
                            __ZN6TSCH3D11OpenGLStubs20FramebufferTexture2DEjjjji,
                            __ZN6TSCH3D11OpenGLStubs22CheckFramebufferStatusEj,
                            __ZN6TSCH3D11OpenGLStubs23EnableVertexAttribArrayEj,
                            __ZN6TSCH3D11OpenGLStubs23FramebufferRenderbufferEjjjj,
                            __ZN6TSCH3D11OpenGLStubs24DisableVertexAttribArrayEj,
                            __ZN6TSCH3D11OpenGLStubs26GetRenderbufferParameterivEjjPi,
                            __ZN6TSCH3D11OpenGLStubs29ResolveMultisampleFramebufferEii,
                            __ZN6TSCH3D11OpenGLStubs30RenderbufferStorageMultisampleEjijii,
                            __ZN6TSCH3D11OpenGLStubs5ClearEj,
                            __ZN6TSCH3D11OpenGLStubs5FlushEv,
                            __ZN6TSCH3D11OpenGLStubs6EnableEj,
                            __ZN6TSCH3D11OpenGLStubs6FinishEv,
                            __ZN6TSCH3D11OpenGLStubs7DisableEj,
                            __ZN6TSCH3D11OpenGLStubs8CullFaceEj,
                            __ZN6TSCH3D11OpenGLStubs8GetErrorEv,
                            __ZN6TSCH3D11OpenGLStubs8ViewportEiiii,
                            __ZN6TSCH3D11OpenGLStubs9ColorMaskEhhhh,
                            __ZN6TSCH3D11OpenGLStubs9DepthFuncEj,
                            __ZN6TSCH3D11OpenGLStubs9DepthMaskEh,
                            __ZN6TSCH3D11OpenGLStubs9FrontFaceEj,
                            __ZN6TSCH3D11OpenGLStubs9GetFloatvEjPf,
                            __ZN6TSCH3D11OpenGLStubs9GetStringEj,
                            __ZN6TSCH3D11OpenGLStubs9IsEnabledEj,
                            __ZN6TSCH3D11OpenGLStubs9IsTextureEj,
                            __ZN6TSCH3D11OpenGLStubs9Uniform1fEif,
                            __ZN6TSCH3D11OpenGLStubs9Uniform1iEii,
                            __ZN6TSCH3D11OpenGLStubs9Uniform2fEiff,
                            __ZN6TSCH3D11OpenGLStubs9Uniform2iEiii,
                            __ZN6TSCH3D11OpenGLStubs9Uniform3fEifff,
                            __ZN6TSCH3D11OpenGLStubs9Uniform3iEiiii,
                            __ZN6TSCH3D11OpenGLStubs9Uniform4fEiffff,
                            __ZN6TSCH3D11OpenGLStubs9Uniform4iEiiiii,
                            __ZN6TSCH3D12BarUtilities13normalizedBoxEv,
                            __ZN6TSCH3D12BarUtilities19generateCapVerticesEPKN3glm6detail5tvec3IfEEl,
                            __ZN6TSCH3D12BarUtilities20swapTriangleOrderingEPN3glm6detail5tvec3IfEEl,
                            __ZN6TSCH3D13SageConstants11CHART_XSIZEE,
                            __ZN6TSCH3D13SageConstants11CHART_YSIZEE,
                            __ZN6TSCH3D13SageConstants15PIE_WEDGE_TOP_ZE,
                            __ZN6TSCH3D13SageConstants16AREA_CHART_DEPTHE,
                            __ZN6TSCH3D13SageConstants16INTER_SERIES_GAPE,
                            __ZN6TSCH3D13SageConstants16LINE_CHART_DEPTHE,
                            __ZN6TSCH3D13SageConstants18PIE_WEDGE_BOTTOM_ZE,
                            __ZN6TSCH3D13SageConstants22PIE_WEDGE_BEVEL_HEIGHTE,
                            __ZN6TSCH3D13SageConstants23PIE_CHART_STAGE_ZOFFSETE,
                            __ZN6TSCH3D13SageConstants25sageLabelAlignmentPaddingEv,
                            __ZN6TSCH3D13SageConstants41SAGE_VERTICAL_CHART_OUTSIDE_LABEL_PADDINGE,
                            __ZN6TSCH3D13SageConstants43SAGE_HORIZONTAL_CHART_OUTSIDE_LABEL_PADDINGE,
                            __ZN6TSCH3D13SageConstants9BAR_DEPTHE,
                            __ZN6TSCH3D15ShaderNamespace10FinalColorE,
                            __ZN6TSCH3D15ShaderNamespace10GLPositionE,
                            __ZN6TSCH3D15ShaderNamespace11BumpTextureE,
                            __ZN6TSCH3D15ShaderNamespace11EnvironmentE,
                            __ZN6TSCH3D15ShaderNamespace11InverseViewE,
                            __ZN6TSCH3D15ShaderNamespace12AmbientColorE,
                            __ZN6TSCH3D15ShaderNamespace12DiffuseColorE,
                            __ZN6TSCH3D15ShaderNamespace12Environment1E,
                            __ZN6TSCH3D15ShaderNamespace12NormalMatrixE,
                            __ZN6TSCH3D15ShaderNamespace13DiffuseFactorE,
                            __ZN6TSCH3D15ShaderNamespace13EmissiveColorE,
                            __ZN6TSCH3D15ShaderNamespace13LightingColorE,
                            __ZN6TSCH3D15ShaderNamespace13ModulateColorE,
                            __ZN6TSCH3D15ShaderNamespace13SpecularColorE,
                            __ZN6TSCH3D15ShaderNamespace14DiffuseTextureE,
                            __ZN6TSCH3D15ShaderNamespace14EmissiveFactorE,
                            __ZN6TSCH3D15ShaderNamespace14ModulateFactorE,
                            __ZN6TSCH3D15ShaderNamespace14ShininessColorE,
                            __ZN6TSCH3D15ShaderNamespace14SpecularFactorE,
                            __ZN6TSCH3D15ShaderNamespace15EmissiveTextureE,
                            __ZN6TSCH3D15ShaderNamespace15ModulateTextureE,
                            __ZN6TSCH3D15ShaderNamespace15ShininessFactorE,
                            __ZN6TSCH3D15ShaderNamespace15SpecularTextureE,
                            __ZN6TSCH3D15ShaderNamespace16AmbientIntensityE,
                            __ZN6TSCH3D15ShaderNamespace16DiffuseIntensityE,
                            __ZN6TSCH3D15ShaderNamespace16EnsureShaderVarsEv,
                            __ZN6TSCH3D15ShaderNamespace16EnvironmentColorE,
                            __ZN6TSCH3D15ShaderNamespace16EyeSpacePositionE,
                            __ZN6TSCH3D15ShaderNamespace16PulsationDiffuseE,
                            __ZN6TSCH3D15ShaderNamespace16ShininessTextureE,
                            __ZN6TSCH3D15ShaderNamespace17DiffuseModulationE,
                            __ZN6TSCH3D15ShaderNamespace17EmissiveIntensityE,
                            __ZN6TSCH3D15ShaderNamespace17Environment1ColorE,
                            __ZN6TSCH3D15ShaderNamespace17EnvironmentFactorE,
                            __ZN6TSCH3D15ShaderNamespace17EyeSpacePosition3E,
                            __ZN6TSCH3D15ShaderNamespace17ModulateIntensityE,
                            __ZN6TSCH3D15ShaderNamespace17SpecularIntensityE,
                            __ZN6TSCH3D15ShaderNamespace18EmissiveModulationE,
                            __ZN6TSCH3D15ShaderNamespace18Environment1FactorE,
                            __ZN6TSCH3D15ShaderNamespace18EnvironmentTextureE,
                            __ZN6TSCH3D15ShaderNamespace18ModulateModulationE,
                            __ZN6TSCH3D15ShaderNamespace18PhongLightingColorE,
                            __ZN6TSCH3D15ShaderNamespace18ShininessIntensityE,
                            __ZN6TSCH3D15ShaderNamespace18SpecularModulationE,
                            __ZN6TSCH3D15ShaderNamespace19DiffuseTextureColorE,
                            __ZN6TSCH3D15ShaderNamespace19Environment1TextureE,
                            __ZN6TSCH3D15ShaderNamespace19ModelViewProjectionE,
                            __ZN6TSCH3D15ShaderNamespace19ShininessModulationE,
                            __ZN6TSCH3D15ShaderNamespace19TemporaryDecalColorE,
                            __ZN6TSCH3D15ShaderNamespace1BE,
                            __ZN6TSCH3D15ShaderNamespace1NE,
                            __ZN6TSCH3D15ShaderNamespace1TE,
                            __ZN6TSCH3D15ShaderNamespace20DiffuseTextureMatrixE,
                            __ZN6TSCH3D15ShaderNamespace20EmissiveTextureColorE,
                            __ZN6TSCH3D15ShaderNamespace20EnvironmentIntensityE,
                            __ZN6TSCH3D15ShaderNamespace20EyeSpaceEyeDirectionE,
                            __ZN6TSCH3D15ShaderNamespace20ModulateTextureColorE,
                            __ZN6TSCH3D15ShaderNamespace20SpecularTextureColorE,
                            __ZN6TSCH3D15ShaderNamespace21BumpTextureCoordinateE,
                            __ZN6TSCH3D15ShaderNamespace21EmissiveTextureMatrixE,
                            __ZN6TSCH3D15ShaderNamespace21Environment1IntensityE,
                            __ZN6TSCH3D15ShaderNamespace21EnvironmentModulationE,
                            __ZN6TSCH3D15ShaderNamespace21ModulateTextureMatrixE,
                            __ZN6TSCH3D15ShaderNamespace21SeparateSpecularColorE,
                            __ZN6TSCH3D15ShaderNamespace21ShininessTextureColorE,
                            __ZN6TSCH3D15ShaderNamespace21SpecularTextureMatrixE,
                            __ZN6TSCH3D15ShaderNamespace22AmbientLightModelColorE,
                            __ZN6TSCH3D15ShaderNamespace22Environment1ModulationE,
                            __ZN6TSCH3D15ShaderNamespace22EyeSpaceLightDirectionE,
                            __ZN6TSCH3D15ShaderNamespace22ShininessTextureMatrixE,
                            __ZN6TSCH3D15ShaderNamespace23EnvironmentTextureColorE,
                            __ZN6TSCH3D15ShaderNamespace24DiffuseLightenPercentageE,
                            __ZN6TSCH3D15ShaderNamespace24DiffuseTextureCoordinateE,
                            __ZN6TSCH3D15ShaderNamespace24Environment1TextureColorE,
                            __ZN6TSCH3D15ShaderNamespace24EnvironmentTextureMatrixE,
                            __ZN6TSCH3D15ShaderNamespace25EmissiveTextureCoordinateE,
                            __ZN6TSCH3D15ShaderNamespace25Environment1TextureMatrixE,
                            __ZN6TSCH3D15ShaderNamespace25ModulateTextureCoordinateE,
                            __ZN6TSCH3D15ShaderNamespace25SpecularTextureCoordinateE,
                            __ZN6TSCH3D15ShaderNamespace26ShininessTextureCoordinateE,
                            __ZN6TSCH3D15ShaderNamespace26TemporaryTextureCoordinateE,
                            __ZN6TSCH3D15ShaderNamespace28EnvironmentTextureCoordinateE,
                            __ZN6TSCH3D15ShaderNamespace29Environment1TextureCoordinateE,
                            __ZN6TSCH3D15ShaderNamespace3EyeE,
                            __ZN6TSCH3D15ShaderNamespace3TBNE,
                            __ZN6TSCH3D15ShaderNamespace4HalfE,
                            __ZN6TSCH3D15ShaderNamespace5NDotHE,
                            __ZN6TSCH3D15ShaderNamespace5NDotLE,
                            __ZN6TSCH3D15ShaderNamespace6NormalE,
                            __ZN6TSCH3D15ShaderNamespace6VertexE,
                            __ZN6TSCH3D15ShaderNamespace7AmbientE,
                            __ZN6TSCH3D15ShaderNamespace7DiffuseE,
                            __ZN6TSCH3D15ShaderNamespace7Factor0E,
                            __ZN6TSCH3D15ShaderNamespace7Factor1E,
                            __ZN6TSCH3D15ShaderNamespace7Factor2E,
                            __ZN6TSCH3D15ShaderNamespace7TangentE,
                            __ZN6TSCH3D15ShaderNamespace8EmissiveE,
                            __ZN6TSCH3D15ShaderNamespace8ModulateE,
                            __ZN6TSCH3D15ShaderNamespace8SpecularE,
                            __ZN6TSCH3D15ShaderNamespace9FragColorE,
                            __ZN6TSCH3D15ShaderNamespace9ModelViewE,
                            __ZN6TSCH3D15ShaderNamespace9ShininessE,
                            __ZN6TSCH3D17VectorFromArchiveERKN4TSCH20Chart3DVectorArchiveEP13TSPUnarchiver,
                            __ZN6TSCH3D18Vector2FromArchiveERKN4TSCH20Chart3DVectorArchiveEP13TSPUnarchiver,
                            __ZN6TSCH3D18Vector3FromArchiveERKN4TSCH20Chart3DVectorArchiveEP13TSPUnarchiver,
                            __ZN6TSCH3D19SaveVectorToArchiveERKN3glm6detail5tvec2IfEERN4TSCH20Chart3DVectorArchiveEP11TSPArchiver,
                            __ZN6TSCH3D19SaveVectorToArchiveERKN3glm6detail5tvec3IfEERN4TSCH20Chart3DVectorArchiveEP11TSPArchiver,
                            __ZN6TSCH3D19SaveVectorToArchiveERKN3glm6detail5tvec4IfEERN4TSCH20Chart3DVectorArchiveEP11TSPArchiver,
                            __ZN6TSCH3D20CGImageCreateResizedEP7CGImageRKN3glm6detail5tvec2IiEE,
                            __ZN6TSCH3D28PNGRepresentationFromRGBDataEPKhRKN3glm6detail5tvec2IiEEl,
                            __ZN6TSCH3D31ShaderAppendVariableDeclarationEP15NSMutableStringP8NSStringS3_S3_S3_,
                            __ZN6TSCH3D32GenerateCircularBoundsDataBufferEdRKNS_4Math20ExtendedTypesDetails5rangeIdEEmbRKN3glm6detail5tvec2IfEEmRKNS8_IdEE,
                            __ZN6TSCH3D36CGColorSpaceCreateSRGBFromComponentsEm,
                            __ZN6TSCH3D36ShaderAppendArrayVariableDeclarationEP15NSMutableStringP8NSStringS3_S3_S3_m,
                            __ZN6TSCH3D38CGColorSpaceCreateDeviceFromComponentsEm,
                            __ZN6TSCH3D46CGBitmapContextCreateWithSizeComponentsAndDataERKN3glm6detail5tvec2IiEEmPvb,
                            __ZN6TSCH3D4Math9Functions13pointsFromBoxERKNS0_20ExtendedTypesDetails3boxIN3glm6detail5tvec3IfEEEEPS7_,
                            __ZN6TSCH3D4Math9Functions15intersectSphereERKNS0_20ExtendedTypesDetails4lineIN3glm6detail5tvec3IfEEEES7_fPS7_SB_,
                            __ZN6TSCH3D4Math9Functions16safeProjectedBoxERKNS0_20ExtendedTypesDetails3boxIN3glm6detail5tvec3IfEEEERKNS5_7tmat4x4IfEE,
                            __ZN6TSCH3D4Math9Functions18projectPointToLineERKN3glm6detail5tvec2IfEERKNS3_7tmat4x4IfEE,
                            __ZN6TSCH3D4Math9Functions34pixelAlignLocalBoundsInGlobalSpaceERKNS0_20ExtendedTypesDetails3boxIN3glm6detail5tvec2IfEEEEU13block_pointerFS8_SA_ESC_,
                            __ZN6TSCH3D4Math9Functions9intersectERKNS0_20ExtendedTypesDetails4lineIN3glm6detail5tvec3IfEEEERKNSt3__16vectorIS7_NSB_9allocatorIS7_EEEEPS7_,
                            __ZN6TSCH3D4Math9Functions9intersectERKNS0_20ExtendedTypesDetails4lineIN3glm6detail5tvec3IfEEEERKS7_SC_SC_PS7_SD_Pb,
                            __ZN6TSCH3D4Math9Functions9intersectERKNS0_20ExtendedTypesDetails5planeIN3glm6detail5tvec3IfEEEERKNS2_4lineIS7_EERS7_,
                            __ZN6TSCH3D4Math9Functions9transformERKNS0_20ExtendedTypesDetails4lineIN3glm6detail5tvec3IfEEEERKNS5_7tmat4x4IfEE,
                            __ZN6TSCH3D4Math9Functions9transformERKNS0_20ExtendedTypesDetails5planeIN3glm6detail5tvec3IfEEEERKNS5_7tmat4x4IfEE,
                            __ZN6TSCH3D4Sage10strictModeEv,
                            __ZN6TSCH3D4Sage12pieWedgeBBoxEf,
                            __ZN6TSCH3D4Sage14barElementBBoxEfb,
                            __ZN6TSCH3D4Sage16xAxisDetailScaleERKN3glm6detail5tvec2IiEEbb,
                            __ZN6TSCH3D4Sage16yFaceTilingScaleEfb,
                            __ZN6TSCH3D4Sage17depthToWidthRatioERKN3glm6detail5tvec3IfEEb,
                            __ZN6TSCH3D4Sage17topFaceTexScalingEfRKN3glm6detail5tvec2IiEEbbbfff,
                            __ZN6TSCH3D4Sage19minMaxForAreaSeriesERKNSt3__16vectorIfNS1_9allocatorIfEEEEf,
                            __ZN6TSCH3D4Sage21stackedBarElementBBoxEffb,
                            __ZN6TSCH3D4Sage21stackedBarTilingScaleEff,
                            __ZN6TSCH3D4Sage21unitSpacePieWedgeTopZEv,
                            __ZN6TSCH3D4Sage22unitSpaceCylinderDepthEv,
                            __ZN6TSCH3D4Sage23unitSpaceAreaChartDepthEv,
                            __ZN6TSCH3D4Sage23unitSpaceInterSeriesGapEv,
                            __ZN6TSCH3D4Sage23unitSpaceLineChartDepthEv,
                            __ZN6TSCH3D4Sage24texCoordTilingFromBBoxesERKNS_4Math20ExtendedTypesDetails3boxIN3glm6detail5tvec3IfEEEESA_RKNS5_5tvec4IfEERSC_SF_NS0_13AlignmentTypeE,
                            __ZN6TSCH3D4Sage24unitSpaceGridlinesOffsetEff,
                            __ZN6TSCH3D4Sage24unitSpacePieWedgeBottomZEv,
                            __ZN6TSCH3D4Sage25geometrySpacePieWedgeTopZEv,
                            __ZN6TSCH3D4Sage25unitSpaceChartSeriesWidthEv,
                            __ZN6TSCH3D4Sage26computePieWedgeTilingScaleEf,
                            __ZN6TSCH3D4Sage27geometrySpacePieWedgeRadiusEv,
                            __ZN6TSCH3D4Sage28geometrySpacePieWedgeBottomZEv,
                            __ZN6TSCH3D4Sage28lineChartGeometryAspectRatioEv,
                            __ZN6TSCH3D4Sage31unitspaceValueLabelsDepthOffsetEv,
                            __ZN6TSCH3D4Sage32inverseCurrentToDefaultBarsRatioERKN3glm6detail5tvec2IiEEb,
                            __ZN6TSCH3D4Sage35unitSpacePieChartInitialDepthOffsetEv,
                            __ZN6TSCH3D4Sage37pieGeometrySpaceDepthToUnitSpaceDepthEv,
                            __ZN6TSCH3D4Sage37unitSpaceStageChartInitialDepthOffsetEf,
                            __ZN6TSCH3D4Sage7cubeBoxERKNS_4Math20ExtendedTypesDetails3boxIN3glm6detail5tvec3IfEEEENS0_13AlignmentTypeE,
                            __ZN6TSCH3D4Sage9pieFactorEv, __ZN6TSCH3D7ConvertEb,
                            __ZN6google8protobuf5Arena18CreateMaybeMessageIN4TSCH11RectArchiveEJEEEPT_PS1_DpOT0_,
                            __ZN6google8protobuf5Arena18CreateMaybeMessageIN4TSCH12ChartArchiveEJEEEPT_PS1_DpOT0_,
                            __ZN6google8protobuf5Arena18CreateMaybeMessageIN4TSCH12ChartUIStateEJEEEPT_PS1_DpOT0_,
                            __ZN6google8protobuf5Arena18CreateMaybeMessageIN4TSCH14StyleOwnerPathEJEEEPT_PS1_DpOT0_,
                            __ZN6google8protobuf5Arena18CreateMaybeMessageIN4TSCH16ChartGridArchiveEJEEEPT_PS1_DpOT0_,
                            __ZN6google8protobuf5Arena18CreateMaybeMessageIN4TSCH16ChartStylePresetEJEEEPT_PS1_DpOT0_,
                            __ZN6google8protobuf5Arena18CreateMaybeMessageIN4TSCH17ChartStyleArchiveEJEEEPT_PS1_DpOT0_,
                            __ZN6google8protobuf5Arena18CreateMaybeMessageIN4TSCH18Chart3DFillArchiveEJEEEPT_PS1_DpOT0_,
                            __ZN6google8protobuf5Arena18CreateMaybeMessageIN4TSCH18ChartAxisIDArchiveEJEEEPT_PS1_DpOT0_,
                            __ZN6google8protobuf5Arena18CreateMaybeMessageIN4TSCH18LegendStyleArchiveEJEEEPT_PS1_DpOT0_,
                            __ZN6google8protobuf5Arena18CreateMaybeMessageIN4TSCH19Chart3DLightArchiveEJEEEPT_PS1_DpOT0_,
                            __ZN6google8protobuf5Arena18CreateMaybeMessageIN4TSCH19ChartCommandArchiveEJEEEPT_PS1_DpOT0_,
                            __ZN6google8protobuf5Arena18CreateMaybeMessageIN4TSCH19ChartFillSetArchiveEJEEEPT_PS1_DpOT0_,
                            __ZN6google8protobuf5Arena18CreateMaybeMessageIN4TSCH19ChartPresetsArchiveEJEEEPT_PS1_DpOT0_,
                            __ZN6google8protobuf5Arena18CreateMaybeMessageIN4TSCH20Chart3DVectorArchiveEJEEEPT_PS1_DpOT0_,
                            __ZN6google8protobuf5Arena18CreateMaybeMessageIN4TSCH20ChartDrawableArchiveEJEEEPT_PS1_DpOT0_,
                            __ZN6google8protobuf5Arena18CreateMaybeMessageIN4TSCH20ChartMediatorArchiveEJEEEPT_PS1_DpOT0_,
                            __ZN6google8protobuf5Arena18CreateMaybeMessageIN4TSCH20ChartNonStyleArchiveEJEEEPT_PS1_DpOT0_,
                            __ZN6google8protobuf5Arena18CreateMaybeMessageIN4TSCH21ChartAxisStyleArchiveEJEEEPT_PS1_DpOT0_,
                            __ZN6google8protobuf5Arena18CreateMaybeMessageIN4TSCH21ChartSelectionArchiveEJEEEPT_PS1_DpOT0_,
                            __ZN6google8protobuf5Arena18CreateMaybeMessageIN4TSCH21LegendNonStyleArchiveEJEEEPT_PS1_DpOT0_,
                            __ZN6google8protobuf5Arena18CreateMaybeMessageIN4TSCH22CommandChartApplyThemeEJEEEPT_PS1_DpOT0_,
                            __ZN6google8protobuf5Arena18CreateMaybeMessageIN4TSCH23Chart3DSpotLightArchiveEJEEEPT_PS1_DpOT0_,
                            __ZN6google8protobuf5Arena18CreateMaybeMessageIN4TSCH23ChartSeriesStyleArchiveEJEEEPT_PS1_DpOT0_,
                            __ZN6google8protobuf5Arena18CreateMaybeMessageIN4TSCH23CommandChartApplyPresetEJEEEPT_PS1_DpOT0_,
                            __ZN6google8protobuf5Arena18CreateMaybeMessageIN4TSCH23CommandStyleSwapArchiveEJEEEPT_PS1_DpOT0_,
                            __ZN6google8protobuf5Arena18CreateMaybeMessageIN4TSCH24Chart3DPointLightArchiveEJEEEPT_PS1_DpOT0_,
                            __ZN6google8protobuf5Arena18CreateMaybeMessageIN4TSCH24ChartAxisNonStyleArchiveEJEEEPT_PS1_DpOT0_,
                            __ZN6google8protobuf5Arena18CreateMaybeMessageIN4TSCH24ChartCDESelectionArchiveEJEEEPT_PS1_DpOT0_,
                            __ZN6google8protobuf5Arena18CreateMaybeMessageIN4TSCH24ChartGarlicMinMaxUpgradeEJEEEPT_PS1_DpOT0_,
                            __ZN6google8protobuf5Arena18CreateMaybeMessageIN4TSCH24CommandPasteStyleArchiveEJEEEPT_PS1_DpOT0_,
                            __ZN6google8protobuf5Arena18CreateMaybeMessageIN4TSCH25ChartSelectionPathArchiveEJEEEPT_PS1_DpOT0_,
                            __ZN6google8protobuf5Arena18CreateMaybeMessageIN4TSCH25CommandAddGridRowsArchiveEJEEEPT_PS1_DpOT0_,
                            __ZN6google8protobuf5Arena18CreateMaybeMessageIN4TSCH25CommandInvalidateWPCachesEJEEEPT_PS1_DpOT0_,
                            __ZN6google8protobuf5Arena18CreateMaybeMessageIN4TSCH25ReferenceLineStyleArchiveEJEEEPT_PS1_DpOT0_,
                            __ZN6google8protobuf5Arena18CreateMaybeMessageIN4TSCH25StyleSwapUndoTupleArchiveEJEEEPT_PS1_DpOT0_,
                            __ZN6google8protobuf5Arena18CreateMaybeMessageIN4TSCH26ChartMultiDataIndexUpgradeEJEEEPT_PS1_DpOT0_,
                            __ZN6google8protobuf5Arena18CreateMaybeMessageIN4TSCH26ChartReferenceLinesArchiveEJEEEPT_PS1_DpOT0_,
                            __ZN6google8protobuf5Arena18CreateMaybeMessageIN4TSCH26ChartSeriesNonStyleArchiveEJEEEPT_PS1_DpOT0_,
                            __ZN6google8protobuf5Arena18CreateMaybeMessageIN4TSCH26CommandApplyFillSetArchiveEJEEEPT_PS1_DpOT0_,
                            __ZN6google8protobuf5Arena18CreateMaybeMessageIN4TSCH26CommandMoveGridRowsArchiveEJEEEPT_PS1_DpOT0_,
                            __ZN6google8protobuf5Arena18CreateMaybeMessageIN4TSCH26CommandScaleAllTextArchiveEJEEEPT_PS1_DpOT0_,
                            __ZN6google8protobuf5Arena18CreateMaybeMessageIN4TSCH26CommandSetChartTypeArchiveEJEEEPT_PS1_DpOT0_,
                            __ZN6google8protobuf5Arena18CreateMaybeMessageIN4TSCH26CommandSetGridValueArchiveEJEEEPT_PS1_DpOT0_,
                            __ZN6google8protobuf5Arena18CreateMaybeMessageIN4TSCH26StylePasteboardDataArchiveEJEEEPT_PS1_DpOT0_,
                            __ZN6google8protobuf5Arena18CreateMaybeMessageIN4TSCH26StyleSwapUndoTuplesArchiveEJEEEPT_PS1_DpOT0_,
                            __ZN6google8protobuf5Arena18CreateMaybeMessageIN4TSCH27Chart3DLightingModelArchiveEJEEEPT_PS1_DpOT0_,
                            __ZN6google8protobuf5Arena18CreateMaybeMessageIN4TSCH27ChartFormatStructExtensionsEJEEEPT_PS1_DpOT0_,
                            __ZN6google8protobuf5Arena18CreateMaybeMessageIN4TSCH27ChartsNSNumberDoubleArchiveEJEEEPT_PS1_DpOT0_,
                            __ZN6google8protobuf5Arena18CreateMaybeMessageIN4TSCH27CommandSetFontFamilyArchiveEJEEEPT_PS1_DpOT0_,
                            __ZN6google8protobuf5Arena18CreateMaybeMessageIN4TSCH27CommandSetPieWedgeExplosionEJEEEPT_PS1_DpOT0_,
                            __ZN6google8protobuf5Arena18CreateMaybeMessageIN4TSCH27CommandSetSeriesNameArchiveEJEEEPT_PS1_DpOT0_,
                            __ZN6google8protobuf5Arena18CreateMaybeMessageIN4TSCH27CommandSetSeriesTypeArchiveEJEEEPT_PS1_DpOT0_,
                            __ZN6google8protobuf5Arena18CreateMaybeMessageIN4TSCH28CommandAddGridColumnsArchiveEJEEEPT_PS1_DpOT0_,
                            __ZN6google8protobuf5Arena18CreateMaybeMessageIN4TSCH28CommandDeleteGridRowsArchiveEJEEEPT_PS1_DpOT0_,
                            __ZN6google8protobuf5Arena18CreateMaybeMessageIN4TSCH28CommandSetLegendFrameArchiveEJEEEPT_PS1_DpOT0_,
                            __ZN6google8protobuf5Arena18CreateMaybeMessageIN4TSCH28DEPRECATEDChart3DFillArchiveEJEEEPT_PS1_DpOT0_,
                            __ZN6google8protobuf5Arena18CreateMaybeMessageIN4TSCH28ReferenceLineNonStyleArchiveEJEEEPT_PS1_DpOT0_,
                            __ZN6google8protobuf5Arena18CreateMaybeMessageIN4TSCH29Chart3DDiffuseMaterialArchiveEJEEEPT_PS1_DpOT0_,
                            __ZN6google8protobuf5Arena18CreateMaybeMessageIN4TSCH29Chart3DLightingPackageArchiveEJEEEPT_PS1_DpOT0_,
                            __ZN6google8protobuf5Arena18CreateMaybeMessageIN4TSCH29ChartGarlicLabelFormatUpgradeEJEEEPT_PS1_DpOT0_,
                            __ZN6google8protobuf5Arena18CreateMaybeMessageIN4TSCH29ChartSelectionPathTypeArchiveEJEEEPT_PS1_DpOT0_,
                            __ZN6google8protobuf5Arena18CreateMaybeMessageIN4TSCH29CommandCleanupGeometryArchiveEJEEEPT_PS1_DpOT0_,
                            __ZN6google8protobuf5Arena18CreateMaybeMessageIN4TSCH29CommandInduced3DChartGeometryEJEEEPT_PS1_DpOT0_,
                            __ZN6google8protobuf5Arena18CreateMaybeMessageIN4TSCH29CommandMoveGridColumnsArchiveEJEEEPT_PS1_DpOT0_,
                            __ZN6google8protobuf5Arena18CreateMaybeMessageIN4TSCH29CommandSetCategoryNameArchiveEJEEEPT_PS1_DpOT0_,
                            __ZN6google8protobuf5Arena18CreateMaybeMessageIN4TSCH30CDESelectionTransformerArchiveEJEEEPT_PS1_DpOT0_,
                            __ZN6google8protobuf5Arena18CreateMaybeMessageIN4TSCH30Chart3DDirectionalLightArchiveEJEEEPT_PS1_DpOT0_,
                            __ZN6google8protobuf5Arena18CreateMaybeMessageIN4TSCH30Chart3DEmissiveMaterialArchiveEJEEEPT_PS1_DpOT0_,
                            __ZN6google8protobuf5Arena18CreateMaybeMessageIN4TSCH30Chart3DModulateMaterialArchiveEJEEEPT_PS1_DpOT0_,
                            __ZN6google8protobuf5Arena18CreateMaybeMessageIN4TSCH30Chart3DSpecularMaterialArchiveEJEEEPT_PS1_DpOT0_,
                            __ZN6google8protobuf5Arena18CreateMaybeMessageIN4TSCH30Chart3DTexturesMaterialArchiveEJEEEPT_PS1_DpOT0_,
                            __ZN6google8protobuf5Arena18CreateMaybeMessageIN4TSCH30ChartReferenceLineNonStyleItemEJEEEPT_PS1_DpOT0_,
                            __ZN6google8protobuf5Arena18CreateMaybeMessageIN4TSCH30CommandAddReferenceLineArchiveEJEEEPT_PS1_DpOT0_,
                            __ZN6google8protobuf5Arena18CreateMaybeMessageIN4TSCH30CommandInducedReplaceChartGridEJEEEPT_PS1_DpOT0_,
                            __ZN6google8protobuf5Arena18CreateMaybeMessageIN4TSCH30CommandMutatePropertiesArchiveEJEEEPT_PS1_DpOT0_,
                            __ZN6google8protobuf5Arena18CreateMaybeMessageIN4TSCH30CommandReplaceImageDataArchiveEJEEEPT_PS1_DpOT0_,
                            __ZN6google8protobuf5Arena18CreateMaybeMessageIN4TSCH30CommandSetGridDirectionArchiveEJEEEPT_PS1_DpOT0_,
                            __ZN6google8protobuf5Arena18CreateMaybeMessageIN4TSCH30CommandSetScatterFormatArchiveEJEEEPT_PS1_DpOT0_,
                            __ZN6google8protobuf5Arena18CreateMaybeMessageIN4TSCH31Chart3DShininessMaterialArchiveEJEEEPT_PS1_DpOT0_,
                            __ZN6google8protobuf5Arena18CreateMaybeMessageIN4TSCH31ChartPasteboardAdditionsArchiveEJEEEPT_PS1_DpOT0_,
                            __ZN6google8protobuf5Arena18CreateMaybeMessageIN4TSCH31CommandDeleteGridColumnsArchiveEJEEEPT_PS1_DpOT0_,
                            __ZN6google8protobuf5Arena18CreateMaybeMessageIN4TSCH31CommandReplaceGridValuesArchiveEJEEEPT_PS1_DpOT0_,
                            __ZN6google8protobuf5Arena18CreateMaybeMessageIN4TSCH32Chart3DEnvironmentPackageArchiveEJEEEPT_PS1_DpOT0_,
                            __ZN6google8protobuf5Arena18CreateMaybeMessageIN4TSCH32Chart3DImageTextureTilingArchiveEJEEEPT_PS1_DpOT0_,
                            __ZN6google8protobuf5Arena18CreateMaybeMessageIN4TSCH32Chart3DPhongLightingModelArchiveEJEEEPT_PS1_DpOT0_,
                            __ZN6google8protobuf5Arena18CreateMaybeMessageIN4TSCH32CommandReplaceThemePresetArchiveEJEEEPT_PS1_DpOT0_,
                            __ZN6google8protobuf5Arena18CreateMaybeMessageIN4TSCH33Chart3DEnvironmentMaterialArchiveEJEEEPT_PS1_DpOT0_,
                            __ZN6google8protobuf5Arena18CreateMaybeMessageIN4TSCH33Chart3DTSPImageDataTextureArchiveEJEEEPT_PS1_DpOT0_,
                            __ZN6google8protobuf5Arena18CreateMaybeMessageIN4TSCH33ChartSelectionPathArgumentArchiveEJEEEPT_PS1_DpOT0_,
                            __ZN6google8protobuf5Arena18CreateMaybeMessageIN4TSCH33ChartUIStateMultiDataIndexUpgradeEJEEEPT_PS1_DpOT0_,
                            __ZN6google8protobuf5Arena18CreateMaybeMessageIN4TSCH33CommandDeleteReferenceLineArchiveEJEEEPT_PS1_DpOT0_,
                            __ZN6google8protobuf5Arena18CreateMaybeMessageIN4TSCH33CommandReplaceCustomFormatArchiveEJEEEPT_PS1_DpOT0_,
                            __ZN6google8protobuf5Arena18CreateMaybeMessageIN4TSCH34Chart3DPhongMaterialPackageArchiveEJEEEPT_PS1_DpOT0_,
                            __ZN6google8protobuf5Arena18CreateMaybeMessageIN4TSCH34ChartSupportsRoundedCornersArchiveEJEEEPT_PS1_DpOT0_,
                            __ZN6google8protobuf5Arena18CreateMaybeMessageIN4TSCH34CommandSetMultiDataSetIndexArchiveEJEEEPT_PS1_DpOT0_,
                            __ZN6google8protobuf5Arena18CreateMaybeMessageIN4TSCH35ChartAxisReferenceLineStylesArchiveEJEEEPT_PS1_DpOT0_,
                            __ZN6google8protobuf5Arena18CreateMaybeMessageIN4TSCH35ChartSubselectionTransformerArchiveEJEEEPT_PS1_DpOT0_,
                            __ZN6google8protobuf5Arena18CreateMaybeMessageIN4TSCH36Chart3DBaseImageTextureTilingArchiveEJEEEPT_PS1_DpOT0_,
                            __ZN6google8protobuf5Arena18CreateMaybeMessageIN4TSCH36ChartTextSelectionTransformerArchiveEJEEEPT_PS1_DpOT0_,
                            __ZN6google8protobuf5Arena18CreateMaybeMessageIN4TSCH36ChartsNSArrayOfNSNumberDoubleArchiveEJEEEPT_PS1_DpOT0_,
                            __ZN6google8protobuf5Arena18CreateMaybeMessageIN4TSCH36PropertyValueStorageContainerArchiveEJEEEPT_PS1_DpOT0_,
                            __ZN6google8protobuf5Arena18CreateMaybeMessageIN4TSCH37ChartPresetReferenceLineStylesArchiveEJEEEPT_PS1_DpOT0_,
                            __ZN6google8protobuf5Arena18CreateMaybeMessageIN4TSCH38ChartAxisReferenceLineNonStylesArchiveEJEEEPT_PS1_DpOT0_,
                            __ZN6google8protobuf5Arena18CreateMaybeMessageIN4TSCH39ChartPreserveAppearanceForPresetArchiveEJEEEPT_PS1_DpOT0_,
                            __ZN6google8protobuf5Arena18CreateMaybeMessageIN4TSCH40Chart3DFixedFunctionLightingModelArchiveEJEEEPT_PS1_DpOT0_,
                            __ZN6google8protobuf5Arena18CreateMaybeMessageIN4TSCH40ChartDrawableSelectionTransformerArchiveEJEEEPT_PS1_DpOT0_,
                            __ZN6google8protobuf5Arena18CreateMaybeMessageIN4TSCH40ChartGridArchive_ChartGridRowColumnIdMapEJEEEPT_PS1_DpOT0_,
                            __ZN6google8protobuf5Arena18CreateMaybeMessageIN4TSCH41ChartSubselectionTransformerHelperArchiveEJEEEPT_PS1_DpOT0_,
                            __ZN6google8protobuf5Arena18CreateMaybeMessageIN4TSCH41ChartSupportsSeriesPropertySpacingArchiveEJEEEPT_PS1_DpOT0_,
                            __ZN6google8protobuf5Arena18CreateMaybeMessageIN4TSCH44ChartAxisReferenceLineSparseNonStylesArchiveEJEEEPT_PS1_DpOT0_,
                            __ZN6google8protobuf5Arena18CreateMaybeMessageIN4TSCH44CommandSetFontFamilyArchive_StyleSemanticTagEJEEEPT_PS1_DpOT0_,
                            __ZN6google8protobuf5Arena18CreateMaybeMessageIN4TSCH46ChartGridArchive_ChartGridRowColumnIdMap_EntryEJEEEPT_PS1_DpOT0_,
                            __ZN6google8protobuf5Arena18CreateMaybeMessageIN4TSCH48ChartRefLineSubselectionTransformerHelperArchiveEJEEEPT_PS1_DpOT0_,
                            __ZN6google8protobuf5Arena18CreateMaybeMessageIN4TSCH49ChartSubselectionIdentityTransformerHelperArchiveEJEEEPT_PS1_DpOT0_,
                            __ZN6google8protobuf5Arena18CreateMaybeMessageIN4TSCH50ChartSupportsProportionalBendedCalloutLinesArchiveEJEEEPT_PS1_DpOT0_,
                            __ZN6google8protobuf5Arena18CreateMaybeMessageIN4TSCH50PropertyValueStorageContainerReferenceLinesArchiveEJEEEPT_PS1_DpOT0_,
                            __ZN6google8protobuf5Arena18CreateMaybeMessageIN4TSCH53CommandMutatePropertiesArchive_ParagraphStyleDeltaMapEJEEEPT_PS1_DpOT0_,
                            __ZN6google8protobuf5Arena18CreateMaybeMessageIN4TSCH54CommandMutatePropertiesArchive_GenericPropertyDeltaMapEJEEEPT_PS1_DpOT0_,
                            __ZN6google8protobuf5Arena18CreateMaybeMessageIN4TSCH54CommandReplaceCustomFormatArchive_FormatObjectMutationEJEEEPT_PS1_DpOT0_,
                            __ZN6google8protobuf5Arena18CreateMaybeMessageIN4TSCH55CommandReplaceThemePresetArchive_StyleAndIdentifierPairEJEEEPT_PS1_DpOT0_,
                            __ZN6google8protobuf5Arena18CreateMaybeMessageIN4TSCH61CommandSetFontFamilyArchive_SemanticParagraphStyleMutationMapEJEEEPT_PS1_DpOT0_,
                            __ZN6google8protobuf5Arena18CreateMaybeMessageIN4TSCH6PreUFF16ChartGridArchiveEJEEEPT_PS1_DpOT0_,
                            __ZN6google8protobuf5Arena18CreateMaybeMessageIN4TSCH6PreUFF16ChartInfoArchiveEJEEEPT_PS1_DpOT0_,
                            __ZN6google8protobuf5Arena18CreateMaybeMessageIN4TSCH6PreUFF17ChartModelArchiveEJEEEPT_PS1_DpOT0_,
                            __ZN6google8protobuf5Arena18CreateMaybeMessageIN4TSCH6PreUFF17ChartStyleArchiveEJEEEPT_PS1_DpOT0_,
                            __ZN6google8protobuf5Arena18CreateMaybeMessageIN4TSCH6PreUFF18LegendModelArchiveEJEEEPT_PS1_DpOT0_,
                            __ZN6google8protobuf5Arena18CreateMaybeMessageIN4TSCH6PreUFF18LegendStyleArchiveEJEEEPT_PS1_DpOT0_,
                            __ZN6google8protobuf5Arena18CreateMaybeMessageIN4TSCH6PreUFF20ChartNonStyleArchiveEJEEEPT_PS1_DpOT0_,
                            __ZN6google8protobuf5Arena18CreateMaybeMessageIN4TSCH6PreUFF21ChartAxisStyleArchiveEJEEEPT_PS1_DpOT0_,
                            __ZN6google8protobuf5Arena18CreateMaybeMessageIN4TSCH6PreUFF21LegendNonStyleArchiveEJEEEPT_PS1_DpOT0_,
                            __ZN6google8protobuf5Arena18CreateMaybeMessageIN4TSCH6PreUFF23ChartSeriesStyleArchiveEJEEEPT_PS1_DpOT0_,
                            __ZN6google8protobuf5Arena18CreateMaybeMessageIN4TSCH6PreUFF24ChartAxisNonStyleArchiveEJEEEPT_PS1_DpOT0_,
                            __ZN6google8protobuf5Arena18CreateMaybeMessageIN4TSCH6PreUFF25ChartGridArchive_ValueRowEJEEEPT_PS1_DpOT0_,
                            __ZN6google8protobuf5Arena18CreateMaybeMessageIN4TSCH6PreUFF25ChartsNumberFormatArchiveEJEEEPT_PS1_DpOT0_,
                            __ZN6google8protobuf5Arena18CreateMaybeMessageIN4TSCH6PreUFF26ChartSeriesNonStyleArchiveEJEEEPT_PS1_DpOT0_,
                            __ZN6google8protobuf5Arena18CreateMaybeMessageIN4TSCH70CommandMutatePropertiesArchive_GenericPropertyDeltaMap_GenericMapUnionEJEEEPT_PS1_DpOT0_,
                            __ZN6google8protobuf5Arena18CreateMaybeMessageIN4TSCH7GridRowEJEEEPT_PS1_DpOT0_,
                            __ZN6google8protobuf5Arena18CreateMaybeMessageIN4TSCH86CommandMutatePropertiesArchive_ParagraphStyleDeltaMap_ParagraphStylePropertyMapArchiveEJEEEPT_PS1_DpOT0_,
                            __ZN6google8protobuf5Arena18CreateMaybeMessageIN4TSCH94CommandSetFontFamilyArchive_SemanticParagraphStyleMutationMap_ParagraphStylePropertyMapArchiveEJEEEPT_PS1_DpOT0_,
                            __ZN6google8protobuf5Arena18CreateMaybeMessageIN4TSCH9Generated17ChartStyleArchiveEJEEEPT_PS1_DpOT0_,
                            __ZN6google8protobuf5Arena18CreateMaybeMessageIN4TSCH9Generated18LegendStyleArchiveEJEEEPT_PS1_DpOT0_,
                            __ZN6google8protobuf5Arena18CreateMaybeMessageIN4TSCH9Generated20ChartNonStyleArchiveEJEEEPT_PS1_DpOT0_,
                            __ZN6google8protobuf5Arena18CreateMaybeMessageIN4TSCH9Generated21ChartAxisStyleArchiveEJEEEPT_PS1_DpOT0_,
                            __ZN6google8protobuf5Arena18CreateMaybeMessageIN4TSCH9Generated21LegendNonStyleArchiveEJEEEPT_PS1_DpOT0_,
                            __ZN6google8protobuf5Arena18CreateMaybeMessageIN4TSCH9Generated23ChartSeriesStyleArchiveEJEEEPT_PS1_DpOT0_,
                            __ZN6google8protobuf5Arena18CreateMaybeMessageIN4TSCH9Generated24ChartAxisNonStyleArchiveEJEEEPT_PS1_DpOT0_,
                            __ZN6google8protobuf5Arena18CreateMaybeMessageIN4TSCH9Generated25ReferenceLineStyleArchiveEJEEEPT_PS1_DpOT0_,
                            __ZN6google8protobuf5Arena18CreateMaybeMessageIN4TSCH9Generated26ChartSeriesNonStyleArchiveEJEEEPT_PS1_DpOT0_,
                            __ZN6google8protobuf5Arena18CreateMaybeMessageIN4TSCH9Generated28ReferenceLineNonStyleArchiveEJEEEPT_PS1_DpOT0_,
                            __ZN6google8protobuf5Arena18CreateMaybeMessageIN4TSCH9Generated30ChartGenericPropertyMapArchiveEJEEEPT_PS1_DpOT0_,
                            __ZN6google8protobuf5Arena18CreateMaybeMessageIN4TSCH9Generated31LegendGenericPropertyMapArchiveEJEEEPT_PS1_DpOT0_,
                            __ZN6google8protobuf5Arena18CreateMaybeMessageIN4TSCH9Generated34ChartAxisGenericPropertyMapArchiveEJEEEPT_PS1_DpOT0_,
                            __ZN6google8protobuf5Arena18CreateMaybeMessageIN4TSCH9Generated36ChartSeriesGenericPropertyMapArchiveEJEEEPT_PS1_DpOT0_,
                            __ZN6google8protobuf5Arena18CreateMaybeMessageIN4TSCH9Generated38ReferenceLineGenericPropertyMapArchiveEJEEEPT_PS1_DpOT0_,
                            __ZN6google8protobuf5Arena18CreateMaybeMessageIN4TSCH9GridValueEJEEEPT_PS1_DpOT0_,
                            __ZN6google8protobuf5Arena18CreateMaybeMessageIN7TSCHSOS23SpecFormatObjectArchiveEJEEEPT_PS1_DpOT0_,
                            __ZN6google8protobuf5Arena18CreateMaybeMessageIN7TSCHSOS23SpecNumberFormatArchiveEJEEEPT_PS1_DpOT0_,
                            __ZN6google8protobuf5Arena18CreateMaybeMessageIN7TSCHSOS24SpecChart3dVectorArchiveEJEEEPT_PS1_DpOT0_,
                            __ZN6google8protobuf5Arena18CreateMaybeMessageIN7TSCHSOS26SpecSetFormatObjectArchiveEJEEEPT_PS1_DpOT0_,
                            __ZN6google8protobuf5Arena18CreateMaybeMessageIN7TSCHSOS26SpecSetNumberFormatArchiveEJEEEPT_PS1_DpOT0_,
                            __ZN6google8protobuf5Arena18CreateMaybeMessageIN7TSCHSOS27SpecSetChart3dVectorArchiveEJEEEPT_PS1_DpOT0_,
                            __ZN6google8protobuf5Arena18CreateMaybeMessageIN7TSCHSOS33SpecChart3dLightingPackageArchiveEJEEEPT_PS1_DpOT0_,
                            __ZN6google8protobuf5Arena18CreateMaybeMessageIN7TSCHSOS34ChartStylePropertyChangeSetArchiveEJEEEPT_PS1_DpOT0_,
                            __ZN6google8protobuf5Arena18CreateMaybeMessageIN7TSCHSOS34SpecChartErrorBarCustomDataArchiveEJEEEPT_PS1_DpOT0_,
                            __ZN6google8protobuf5Arena18CreateMaybeMessageIN7TSCHSOS36SpecSetChart3dLightingPackageArchiveEJEEEPT_PS1_DpOT0_,
                            __ZN6google8protobuf5Arena18CreateMaybeMessageIN7TSCHSOS37ChartNonStylePropertyChangeSetArchiveEJEEEPT_PS1_DpOT0_,
                            __ZN6google8protobuf5Arena18CreateMaybeMessageIN7TSCHSOS37SpecSetChartErrorBarCustomDataArchiveEJEEEPT_PS1_DpOT0_,
                            __ZN6google8protobuf5Arena18CreateMaybeMessageIN7TSCHSOS38ChartAxisStylePropertyChangeSetArchiveEJEEEPT_PS1_DpOT0_,
                            __ZN6google8protobuf5Arena18CreateMaybeMessageIN7TSCHSOS38SpecChartsOptionalDoubleArchiveArchiveEJEEEPT_PS1_DpOT0_,
                            __ZN6google8protobuf5Arena18CreateMaybeMessageIN7TSCHSOS40ChartLegendStylePropertyChangeSetArchiveEJEEEPT_PS1_DpOT0_,
                            __ZN6google8protobuf5Arena18CreateMaybeMessageIN7TSCHSOS40ChartSeriesStylePropertyChangeSetArchiveEJEEEPT_PS1_DpOT0_,
                            __ZN6google8protobuf5Arena18CreateMaybeMessageIN7TSCHSOS41ChartAxisNonStylePropertyChangeSetArchiveEJEEEPT_PS1_DpOT0_,
                            __ZN6google8protobuf5Arena18CreateMaybeMessageIN7TSCHSOS41SpecSetChartsOptionalDoubleArchiveArchiveEJEEEPT_PS1_DpOT0_,
                            __ZN6google8protobuf5Arena18CreateMaybeMessageIN7TSCHSOS43ChartLegendNonStylePropertyChangeSetArchiveEJEEEPT_PS1_DpOT0_,
                            __ZN6google8protobuf5Arena18CreateMaybeMessageIN7TSCHSOS43ChartSeriesNonStylePropertyChangeSetArchiveEJEEEPT_PS1_DpOT0_,
                            __ZN6google8protobuf5Arena18CreateMaybeMessageIN7TSCHSOS47ChartReferenceLineStylePropertyChangeSetArchiveEJEEEPT_PS1_DpOT0_,
                            __ZN6google8protobuf5Arena18CreateMaybeMessageIN7TSCHSOS50ChartReferenceLineNonStylePropertyChangeSetArchiveEJEEEPT_PS1_DpOT0_,
                            __ZN7TSCHSOS23SpecFormatObjectArchive12InternalSwapEPS0_,
                            __ZN7TSCHSOS23SpecFormatObjectArchive14_InternalParseEPKcPN6google8protobuf8internal12ParseContextE,
                            __ZN7TSCHSOS23SpecFormatObjectArchive16default_instanceEv,
                            __ZN7TSCHSOS23SpecFormatObjectArchive5ClearEv,
                            __ZN7TSCHSOS23SpecFormatObjectArchive8CopyFromERKN6google8protobuf7MessageE,
                            __ZN7TSCHSOS23SpecFormatObjectArchive8CopyFromERKS0_,
                            __ZN7TSCHSOS23SpecFormatObjectArchive9ArenaDtorEPv,
                            __ZN7TSCHSOS23SpecFormatObjectArchive9MergeFromERKN6google8protobuf7MessageE,
                            __ZN7TSCHSOS23SpecFormatObjectArchive9MergeFromERKS0_,
                            __ZN7TSCHSOS23SpecFormatObjectArchive9_Internal22spec_set_format_objectEPKS0_,
                            __ZN7TSCHSOS23SpecFormatObjectArchiveC1EPN6google8protobuf5ArenaE,
                            __ZN7TSCHSOS23SpecFormatObjectArchiveC1ERKS0_,
                            __ZN7TSCHSOS23SpecFormatObjectArchiveC2EPN6google8protobuf5ArenaE,
                            __ZN7TSCHSOS23SpecFormatObjectArchiveC2ERKS0_,
                            __ZN7TSCHSOS23SpecFormatObjectArchiveD0Ev,
                            __ZN7TSCHSOS23SpecFormatObjectArchiveD1Ev,
                            __ZN7TSCHSOS23SpecFormatObjectArchiveD2Ev,
                            __ZN7TSCHSOS23SpecNumberFormatArchive12InternalSwapEPS0_,
                            __ZN7TSCHSOS23SpecNumberFormatArchive14_InternalParseEPKcPN6google8protobuf8internal12ParseContextE,
                            __ZN7TSCHSOS23SpecNumberFormatArchive16default_instanceEv,
                            __ZN7TSCHSOS23SpecNumberFormatArchive5ClearEv,
                            __ZN7TSCHSOS23SpecNumberFormatArchive8CopyFromERKN6google8protobuf7MessageE,
                            __ZN7TSCHSOS23SpecNumberFormatArchive8CopyFromERKS0_,
                            __ZN7TSCHSOS23SpecNumberFormatArchive9ArenaDtorEPv,
                            __ZN7TSCHSOS23SpecNumberFormatArchive9MergeFromERKN6google8protobuf7MessageE,
                            __ZN7TSCHSOS23SpecNumberFormatArchive9MergeFromERKS0_,
                            __ZN7TSCHSOS23SpecNumberFormatArchive9_Internal22spec_set_number_formatEPKS0_,
                            __ZN7TSCHSOS23SpecNumberFormatArchiveC1EPN6google8protobuf5ArenaE,
                            __ZN7TSCHSOS23SpecNumberFormatArchiveC1ERKS0_,
                            __ZN7TSCHSOS23SpecNumberFormatArchiveC2EPN6google8protobuf5ArenaE,
                            __ZN7TSCHSOS23SpecNumberFormatArchiveC2ERKS0_,
                            __ZN7TSCHSOS23SpecNumberFormatArchiveD0Ev,
                            __ZN7TSCHSOS23SpecNumberFormatArchiveD1Ev,
                            __ZN7TSCHSOS23SpecNumberFormatArchiveD2Ev,
                            __ZN7TSCHSOS24SpecChart3dVectorArchive12InternalSwapEPS0_,
                            __ZN7TSCHSOS24SpecChart3dVectorArchive14_InternalParseEPKcPN6google8protobuf8internal12ParseContextE,
                            __ZN7TSCHSOS24SpecChart3dVectorArchive16default_instanceEv,
                            __ZN7TSCHSOS24SpecChart3dVectorArchive5ClearEv,
                            __ZN7TSCHSOS24SpecChart3dVectorArchive8CopyFromERKN6google8protobuf7MessageE,
                            __ZN7TSCHSOS24SpecChart3dVectorArchive8CopyFromERKS0_,
                            __ZN7TSCHSOS24SpecChart3dVectorArchive9ArenaDtorEPv,
                            __ZN7TSCHSOS24SpecChart3dVectorArchive9MergeFromERKN6google8protobuf7MessageE,
                            __ZN7TSCHSOS24SpecChart3dVectorArchive9MergeFromERKS0_,
                            __ZN7TSCHSOS24SpecChart3dVectorArchive9_Internal23spec_set_chart3d_vectorEPKS0_,
                            __ZN7TSCHSOS24SpecChart3dVectorArchiveC1EPN6google8protobuf5ArenaE,
                            __ZN7TSCHSOS24SpecChart3dVectorArchiveC1ERKS0_,
                            __ZN7TSCHSOS24SpecChart3dVectorArchiveC2EPN6google8protobuf5ArenaE,
                            __ZN7TSCHSOS24SpecChart3dVectorArchiveC2ERKS0_,
                            __ZN7TSCHSOS24SpecChart3dVectorArchiveD0Ev,
                            __ZN7TSCHSOS24SpecChart3dVectorArchiveD1Ev,
                            __ZN7TSCHSOS24SpecChart3dVectorArchiveD2Ev,
                            __ZN7TSCHSOS26SpecSetFormatObjectArchive12InternalSwapEPS0_,
                            __ZN7TSCHSOS26SpecSetFormatObjectArchive14_InternalParseEPKcPN6google8protobuf8internal12ParseContextE,
                            __ZN7TSCHSOS26SpecSetFormatObjectArchive16default_instanceEv,
                            __ZN7TSCHSOS26SpecSetFormatObjectArchive19clear_format_objectEv,
                            __ZN7TSCHSOS26SpecSetFormatObjectArchive5ClearEv,
                            __ZN7TSCHSOS26SpecSetFormatObjectArchive8CopyFromERKN6google8protobuf7MessageE,
                            __ZN7TSCHSOS26SpecSetFormatObjectArchive8CopyFromERKS0_,
                            __ZN7TSCHSOS26SpecSetFormatObjectArchive9ArenaDtorEPv,
                            __ZN7TSCHSOS26SpecSetFormatObjectArchive9MergeFromERKN6google8protobuf7MessageE,
                            __ZN7TSCHSOS26SpecSetFormatObjectArchive9MergeFromERKS0_,
                            __ZN7TSCHSOS26SpecSetFormatObjectArchive9_Internal13format_objectEPKS0_,
                            __ZN7TSCHSOS26SpecSetFormatObjectArchiveC1EPN6google8protobuf5ArenaE,
                            __ZN7TSCHSOS26SpecSetFormatObjectArchiveC1ERKS0_,
                            __ZN7TSCHSOS26SpecSetFormatObjectArchiveC2EPN6google8protobuf5ArenaE,
                            __ZN7TSCHSOS26SpecSetFormatObjectArchiveC2ERKS0_,
                            __ZN7TSCHSOS26SpecSetFormatObjectArchiveD0Ev,
                            __ZN7TSCHSOS26SpecSetFormatObjectArchiveD1Ev,
                            __ZN7TSCHSOS26SpecSetFormatObjectArchiveD2Ev,
                            __ZN7TSCHSOS26SpecSetNumberFormatArchive12InternalSwapEPS0_,
                            __ZN7TSCHSOS26SpecSetNumberFormatArchive14_InternalParseEPKcPN6google8protobuf8internal12ParseContextE,
                            __ZN7TSCHSOS26SpecSetNumberFormatArchive16default_instanceEv,
                            __ZN7TSCHSOS26SpecSetNumberFormatArchive19clear_number_formatEv,
                            __ZN7TSCHSOS26SpecSetNumberFormatArchive5ClearEv,
                            __ZN7TSCHSOS26SpecSetNumberFormatArchive8CopyFromERKN6google8protobuf7MessageE,
                            __ZN7TSCHSOS26SpecSetNumberFormatArchive8CopyFromERKS0_,
                            __ZN7TSCHSOS26SpecSetNumberFormatArchive9ArenaDtorEPv,
                            __ZN7TSCHSOS26SpecSetNumberFormatArchive9MergeFromERKN6google8protobuf7MessageE,
                            __ZN7TSCHSOS26SpecSetNumberFormatArchive9MergeFromERKS0_,
                            __ZN7TSCHSOS26SpecSetNumberFormatArchive9_Internal13number_formatEPKS0_,
                            __ZN7TSCHSOS26SpecSetNumberFormatArchiveC1EPN6google8protobuf5ArenaE,
                            __ZN7TSCHSOS26SpecSetNumberFormatArchiveC1ERKS0_,
                            __ZN7TSCHSOS26SpecSetNumberFormatArchiveC2EPN6google8protobuf5ArenaE,
                            __ZN7TSCHSOS26SpecSetNumberFormatArchiveC2ERKS0_,
                            __ZN7TSCHSOS26SpecSetNumberFormatArchiveD0Ev,
                            __ZN7TSCHSOS26SpecSetNumberFormatArchiveD1Ev,
                            __ZN7TSCHSOS26SpecSetNumberFormatArchiveD2Ev,
                            __ZN7TSCHSOS27SpecSetChart3dVectorArchive12InternalSwapEPS0_,
                            __ZN7TSCHSOS27SpecSetChart3dVectorArchive14_InternalParseEPKcPN6google8protobuf8internal12ParseContextE,
                            __ZN7TSCHSOS27SpecSetChart3dVectorArchive16default_instanceEv,
                            __ZN7TSCHSOS27SpecSetChart3dVectorArchive20clear_chart3d_vectorEv,
                            __ZN7TSCHSOS27SpecSetChart3dVectorArchive5ClearEv,
                            __ZN7TSCHSOS27SpecSetChart3dVectorArchive8CopyFromERKN6google8protobuf7MessageE,
                            __ZN7TSCHSOS27SpecSetChart3dVectorArchive8CopyFromERKS0_,
                            __ZN7TSCHSOS27SpecSetChart3dVectorArchive9ArenaDtorEPv,
                            __ZN7TSCHSOS27SpecSetChart3dVectorArchive9MergeFromERKN6google8protobuf7MessageE,
                            __ZN7TSCHSOS27SpecSetChart3dVectorArchive9MergeFromERKS0_,
                            __ZN7TSCHSOS27SpecSetChart3dVectorArchive9_Internal14chart3d_vectorEPKS0_,
                            __ZN7TSCHSOS27SpecSetChart3dVectorArchiveC1EPN6google8protobuf5ArenaE,
                            __ZN7TSCHSOS27SpecSetChart3dVectorArchiveC1ERKS0_,
                            __ZN7TSCHSOS27SpecSetChart3dVectorArchiveC2EPN6google8protobuf5ArenaE,
                            __ZN7TSCHSOS27SpecSetChart3dVectorArchiveC2ERKS0_,
                            __ZN7TSCHSOS27SpecSetChart3dVectorArchiveD0Ev,
                            __ZN7TSCHSOS27SpecSetChart3dVectorArchiveD1Ev,
                            __ZN7TSCHSOS27SpecSetChart3dVectorArchiveD2Ev,
                            __ZN7TSCHSOS33SpecChart3dLightingPackageArchive12InternalSwapEPS0_,
                            __ZN7TSCHSOS33SpecChart3dLightingPackageArchive14_InternalParseEPKcPN6google8protobuf8internal12ParseContextE,
                            __ZN7TSCHSOS33SpecChart3dLightingPackageArchive16default_instanceEv,
                            __ZN7TSCHSOS33SpecChart3dLightingPackageArchive5ClearEv,
                            __ZN7TSCHSOS33SpecChart3dLightingPackageArchive8CopyFromERKN6google8protobuf7MessageE,
                            __ZN7TSCHSOS33SpecChart3dLightingPackageArchive8CopyFromERKS0_,
                            __ZN7TSCHSOS33SpecChart3dLightingPackageArchive9ArenaDtorEPv,
                            __ZN7TSCHSOS33SpecChart3dLightingPackageArchive9MergeFromERKN6google8protobuf7MessageE,
                            __ZN7TSCHSOS33SpecChart3dLightingPackageArchive9MergeFromERKS0_,
                            __ZN7TSCHSOS33SpecChart3dLightingPackageArchive9_Internal33spec_set_chart3d_lighting_packageEPKS0_,
                            __ZN7TSCHSOS33SpecChart3dLightingPackageArchiveC1EPN6google8protobuf5ArenaE,
                            __ZN7TSCHSOS33SpecChart3dLightingPackageArchiveC1ERKS0_,
                            __ZN7TSCHSOS33SpecChart3dLightingPackageArchiveC2EPN6google8protobuf5ArenaE,
                            __ZN7TSCHSOS33SpecChart3dLightingPackageArchiveC2ERKS0_,
                            __ZN7TSCHSOS33SpecChart3dLightingPackageArchiveD0Ev,
                            __ZN7TSCHSOS33SpecChart3dLightingPackageArchiveD1Ev,
                            __ZN7TSCHSOS33SpecChart3dLightingPackageArchiveD2Ev,
                            __ZN7TSCHSOS34ChartStylePropertyChangeSetArchive12InternalSwapEPS0_,
                            __ZN7TSCHSOS34ChartStylePropertyChangeSetArchive14_InternalParseEPKcPN6google8protobuf8internal12ParseContextE,
                            __ZN7TSCHSOS34ChartStylePropertyChangeSetArchive16default_instanceEv,
                            __ZN7TSCHSOS34ChartStylePropertyChangeSetArchive25clear_default_show_borderEv,
                            __ZN7TSCHSOS34ChartStylePropertyChangeSetArchive25clear_default_title_colorEv,
                            __ZN7TSCHSOS34ChartStylePropertyChangeSetArchive27clear_default_border_shadowEv,
                            __ZN7TSCHSOS34ChartStylePropertyChangeSetArchive27clear_default_border_strokeEv,
                            __ZN7TSCHSOS34ChartStylePropertyChangeSetArchive27clear_default_inter_bar_gapEv,
                            __ZN7TSCHSOS34ChartStylePropertyChangeSetArchive27clear_default_inter_set_gapEv,
                            __ZN7TSCHSOS34ChartStylePropertyChangeSetArchive28clear_default_border_opacityEv,
                            __ZN7TSCHSOS34ChartStylePropertyChangeSetArchive28clear_default_combine_layersEv,
                            __ZN7TSCHSOS34ChartStylePropertyChangeSetArchive29clear_default3d_chart_opacityEv,
                            __ZN7TSCHSOS34ChartStylePropertyChangeSetArchive29clear_default_background_fillEv,
                            __ZN7TSCHSOS34ChartStylePropertyChangeSetArchive31clear_default_background_strokeEv,
                            __ZN7TSCHSOS34ChartStylePropertyChangeSetArchive34clear_default_grid_background_fillEv,
                            __ZN7TSCHSOS34ChartStylePropertyChangeSetArchive35clear_default_rounded_corner_radiusEv,
                            __ZN7TSCHSOS34ChartStylePropertyChangeSetArchive37clear_default_grid_background_opacityEv,
                            __ZN7TSCHSOS34ChartStylePropertyChangeSetArchive41clear_default_radar_radius_gridline_curveEv,
                            __ZN7TSCHSOS34ChartStylePropertyChangeSetArchive41clear_default_title_paragraph_style_indexEv,
                            __ZN7TSCHSOS34ChartStylePropertyChangeSetArchive43clear_default_rounded_corner_outer_end_onlyEv,
                            __ZN7TSCHSOS34ChartStylePropertyChangeSetArchive49clear_default_data_set_name_paragraph_style_indexEv,
                            __ZN7TSCHSOS34ChartStylePropertyChangeSetArchive5ClearEv,
                            __ZN7TSCHSOS34ChartStylePropertyChangeSetArchive8CopyFromERKN6google8protobuf7MessageE,
                            __ZN7TSCHSOS34ChartStylePropertyChangeSetArchive8CopyFromERKS0_,
                            __ZN7TSCHSOS34ChartStylePropertyChangeSetArchive9ArenaDtorEPv,
                            __ZN7TSCHSOS34ChartStylePropertyChangeSetArchive9MergeFromERKN6google8protobuf7MessageE,
                            __ZN7TSCHSOS34ChartStylePropertyChangeSetArchive9MergeFromERKS0_,
                            __ZN7TSCHSOS34ChartStylePropertyChangeSetArchive9_Internal19default_show_borderEPKS0_,
                            __ZN7TSCHSOS34ChartStylePropertyChangeSetArchive9_Internal19default_title_colorEPKS0_,
                            __ZN7TSCHSOS34ChartStylePropertyChangeSetArchive9_Internal21default_border_shadowEPKS0_,
                            __ZN7TSCHSOS34ChartStylePropertyChangeSetArchive9_Internal21default_border_strokeEPKS0_,
                            __ZN7TSCHSOS34ChartStylePropertyChangeSetArchive9_Internal21default_inter_bar_gapEPKS0_,
                            __ZN7TSCHSOS34ChartStylePropertyChangeSetArchive9_Internal21default_inter_set_gapEPKS0_,
                            __ZN7TSCHSOS34ChartStylePropertyChangeSetArchive9_Internal22bar3d_lighting_packageEPKS0_,
                            __ZN7TSCHSOS34ChartStylePropertyChangeSetArchive9_Internal22default_border_opacityEPKS0_,
                            __ZN7TSCHSOS34ChartStylePropertyChangeSetArchive9_Internal22default_combine_layersEPKS0_,
                            __ZN7TSCHSOS34ChartStylePropertyChangeSetArchive9_Internal22pie3d_lighting_packageEPKS0_,
                            __ZN7TSCHSOS34ChartStylePropertyChangeSetArchive9_Internal23area3d_lighting_packageEPKS0_,
                            __ZN7TSCHSOS34ChartStylePropertyChangeSetArchive9_Internal23default3d_chart_opacityEPKS0_,
                            __ZN7TSCHSOS34ChartStylePropertyChangeSetArchive9_Internal23default_background_fillEPKS0_,
                            __ZN7TSCHSOS34ChartStylePropertyChangeSetArchive9_Internal23line3d_lighting_packageEPKS0_,
                            __ZN7TSCHSOS34ChartStylePropertyChangeSetArchive9_Internal25column3d_lighting_packageEPKS0_,
                            __ZN7TSCHSOS34ChartStylePropertyChangeSetArchive9_Internal25default_background_strokeEPKS0_,
                            __ZN7TSCHSOS34ChartStylePropertyChangeSetArchive9_Internal26default3d_lighting_packageEPKS0_,
                            __ZN7TSCHSOS34ChartStylePropertyChangeSetArchive9_Internal28default_grid_background_fillEPKS0_,
                            __ZN7TSCHSOS34ChartStylePropertyChangeSetArchive9_Internal29default_rounded_corner_radiusEPKS0_,
                            __ZN7TSCHSOS34ChartStylePropertyChangeSetArchive9_Internal31default_grid_background_opacityEPKS0_,
                            __ZN7TSCHSOS34ChartStylePropertyChangeSetArchive9_Internal35default_radar_radius_gridline_curveEPKS0_,
                            __ZN7TSCHSOS34ChartStylePropertyChangeSetArchive9_Internal35default_title_paragraph_style_indexEPKS0_,
                            __ZN7TSCHSOS34ChartStylePropertyChangeSetArchive9_Internal37default_rounded_corner_outer_end_onlyEPKS0_,
                            __ZN7TSCHSOS34ChartStylePropertyChangeSetArchive9_Internal43default_data_set_name_paragraph_style_indexEPKS0_,
                            __ZN7TSCHSOS34ChartStylePropertyChangeSetArchiveC1EPN6google8protobuf5ArenaE,
                            __ZN7TSCHSOS34ChartStylePropertyChangeSetArchiveC1ERKS0_,
                            __ZN7TSCHSOS34ChartStylePropertyChangeSetArchiveC2EPN6google8protobuf5ArenaE,
                            __ZN7TSCHSOS34ChartStylePropertyChangeSetArchiveC2ERKS0_,
                            __ZN7TSCHSOS34ChartStylePropertyChangeSetArchiveD0Ev,
                            __ZN7TSCHSOS34ChartStylePropertyChangeSetArchiveD1Ev,
                            __ZN7TSCHSOS34ChartStylePropertyChangeSetArchiveD2Ev,
                            __ZN7TSCHSOS34SpecChartErrorBarCustomDataArchive12InternalSwapEPS0_,
                            __ZN7TSCHSOS34SpecChartErrorBarCustomDataArchive14_InternalParseEPKcPN6google8protobuf8internal12ParseContextE,
                            __ZN7TSCHSOS34SpecChartErrorBarCustomDataArchive16default_instanceEv,
                            __ZN7TSCHSOS34SpecChartErrorBarCustomDataArchive5ClearEv,
                            __ZN7TSCHSOS34SpecChartErrorBarCustomDataArchive8CopyFromERKN6google8protobuf7MessageE,
                            __ZN7TSCHSOS34SpecChartErrorBarCustomDataArchive8CopyFromERKS0_,
                            __ZN7TSCHSOS34SpecChartErrorBarCustomDataArchive9ArenaDtorEPv,
                            __ZN7TSCHSOS34SpecChartErrorBarCustomDataArchive9MergeFromERKN6google8protobuf7MessageE,
                            __ZN7TSCHSOS34SpecChartErrorBarCustomDataArchive9MergeFromERKS0_,
                            __ZN7TSCHSOS34SpecChartErrorBarCustomDataArchive9_Internal36spec_set_chart_error_bar_custom_dataEPKS0_,
                            __ZN7TSCHSOS34SpecChartErrorBarCustomDataArchiveC1EPN6google8protobuf5ArenaE,
                            __ZN7TSCHSOS34SpecChartErrorBarCustomDataArchiveC1ERKS0_,
                            __ZN7TSCHSOS34SpecChartErrorBarCustomDataArchiveC2EPN6google8protobuf5ArenaE,
                            __ZN7TSCHSOS34SpecChartErrorBarCustomDataArchiveC2ERKS0_,
                            __ZN7TSCHSOS34SpecChartErrorBarCustomDataArchiveD0Ev,
                            __ZN7TSCHSOS34SpecChartErrorBarCustomDataArchiveD1Ev,
                            __ZN7TSCHSOS34SpecChartErrorBarCustomDataArchiveD2Ev,
                            __ZN7TSCHSOS36SpecSetChart3dLightingPackageArchive12InternalSwapEPS0_,
                            __ZN7TSCHSOS36SpecSetChart3dLightingPackageArchive14_InternalParseEPKcPN6google8protobuf8internal12ParseContextE,
                            __ZN7TSCHSOS36SpecSetChart3dLightingPackageArchive16default_instanceEv,
                            __ZN7TSCHSOS36SpecSetChart3dLightingPackageArchive30clear_chart3d_lighting_packageEv,
                            __ZN7TSCHSOS36SpecSetChart3dLightingPackageArchive5ClearEv,
                            __ZN7TSCHSOS36SpecSetChart3dLightingPackageArchive8CopyFromERKN6google8protobuf7MessageE,
                            __ZN7TSCHSOS36SpecSetChart3dLightingPackageArchive8CopyFromERKS0_,
                            __ZN7TSCHSOS36SpecSetChart3dLightingPackageArchive9ArenaDtorEPv,
                            __ZN7TSCHSOS36SpecSetChart3dLightingPackageArchive9MergeFromERKN6google8protobuf7MessageE,
                            __ZN7TSCHSOS36SpecSetChart3dLightingPackageArchive9MergeFromERKS0_,
                            __ZN7TSCHSOS36SpecSetChart3dLightingPackageArchive9_Internal24chart3d_lighting_packageEPKS0_,
                            __ZN7TSCHSOS36SpecSetChart3dLightingPackageArchiveC1EPN6google8protobuf5ArenaE,
                            __ZN7TSCHSOS36SpecSetChart3dLightingPackageArchiveC1ERKS0_,
                            __ZN7TSCHSOS36SpecSetChart3dLightingPackageArchiveC2EPN6google8protobuf5ArenaE,
                            __ZN7TSCHSOS36SpecSetChart3dLightingPackageArchiveC2ERKS0_,
                            __ZN7TSCHSOS36SpecSetChart3dLightingPackageArchiveD0Ev,
                            __ZN7TSCHSOS36SpecSetChart3dLightingPackageArchiveD1Ev,
                            __ZN7TSCHSOS36SpecSetChart3dLightingPackageArchiveD2Ev,
                            __ZN7TSCHSOS37ChartNonStylePropertyChangeSetArchive12InternalSwapEPS0_,
                            __ZN7TSCHSOS37ChartNonStylePropertyChangeSetArchive14_InternalParseEPKcPN6google8protobuf8internal12ParseContextE,
                            __ZN7TSCHSOS37ChartNonStylePropertyChangeSetArchive16default_instanceEv,
                            __ZN7TSCHSOS37ChartNonStylePropertyChangeSetArchive19clear_default_titleEv,
                            __ZN7TSCHSOS37ChartNonStylePropertyChangeSetArchive24clear_default_show_titleEv,
                            __ZN7TSCHSOS37ChartNonStylePropertyChangeSetArchive25clear_default3d_bar_shapeEv,
                            __ZN7TSCHSOS37ChartNonStylePropertyChangeSetArchive25clear_default_show_legendEv,
                            __ZN7TSCHSOS37ChartNonStylePropertyChangeSetArchive26clear_default_inner_radiusEv,
                            __ZN7TSCHSOS37ChartNonStylePropertyChangeSetArchive27clear_bar_callout_line_typeEv,
                            __ZN7TSCHSOS37ChartNonStylePropertyChangeSetArchive27clear_default3d_bevel_edgesEv,
                            __ZN7TSCHSOS37ChartNonStylePropertyChangeSetArchive27clear_pie_callout_line_typeEv,
                            __ZN7TSCHSOS37ChartNonStylePropertyChangeSetArchive28clear_area_callout_line_typeEv,
                            __ZN7TSCHSOS37ChartNonStylePropertyChangeSetArchive28clear_line_callout_line_typeEv,
                            __ZN7TSCHSOS37ChartNonStylePropertyChangeSetArchive29clear_default_pie_start_angleEv,
                            __ZN7TSCHSOS37ChartNonStylePropertyChangeSetArchive30clear_bubble_callout_line_typeEv,
                            __ZN7TSCHSOS37ChartNonStylePropertyChangeSetArchive30clear_default_skip_hidden_dataEv,
                            __ZN7TSCHSOS37ChartNonStylePropertyChangeSetArchive31clear_default_callout_line_typeEv,
                            __ZN7TSCHSOS37ChartNonStylePropertyChangeSetArchive31clear_default_radar_start_angleEv,
                            __ZN7TSCHSOS37ChartNonStylePropertyChangeSetArchive31clear_scatter_callout_line_typeEv,
                            __ZN7TSCHSOS37ChartNonStylePropertyChangeSetArchive35clear_default3d_inter_set_depth_gapEv,
                            __ZN7TSCHSOS37ChartNonStylePropertyChangeSetArchive35clear_stacked_bar_callout_line_typeEv,
                            __ZN7TSCHSOS37ChartNonStylePropertyChangeSetArchive36clear_default_data_set_name_locationEv,
                            __ZN7TSCHSOS37ChartNonStylePropertyChangeSetArchive36clear_stacked_area_callout_line_typeEv,
                            __ZN7TSCHSOS37ChartNonStylePropertyChangeSetArchive37clear_default_multi_data_control_typeEv,
                            __ZN7TSCHSOS37ChartNonStylePropertyChangeSetArchive41clear_default_donut_place_title_at_centerEv,
                            __ZN7TSCHSOS37ChartNonStylePropertyChangeSetArchive55clear_default_d_e_p_r_e_c_a_t_e_d_rounded_corner_radiusEv,
                            __ZN7TSCHSOS37ChartNonStylePropertyChangeSetArchive5ClearEv,
                            __ZN7TSCHSOS37ChartNonStylePropertyChangeSetArchive63clear_default_d_e_p_r_e_c_a_t_e_d_rounded_corner_outer_end_onlyEv,
                            __ZN7TSCHSOS37ChartNonStylePropertyChangeSetArchive8CopyFromERKN6google8protobuf7MessageE,
                            __ZN7TSCHSOS37ChartNonStylePropertyChangeSetArchive8CopyFromERKS0_,
                            __ZN7TSCHSOS37ChartNonStylePropertyChangeSetArchive9ArenaDtorEPv,
                            __ZN7TSCHSOS37ChartNonStylePropertyChangeSetArchive9MergeFromERKN6google8protobuf7MessageE,
                            __ZN7TSCHSOS37ChartNonStylePropertyChangeSetArchive9MergeFromERKS0_,
                            __ZN7TSCHSOS37ChartNonStylePropertyChangeSetArchive9_Internal11bar3d_scaleEPKS0_,
                            __ZN7TSCHSOS37ChartNonStylePropertyChangeSetArchive9_Internal11pie3d_scaleEPKS0_,
                            __ZN7TSCHSOS37ChartNonStylePropertyChangeSetArchive9_Internal12area3d_scaleEPKS0_,
                            __ZN7TSCHSOS37ChartNonStylePropertyChangeSetArchive9_Internal12line3d_scaleEPKS0_,
                            __ZN7TSCHSOS37ChartNonStylePropertyChangeSetArchive9_Internal13default_titleEPKS0_,
                            __ZN7TSCHSOS37ChartNonStylePropertyChangeSetArchive9_Internal14column3d_scaleEPKS0_,
                            __ZN7TSCHSOS37ChartNonStylePropertyChangeSetArchive9_Internal15default3d_scaleEPKS0_,
                            __ZN7TSCHSOS37ChartNonStylePropertyChangeSetArchive9_Internal18default3d_rotationEPKS0_,
                            __ZN7TSCHSOS37ChartNonStylePropertyChangeSetArchive9_Internal18default3d_viewportEPKS0_,
                            __ZN7TSCHSOS37ChartNonStylePropertyChangeSetArchive9_Internal18default_show_titleEPKS0_,
                            __ZN7TSCHSOS37ChartNonStylePropertyChangeSetArchive9_Internal19default3d_bar_shapeEPKS0_,
                            __ZN7TSCHSOS37ChartNonStylePropertyChangeSetArchive9_Internal19default_show_legendEPKS0_,
                            __ZN7TSCHSOS37ChartNonStylePropertyChangeSetArchive9_Internal20default_inner_radiusEPKS0_,
                            __ZN7TSCHSOS37ChartNonStylePropertyChangeSetArchive9_Internal21bar_callout_line_typeEPKS0_,
                            __ZN7TSCHSOS37ChartNonStylePropertyChangeSetArchive9_Internal21default3d_bevel_edgesEPKS0_,
                            __ZN7TSCHSOS37ChartNonStylePropertyChangeSetArchive9_Internal21pie_callout_line_typeEPKS0_,
                            __ZN7TSCHSOS37ChartNonStylePropertyChangeSetArchive9_Internal22area_callout_line_typeEPKS0_,
                            __ZN7TSCHSOS37ChartNonStylePropertyChangeSetArchive9_Internal22line_callout_line_typeEPKS0_,
                            __ZN7TSCHSOS37ChartNonStylePropertyChangeSetArchive9_Internal23default_pie_start_angleEPKS0_,
                            __ZN7TSCHSOS37ChartNonStylePropertyChangeSetArchive9_Internal24bubble_callout_line_typeEPKS0_,
                            __ZN7TSCHSOS37ChartNonStylePropertyChangeSetArchive9_Internal24default_skip_hidden_dataEPKS0_,
                            __ZN7TSCHSOS37ChartNonStylePropertyChangeSetArchive9_Internal25default_callout_line_typeEPKS0_,
                            __ZN7TSCHSOS37ChartNonStylePropertyChangeSetArchive9_Internal25default_radar_start_angleEPKS0_,
                            __ZN7TSCHSOS37ChartNonStylePropertyChangeSetArchive9_Internal25scatter_callout_line_typeEPKS0_,
                            __ZN7TSCHSOS37ChartNonStylePropertyChangeSetArchive9_Internal29default3d_inter_set_depth_gapEPKS0_,
                            __ZN7TSCHSOS37ChartNonStylePropertyChangeSetArchive9_Internal29stacked_bar_callout_line_typeEPKS0_,
                            __ZN7TSCHSOS37ChartNonStylePropertyChangeSetArchive9_Internal30default_data_set_name_locationEPKS0_,
                            __ZN7TSCHSOS37ChartNonStylePropertyChangeSetArchive9_Internal30stacked_area_callout_line_typeEPKS0_,
                            __ZN7TSCHSOS37ChartNonStylePropertyChangeSetArchive9_Internal31default_multi_data_control_typeEPKS0_,
                            __ZN7TSCHSOS37ChartNonStylePropertyChangeSetArchive9_Internal35default_donut_place_title_at_centerEPKS0_,
                            __ZN7TSCHSOS37ChartNonStylePropertyChangeSetArchive9_Internal49default_d_e_p_r_e_c_a_t_e_d_rounded_corner_radiusEPKS0_,
                            __ZN7TSCHSOS37ChartNonStylePropertyChangeSetArchive9_Internal57default_d_e_p_r_e_c_a_t_e_d_rounded_corner_outer_end_onlyEPKS0_,
                            __ZN7TSCHSOS37ChartNonStylePropertyChangeSetArchiveC1EPN6google8protobuf5ArenaE,
                            __ZN7TSCHSOS37ChartNonStylePropertyChangeSetArchiveC1ERKS0_,
                            __ZN7TSCHSOS37ChartNonStylePropertyChangeSetArchiveC2EPN6google8protobuf5ArenaE,
                            __ZN7TSCHSOS37ChartNonStylePropertyChangeSetArchiveC2ERKS0_,
                            __ZN7TSCHSOS37ChartNonStylePropertyChangeSetArchiveD0Ev,
                            __ZN7TSCHSOS37ChartNonStylePropertyChangeSetArchiveD1Ev,
                            __ZN7TSCHSOS37ChartNonStylePropertyChangeSetArchiveD2Ev,
                            __ZN7TSCHSOS37SpecSetChartErrorBarCustomDataArchive12InternalSwapEPS0_,
                            __ZN7TSCHSOS37SpecSetChartErrorBarCustomDataArchive14_InternalParseEPKcPN6google8protobuf8internal12ParseContextE,
                            __ZN7TSCHSOS37SpecSetChartErrorBarCustomDataArchive16default_instanceEv,
                            __ZN7TSCHSOS37SpecSetChartErrorBarCustomDataArchive33clear_chart_error_bar_custom_dataEv,
                            __ZN7TSCHSOS37SpecSetChartErrorBarCustomDataArchive5ClearEv,
                            __ZN7TSCHSOS37SpecSetChartErrorBarCustomDataArchive8CopyFromERKN6google8protobuf7MessageE,
                            __ZN7TSCHSOS37SpecSetChartErrorBarCustomDataArchive8CopyFromERKS0_,
                            __ZN7TSCHSOS37SpecSetChartErrorBarCustomDataArchive9ArenaDtorEPv,
                            __ZN7TSCHSOS37SpecSetChartErrorBarCustomDataArchive9MergeFromERKN6google8protobuf7MessageE,
                            __ZN7TSCHSOS37SpecSetChartErrorBarCustomDataArchive9MergeFromERKS0_,
                            __ZN7TSCHSOS37SpecSetChartErrorBarCustomDataArchive9_Internal27chart_error_bar_custom_dataEPKS0_,
                            __ZN7TSCHSOS37SpecSetChartErrorBarCustomDataArchiveC1EPN6google8protobuf5ArenaE,
                            __ZN7TSCHSOS37SpecSetChartErrorBarCustomDataArchiveC1ERKS0_,
                            __ZN7TSCHSOS37SpecSetChartErrorBarCustomDataArchiveC2EPN6google8protobuf5ArenaE,
                            __ZN7TSCHSOS37SpecSetChartErrorBarCustomDataArchiveC2ERKS0_,
                            __ZN7TSCHSOS37SpecSetChartErrorBarCustomDataArchiveD0Ev,
                            __ZN7TSCHSOS37SpecSetChartErrorBarCustomDataArchiveD1Ev,
                            __ZN7TSCHSOS37SpecSetChartErrorBarCustomDataArchiveD2Ev,
                            __ZN7TSCHSOS38ChartAxisStylePropertyChangeSetArchive12InternalSwapEPS0_,
                            __ZN7TSCHSOS38ChartAxisStylePropertyChangeSetArchive14_InternalParseEPKcPN6google8protobuf8internal12ParseContextE,
                            __ZN7TSCHSOS38ChartAxisStylePropertyChangeSetArchive16default_instanceEv,
                            __ZN7TSCHSOS38ChartAxisStylePropertyChangeSetArchive21clear_value_show_axisEv,
                            __ZN7TSCHSOS38ChartAxisStylePropertyChangeSetArchive24clear_category_show_axisEv,
                            __ZN7TSCHSOS38ChartAxisStylePropertyChangeSetArchive29clear_value3d_gridline_strokeEv,
                            __ZN7TSCHSOS38ChartAxisStylePropertyChangeSetArchive29clear_value_tickmark_locationEv,
                            __ZN7TSCHSOS38ChartAxisStylePropertyChangeSetArchive30clear_category_show_last_labelEv,
                            __ZN7TSCHSOS38ChartAxisStylePropertyChangeSetArchive30clear_value3d_gridline_opacityEv,
                            __ZN7TSCHSOS38ChartAxisStylePropertyChangeSetArchive30clear_value_labels_orientationEv,
                            __ZN7TSCHSOS38ChartAxisStylePropertyChangeSetArchive30clear_value_show_minimum_labelEv,
                            __ZN7TSCHSOS38ChartAxisStylePropertyChangeSetArchive31clear_category_vertical_spacingEv,
                            __ZN7TSCHSOS38ChartAxisStylePropertyChangeSetArchive32clear_category3d_gridline_strokeEv,
                            __ZN7TSCHSOS38ChartAxisStylePropertyChangeSetArchive32clear_category_tickmark_locationEv,
                            __ZN7TSCHSOS38ChartAxisStylePropertyChangeSetArchive32clear_default_labels_orientationEv,
                            __ZN7TSCHSOS38ChartAxisStylePropertyChangeSetArchive32clear_value_show_major_gridlinesEv,
                            __ZN7TSCHSOS38ChartAxisStylePropertyChangeSetArchive32clear_value_show_major_tickmarksEv,
                            __ZN7TSCHSOS38ChartAxisStylePropertyChangeSetArchive32clear_value_show_minor_gridlinesEv,
                            __ZN7TSCHSOS38ChartAxisStylePropertyChangeSetArchive32clear_value_show_minor_tickmarksEv,
                            __ZN7TSCHSOS38ChartAxisStylePropertyChangeSetArchive33clear_category3d_gridline_opacityEv,
                            __ZN7TSCHSOS38ChartAxisStylePropertyChangeSetArchive33clear_category_horizontal_spacingEv,
                            __ZN7TSCHSOS38ChartAxisStylePropertyChangeSetArchive33clear_category_labels_orientationEv,
                            __ZN7TSCHSOS38ChartAxisStylePropertyChangeSetArchive33clear_value_major_gridline_shadowEv,
                            __ZN7TSCHSOS38ChartAxisStylePropertyChangeSetArchive33clear_value_major_gridline_strokeEv,
                            __ZN7TSCHSOS38ChartAxisStylePropertyChangeSetArchive33clear_value_minor_gridline_shadowEv,
                            __ZN7TSCHSOS38ChartAxisStylePropertyChangeSetArchive33clear_value_minor_gridline_strokeEv,
                            __ZN7TSCHSOS38ChartAxisStylePropertyChangeSetArchive34clear_default_show_extension_linesEv,
                            __ZN7TSCHSOS38ChartAxisStylePropertyChangeSetArchive34clear_value_major_gridline_opacityEv,
                            __ZN7TSCHSOS38ChartAxisStylePropertyChangeSetArchive34clear_value_minor_gridline_opacityEv,
                            __ZN7TSCHSOS38ChartAxisStylePropertyChangeSetArchive35clear_category_show_major_gridlinesEv,
                            __ZN7TSCHSOS38ChartAxisStylePropertyChangeSetArchive35clear_category_show_major_tickmarksEv,
                            __ZN7TSCHSOS38ChartAxisStylePropertyChangeSetArchive35clear_category_show_minor_gridlinesEv,
                            __ZN7TSCHSOS38ChartAxisStylePropertyChangeSetArchive35clear_category_show_minor_tickmarksEv,
                            __ZN7TSCHSOS38ChartAxisStylePropertyChangeSetArchive35clear_value_show_gridline_tickmarksEv,
                            __ZN7TSCHSOS38ChartAxisStylePropertyChangeSetArchive36clear_category_major_gridline_shadowEv,
                            __ZN7TSCHSOS38ChartAxisStylePropertyChangeSetArchive36clear_category_major_gridline_strokeEv,
                            __ZN7TSCHSOS38ChartAxisStylePropertyChangeSetArchive36clear_category_minor_gridline_shadowEv,
                            __ZN7TSCHSOS38ChartAxisStylePropertyChangeSetArchive36clear_category_minor_gridline_strokeEv,
                            __ZN7TSCHSOS38ChartAxisStylePropertyChangeSetArchive37clear_category_major_gridline_opacityEv,
                            __ZN7TSCHSOS38ChartAxisStylePropertyChangeSetArchive37clear_category_minor_gridline_opacityEv,
                            __ZN7TSCHSOS38ChartAxisStylePropertyChangeSetArchive38clear_category_show_gridline_tickmarksEv,
                            __ZN7TSCHSOS38ChartAxisStylePropertyChangeSetArchive39clear_value_label_paragraph_style_indexEv,
                            __ZN7TSCHSOS38ChartAxisStylePropertyChangeSetArchive39clear_value_title_paragraph_style_indexEv,
                            __ZN7TSCHSOS38ChartAxisStylePropertyChangeSetArchive41clear_default_label_paragraph_style_indexEv,
                            __ZN7TSCHSOS38ChartAxisStylePropertyChangeSetArchive41clear_default_title_paragraph_style_indexEv,
                            __ZN7TSCHSOS38ChartAxisStylePropertyChangeSetArchive41clear_polar_category_show_major_gridlinesEv,
                            __ZN7TSCHSOS38ChartAxisStylePropertyChangeSetArchive42clear_category_label_paragraph_style_indexEv,
                            __ZN7TSCHSOS38ChartAxisStylePropertyChangeSetArchive42clear_category_title_paragraph_style_indexEv,
                            __ZN7TSCHSOS38ChartAxisStylePropertyChangeSetArchive44clear_default_label_angle_baseline_directionEv,
                            __ZN7TSCHSOS38ChartAxisStylePropertyChangeSetArchive5ClearEv,
                            __ZN7TSCHSOS38ChartAxisStylePropertyChangeSetArchive8CopyFromERKN6google8protobuf7MessageE,
                            __ZN7TSCHSOS38ChartAxisStylePropertyChangeSetArchive8CopyFromERKS0_,
                            __ZN7TSCHSOS38ChartAxisStylePropertyChangeSetArchive9ArenaDtorEPv,
                            __ZN7TSCHSOS38ChartAxisStylePropertyChangeSetArchive9MergeFromERKN6google8protobuf7MessageE,
                            __ZN7TSCHSOS38ChartAxisStylePropertyChangeSetArchive9MergeFromERKS0_,
                            __ZN7TSCHSOS38ChartAxisStylePropertyChangeSetArchive9_Internal15value_show_axisEPKS0_,
                            __ZN7TSCHSOS38ChartAxisStylePropertyChangeSetArchive9_Internal18category_show_axisEPKS0_,
                            __ZN7TSCHSOS38ChartAxisStylePropertyChangeSetArchive9_Internal23value3d_gridline_strokeEPKS0_,
                            __ZN7TSCHSOS38ChartAxisStylePropertyChangeSetArchive9_Internal23value_tickmark_locationEPKS0_,
                            __ZN7TSCHSOS38ChartAxisStylePropertyChangeSetArchive9_Internal24category_show_last_labelEPKS0_,
                            __ZN7TSCHSOS38ChartAxisStylePropertyChangeSetArchive9_Internal24value3d_gridline_opacityEPKS0_,
                            __ZN7TSCHSOS38ChartAxisStylePropertyChangeSetArchive9_Internal24value_labels_orientationEPKS0_,
                            __ZN7TSCHSOS38ChartAxisStylePropertyChangeSetArchive9_Internal24value_show_minimum_labelEPKS0_,
                            __ZN7TSCHSOS38ChartAxisStylePropertyChangeSetArchive9_Internal25category_vertical_spacingEPKS0_,
                            __ZN7TSCHSOS38ChartAxisStylePropertyChangeSetArchive9_Internal26category3d_gridline_strokeEPKS0_,
                            __ZN7TSCHSOS38ChartAxisStylePropertyChangeSetArchive9_Internal26category_tickmark_locationEPKS0_,
                            __ZN7TSCHSOS38ChartAxisStylePropertyChangeSetArchive9_Internal26default_labels_orientationEPKS0_,
                            __ZN7TSCHSOS38ChartAxisStylePropertyChangeSetArchive9_Internal26value_show_major_gridlinesEPKS0_,
                            __ZN7TSCHSOS38ChartAxisStylePropertyChangeSetArchive9_Internal26value_show_major_tickmarksEPKS0_,
                            __ZN7TSCHSOS38ChartAxisStylePropertyChangeSetArchive9_Internal26value_show_minor_gridlinesEPKS0_,
                            __ZN7TSCHSOS38ChartAxisStylePropertyChangeSetArchive9_Internal26value_show_minor_tickmarksEPKS0_,
                            __ZN7TSCHSOS38ChartAxisStylePropertyChangeSetArchive9_Internal27category3d_gridline_opacityEPKS0_,
                            __ZN7TSCHSOS38ChartAxisStylePropertyChangeSetArchive9_Internal27category_horizontal_spacingEPKS0_,
                            __ZN7TSCHSOS38ChartAxisStylePropertyChangeSetArchive9_Internal27category_labels_orientationEPKS0_,
                            __ZN7TSCHSOS38ChartAxisStylePropertyChangeSetArchive9_Internal27value_major_gridline_shadowEPKS0_,
                            __ZN7TSCHSOS38ChartAxisStylePropertyChangeSetArchive9_Internal27value_major_gridline_strokeEPKS0_,
                            __ZN7TSCHSOS38ChartAxisStylePropertyChangeSetArchive9_Internal27value_minor_gridline_shadowEPKS0_,
                            __ZN7TSCHSOS38ChartAxisStylePropertyChangeSetArchive9_Internal27value_minor_gridline_strokeEPKS0_,
                            __ZN7TSCHSOS38ChartAxisStylePropertyChangeSetArchive9_Internal28default_show_extension_linesEPKS0_,
                            __ZN7TSCHSOS38ChartAxisStylePropertyChangeSetArchive9_Internal28value_major_gridline_opacityEPKS0_,
                            __ZN7TSCHSOS38ChartAxisStylePropertyChangeSetArchive9_Internal28value_minor_gridline_opacityEPKS0_,
                            __ZN7TSCHSOS38ChartAxisStylePropertyChangeSetArchive9_Internal29category_show_major_gridlinesEPKS0_,
                            __ZN7TSCHSOS38ChartAxisStylePropertyChangeSetArchive9_Internal29category_show_major_tickmarksEPKS0_,
                            __ZN7TSCHSOS38ChartAxisStylePropertyChangeSetArchive9_Internal29category_show_minor_gridlinesEPKS0_,
                            __ZN7TSCHSOS38ChartAxisStylePropertyChangeSetArchive9_Internal29category_show_minor_tickmarksEPKS0_,
                            __ZN7TSCHSOS38ChartAxisStylePropertyChangeSetArchive9_Internal29value_show_gridline_tickmarksEPKS0_,
                            __ZN7TSCHSOS38ChartAxisStylePropertyChangeSetArchive9_Internal30category_major_gridline_shadowEPKS0_,
                            __ZN7TSCHSOS38ChartAxisStylePropertyChangeSetArchive9_Internal30category_major_gridline_strokeEPKS0_,
                            __ZN7TSCHSOS38ChartAxisStylePropertyChangeSetArchive9_Internal30category_minor_gridline_shadowEPKS0_,
                            __ZN7TSCHSOS38ChartAxisStylePropertyChangeSetArchive9_Internal30category_minor_gridline_strokeEPKS0_,
                            __ZN7TSCHSOS38ChartAxisStylePropertyChangeSetArchive9_Internal31category_major_gridline_opacityEPKS0_,
                            __ZN7TSCHSOS38ChartAxisStylePropertyChangeSetArchive9_Internal31category_minor_gridline_opacityEPKS0_,
                            __ZN7TSCHSOS38ChartAxisStylePropertyChangeSetArchive9_Internal32category_show_gridline_tickmarksEPKS0_,
                            __ZN7TSCHSOS38ChartAxisStylePropertyChangeSetArchive9_Internal33value_label_paragraph_style_indexEPKS0_,
                            __ZN7TSCHSOS38ChartAxisStylePropertyChangeSetArchive9_Internal33value_title_paragraph_style_indexEPKS0_,
                            __ZN7TSCHSOS38ChartAxisStylePropertyChangeSetArchive9_Internal35default_label_paragraph_style_indexEPKS0_,
                            __ZN7TSCHSOS38ChartAxisStylePropertyChangeSetArchive9_Internal35default_title_paragraph_style_indexEPKS0_,
                            __ZN7TSCHSOS38ChartAxisStylePropertyChangeSetArchive9_Internal35polar_category_show_major_gridlinesEPKS0_,
                            __ZN7TSCHSOS38ChartAxisStylePropertyChangeSetArchive9_Internal36category_label_paragraph_style_indexEPKS0_,
                            __ZN7TSCHSOS38ChartAxisStylePropertyChangeSetArchive9_Internal36category_title_paragraph_style_indexEPKS0_,
                            __ZN7TSCHSOS38ChartAxisStylePropertyChangeSetArchive9_Internal38default_label_angle_baseline_directionEPKS0_,
                            __ZN7TSCHSOS38ChartAxisStylePropertyChangeSetArchiveC1EPN6google8protobuf5ArenaE,
                            __ZN7TSCHSOS38ChartAxisStylePropertyChangeSetArchiveC1ERKS0_,
                            __ZN7TSCHSOS38ChartAxisStylePropertyChangeSetArchiveC2EPN6google8protobuf5ArenaE,
                            __ZN7TSCHSOS38ChartAxisStylePropertyChangeSetArchiveC2ERKS0_,
                            __ZN7TSCHSOS38ChartAxisStylePropertyChangeSetArchiveD0Ev,
                            __ZN7TSCHSOS38ChartAxisStylePropertyChangeSetArchiveD1Ev,
                            __ZN7TSCHSOS38ChartAxisStylePropertyChangeSetArchiveD2Ev,
                            __ZN7TSCHSOS38SpecChartsOptionalDoubleArchiveArchive12InternalSwapEPS0_,
                            __ZN7TSCHSOS38SpecChartsOptionalDoubleArchiveArchive14_InternalParseEPKcPN6google8protobuf8internal12ParseContextE,
                            __ZN7TSCHSOS38SpecChartsOptionalDoubleArchiveArchive16default_instanceEv,
                            __ZN7TSCHSOS38SpecChartsOptionalDoubleArchiveArchive5ClearEv,
                            __ZN7TSCHSOS38SpecChartsOptionalDoubleArchiveArchive8CopyFromERKN6google8protobuf7MessageE,
                            __ZN7TSCHSOS38SpecChartsOptionalDoubleArchiveArchive8CopyFromERKS0_,
                            __ZN7TSCHSOS38SpecChartsOptionalDoubleArchiveArchive9ArenaDtorEPv,
                            __ZN7TSCHSOS38SpecChartsOptionalDoubleArchiveArchive9MergeFromERKN6google8protobuf7MessageE,
                            __ZN7TSCHSOS38SpecChartsOptionalDoubleArchiveArchive9MergeFromERKS0_,
                            __ZN7TSCHSOS38SpecChartsOptionalDoubleArchiveArchive9_Internal39spec_set_charts_optional_double_archiveEPKS0_,
                            __ZN7TSCHSOS38SpecChartsOptionalDoubleArchiveArchiveC1EPN6google8protobuf5ArenaE,
                            __ZN7TSCHSOS38SpecChartsOptionalDoubleArchiveArchiveC1ERKS0_,
                            __ZN7TSCHSOS38SpecChartsOptionalDoubleArchiveArchiveC2EPN6google8protobuf5ArenaE,
                            __ZN7TSCHSOS38SpecChartsOptionalDoubleArchiveArchiveC2ERKS0_,
                            __ZN7TSCHSOS38SpecChartsOptionalDoubleArchiveArchiveD0Ev,
                            __ZN7TSCHSOS38SpecChartsOptionalDoubleArchiveArchiveD1Ev,
                            __ZN7TSCHSOS38SpecChartsOptionalDoubleArchiveArchiveD2Ev,
                            __ZN7TSCHSOS40ChartLegendStylePropertyChangeSetArchive12InternalSwapEPS0_,
                            __ZN7TSCHSOS40ChartLegendStylePropertyChangeSetArchive14_InternalParseEPKcPN6google8protobuf8internal12ParseContextE,
                            __ZN7TSCHSOS40ChartLegendStylePropertyChangeSetArchive16default_instanceEv,
                            __ZN7TSCHSOS40ChartLegendStylePropertyChangeSetArchive18clear_default_fillEv,
                            __ZN7TSCHSOS40ChartLegendStylePropertyChangeSetArchive20clear_default_shadowEv,
                            __ZN7TSCHSOS40ChartLegendStylePropertyChangeSetArchive20clear_default_strokeEv,
                            __ZN7TSCHSOS40ChartLegendStylePropertyChangeSetArchive21clear_default_opacityEv,
                            __ZN7TSCHSOS40ChartLegendStylePropertyChangeSetArchive41clear_default_label_paragraph_style_indexEv,
                            __ZN7TSCHSOS40ChartLegendStylePropertyChangeSetArchive5ClearEv,
                            __ZN7TSCHSOS40ChartLegendStylePropertyChangeSetArchive8CopyFromERKN6google8protobuf7MessageE,
                            __ZN7TSCHSOS40ChartLegendStylePropertyChangeSetArchive8CopyFromERKS0_,
                            __ZN7TSCHSOS40ChartLegendStylePropertyChangeSetArchive9ArenaDtorEPv,
                            __ZN7TSCHSOS40ChartLegendStylePropertyChangeSetArchive9MergeFromERKN6google8protobuf7MessageE,
                            __ZN7TSCHSOS40ChartLegendStylePropertyChangeSetArchive9MergeFromERKS0_,
                            __ZN7TSCHSOS40ChartLegendStylePropertyChangeSetArchive9_Internal12default_fillEPKS0_,
                            __ZN7TSCHSOS40ChartLegendStylePropertyChangeSetArchive9_Internal14default_shadowEPKS0_,
                            __ZN7TSCHSOS40ChartLegendStylePropertyChangeSetArchive9_Internal14default_strokeEPKS0_,
                            __ZN7TSCHSOS40ChartLegendStylePropertyChangeSetArchive9_Internal15default_opacityEPKS0_,
                            __ZN7TSCHSOS40ChartLegendStylePropertyChangeSetArchive9_Internal35default_label_paragraph_style_indexEPKS0_,
                            __ZN7TSCHSOS40ChartLegendStylePropertyChangeSetArchiveC1EPN6google8protobuf5ArenaE,
                            __ZN7TSCHSOS40ChartLegendStylePropertyChangeSetArchiveC1ERKS0_,
                            __ZN7TSCHSOS40ChartLegendStylePropertyChangeSetArchiveC2EPN6google8protobuf5ArenaE,
                            __ZN7TSCHSOS40ChartLegendStylePropertyChangeSetArchiveC2ERKS0_,
                            __ZN7TSCHSOS40ChartLegendStylePropertyChangeSetArchiveD0Ev,
                            __ZN7TSCHSOS40ChartLegendStylePropertyChangeSetArchiveD1Ev,
                            __ZN7TSCHSOS40ChartLegendStylePropertyChangeSetArchiveD2Ev,
                            __ZN7TSCHSOS40ChartSeriesStylePropertyChangeSetArchive12InternalSwapEPS0_,
                            __ZN7TSCHSOS40ChartSeriesStylePropertyChangeSetArchive14_InternalParseEPKcPN6google8protobuf8internal12ParseContextE,
                            __ZN7TSCHSOS40ChartSeriesStylePropertyChangeSetArchive14clear_bar_fillEv,
                            __ZN7TSCHSOS40ChartSeriesStylePropertyChangeSetArchive14clear_pie_fillEv,
                            __ZN7TSCHSOS40ChartSeriesStylePropertyChangeSetArchive15clear_area_fillEv,
                            __ZN7TSCHSOS40ChartSeriesStylePropertyChangeSetArchive16clear_bar3d_fillEv,
                            __ZN7TSCHSOS40ChartSeriesStylePropertyChangeSetArchive16clear_bar_shadowEv,
                            __ZN7TSCHSOS40ChartSeriesStylePropertyChangeSetArchive16clear_bar_strokeEv,
                            __ZN7TSCHSOS40ChartSeriesStylePropertyChangeSetArchive16clear_pie3d_fillEv,
                            __ZN7TSCHSOS40ChartSeriesStylePropertyChangeSetArchive16clear_pie_shadowEv,
                            __ZN7TSCHSOS40ChartSeriesStylePropertyChangeSetArchive16clear_pie_strokeEv,
                            __ZN7TSCHSOS40ChartSeriesStylePropertyChangeSetArchive16default_instanceEv,
                            __ZN7TSCHSOS40ChartSeriesStylePropertyChangeSetArchive17clear_area3d_fillEv,
                            __ZN7TSCHSOS40ChartSeriesStylePropertyChangeSetArchive17clear_area_shadowEv,
                            __ZN7TSCHSOS40ChartSeriesStylePropertyChangeSetArchive17clear_area_strokeEv,
                            __ZN7TSCHSOS40ChartSeriesStylePropertyChangeSetArchive17clear_column_fillEv,
                            __ZN7TSCHSOS40ChartSeriesStylePropertyChangeSetArchive17clear_line3d_fillEv,
                            __ZN7TSCHSOS40ChartSeriesStylePropertyChangeSetArchive17clear_line_shadowEv,
                            __ZN7TSCHSOS40ChartSeriesStylePropertyChangeSetArchive17clear_line_strokeEv,
                            __ZN7TSCHSOS40ChartSeriesStylePropertyChangeSetArchive18clear_bar3d_shadowEv,
                            __ZN7TSCHSOS40ChartSeriesStylePropertyChangeSetArchive18clear_default_fillEv,
                            __ZN7TSCHSOS40ChartSeriesStylePropertyChangeSetArchive18clear_pie3d_shadowEv,
                            __ZN7TSCHSOS40ChartSeriesStylePropertyChangeSetArchive19clear_area3d_shadowEv,
                            __ZN7TSCHSOS40ChartSeriesStylePropertyChangeSetArchive19clear_bubble_shadowEv,
                            __ZN7TSCHSOS40ChartSeriesStylePropertyChangeSetArchive19clear_bubble_strokeEv,
                            __ZN7TSCHSOS40ChartSeriesStylePropertyChangeSetArchive19clear_column3d_fillEv,
                            __ZN7TSCHSOS40ChartSeriesStylePropertyChangeSetArchive19clear_line3d_shadowEv,
                            __ZN7TSCHSOS40ChartSeriesStylePropertyChangeSetArchive20clear_default_shadowEv,
                            __ZN7TSCHSOS40ChartSeriesStylePropertyChangeSetArchive20clear_scatter_shadowEv,
                            __ZN7TSCHSOS40ChartSeriesStylePropertyChangeSetArchive20clear_scatter_strokeEv,
                            __ZN7TSCHSOS40ChartSeriesStylePropertyChangeSetArchive21clear_column3d_shadowEv,
                            __ZN7TSCHSOS40ChartSeriesStylePropertyChangeSetArchive21clear_default_opacityEv,
                            __ZN7TSCHSOS40ChartSeriesStylePropertyChangeSetArchive21clear_mixed_area_fillEv,
                            __ZN7TSCHSOS40ChartSeriesStylePropertyChangeSetArchive21clear_radar_area_fillEv,
                            __ZN7TSCHSOS40ChartSeriesStylePropertyChangeSetArchive22clear_area_symbol_fillEv,
                            __ZN7TSCHSOS40ChartSeriesStylePropertyChangeSetArchive22clear_area_symbol_sizeEv,
                            __ZN7TSCHSOS40ChartSeriesStylePropertyChangeSetArchive22clear_line_symbol_fillEv,
                            __ZN7TSCHSOS40ChartSeriesStylePropertyChangeSetArchive22clear_line_symbol_sizeEv,
                            __ZN7TSCHSOS40ChartSeriesStylePropertyChangeSetArchive23clear_mixed_area_shadowEv,
                            __ZN7TSCHSOS40ChartSeriesStylePropertyChangeSetArchive23clear_mixed_area_strokeEv,
                            __ZN7TSCHSOS40ChartSeriesStylePropertyChangeSetArchive23clear_mixed_column_fillEv,
                            __ZN7TSCHSOS40ChartSeriesStylePropertyChangeSetArchive23clear_mixed_line_shadowEv,
                            __ZN7TSCHSOS40ChartSeriesStylePropertyChangeSetArchive23clear_mixed_line_strokeEv,
                            __ZN7TSCHSOS40ChartSeriesStylePropertyChangeSetArchive23clear_radar_area_shadowEv,
                            __ZN7TSCHSOS40ChartSeriesStylePropertyChangeSetArchive23clear_radar_area_strokeEv,
                            __ZN7TSCHSOS40ChartSeriesStylePropertyChangeSetArchive24clear_area_symbol_strokeEv,
                            __ZN7TSCHSOS40ChartSeriesStylePropertyChangeSetArchive24clear_bubble_symbol_fillEv,
                            __ZN7TSCHSOS40ChartSeriesStylePropertyChangeSetArchive24clear_line_symbol_strokeEv,
                            __ZN7TSCHSOS40ChartSeriesStylePropertyChangeSetArchive25clear_mixed_column_shadowEv,
                            __ZN7TSCHSOS40ChartSeriesStylePropertyChangeSetArchive25clear_mixed_column_strokeEv,
                            __ZN7TSCHSOS40ChartSeriesStylePropertyChangeSetArchive25clear_scatter_symbol_fillEv,
                            __ZN7TSCHSOS40ChartSeriesStylePropertyChangeSetArchive25clear_scatter_symbol_sizeEv,
                            __ZN7TSCHSOS40ChartSeriesStylePropertyChangeSetArchive26clear_bubble_symbol_strokeEv,
                            __ZN7TSCHSOS40ChartSeriesStylePropertyChangeSetArchive27clear_scatter_symbol_strokeEv,
                            __ZN7TSCHSOS40ChartSeriesStylePropertyChangeSetArchive28clear_mixed_area_symbol_fillEv,
                            __ZN7TSCHSOS40ChartSeriesStylePropertyChangeSetArchive28clear_mixed_area_symbol_sizeEv,
                            __ZN7TSCHSOS40ChartSeriesStylePropertyChangeSetArchive28clear_mixed_line_symbol_fillEv,
                            __ZN7TSCHSOS40ChartSeriesStylePropertyChangeSetArchive28clear_mixed_line_symbol_sizeEv,
                            __ZN7TSCHSOS40ChartSeriesStylePropertyChangeSetArchive28clear_radar_area_symbol_fillEv,
                            __ZN7TSCHSOS40ChartSeriesStylePropertyChangeSetArchive28clear_radar_area_symbol_sizeEv,
                            __ZN7TSCHSOS40ChartSeriesStylePropertyChangeSetArchive30clear_bar_value_label_positionEv,
                            __ZN7TSCHSOS40ChartSeriesStylePropertyChangeSetArchive30clear_default_error_bar_shadowEv,
                            __ZN7TSCHSOS40ChartSeriesStylePropertyChangeSetArchive30clear_default_error_bar_strokeEv,
                            __ZN7TSCHSOS40ChartSeriesStylePropertyChangeSetArchive30clear_mixed_area_symbol_strokeEv,
                            __ZN7TSCHSOS40ChartSeriesStylePropertyChangeSetArchive30clear_mixed_line_symbol_strokeEv,
                            __ZN7TSCHSOS40ChartSeriesStylePropertyChangeSetArchive30clear_radar_area_symbol_strokeEv,
                            __ZN7TSCHSOS40ChartSeriesStylePropertyChangeSetArchive31clear_area_value_label_positionEv,
                            __ZN7TSCHSOS40ChartSeriesStylePropertyChangeSetArchive31clear_default_error_bar_spacingEv,
                            __ZN7TSCHSOS40ChartSeriesStylePropertyChangeSetArchive31clear_default_trend_line_shadowEv,
                            __ZN7TSCHSOS40ChartSeriesStylePropertyChangeSetArchive31clear_default_trend_line_strokeEv,
                            __ZN7TSCHSOS40ChartSeriesStylePropertyChangeSetArchive31clear_line_value_label_positionEv,
                            __ZN7TSCHSOS40ChartSeriesStylePropertyChangeSetArchive32clear_default_error_bar_line_endEv,
                            __ZN7TSCHSOS40ChartSeriesStylePropertyChangeSetArchive33clear_bubble_value_label_positionEv,
                            __ZN7TSCHSOS40ChartSeriesStylePropertyChangeSetArchive33clear_default_value_label_spacingEv,
                            __ZN7TSCHSOS40ChartSeriesStylePropertyChangeSetArchive34clear_default_value_label_positionEv,
                            __ZN7TSCHSOS40ChartSeriesStylePropertyChangeSetArchive34clear_scatter_value_label_positionEv,
                            __ZN7TSCHSOS40ChartSeriesStylePropertyChangeSetArchive37clear_bar_label_paragraph_style_indexEv,
                            __ZN7TSCHSOS40ChartSeriesStylePropertyChangeSetArchive37clear_mixed_area_value_label_positionEv,
                            __ZN7TSCHSOS40ChartSeriesStylePropertyChangeSetArchive37clear_mixed_line_value_label_positionEv,
                            __ZN7TSCHSOS40ChartSeriesStylePropertyChangeSetArchive37clear_pie_label_paragraph_style_indexEv,
                            __ZN7TSCHSOS40ChartSeriesStylePropertyChangeSetArchive37clear_radar_area_value_label_positionEv,
                            __ZN7TSCHSOS40ChartSeriesStylePropertyChangeSetArchive38clear_area_label_paragraph_style_indexEv,
                            __ZN7TSCHSOS40ChartSeriesStylePropertyChangeSetArchive38clear_area_symbol_fill_use_series_fillEv,
                            __ZN7TSCHSOS40ChartSeriesStylePropertyChangeSetArchive38clear_line_label_paragraph_style_indexEv,
                            __ZN7TSCHSOS40ChartSeriesStylePropertyChangeSetArchive38clear_line_symbol_fill_use_series_fillEv,
                            __ZN7TSCHSOS40ChartSeriesStylePropertyChangeSetArchive38clear_stacked_bar_value_label_positionEv,
                            __ZN7TSCHSOS40ChartSeriesStylePropertyChangeSetArchive39clear_default_callout_line_end_line_endEv,
                            __ZN7TSCHSOS40ChartSeriesStylePropertyChangeSetArchive39clear_default_callout_line_stroke_styleEv,
                            __ZN7TSCHSOS40ChartSeriesStylePropertyChangeSetArchive39clear_donut_label_paragraph_style_indexEv,
                            __ZN7TSCHSOS40ChartSeriesStylePropertyChangeSetArchive39clear_mixed_column_value_label_positionEv,
                            __ZN7TSCHSOS40ChartSeriesStylePropertyChangeSetArchive39clear_mixed_label_paragraph_style_indexEv,
                            __ZN7TSCHSOS40ChartSeriesStylePropertyChangeSetArchive39clear_radar_area_fill_use_series_strokeEv,
                            __ZN7TSCHSOS40ChartSeriesStylePropertyChangeSetArchive39clear_radar_label_paragraph_style_indexEv,
                            __ZN7TSCHSOS40ChartSeriesStylePropertyChangeSetArchive39clear_stacked_area_value_label_positionEv,
                            __ZN7TSCHSOS40ChartSeriesStylePropertyChangeSetArchive40clear_area_symbol_fill_use_series_strokeEv,
                            __ZN7TSCHSOS40ChartSeriesStylePropertyChangeSetArchive40clear_default_error_bar_stroke_scatter_xEv,
                            __ZN7TSCHSOS40ChartSeriesStylePropertyChangeSetArchive40clear_default_trendline_equation_opacityEv,
                            __ZN7TSCHSOS40ChartSeriesStylePropertyChangeSetArchive40clear_line_symbol_fill_use_series_strokeEv,
                            __ZN7TSCHSOS40ChartSeriesStylePropertyChangeSetArchive41clear_default_callout_line_start_line_endEv,
                            __ZN7TSCHSOS40ChartSeriesStylePropertyChangeSetArchive41clear_default_error_bar_spacing_scatter_xEv,
                            __ZN7TSCHSOS40ChartSeriesStylePropertyChangeSetArchive41clear_default_label_paragraph_style_indexEv,
                            __ZN7TSCHSOS40ChartSeriesStylePropertyChangeSetArchive41clear_default_trendline_r_squared_opacityEv,
                            __ZN7TSCHSOS40ChartSeriesStylePropertyChangeSetArchive42clear_bubble_symbol_fill_use_series_strokeEv,
                            __ZN7TSCHSOS40ChartSeriesStylePropertyChangeSetArchive42clear_default_error_bar_line_end_scatter_xEv,
                            __ZN7TSCHSOS40ChartSeriesStylePropertyChangeSetArchive43clear_scatter_symbol_fill_use_series_strokeEv,
                            __ZN7TSCHSOS40ChartSeriesStylePropertyChangeSetArchive44clear_mixed_area_symbol_fill_use_series_fillEv,
                            __ZN7TSCHSOS40ChartSeriesStylePropertyChangeSetArchive44clear_mixed_line_symbol_fill_use_series_fillEv,
                            __ZN7TSCHSOS40ChartSeriesStylePropertyChangeSetArchive44clear_radar_area_symbol_fill_use_series_fillEv,
                            __ZN7TSCHSOS40ChartSeriesStylePropertyChangeSetArchive45clear_bar_outside_label_paragraph_style_indexEv,
                            __ZN7TSCHSOS40ChartSeriesStylePropertyChangeSetArchive45clear_pie_outside_label_paragraph_style_indexEv,
                            __ZN7TSCHSOS40ChartSeriesStylePropertyChangeSetArchive46clear_area_outside_label_paragraph_style_indexEv,
                            __ZN7TSCHSOS40ChartSeriesStylePropertyChangeSetArchive46clear_mixed_area_symbol_fill_use_series_strokeEv,
                            __ZN7TSCHSOS40ChartSeriesStylePropertyChangeSetArchive46clear_mixed_line_symbol_fill_use_series_strokeEv,
                            __ZN7TSCHSOS40ChartSeriesStylePropertyChangeSetArchive46clear_radar_area_symbol_fill_use_series_strokeEv,
                            __ZN7TSCHSOS40ChartSeriesStylePropertyChangeSetArchive47clear_donut_outside_label_paragraph_style_indexEv,
                            __ZN7TSCHSOS40ChartSeriesStylePropertyChangeSetArchive47clear_mixed_outside_label_paragraph_style_indexEv,
                            __ZN7TSCHSOS40ChartSeriesStylePropertyChangeSetArchive47clear_radar_outside_label_paragraph_style_indexEv,
                            __ZN7TSCHSOS40ChartSeriesStylePropertyChangeSetArchive49clear_default_outside_label_paragraph_style_indexEv,
                            __ZN7TSCHSOS40ChartSeriesStylePropertyChangeSetArchive54clear_default_trendline_equation_paragraph_style_indexEv,
                            __ZN7TSCHSOS40ChartSeriesStylePropertyChangeSetArchive55clear_default_trendline_r_squared_paragraph_style_indexEv,
                            __ZN7TSCHSOS40ChartSeriesStylePropertyChangeSetArchive56clear_radar_area_fill_use_series_stroke_alpha_multiplierEv,
                            __ZN7TSCHSOS40ChartSeriesStylePropertyChangeSetArchive5ClearEv,
                            __ZN7TSCHSOS40ChartSeriesStylePropertyChangeSetArchive8CopyFromERKN6google8protobuf7MessageE,
                            __ZN7TSCHSOS40ChartSeriesStylePropertyChangeSetArchive8CopyFromERKS0_,
                            __ZN7TSCHSOS40ChartSeriesStylePropertyChangeSetArchive9ArenaDtorEPv,
                            __ZN7TSCHSOS40ChartSeriesStylePropertyChangeSetArchive9MergeFromERKN6google8protobuf7MessageE,
                            __ZN7TSCHSOS40ChartSeriesStylePropertyChangeSetArchive9MergeFromERKS0_,
                            __ZN7TSCHSOS40ChartSeriesStylePropertyChangeSetArchive9_Internal10bar3d_fillEPKS0_,
                            __ZN7TSCHSOS40ChartSeriesStylePropertyChangeSetArchive9_Internal10bar_shadowEPKS0_,
                            __ZN7TSCHSOS40ChartSeriesStylePropertyChangeSetArchive9_Internal10bar_strokeEPKS0_,
                            __ZN7TSCHSOS40ChartSeriesStylePropertyChangeSetArchive9_Internal10pie3d_fillEPKS0_,
                            __ZN7TSCHSOS40ChartSeriesStylePropertyChangeSetArchive9_Internal10pie_shadowEPKS0_,
                            __ZN7TSCHSOS40ChartSeriesStylePropertyChangeSetArchive9_Internal10pie_strokeEPKS0_,
                            __ZN7TSCHSOS40ChartSeriesStylePropertyChangeSetArchive9_Internal11area3d_fillEPKS0_,
                            __ZN7TSCHSOS40ChartSeriesStylePropertyChangeSetArchive9_Internal11area_shadowEPKS0_,
                            __ZN7TSCHSOS40ChartSeriesStylePropertyChangeSetArchive9_Internal11area_strokeEPKS0_,
                            __ZN7TSCHSOS40ChartSeriesStylePropertyChangeSetArchive9_Internal11column_fillEPKS0_,
                            __ZN7TSCHSOS40ChartSeriesStylePropertyChangeSetArchive9_Internal11line3d_fillEPKS0_,
                            __ZN7TSCHSOS40ChartSeriesStylePropertyChangeSetArchive9_Internal11line_shadowEPKS0_,
                            __ZN7TSCHSOS40ChartSeriesStylePropertyChangeSetArchive9_Internal11line_strokeEPKS0_,
                            __ZN7TSCHSOS40ChartSeriesStylePropertyChangeSetArchive9_Internal12bar3d_shadowEPKS0_,
                            __ZN7TSCHSOS40ChartSeriesStylePropertyChangeSetArchive9_Internal12default_fillEPKS0_,
                            __ZN7TSCHSOS40ChartSeriesStylePropertyChangeSetArchive9_Internal12pie3d_shadowEPKS0_,
                            __ZN7TSCHSOS40ChartSeriesStylePropertyChangeSetArchive9_Internal13area3d_shadowEPKS0_,
                            __ZN7TSCHSOS40ChartSeriesStylePropertyChangeSetArchive9_Internal13bubble_shadowEPKS0_,
                            __ZN7TSCHSOS40ChartSeriesStylePropertyChangeSetArchive9_Internal13bubble_strokeEPKS0_,
                            __ZN7TSCHSOS40ChartSeriesStylePropertyChangeSetArchive9_Internal13column3d_fillEPKS0_,
                            __ZN7TSCHSOS40ChartSeriesStylePropertyChangeSetArchive9_Internal13line3d_shadowEPKS0_,
                            __ZN7TSCHSOS40ChartSeriesStylePropertyChangeSetArchive9_Internal14default_shadowEPKS0_,
                            __ZN7TSCHSOS40ChartSeriesStylePropertyChangeSetArchive9_Internal14scatter_shadowEPKS0_,
                            __ZN7TSCHSOS40ChartSeriesStylePropertyChangeSetArchive9_Internal14scatter_strokeEPKS0_,
                            __ZN7TSCHSOS40ChartSeriesStylePropertyChangeSetArchive9_Internal15column3d_shadowEPKS0_,
                            __ZN7TSCHSOS40ChartSeriesStylePropertyChangeSetArchive9_Internal15default_opacityEPKS0_,
                            __ZN7TSCHSOS40ChartSeriesStylePropertyChangeSetArchive9_Internal15mixed_area_fillEPKS0_,
                            __ZN7TSCHSOS40ChartSeriesStylePropertyChangeSetArchive9_Internal15radar_area_fillEPKS0_,
                            __ZN7TSCHSOS40ChartSeriesStylePropertyChangeSetArchive9_Internal16area_symbol_fillEPKS0_,
                            __ZN7TSCHSOS40ChartSeriesStylePropertyChangeSetArchive9_Internal16area_symbol_sizeEPKS0_,
                            __ZN7TSCHSOS40ChartSeriesStylePropertyChangeSetArchive9_Internal16line_symbol_fillEPKS0_,
                            __ZN7TSCHSOS40ChartSeriesStylePropertyChangeSetArchive9_Internal16line_symbol_sizeEPKS0_,
                            __ZN7TSCHSOS40ChartSeriesStylePropertyChangeSetArchive9_Internal17mixed_area_shadowEPKS0_,
                            __ZN7TSCHSOS40ChartSeriesStylePropertyChangeSetArchive9_Internal17mixed_area_strokeEPKS0_,
                            __ZN7TSCHSOS40ChartSeriesStylePropertyChangeSetArchive9_Internal17mixed_column_fillEPKS0_,
                            __ZN7TSCHSOS40ChartSeriesStylePropertyChangeSetArchive9_Internal17mixed_line_shadowEPKS0_,
                            __ZN7TSCHSOS40ChartSeriesStylePropertyChangeSetArchive9_Internal17mixed_line_strokeEPKS0_,
                            __ZN7TSCHSOS40ChartSeriesStylePropertyChangeSetArchive9_Internal17radar_area_shadowEPKS0_,
                            __ZN7TSCHSOS40ChartSeriesStylePropertyChangeSetArchive9_Internal17radar_area_strokeEPKS0_,
                            __ZN7TSCHSOS40ChartSeriesStylePropertyChangeSetArchive9_Internal18area_symbol_strokeEPKS0_,
                            __ZN7TSCHSOS40ChartSeriesStylePropertyChangeSetArchive9_Internal18bubble_symbol_fillEPKS0_,
                            __ZN7TSCHSOS40ChartSeriesStylePropertyChangeSetArchive9_Internal18line_symbol_strokeEPKS0_,
                            __ZN7TSCHSOS40ChartSeriesStylePropertyChangeSetArchive9_Internal19mixed_column_shadowEPKS0_,
                            __ZN7TSCHSOS40ChartSeriesStylePropertyChangeSetArchive9_Internal19mixed_column_strokeEPKS0_,
                            __ZN7TSCHSOS40ChartSeriesStylePropertyChangeSetArchive9_Internal19scatter_symbol_fillEPKS0_,
                            __ZN7TSCHSOS40ChartSeriesStylePropertyChangeSetArchive9_Internal19scatter_symbol_sizeEPKS0_,
                            __ZN7TSCHSOS40ChartSeriesStylePropertyChangeSetArchive9_Internal20bubble_symbol_strokeEPKS0_,
                            __ZN7TSCHSOS40ChartSeriesStylePropertyChangeSetArchive9_Internal21scatter_symbol_strokeEPKS0_,
                            __ZN7TSCHSOS40ChartSeriesStylePropertyChangeSetArchive9_Internal22mixed_area_symbol_fillEPKS0_,
                            __ZN7TSCHSOS40ChartSeriesStylePropertyChangeSetArchive9_Internal22mixed_area_symbol_sizeEPKS0_,
                            __ZN7TSCHSOS40ChartSeriesStylePropertyChangeSetArchive9_Internal22mixed_line_symbol_fillEPKS0_,
