--- !tapi-tbd-v3
archs:                 [ armv7, armv7s, arm64, arm64e ]
platform:              ios
flags:                 [ flat_namespace ]
install-name:          /System/Library/Frameworks/CoreTelephony.framework/Support/libCommCenterKCommandDrivers.dylib
current-version:       1
compatibility-version: 1
exports:
  - archs:                [ armv7, armv7s, arm64, arm64e ]
    symbols:              [ __Z11parseIbiEriPKhS0_, __Z12parseIbiPlmnRK7IBIPlmn,
                            __Z13convertIbiRatP8os_log_s6IBIRat19IBIRatInfoExtension,
                            __Z15toIBICbLanguaget,
                            __Z16parseIbiCellInfoRN13ServingSystem9GSMSystemEPKN3ctu11OsLogLoggerE6IBIRat19IBIRatInfoExtensionjjj7IBIPlmn,
                            __Z18toIBISmsMsgWaitIndb,
                            __Z19dataModesFromIbiRatPKN3ctu11OsLogLoggerE6IBIRatb,
                            __Z19getEncryptionStatusRKN6AriSdk34ARI_IBICallPsSecurityStatusInd_SDKE,
                            __Z19getEncryptionStatusRKN6AriSdk36ARI_IBICallPsSecurityStatusRspCb_SDKE,
                            __Z19parseGsmIbiDataModeP8os_log_s6IBIRat19IBIRatInfoExtensionbbbb,
                            __Z19sIsCallTypeBasebandRK8CallInfo,
                            __Z21createMsgWaitingArraybh,
                            __Z22getImsEmergencySupportRKN6AriSdk35ARI_IBINetRegistrationInfoIndCb_SDKE,
                            __Z22getImsEmergencySupportRKN6AriSdk38ARI_IBINetGetRegistrationInfoRspCb_SDKE,
                            __Z22parseIbiCdma1xCellInfoR13ServingSystemRK25IBINetCdma1xCellInfoParam,
                            __Z23getCsRejectionCauseCodeRKN6AriSdk35ARI_IBINetRegistrationInfoIndCb_SDKE,
                            __Z23getCsRejectionCauseCodeRKN6AriSdk38ARI_IBINetGetRegistrationInfoRspCb_SDKE,
                            __Z23getPsRejectionCauseCodeRKN6AriSdk35ARI_IBINetRegistrationInfoIndCb_SDKE,
                            __Z23getPsRejectionCauseCodeRKN6AriSdk38ARI_IBINetGetRegistrationInfoRspCb_SDKE,
                            __Z23toAPBroadcast3GPPConfigRK18IBICbsMidRangeList,
                            __Z24parseIbiCdmaEvdoCellInfoR13ServingSystemRK27IBINetCdmaEvdoCellInfoParamb,
                            __Z24toIbiBroadcast3GPPConfigRKNSt3__16vectorIN3sms19BroadcastConfig3GPPENS_9allocatorIS2_EEEE,
                            __Z27convertIbiNetworkNameSource20IBINetPlmnNameSource,
                            __Z28convertIbiEmergencySetupType18EmergencySetupType,
                            __Z28convertIbiEncodedNetworkNamePKN3ctu11OsLogLoggerEPKc20IBINetEncodingSchemePKvm,
                            __Z28convertIbiRegistrationStatusPKN3ctu11OsLogLoggerE24IBINetRegistrationStatusb,
                            __Z31convertIbiSmscAddressToPhoneNumRK17IBISimSmscAddress,
                            __Z31convertPhoneNumToIbiSmscAddressRK14CSIPhoneNumber,
                            __Z34isIbiRegistrationStatusFullServicePKN3ctu11OsLogLoggerE24IBINetRegistrationStatus,
                            __Z9getIbiRatPKN3ctu11OsLogLoggerE21RadioAccessTechnology,
                            __ZN19IBIDMSCommandDriver10initializeEv,
                            __ZN19IBIDMSCommandDriver19sendReadImeiRequestEN16DMSCommandDriver11InformationE,
                            __ZN19IBIDMSCommandDriver22handleReadImeiResponseEPKhjN16DMSCommandDriver11InformationE,
                            __ZN19IBIDMSCommandDriver24handleClientStarted_syncEv,
                            __ZN19IBIDMSCommandDriver24handleClientStopped_syncEv,
                            __ZN19IBIDMSCommandDriver31sendIBISimFileGetCdmaAuxInfoReqEN16DMSCommandDriver11InformationEN10subscriber7SimSlotE,
                            __ZN19IBIDMSCommandDriver35handleIBISimFileGetCdmaAuxInfoRspCbEPKhjN16DMSCommandDriver11InformationE,
                            __ZN19IBIDMSCommandDriver3getEN10subscriber7SimSlotEN16DMSCommandDriver11InformationE,
                            __ZN19IBIDMSCommandDriver4stopEv,
                            __ZN19IBIDMSCommandDriver5startEv,
                            __ZN19IBIDMSCommandDriver6createERKNSt3__110shared_ptrIK8RegistryEEN8dispatch5queueE,
                            __ZN19IBIDMSCommandDriverC1ERKNSt3__110shared_ptrIK8RegistryEEN8dispatch5queueE,
                            __ZN19IBIDMSCommandDriverC2ERKNSt3__110shared_ptrIK8RegistryEEN8dispatch5queueE,
                            __ZN19IBIP2PCommandDriver23sendP2PCompanionMessageEPK10__CFNumberPK8__CFDatabRKNSt3__110shared_ptrI14P2PDeviceDescrEEU13block_pointerFvbbN3ctu2cf11CFSharedRefIK14__CFDictionaryEEE,
                            __ZN19IBIP2PCommandDriver24handleClientStarted_syncEv,
                            __ZN19IBIP2PCommandDriver24handleClientStopped_syncEv,
                            __ZN19IBIP2PCommandDriver31handleP2PMessageIndication_syncEPKhj,
                            __ZN19IBIP2PCommandDriver31handleP2PProximityStatusChangedEN10subscriber7SimSlotENSt3__110shared_ptrI14P2PDeviceDescrEE,
                            __ZN19IBIP2PCommandDriver4initENSt3__18weak_ptrI24P2PCommandDriverObserverEE,
                            __ZN19IBIP2PCommandDriver4stopEv,
                            __ZN19IBIP2PCommandDriver5startEv,
                            __ZN19IBIP2PCommandDriver6createENSt3__110shared_ptrIK8RegistryEEN8dispatch5queueE,
                            __ZN19IBIP2PCommandDriverC1ERKNSt3__110shared_ptrIK8RegistryEEPKcS8_N8dispatch5queueE,
                            __ZN19IBIP2PCommandDriverC2ERKNSt3__110shared_ptrIK8RegistryEEPKcS8_N8dispatch5queueE,
                            __ZN19IBIP2PCommandDriverD0Ev,
                            __ZN19IBIP2PCommandDriverD1Ev,
                            __ZN19IBIP2PCommandDriverD2Ev,
                            __ZN20IBICallCommandDriver10mergeCallsE20CallOperationContext,
                            __ZN20IBICallCommandDriver10startOTASPEv,
                            __ZN20IBICallCommandDriver11endAllCallsEN10subscriber7SimSlotE,
                            __ZN20IBICallCommandDriver11endThisCallE8CallInfo,
                            __ZN20IBICallCommandDriver12DelegateBaseD0Ev,
                            __ZN20IBICallCommandDriver12DelegateBaseD1Ev,
                            __ZN20IBICallCommandDriver12DelegateBaseD2Ev,
                            __ZN20IBICallCommandDriver12endHeldCallsEv,
                            __ZN20IBICallCommandDriver12stopDTMFToneERK8CallInfo15DtmfTypeSetting,
                            __ZN20IBICallCommandDriver13prepareToDialE8CallInfo,
                            __ZN20IBICallCommandDriver13startDTMFToneEcRK8CallInfo15DtmfTypeSetting,
                            __ZN20IBICallCommandDriver14sendDTMFDigitsERKNSt3__16vectorIhNS0_9allocatorIhEEEERK8CallInfo,
                            __ZN20IBICallCommandDriver15applyCallSourceERK8CallInfo,
                            __ZN20IBICallCommandDriver15cleanupAllCallsEN10subscriber7SimSlotE,
                            __ZN20IBICallCommandDriver15endCallInternalEjRK8CallInfo,
                            __ZN20IBICallCommandDriver15sendToVoicemailE8CallInfo15VoicemailReason,
                            __ZN20IBICallCommandDriver15sendUssdRequestERKNSt3__112basic_stringIcNS0_11char_traitsIcEENS0_9allocatorIcEEEEbN10subscriber7SimSlotENS0_8functionIFvRKN3ibi12UssdResponseEEEE,
                            __ZN20IBICallCommandDriver16handleMediaReadyEv,
                            __ZN20IBICallCommandDriver16handleRegisteredERKNSt3__13mapIN10subscriber7SimSlotE21RadioAccessTechnologyNS0_4lessIS3_EENS0_9allocatorINS0_4pairIKS3_S4_EEEEEE,
                            __ZN20IBICallCommandDriver16sendEndCallAudioERK8CallInfo,
                            __ZN20IBICallCommandDriver17cancelUssdSessionEN10subscriber7SimSlotE,
                            __ZN20IBICallCommandDriver17endCallDueToSRVCCE8CallInfo,
                            __ZN20IBICallCommandDriver17handleECBMChangedEb,
                            __ZN20IBICallCommandDriver17isAbleToMakeCallsEbN10subscriber7SimSlotE,
                            __ZN20IBICallCommandDriver17parseUssdResponseEPKhj,
                            __ZN20IBICallCommandDriver17sendUSSDProcedureENSt3__112basic_stringIcNS0_11char_traitsIcEENS0_9allocatorIcEEEEN10subscriber7SimSlotE,
                            __ZN20IBICallCommandDriver17sendUSSDUserReplyENSt3__112basic_stringIcNS0_11char_traitsIcEENS0_9allocatorIcEEEEN10subscriber7SimSlotE,
                            __ZN20IBICallCommandDriver17setCallCapabilityEPKcbbN10subscriber7SimSlotE,
                            __ZN20IBICallCommandDriver17setCallCapabilityEPKciN10subscriber7SimSlotE,
                            __ZN20IBICallCommandDriver18answerIncomingCallE8CallInfo,
                            __ZN20IBICallCommandDriver18enableVoicePrivacyEbN10subscriber7SimSlotE,
                            __ZN20IBICallCommandDriver18handleUssdInd_syncEPKhj,
                            __ZN20IBICallCommandDriver18validateUssdStringERKNSt3__112basic_stringIcNS0_11char_traitsIcEENS0_9allocatorIcEEEE,
                            __ZN20IBICallCommandDriver19registerForCCEventsEv,
                            __ZN20IBICallCommandDriver19sendCallWaitingToneEN10subscriber7SimSlotE,
                            __ZN20IBICallCommandDriver19sendSRVCCCallConfigEN10subscriber7SimSlotE,
                            __ZN20IBICallCommandDriver19sendStopContDtmfReqERK8CallInfo,
                            __ZN20IBICallCommandDriver20holdUnHoldActiveCallEN3ctu2cf11CFSharedRefIK8__CFUUIDEE,
                            __ZN20IBICallCommandDriver20sendStartContDtmfReqEcRK8CallInfo,
                            __ZN20IBICallCommandDriver21reportDisconnectStatsERK8CallInfo,
                            __ZN20IBICallCommandDriver21resetCallCapabilitiesEN10subscriber7SimSlotE,
                            __ZN20IBICallCommandDriver21resetCallRelatedStateEN10subscriber7SimSlotE,
                            __ZN20IBICallCommandDriver21sendVoiceBurstDtmfReqERKNSt3__16vectorIhNS0_9allocatorIhEEEERK8CallInfo,
                            __ZN20IBICallCommandDriver22answerWaitingEndActiveEPi,
                            __ZN20IBICallCommandDriver22answerWaitingHoldOtherEN3ctu2cf11CFSharedRefIK8__CFUUIDEE,
                            __ZN20IBICallCommandDriver22handleHandoverInd_syncEPKhj,
                            __ZN20IBICallCommandDriver22holdActiveCallInternalEj,
                            __ZN20IBICallCommandDriver22registerForIndicationsEv,
                            __ZN20IBICallCommandDriver23checkCallActiveWithFWIME20IBICallCsLineControlRK8CallInfo,
                            __ZN20IBICallCommandDriver24checkIBICallCsSignalInfoE19IBICallCsSignalInfo,
                            __ZN20IBICallCommandDriver24handleCallActiveInd_syncER8CallInfo15IBICallCsStatus,
                            __ZN20IBICallCommandDriver24handleCallStatusInd_syncEPKhj,
                            __ZN20IBICallCommandDriver24retrieveHeldCallInternalEj,
                            __ZN20IBICallCommandDriver25createPrivateConversationE20CallOperationContext,
                            __ZN20IBICallCommandDriver25fillUpC2KCallCapabilitiesEN10subscriber7SimSlotE,
                            __ZN20IBICallCommandDriver25fillUpGSMCallCapabilitiesEN10subscriber7SimSlotE,
                            __ZN20IBICallCommandDriver25handleCallingNameInd_syncEPKhj,
                            __ZN20IBICallCommandDriver26answerIncomingCallInternalERK8CallInfo,
                            __ZN20IBICallCommandDriver26createExplicitCallTransferEN10subscriber7SimSlotE,
                            __ZN20IBICallCommandDriver26handleCallIncomingInd_syncEPKhj,
                            __ZN20IBICallCommandDriver27handleCallHoldResponse_syncEPKhj,
                            __ZN20IBICallCommandDriver27handleCallSwapResponse_syncEPKhj,
                            __ZN20IBICallCommandDriver28handleCallMergeResponse_syncEPKhjRK20CallOperationContext,
                            __ZN20IBICallCommandDriver28handleCallSetupResponse_syncEPKhjN3ctu2cf11CFSharedRefIK8__CFUUIDEEb,
                            __ZN20IBICallCommandDriver28handlePsNotificationInd_syncEPKhj,
                            __ZN20IBICallCommandDriver28setupDefaultCallCapabilitiesEN10subscriber7SimSlotE,
                            __ZN20IBICallCommandDriver29fillUpDefaultCallCapabilitiesEN10subscriber7SimSlotE,
                            __ZN20IBICallCommandDriver29handleCallAcceptResponse_syncEPKhj,
                            __ZN20IBICallCommandDriver29validateCallCollisionScenarioEbjN10subscriber7SimSlotE,
                            __ZN20IBICallCommandDriver30handleCallCsStopDtmfIndCb_syncEPKhj,
                            __ZN20IBICallCommandDriver30handleCallDisconnectedInd_syncEPKhj,
                            __ZN20IBICallCommandDriver30handleCallReleaseResponse_syncEPKhj,
                            __ZN20IBICallCommandDriver31handleCallRetrieveResponse_syncEPKhj,
                            __ZN20IBICallCommandDriver31handleCallTransferResponse_syncEPKhj,
                            __ZN20IBICallCommandDriver32setNumTypeForTestEmergencyNumberER8CallInfo,
                            __ZN20IBICallCommandDriver34handleCallCsSetPrefPrivacyInd_syncEPKhj,
                            __ZN20IBICallCommandDriver34handleSessionTransferResponse_syncEPKhj,
                            __ZN20IBICallCommandDriver34handleSplitMultipartyResponse_syncEPKhjRK20CallOperationContext,
                            __ZN20IBICallCommandDriver35handleSetCallCapabilityTimerExpiredEPKcbN10subscriber7SimSlotE,
                            __ZN20IBICallCommandDriver36handleOtaspCallStatusIndication_syncEPKhj,
                            __ZN20IBICallCommandDriver42handleCallCsStatusIncomingIndications_syncE15IBICallCsStatusR8CallInfo,
                            __ZN20IBICallCommandDriver45handleEmergencyCallIntermediateStatusInd_syncEPKhj,
                            __ZN20IBICallCommandDriver4dialE8CallInfo,
                            __ZN20IBICallCommandDriver4initENSt3__110shared_ptrI15IBIOTASPServiceEE,
                            __ZN20IBICallCommandDriver56setPreferredWirelessTechnologyBasedOnCarrierCapabilitiesEN10subscriber7SimSlotE,
                            __ZN20IBICallCommandDriver5startEv,
                            __ZN20IBICallCommandDriver8shutdownEN8dispatch13group_sessionE,
                            __ZN20IBICallCommandDriver9bootstrapEN8dispatch13group_sessionE,
                            __ZN20IBICallCommandDriver9swapCallsEN3ctu2cf11CFSharedRefIK8__CFUUIDEE,
                            __ZN20IBICallCommandDriverC1ERKNSt3__110shared_ptrIK8RegistryEEON8dispatch5queueENS1_INS_12DelegateBaseEEE,
                            __ZN20IBICallCommandDriverC2ERKNSt3__110shared_ptrIK8RegistryEEON8dispatch5queueENS1_INS_12DelegateBaseEEE,
                            __ZN20IBICallCommandDriverD0Ev,
                            __ZN20IBICallCommandDriverD1Ev,
                            __ZN20IBICallCommandDriverD2Ev,
                            __ZN22KCommandDriversFactory21createATCommandDriverEN8dispatch5queueE,
                            __ZN22KCommandDriversFactory22createAwdCommandDriverEN8dispatch8workloopE,
                            __ZN22KCommandDriversFactory22createDMSCommandDriverEN8dispatch5queueEN3xpc8endpointE,
                            __ZN22KCommandDriversFactory22createP2PCommandDriverEN8dispatch5queueE,
                            __ZN22KCommandDriversFactory22createSimCommandDriverEN8dispatch5queueEN3xpc10connectionE,
                            __ZN22KCommandDriversFactory22createSmsCommandDriverEN8dispatch5queueEN3xpc8endpointE,
                            __ZN22KCommandDriversFactory22createStkCommandDriverEN8dispatch5queueENSt3__110shared_ptrI33STKCommandDriverDelegateInterfaceEE,
                            __ZN22KCommandDriversFactory23createCallCommandDriverEN8dispatch5queueENSt3__110shared_ptrI34CallCommandDriverDelegateInterfaceEENS3_I28ServiceProvisioningInterfaceEE,
                            __ZN22KCommandDriversFactory24createAudioCommandDriverEN8dispatch5queueE,
                            __ZN22KCommandDriversFactory24createEmbmsCommandDriverEN8dispatch5queueE,
                            __ZN22KCommandDriversFactory24createVinylCommandDriverEN3xpc10connectionE,
                            __ZN22KCommandDriversFactory26createDesenseCommandDriverEN8dispatch5queueE,
                            __ZN22KCommandDriversFactory27createDormancyCommandDriverEN8dispatch5queueEj,
                            __ZN22KCommandDriversFactory28createAttachApnCommandDriverEN8dispatch5queueE,
                            __ZN22KCommandDriversFactory28createCallAudioCommandDriverEN8dispatch5queueENSt3__110shared_ptrI32CallAudioDriverDelegateInterfaceEENS3_I33CallNotificationsHandlerInterfaceEE,
                            __ZN22KCommandDriversFactory28createPhonebookCommandDriverEN8dispatch5queueE,
                            __ZN22KCommandDriversFactory29createActivationCommandDriverEN8dispatch5queueE,
                            __ZN22KCommandDriversFactory30createCellMonitorCommandDriverEN8dispatch5queueE,
                            __ZN22KCommandDriversFactory30createDataFactoryCommandDriverEN8dispatch5queueE,
                            __ZN22KCommandDriversFactory30createEnhancedLQMCommandDriverEN8dispatch5queueE,
                            __ZN22KCommandDriversFactory30createNetworkListCommandDriverEN8dispatch5queueE,
                            __ZN22KCommandDriversFactory31createAudioRoutingCommandDriverEN8dispatch5queueE,
                            __ZN22KCommandDriversFactory31createCDMASettingsCommandDriverEN8dispatch5queueE,
                            __ZN22KCommandDriversFactory31createSuppServicesCommandDriverEN8dispatch5queueE,
                            __ZN22KCommandDriversFactory31createWiFiSettingsCommandDriverEN8dispatch5queueE,
                            __ZN22KCommandDriversFactory33createSignalStrengthCommandDriverEN8dispatch5queueE,
                            __ZN22KCommandDriversFactory35createBasebandSettingsCommandDriverEN8dispatch5queueE,
                            __ZN22KCommandDriversFactory35createDataSubscriptionCommandDriverEN8dispatch5queueE,
                            __ZN22KCommandDriversFactory36createPreferredNetworksCommandDriverEN8dispatch5queueE,
                            __ZN22KCommandDriversFactory38createNetworkRegistrationCommandDriverEN8dispatch8workloopEN3xpc8endpointE,
                            __ZN22KCommandDriversFactory6createEv,
                            __ZN22KCommandDriversFactoryD0Ev,
                            __ZN22KCommandDriversFactoryD1Ev,
                            __ZN22KCommandDriversFactoryD2Ev,
                            __ZN27IBINetworkListCommandDriver18performNetworkScanEN10subscriber7SimSlotEh,
                            __ZN27IBINetworkListCommandDriver19applySelection_syncEN10subscriber7SimSlotE20NetworkSelectionMode19NetworkListOperatorN8dispatch13group_sessionE,
                            __ZN27IBINetworkListCommandDriver21applyNetworkSelectionEN10subscriber7SimSlotE20NetworkSelectionMode19NetworkListOperatorh29CarrierSelectionAllowedReason,
                            __ZN27IBINetworkListCommandDriver22parseScanResponse_syncEPKN3ctu11OsLogLoggerERK21IBINetPlmnScanList_V1,
                            __ZN27IBINetworkListCommandDriver23handleScanResponse_syncEN10subscriber7SimSlotEPKhj,
                            __ZN27IBINetworkListCommandDriver26getNetworkSelectionSettingEN10subscriber7SimSlotE,
                            __ZN27IBINetworkListCommandDriver27handlePlmnModeBitIndicationEPhj,
                            __ZN27IBINetworkListCommandDriver30handleManualPlmnModeIndicationEPhj,
                            __ZN27IBINetworkListCommandDriver31handleIncrementalScanIndicationEPhj,
                            __ZN27IBINetworkListCommandDriver32handleNetworkAttachResponse_syncEPKhjN10subscriber7SimSlotE20NetworkSelectionModeN8dispatch13group_sessionE,
                            __ZN27IBINetworkListCommandDriver5startEv,
                            __ZN27IBINetworkListCommandDriver6createERKNSt3__110shared_ptrIK8RegistryEEN8dispatch5queueE,
                            __ZN27IBINetworkListCommandDriver8shutdownEN8dispatch13group_sessionE,
                            __ZN27IBINetworkListCommandDriver9bootstrapEN8dispatch13group_sessionEN3xpc8endpointENSt3__110shared_ptrI41NetworkListCommandDriverDelegateInterfaceEE,
                            __ZN27IBINetworkListCommandDriverC1ERKNSt3__110shared_ptrIK8RegistryEEN8dispatch5queueE,
                            __ZN27IBINetworkListCommandDriverC2ERKNSt3__110shared_ptrIK8RegistryEEN8dispatch5queueE,
                            __ZN27IBINetworkListCommandDriverD0Ev,
                            __ZN27IBINetworkListCommandDriverD1Ev,
                            __ZN27IBINetworkListCommandDriverD2Ev,
                            __ZN28EmergencyCellSearchOperation19setE911SearchResultERK14E911StateReady,
                            __ZN28EmergencyCellSearchOperationC1EPKN3ctu11OsLogLoggerENSt3__110shared_ptrI46NetworkRegistrationDriverEventHandlerInterfaceEE,
                            __ZN28EmergencyCellSearchOperationC2EPKN3ctu11OsLogLoggerENSt3__110shared_ptrI46NetworkRegistrationDriverEventHandlerInterfaceEE,
                            __ZN28EmergencyCellSearchOperationD1Ev,
                            __ZN28EmergencyCellSearchOperationD2Ev,
                            __ZN28IBICDMASettingsCommandDriver13resetCallBackEv,
                            __ZN28IBICDMASettingsCommandDriver15dialSettingCallEN10subscriber7SimSlotERKNSt3__112basic_stringIcNS2_11char_traitsIcEENS2_9allocatorIcEEEENS2_8functionIFvvEEE,
                            __ZN28IBICDMASettingsCommandDriver23handleVoiceDialCallRespEPKhj,
                            __ZN28IBICDMASettingsCommandDriver30handleCallDisconnectedInd_syncEPKhj,
                            __ZN28IBICDMASettingsCommandDriver4initEv,
                            __ZN28IBICDMASettingsCommandDriver4stopEv,
                            __ZN28IBICDMASettingsCommandDriver5startEv,
                            __ZN28IBICDMASettingsCommandDriver6createERKNSt3__110shared_ptrIK8RegistryEEN8dispatch5queueE,
                            __ZN28IBICDMASettingsCommandDriverC1ERKNSt3__110shared_ptrIK8RegistryEEN8dispatch5queueE,
                            __ZN28IBICDMASettingsCommandDriverC2ERKNSt3__110shared_ptrIK8RegistryEEN8dispatch5queueE,
                            __ZN28IBIWiFiSettingsCommandDriver15sendNetworkInfoENSt3__112basic_stringIcNS0_11char_traitsIcEENS0_9allocatorIcEEEES6_,
                            __ZN28IBIWiFiSettingsCommandDriver4stopEN8dispatch13group_sessionE,
                            __ZN28IBIWiFiSettingsCommandDriver5startEv,
                            __ZN28IBIWiFiSettingsCommandDriver6createERKNSt3__110shared_ptrIK8RegistryEEN8dispatch5queueE,
                            __ZN28IBIWiFiSettingsCommandDriver9bootstrapEN8dispatch13group_sessionEN3xpc10connectionENSt3__110shared_ptrI42WiFiSettingsCommandDriverDelegateInterfaceEE,
                            __ZN28IBIWiFiSettingsCommandDriverC1ERKNSt3__110shared_ptrIK8RegistryEEN8dispatch5queueE,
                            __ZN28IBIWiFiSettingsCommandDriverC2ERKNSt3__110shared_ptrIK8RegistryEEN8dispatch5queueE,
                            __ZN33IBIPreferredNetworksCommandDriver20sendPreferredPlmnCRCEj,
                            __ZN33IBIPreferredNetworksCommandDriver21sendPreferredPlmnListEhhRKNSt3__16vectorI16PlmnPriorityDataNS0_9allocatorIS2_EEEE,
                            __ZN33IBIPreferredNetworksCommandDriver6createENSt3__110shared_ptrIK8RegistryEEN8dispatch5queueEN10subscriber7SimSlotENS1_IN3ibi6ClientEEE,
                            __ZN33IBIPreferredNetworksCommandDriverC1ERKNSt3__110shared_ptrIK8RegistryEEN8dispatch5queueEN10subscriber7SimSlotENS1_IN3ibi6ClientEEE,
                            __ZN33IBIPreferredNetworksCommandDriverC2ERKNSt3__110shared_ptrIK8RegistryEEN8dispatch5queueEN10subscriber7SimSlotENS1_IN3ibi6ClientEEE,
                            __ZN33IBIPreferredNetworksCommandDriverD0Ev,
                            __ZN33IBIPreferredNetworksCommandDriverD1Ev,
                            __ZN33IBIPreferredNetworksCommandDriverD2Ev,
                            __ZN3awd19IBIAwdCommandDriver12checkIn_syncENSt3__110shared_ptrINS_10AppContextEEE,
                            __ZN3awd19IBIAwdCommandDriver13checkOut_syncENSt3__110shared_ptrINS_10AppContextEEE,
                            __ZN3awd19IBIAwdCommandDriver24handleClientStarted_syncEv,
                            __ZN3awd19IBIAwdCommandDriver24handleClientStopped_syncEv,
                            __ZN3awd19IBIAwdCommandDriver5startEv,
                            __ZN3awd19IBIAwdCommandDriver6createERKNSt3__110shared_ptrIK8RegistryEEON8dispatch8workloopE,
                            __ZN3awd19IBIAwdCommandDriver8shutdownEN8dispatch13group_sessionE,
                            __ZN3awd19IBIAwdCommandDriver9bootstrapEN8dispatch13group_sessionE,
                            __ZN3awd19IBIAwdCommandDriverC1ERKNSt3__110shared_ptrIK8RegistryEEON8dispatch8workloopE,
                            __ZN3awd19IBIAwdCommandDriverC2ERKNSt3__110shared_ptrIK8RegistryEEON8dispatch8workloopE,
                            __ZN40IBIPreferredNetworksFactoryCommandDriver19createCommandDriverEN10subscriber7SimSlotE,
                            __ZN40IBIPreferredNetworksFactoryCommandDriver24handleClientStarted_syncEv,
                            __ZN40IBIPreferredNetworksFactoryCommandDriver24handleClientStopped_syncEv,
                            __ZN40IBIPreferredNetworksFactoryCommandDriver29stopCommandDriverEventHandlerEv,
                            __ZN40IBIPreferredNetworksFactoryCommandDriver30startCommandDriverEventHandlerEv,
                            __ZN40IBIPreferredNetworksFactoryCommandDriver34bootstrapCommandDriverEventHandlerEv,
                            __ZN40IBIPreferredNetworksFactoryCommandDriver6createENSt3__110shared_ptrIK8RegistryEEN8dispatch5queueE,
                            __ZN40IBIPreferredNetworksFactoryCommandDriverC1ENSt3__110shared_ptrIK8RegistryEEN8dispatch5queueE,
                            __ZN40IBIPreferredNetworksFactoryCommandDriverC2ENSt3__110shared_ptrIK8RegistryEEN8dispatch5queueE,
                            __ZN40IBIPreferredNetworksFactoryCommandDriverD0Ev,
                            __ZN40IBIPreferredNetworksFactoryCommandDriverD1Ev,
                            __ZN40IBIPreferredNetworksFactoryCommandDriverD2Ev,
                            __ZN8dormancy17IBIDormancyHelper4initEv,
                            __ZN8dormancy17IBIDormancyHelper6createERKNSt3__110shared_ptrIK8RegistryEEN8dispatch5queueE,
                            __ZN8dormancy17IBIDormancyHelperC1ERKNSt3__110shared_ptrIK8RegistryEEN8dispatch5queueE,
                            __ZN8dormancy17IBIDormancyHelperC2ERKNSt3__110shared_ptrIK8RegistryEEN8dispatch5queueE,
                            __ZN8dormancy17IBIDormancyHelperD1Ev,
                            __ZN8dormancy17IBIDormancyHelperD2Ev,
                            __ZNK20IBICallCommandDriver18findCallCapabilityEPKcN10subscriber7SimSlotE,
                            __ZNK20IBICallCommandDriver18isMMIUSSDSupportedEN10subscriber7SimSlotE,
                            __ZNK20IBICallCommandDriver19carrierSupportsCDMAEN10subscriber7SimSlotE,
                            __ZNK20IBICallCommandDriver20updateWifiCallStatusERK9CallStateN10subscriber7SimSlotEb,
                            __ZNK20IBICallCommandDriver21deviceTypeForInstanceEN10subscriber7SimSlotE,
                            __ZNK20IBICallCommandDriver21updateVoLTECallStatusEN3nas13ImsCallStatusEN10subscriber7SimSlotE8CSIErrorb,
                            __ZNK20IBICallCommandDriver22getAllCallCapabilitiesEN10subscriber7SimSlotE,
                            __ZNK20IBICallCommandDriver23supportsCallSwapWhenMaxEN10subscriber7SimSlotE,
                            __ZNK20IBICallCommandDriver24getCallCommandDriverTypeEv,
                            __ZNK20IBICallCommandDriver28areVoiceCallsAllowedRightNowEv,
                            __ZNK20IBICallCommandDriver30isUSSDFeatureSupportedByDriverEN10subscriber7SimSlotE,
                            __ZNK20IBICallCommandDriver36getPreferredWirelessTechnologyForSimEN10subscriber7SimSlotE,
                            __ZNK20IBICallCommandDriver9dumpStateEv,
                            __ZNK28IBICDMASettingsCommandDriver7getNameEv,
                            __ZNK33IBIPreferredNetworksCommandDriver7getNameEv,
                            __ZNK3awd19IBIAwdCommandDriver19sendQueriableMetricENSt3__110shared_ptrINS_10AppContextEEEjjjN8dispatch5blockIU13block_pointerFvbEEE,
                            __ZNK3awd19IBIAwdCommandDriver19sendQueriableMetricENSt3__110shared_ptrINS_10AppContextEEEjjjjjN8dispatch5blockIU13block_pointerFvbEEE,
                            __ZNK3awd19IBIAwdCommandDriver20sendAddConfigurationENSt3__110shared_ptrINS_10AppContextEEENS_11PayloadTypeERKNS1_6vectorIhNS1_9allocatorIhEEEEN8dispatch5blockIU13block_pointerFvbEEE,
                            __ZNK3awd19IBIAwdCommandDriver20sendUpdatePropertiesENSt3__110shared_ptrINS_10AppContextEEEN8dispatch5blockIU13block_pointerFvbEEE,
                            __ZNK3awd19IBIAwdCommandDriver21sendGlobalSwitch_syncEb,
                            __ZNK3awd19IBIAwdCommandDriver22sendClearConfigurationENSt3__110shared_ptrINS_10AppContextEEEN8dispatch5blockIU13block_pointerFvbEEE,
                            __ZNK3awd19IBIAwdCommandDriver26sendEnableMetricSubmissionENSt3__110shared_ptrINS_10AppContextEEEbN8dispatch5blockIU13block_pointerFvbEEE,
                            __ZNK3awd19IBIAwdCommandDriver30handleMetricSubmissionInd_syncEPKhj,
                            __ZNK3awd19IBIAwdCommandDriver31handleTriggerSubmissionInd_syncEPKhj,
                            __ZNK40IBIPreferredNetworksFactoryCommandDriver7getNameEv,
                            __ZNK8dormancy17IBIDormancyHelper15requestDormancyEN10subscriber7SimSlotENSt3__110shared_ptrIN3ibi6ClientEEEbU13block_pointerFvbiE,
                            __ZNK8dormancy17IBIDormancyHelper20requestDormancyStateEN10subscriber7SimSlotENSt3__110shared_ptrIN3ibi6ClientEEEU13block_pointerFvS2_14DormancyStatusRKNS3_12basic_stringIcNS3_11char_traitsIcEENS3_9allocatorIcEEEEE,
                            __ZNK8dormancy17IBIDormancyHelper20requestDormancyStateENSt3__110shared_ptrI21DataInstanceICEClientEEU13block_pointerFvN10subscriber7SimSlotE14DormancyStatusRKNS1_12basic_stringIcNS1_11char_traitsIcEENS1_9allocatorIcEEEEE,
                            __ZNK8dormancy17IBIDormancyHelper22sendPortFiltersRequestEN10subscriber7SimSlotENSt3__110shared_ptrIN3ibi6ClientEEENS4_I25InterfaceAppMapperServiceEEbRKNS3_3mapIiNS3_6vectorINS_6FilterENS3_9allocatorISC_EEEENS3_4lessIiEENSD_INS3_4pairIKiSF_EEEEEEU13block_pointerFvbiiE,
                            __ZNK8dormancy17IBIDormancyHelper26regDormancyStateIndicationENSt3__110shared_ptrIN3ibi6ClientEEEU13block_pointerFvN10subscriber7SimSlotE14DormancyStatusRKNS1_12basic_stringIcNS1_11char_traitsIcEENS1_9allocatorIcEEEEE,
                            __ZNK8dormancy17IBIDormancyHelper7addItemERNSt3__13mapIiNS1_6vectorINS_6FilterENS1_9allocatorIS4_EEEENS1_4lessIiEENS5_INS1_4pairIKiS7_EEEEEEj18DataProtocolFamily12ProtocolTypet,
                            __ZTI19IBIDMSCommandDriver,
                            __ZTI19IBIP2PCommandDriver,
                            __ZTI20IBICallCommandDriver,
                            __ZTI22KCommandDriversFactory,
                            __ZTI27IBINetworkListCommandDriver,
                            __ZTI28IBICDMASettingsCommandDriver,
                            __ZTI28IBIWiFiSettingsCommandDriver,
                            __ZTI33IBIPreferredNetworksCommandDriver,
                            __ZTI40IBIPreferredNetworksFactoryCommandDriver,
                            __ZTIN20IBICallCommandDriver12DelegateBaseE,
                            __ZTIN3awd19IBIAwdCommandDriverE,
                            __ZTS19IBIDMSCommandDriver,
                            __ZTS19IBIP2PCommandDriver,
                            __ZTS20IBICallCommandDriver,
                            __ZTS22KCommandDriversFactory,
                            __ZTS27IBINetworkListCommandDriver,
                            __ZTS28IBICDMASettingsCommandDriver,
                            __ZTS28IBIWiFiSettingsCommandDriver,
                            __ZTS33IBIPreferredNetworksCommandDriver,
                            __ZTS40IBIPreferredNetworksFactoryCommandDriver,
                            __ZTSN20IBICallCommandDriver12DelegateBaseE,
                            __ZTSN3awd19IBIAwdCommandDriverE,
                            __ZTV19IBIDMSCommandDriver,
                            __ZTV19IBIP2PCommandDriver,
                            __ZTV20IBICallCommandDriver,
                            __ZTV22KCommandDriversFactory,
                            __ZTV27IBINetworkListCommandDriver,
                            __ZTV28IBICDMASettingsCommandDriver,
                            __ZTV28IBIWiFiSettingsCommandDriver,
                            __ZTV33IBIPreferredNetworksCommandDriver,
                            __ZTV40IBIPreferredNetworksFactoryCommandDriver,
                            __ZTVN20IBICallCommandDriver12DelegateBaseE,
                            __ZTVN3awd19IBIAwdCommandDriverE,
                            __ZThn24_N40IBIPreferredNetworksFactoryCommandDriverD0Ev,
                            __ZThn24_N40IBIPreferredNetworksFactoryCommandDriverD1Ev,
                            __ZThn40_N33IBIPreferredNetworksCommandDriverD0Ev,
                            __ZThn40_N33IBIPreferredNetworksCommandDriverD1Ev ]
undefineds:
  - archs:                [ armv7, armv7s, arm64, arm64e ]
    symbols:              [ _CFArrayAppendValue, _CFArrayCreateMutable,
                            _CFArrayGetCount, _CFArrayGetTypeID,
                            _CFArrayGetValueAtIndex, _CFBooleanGetTypeID,
                            _CFDataGetBytePtr, _CFDataGetLength, _CFDataGetTypeID,
                            _CFDictionaryAddValue, _CFDictionaryCreateMutable,
                            _CFDictionaryCreateMutableCopy,
                            _CFDictionaryGetTypeID, _CFDictionaryGetValue,
                            _CFDictionaryReplaceValue, _CFDictionarySetValue,
                            _CFGetTypeID, _CFNumberCreate, _CFNumberGetTypeID,
                            _CFPreferencesCopyValue, _CFRelease, _CFRetain,
                            _CFStringGetTypeID, _CSIErrorString, _CSIEventString,
                            __Block_copy, __Block_object_assign,
                            __Block_object_dispose, __Block_release,
                            __NSConcreteGlobalBlock, __NSConcreteStackBlock,
                            __Unwind_Resume, __Z10createPLMNiib,
                            __Z11getCSIError22ERROR_3GPP_END_REASONS,
                            __Z11getDSReason22ERROR_3GPP_END_REASONS,
                            __Z12asStringBoolb,
                            __Z12decodeBufferPKvm16DataCodingScheme,
                            __Z12decodeStringRKNSt3__112basic_stringIcNS_11char_traitsIcEENS_9allocatorIcEEEERS5_,
                            __Z14sGetEmptyAddrsv,
                            __Z14shouldRetrySMSN10subscriber7SimSlotERKNSt3__110shared_ptrIK8RegistryEEi,
                            __Z15CSIboolAsStringb,
                            __Z16CSIDateToSecondsRK7CSIDate,
                            __Z16appendDataSoMaskRj14DataSoMaskBits,
                            __Z16write_rest_valueRK17CSGSearchResponse,
                            __Z17ratSelectionAsStrh, __Z18asStringDataSoMaskj,
                            __Z18decodeOperatorNamePKN3ctu11OsLogLoggerERKNSt3__16vectorIhNS3_9allocatorIhEEEE16DataCodingScheme,
                            __Z18is5GDataTechnology22CellularDataTechnology,
                            __Z20asWirelessTechnology21RadioAccessTechnology,
                            __Z21gsmToCsiErrorWithCode18GsmFinalResultTypei,
                            __Z22attachApnLogDomainNameN10subscriber7SimSlotE,
                            __Z22numberContainsAlphabetRKNSt3__112basic_stringIcNS_11char_traitsIcEENS_9allocatorIcEEEE,
                            __Z24convertMaskToBandsForRaty21RadioAccessTechnology,
                            __Z25DevicePersistentCopyValuePK10__CFStringPKv,
                            __Z25decodeCbsDataCodingSchemei,
                            __Z25decodeSmsDataCodingSchemei,
                            __Z26WirelessTechnologyAsString18WirelessTechnology,
                            __Z26convertOtaspStatusToString11OtaspStatus,
                            __Z30decodePackedBCDExtendedAddressPKvm,
                            __Z30encodePackedBCDExtendedAddressRKNSt3__112basic_stringIcNS_11char_traitsIcEENS_9allocatorIcEEEE,
                            __Z7addMask22ExplicitIpv6ConfigMaskS_,
                            __Z8asString10RFBandType, __Z8asString10Technology,
                            __Z8asString11AudioToneId, __Z8asString11DSErrorType,
                            __Z8asString11IBICbsCause, __Z8asString11IBINetError,
                            __Z8asString13IBICellErrorT,
                            __Z8asString13IBISsUssdType,
                            __Z8asString13PhoneBookType,
                            __Z8asString14AriResult_enum,
                            __Z8asString14DormancyStatus,
                            __Z8asString14IBIMessageMode,
                            __Z8asString14IBISimPbResult,
                            __Z8asString14LASDStatusHint,
                            __Z8asString15IBICallCsStatus,
                            __Z8asString15IBINetUserCause,
                            __Z8asString15IBISimChvStatus,
                            __Z8asString15IBISimPinStatus,
                            __Z8asString16DataContextState,
                            __Z8asString16IBINetDuplexMode,
                            __Z8asString16IBISimGenResType,
                            __Z8asString16IBISimPbLocation,
                            __Z8asString16IBISmsSendResult,
                            __Z8asString16ProactiveCommand,
                            __Z8asString16STKEventListType,
                            __Z8asString16SetMaxRateSource,
                            __Z8asString17IBICallCsClirMode,
                            __Z8asString17NetworkNameSource,
                            __Z8asString18DataProtocolFamily,
                            __Z8asString18IBIPriGriWriteResp,
                            __Z8asString18IBISimUpdateStatus,
                            __Z8asString18RegistrationStatus,
                            __Z8asString18STKDriverEventType,
                            __Z8asString19IBICallCsErrorCause,
                            __Z8asString19IBISimAccessAppType,
                            __Z8asString19IBISimPbCacheStatus,
                            __Z8asString20IBICdmaSmsErrorCause,
                            __Z8asString20IBICommonReturnCodes,
                            __Z8asString20IBISimAccessSimState,
                            __Z8asString20IBISimPbLocationInfo,
                            __Z8asString20IBISimTkEnvelopeType,
                            __Z8asString20IBISsNetworkGsmCause,
                            __Z8asString20IBISsOperationResult,
                            __Z8asString20NetworkSelectionMode,
                            __Z8asString20NotificationResponse,
                            __Z8asString21EnhancedLQMIndication,
                            __Z8asString21RadioAccessTechnology,
                            __Z8asString22CellularDataTechnology,
                            __Z8asString22ERROR_3GPP_END_REASONS,
                            __Z8asString22FrequencyReportingMode,
                            __Z8asString22IBICallCsTtyDeviceMode,
                            __Z8asString22IBISimPbUsimPbLocation,
                            __Z8asString22IBISimTkProactiveCause,
                            __Z8asString22IBISsNetworkErrorCause,
                            __Z8asString23IBISimApduCmdResultType,
                            __Z8asString23IBISsNetworkRejectCause,
                            __Z8asString24AntennaSwitchCommandType,
                            __Z8asString24IBINetRegistrationStatus,
                            __Z8asString24IBISimTkProactiveCmdType,
                            __Z8asString24LteEmergencySupportState,
                            __Z8asString25SilentRedialOverIMSReason,
                            __Z8asString27DataContextDeactivateReason,
                            __Z8asString27IBICallCsVoimsSrvccHoStatus,
                            __Z8asString27IBINetGetPlmnNameInfoResult,
                            __Z8asString27IBISimTkProactiveCmdHandler,
                            __Z8asString29IBINetEmergencyCellInfoResult,
                            __Z8asString30IBICallPsNotificationIndicator,
                            __Z8asString30NotificationAdditionalResponse,
                            __Z8asString40IBICallCsEmergencyCallIntermediateStatus,
                            __Z8asString4Type, __Z8asString6IBIRat,
                            __Z8asString7CtmMode, __Z8asString8BandType,
                            __Z8asString8CSIError, __Z8asString8DataMode,
                            __Z8asString8FileType, __Z8asString9CallState,
                            __Z8asString9FetchType,
                            __Z8asStringRKNSt3__16vectorI8DataModeNS_9allocatorIS1_EEEE,
                            __Z9isCdmaRat21RadioAccessTechnology,
                            __Z9printUuidN3ctu2cf11CFSharedRefIK8__CFUUIDEE,
                            __ZN10SelectItemD1Ev,
                            __ZN10subscriber13isEsimCapableERKNS_15VinylCapabilityE,
                            __ZN10subscriber13simTypeToCardENS_7SimTypeE,
                            __ZN10subscriber14getSimFilePathEPKN3ctu10LoggerBaseINSt3__110shared_ptrINS0_9LogServerEEEEENS_7SimTypeERKNS_6FileIdE,
                            __ZN10subscriber14isValidSimSlotERKNSt3__110shared_ptrIK8RegistryEENS_7SimSlotE,
                            __ZN10subscriber14markNotPresentERNS_13SimDriverInfo7AppInfoE,
                            __ZN10subscriber15isFileIdInvalidERKNS_6FileIdE,
                            __ZN10subscriber16SimCommandDriver16handleSimHwEventENS_7SimSlotENS_20SimHwTrayEventStatusE,
                            __ZN10subscriber16SimCommandDriver36updateAndNotifySimTrayStatusIfNeededENS_12SimTrayStateENS_7SimSlotE,
                            __ZN10subscriber16SimCommandDriverC2ERKNSt3__110shared_ptrIK8RegistryEERKN8dispatch5queueEPKcNS1_8functionIFKSD_NS_7SimSlotEEEE,
                            __ZN10subscriber16SimCommandDriverD2Ev,
                            __ZN10subscriber16makeSimSlotRangeERKNSt3__110shared_ptrIK8RegistryEENS_7SimSlotE,
                            __ZN10subscriber16sim_driver_event10sim_activeE,
                            __ZN10subscriber16sim_driver_event10sim_lockedE,
                            __ZN10subscriber16sim_driver_event11pin_changedE,
                            __ZN10subscriber16sim_driver_event11pin_successE,
                            __ZN10subscriber16sim_driver_event11sim_blockedE,
                            __ZN10subscriber16sim_driver_event11sim_missingE,
                            __ZN10subscriber16sim_driver_event12driver_resetE,
                            __ZN10subscriber16sim_driver_event12sim_detectedE,
                            __ZN10subscriber16sim_driver_event13np_app_id_setE,
                            __ZN10subscriber16sim_driver_event18pin_enable_changedE,
                            __ZN10subscriber16sim_driver_event18sim_status_unknownE,
                            __ZN10subscriber16sim_driver_event22pin_retry_count_updateE,
                            __ZN10subscriber16sim_driver_event8sim_deadE,
                            __ZN10subscriber17instanceAsSimSlotEj,
                            __ZN10subscriber17simSlotAsInstanceENS_7SimSlotE,
                            __ZN10subscriber19maybeMarkNotPresentERNS_13SimDriverInfo7AppInfoE,
                            __ZN10subscriber5isSetEN16DMSCommandDriver11InformationES1_,
                            __ZN10subscriber8asStringENS_11SimFilePathE,
                            __ZN10subscriber8asStringENS_7SimCardE,
                            __ZN10subscriber8asStringENS_7SimSlotE,
                            __ZN10subscriber8asStringENS_7SimTypeE,
                            __ZN10subscriber8asStringENS_8AuthTypeE,
                            __ZN10subscriber9getFileIdEPKN3ctu10LoggerBaseINSt3__110shared_ptrINS0_9LogServerEEEEENS_7SimTypeENS_11SimFilePathE,
                            __ZN10subscriberlsERNSt3__113basic_ostreamIcNS0_11char_traitsIcEEEERKNS_7SimSlotE,
                            __ZN11DisplayTextD1Ev, __ZN11OpenChannelD1Ev,
                            __ZN11ReceiveDataD1Ev, __ZN12CloseChannelD1Ev,
                            __ZN12OTASPService19handleNotRegisteredEv,
                            __ZN12OTASPService22setVisibleOTASPStartedEb,
                            __ZN12OTASPService25handleOtaspCallIndicationEbiN10subscriber7SimSlotE,
                            __ZN12OTASPServiceC2ERKNSt3__110shared_ptrIK8RegistryEEN8dispatch5queueERKNS1_I28ServiceProvisioningInterfaceEEPKc,
                            __ZN12OTASPServiceD2Ev, __ZN13PDPMetricInfo5clearEv,
                            __ZN13PDPMetricInfoD1Ev, __ZN13SelectionItemD1Ev,
                            __ZN13SetupIdleTextD1Ev,
                            __ZN13SmsPduEncoder10encodeTpduERKNSt3__112basic_stringIcNS0_11char_traitsIcEENS0_9allocatorIcEEEE,
                            __ZN13SmsPduEncoder11getContentsEPi,
                            __ZN13SmsPduEncoder16setServiceCenterERK14CSIPhoneNumber,
                            __ZN13SmsPduEncoderC1Eb, __ZN13SmsPduEncoderD1Ev,
                            __ZN14ActivationInfoC1Ev, __ZN14CSIPhoneNumberC1EPKc,
                            __ZN14CSIPhoneNumberC1ERKNSt3__112basic_stringIcNS0_11char_traitsIcEENS0_9allocatorIcEEEE,
                            __ZN14CSIPhoneNumberC1EiRKNSt3__112basic_stringIcNS0_11char_traitsIcEENS0_9allocatorIcEEEE,
                            __ZN14CSIPhoneNumberC1Ev,
                            __ZN14PBCapabilities10SecondNameC1Ev,
                            __ZN14PBCapabilities13HiddenRecordsC1Ev,
                            __ZN14PBCapabilities13PrimaryNumberC1Ev,
                            __ZN14PBCapabilities15AdditionaNumberC1Ev,
                            __ZN14PBCapabilities5EmailC1Ev,
                            __ZN14PBCapabilities6GroupsC1Ev,
                            __ZN15ATCommandDriver18handleCommand_syncENSt3__112basic_stringIcNS0_11char_traitsIcEENS0_9allocatorIcEEEENS0_8functionIFvN2at10ResultTypeEEEE,
                            __ZN15ATCommandDriverC2ERKN8dispatch5queueERKNSt3__110shared_ptrIK8RegistryEEPKc,
                            __ZN15ATCommandDriverD2Ev,
                            __ZN15CallAudioDriver13stopLocalDtmfEv,
                            __ZN15CallAudioDriver19playLocalDtmfDigitsERKNSt3__16vectorIhNS0_9allocatorIhEEEE,
                            __ZN15CallAudioDriverC2ENSt3__110shared_ptrIK8RegistryEEN8dispatch5queueENS1_I32CallAudioDriverDelegateInterfaceEENS1_I33CallNotificationsHandlerInterfaceEEPKc,
                            __ZN15CallAudioDriverD2Ev, __ZN15ChipInformationC1Ev,
                            __ZN16CSIPacketAddress12setPrefixLenEh,
                            __ZN16CSIPacketAddress14setIPv4AddressEj,
                            __ZN16CSIPacketAddress14setIPv6AddressEPKhm,
                            __ZN16CSIPacketAddress15applyMaskPrefixEj,
                            __ZN16CSIPacketAddressC1ERKS_,
                            __ZN16CSIPacketAddressC1Ev,
                            __ZN16CSIPacketAddressaSERKS_,
                            __ZN16DMSCommandDriver10setImeiSvnEN10subscriber7SimSlotENSt3__112basic_stringIcNS2_11char_traitsIcEENS2_9allocatorIcEEEE,
                            __ZN16DMSCommandDriver13setPrlVersionEN10subscriber7SimSlotEt,
                            __ZN16DMSCommandDriver3getENS_11InformationE,
                            __ZN16DMSCommandDriver4stopEv,
                            __ZN16DMSCommandDriver5clearEN10subscriber7SimSlotENS_11InformationE,
                            __ZN16DMSCommandDriver5startEv,
                            __ZN16DMSCommandDriver6setMinEN10subscriber7SimSlotENSt3__112basic_stringIcNS2_11char_traitsIcEENS2_9allocatorIcEEEE,
                            __ZN16DMSCommandDriver7setImeiEN10subscriber7SimSlotENSt3__112basic_stringIcNS2_11char_traitsIcEENS2_9allocatorIcEEEE,
                            __ZN16DMSCommandDriver7setMeidEN3xpc6objectE,
                            __ZN16DMSCommandDriverC2ERKNSt3__110shared_ptrIK8RegistryEEN8dispatch5queueEPKc,
                            __ZN16DMSCommandDriverD2Ev,
                            __ZN16P2PCommandDriverC2ERKNSt3__110shared_ptrIK8RegistryEEPKcS8_N8dispatch5queueE,
                            __ZN16P2PCommandDriverD2Ev,
                            __ZN16SendShortMessageD1Ev,
                            __ZN17CallCommandDriver14endTheConfCallEN3ctu2cf11CFSharedRefIK8__CFUUIDEE,
                            __ZN17CallCommandDriver20shouldMTCallContinueEbRK8CallInfo,
                            __ZN17CallCommandDriver21computeClirValue_syncERK8CallInfo,
                            __ZN17CallCommandDriver21handlePersonalityGoneERK13PersonalityID,
                            __ZN17CallCommandDriver22handlePersonalityAddedERKNSt3__110shared_ptrIK15PersonalityInfoEE,
                            __ZN17CallCommandDriver8shutdownEN8dispatch13group_sessionE,
                            __ZN17CallCommandDriver9bootstrapEN8dispatch13group_sessionE,
                            __ZN17CallCommandDriverC2ERKNSt3__110shared_ptrIK8RegistryEEN8dispatch5queueEPKcSA_,
                            __ZN17CallCommandDriverD2Ev,
                            __ZN17STK_CommandDriverD2Ev,
                            __ZN18AudioCommandDriver9bootstrapEN8dispatch13group_sessionENSt3__110shared_ptrI35AudioCommandDriverDelegateInterfaceEENS_15ServerEndpointsE,
                            __ZN18AudioCommandDriverC2ERKNSt3__110shared_ptrIK8RegistryEEN8dispatch5queueEPKc,
                            __ZN18AudioCommandDriverD2Ev,
                            __ZN18VinylCommandDriver27setDriverReadyCallback_syncEU13block_pointerFv16VinylDriverReadyN5boost8optionalIN10subscriber7SimSlotEEEE,
                            __ZN18VinylCommandDriverC2ENSt3__110shared_ptrIN3ctu9LogServerEEEPKc,
                            __ZN18VinylCommandDriverD2Ev,
                            __ZN19CSISMSCommandDriver13clientStartedEN10subscriber7SimSlotE,
                            __ZN19CSISMSCommandDriver13clientStoppedEN10subscriber7SimSlotE,
                            __ZN19CSISMSCommandDriver20kUnknownMessageCountE,
                            __ZN19CSISMSCommandDriver30kUnknownMessageCountIndicationE,
                            __ZN19CSISMSCommandDriverC2ERKNSt3__110shared_ptrIK8RegistryEERKN8dispatch5queueEPKc,
                            __ZN19CSISMSCommandDriverD2Ev,
                            __ZN19FilePushTransaction6createEN10subscriber7SimSlotENSt3__18functionIFvS1_25FilePushTransactionResultEEE,
                            __ZN19FilePushTransactionD1Ev,
                            __ZN19NetworkListOperatorC1ERKNSt3__112basic_stringIcNS0_11char_traitsIcEENS0_9allocatorIcEEEE21RadioAccessTechnologyRK3MCCRK3MNC17NetworkNameSource,
                            __ZN19PersonalitySpecificD2Ev,
                            __ZN20DesenseCommandDriver23addSingleFrequencyToMapEyjjPNSt3__13mapIy11DesenseFreqNS0_4lessIyEENS0_9allocatorINS0_4pairIKyS2_EEEEEE,
                            __ZN20DesenseCommandDriver9bootstrapENSt3__110shared_ptrI37DesenseCommandDriverDelegateInterfaceEEN3xpc8endpointEN8dispatch13group_sessionE,
                            __ZN20DesenseCommandDriverC2ERKNSt3__110shared_ptrIK8RegistryEEN8dispatch5queueEPKcSA_,
                            __ZN20DesenseCommandDriverD2Ev,
                            __ZN20LanguageNotificationD1Ev,
                            __ZN21CommandDriversFactory22createAQMCommandDriverEN8dispatch5queueE,
                            __ZN21CommandDriversFactory4initERKNSt3__110shared_ptrI8RegistryEE,
                            __ZN21CommandDriversFactoryC2Ev,
                            __ZN21CommandDriversFactoryD2Ev,
                            __ZN21DormancyCommandDriver13kNumInterfaceE,
                            __ZN21DormancyCommandDriverC2ERKNSt3__110shared_ptrIK8RegistryEEPKcS8_N8dispatch5queueE,
                            __ZN21DormancyCommandDriverD2Ev,
                            __ZN21NetworkListScanResult11addOperatorEPKN3ctu11OsLogLoggerERK19NetworkListOperator,
                            __ZN21NetworkListScanResult8setStateENS_5StateE,
                            __ZN22AttachApnCommandDriver10start_syncEv,
                            __ZN22AttachApnCommandDriver13shutdown_syncEv,
                            __ZN22AttachApnCommandDriver14bootstrap_syncEv,
                            __ZN22AttachApnCommandDriverC2ENSt3__110shared_ptrIK8RegistryEERKN8dispatch5queueEN10subscriber7SimSlotE,
                            __ZN22AttachApnCommandDriverD2Ev,
                            __ZN22BasebandSettingsDriver11readSegmentERKNSt3__110shared_ptrINS0_13basic_istreamIcNS0_11char_traitsIcEEEEEE,
                            __ZN22BasebandSettingsDriver29reportFileTransferStatus_syncEN10subscriber7SimSlotE18FileTransferStatus8FileType,
                            __ZN22BasebandSettingsDriver31handleFileTransferComplete_syncEv,
                            __ZN22BasebandSettingsDriverC2ERKNSt3__110shared_ptrIK8RegistryEEN8dispatch5queueEPKcSA_NS0_8functionIFKSA_N10subscriber7SimSlotEEEE,
                            __ZN22BasebandSettingsDriverD2Ev,
                            __ZN22PhonebookCommandDriver10decodeNameERKNSt3__16vectorIhNS0_9allocatorIhEEEE,
                            __ZN22PhonebookCommandDriverC2ERKNSt3__110shared_ptrIK8RegistryEEN8dispatch5queueEPKcSA_,
                            __ZN22PhonebookCommandDriverD2Ev,
                            __ZN22SetupEventIMSRegNotifyD1Ev,
                            __ZN22SetupEventUserActivityD1Ev,
                            __ZN23ActivationCommandDriver9parseImeiEPh,
                            __ZN23ActivationCommandDriverC2ERKNSt3__110shared_ptrIK8RegistryEEN8dispatch5queueEPKcSA_,
                            __ZN23ActivationCommandDriverD2Ev,
                            __ZN23PersonalitySpecificImplC2ERKNSt3__110shared_ptrIK15PersonalityInfoEE,
                            __ZN23PersonalitySpecificImplD0Ev,
                            __ZN23PersonalitySpecificImplD1Ev,
                            __ZN23PersonalitySpecificImplD2Ev,
                            __ZN24CellMonitorCommandDriverC2ERKNSt3__110shared_ptrIK8RegistryEEN8dispatch5queueEPKcSA_,
                            __ZN24CellMonitorCommandDriverD2Ev,
                            __ZN24EnhancedLQMCommandDriverC2ERKNSt3__110shared_ptrIK8RegistryEEN8dispatch5queueEPKcSA_,
                            __ZN24EnhancedLQMCommandDriverD2Ev,
                            __ZN24NetworkListCommandDriverC2ERKNSt3__110shared_ptrIK8RegistryEEN8dispatch5queueEPKcSA_,
                            __ZN24NetworkListCommandDriverD2Ev,
                            __ZN24ProvideLocalInfoLanguageD1Ev,
                            __ZN25AudioRoutingCommandDriverC2ERKNSt3__110shared_ptrIK8RegistryEEN8dispatch5queueEPKcSA_,
                            __ZN25AudioRoutingCommandDriverD2Ev,
                            __ZN25CDMASettingsCommandDriverD2Ev,
                            __ZN25InterfaceAppMapperService19addInterfaceMappingEji,
                            __ZN25InterfaceAppMapperService22removeInterfaceMappingEj,
                            __ZN25NetworkRegistrationDriver23sSecondsPerTimeZoneUnitE,
                            __ZN25NetworkRegistrationDriverC2ERKNSt3__110shared_ptrIK8RegistryEEN8dispatch8workloopEPKcSA_,
                            __ZN25NetworkRegistrationDriverD2Ev,
                            __ZN25SetupCallUserConfirmationD1Ev,
                            __ZN25SuppServicesCommandDriverC2EN8dispatch5queueEPKcRKNSt3__110shared_ptrIK8RegistryEE,
                            __ZN25SuppServicesCommandDriverD2Ev,
                            __ZN25WiFiSettingsCommandDriver10parseBssidENSt3__112basic_stringIcNS0_11char_traitsIcEENS0_9allocatorIcEEEERNS0_5arrayIhLm6EEE,
                            __ZN25WiFiSettingsCommandDriverC2ERKNSt3__110shared_ptrIK8RegistryEEN8dispatch5queueEPKcSA_,
                            __ZN25WiFiSettingsCommandDriverD2Ev,
                            __ZN26BBDataFactoryCommandDriverD2Ev,
                            __ZN26NetworkListSelectionResultC1ENS_6ResultE20NetworkSelectionMode,
                            __ZN26SetupEventIdleScreenNotifyD1Ev,
                            __ZN27SignalStrengthCommandDriverD2Ev,
                            __ZN28BBDataCommandDriverInterfaceD0Ev,
                            __ZN28BBDataCommandDriverInterfaceD1Ev,
                            __ZN28BBDataCommandDriverInterfaceD2Ev,
                            __ZN28BBDataContextDriverInterface11getObserverEv,
                            __ZN28BBDataContextDriverInterfaceC2ENSt3__110shared_ptrI27BBDataContextDriverObserverEE,
                            __ZN28BBDataContextDriverInterfaceD0Ev,
                            __ZN28BBDataContextDriverInterfaceD1Ev,
                            __ZN28BBDataContextDriverInterfaceD2Ev,
                            __ZN29AttachApnCommandDriverFactoryD2Ev,
                            __ZN30PreferredNetworksCommandDriver7setImsiERKNSt3__112basic_stringIcNS0_11char_traitsIcEENS0_9allocatorIcEEEE,
                            __ZN30PreferredNetworksCommandDriverC2ERKNSt3__110shared_ptrIK8RegistryEE,
                            __ZN30PreferredNetworksCommandDriverD2Ev,
                            __ZN30SetupEventLanguageSelectNotifyD1Ev,
                            __ZN31BBDataCommandDriverEventHandlerD2Ev,
                            __ZN31ES10TapeLoadBoundProfilePackage14getNextPayloadERNSt3__16vectorIhNS0_9allocatorIhEEEE,
                            __ZN31ES10TapeLoadBoundProfilePackageC1ENSt3__16vectorIhNS0_9allocatorIhEEEE,
                            __ZN33DataSubscriptionBaseCommandDriver23operationCompleted_syncEN10subscriber7SimSlotE,
                            __ZN33DataSubscriptionBaseCommandDriver23sendDisableIccidCommandERKNSt3__112basic_stringIcNS0_11char_traitsIcEENS0_9allocatorIcEEEE,
                            __ZN33DataSubscriptionBaseCommandDriver28queryCurrentDataSubscriptionENSt3__18functionIFvbN10subscriber7SimSlotEEEE,
                            __ZN33DataSubscriptionBaseCommandDriver29changeDefaultDataSubscriptionEN10subscriber7SimSlotENSt3__18functionIFvbS1_EEE,
                            __ZN33DataSubscriptionBaseCommandDriver30handleDisableIccidCommand_syncERKNSt3__112basic_stringIcNS0_11char_traitsIcEENS0_9allocatorIcEEEE,
                            __ZN33DataSubscriptionBaseCommandDriverC2ERKNSt3__110shared_ptrIK8RegistryEERKN8dispatch5queueEPKcSC_,
                            __ZN33DataSubscriptionBaseCommandDriverD2Ev,
                            __ZN37NetworkListCommandDriverResponseErrorC1ENS_7CmdTypeENS_5ErrorE,
                            __ZN3Ari10MsgDefByIdEjj, __ZN3Ari11MsgNameByIdEj,
                            __ZN3Ari3LogEjPKcz, __ZN3MCCC1Et, __ZN3MCCC1Ev,
                            __ZN3MCCaSERKS_, __ZN3MNCC1EtRK3MCC, __ZN3MNCC1Ev,
                            __ZN3awd16AwdCommandDriverC2EONSt3__110shared_ptrIN3ctu9LogServerEEEON8dispatch8workloopE,
                            __ZN3awd16AwdCommandDriverD2Ev,
                            __ZN3ctu10LoggerBaseINSt3__110shared_ptrINS_9LogServerEEEED0Ev,
                            __ZN3ctu10LoggerBaseINSt3__110shared_ptrINS_9LogServerEEEED1Ev,
                            __ZN3ctu10RestModuleC1EN8dispatch5queueENSt3__112basic_stringIcNS3_11char_traitsIcEENS3_9allocatorIcEEEE,
                            __ZN3ctu10UnfairLock4lockEv,
                            __ZN3ctu10UnfairLock6unlockEv,
                            __ZN3ctu11OsLogLoggerC1ERKNS_12OsLogContextE,
                            __ZN3ctu11OsLogLoggerC1ERKS0_,
                            __ZN3ctu11OsLogLoggerD1Ev,
                            __ZN3ctu12OsLogContextC1EOS0_,
                            __ZN3ctu12OsLogContextC1EPKcS2_,
                            __ZN3ctu12OsLogContextD1Ev,
                            __ZN3ctu12StaticLoggerC1ENS_12OsLogContextERKNSt3__110shared_ptrINS_9LogServerEEE,
                            __ZN3ctu12StaticLoggerD1Ev,
                            __ZN3ctu13TextConverter14pushConversionENS0_10ConversionEimi,
                            __ZN3ctu13TextConverter17exceptionOccurredEv,
                            __ZN3ctu13TextConverter9readCharsEm,
                            __ZN3ctu13TextConverter9setSourceEPKcm,
                            __ZN3ctu13TextConverterC1Ev,
                            __ZN3ctu13TextConverterD1Ev,
                            __ZN3ctu13TrackedLogger22registerLoggerToServerERKNSt3__110shared_ptrINS_9LogServerEEERKNS1_12basic_stringIcNS1_11char_traitsIcEENS1_9allocatorIcEEEENS2_IS0_EE,
                            __ZN3ctu16LoggerCommonBase11setLogLevelENS_8LogLevelE,
                            __ZN3ctu16LoggerCommonBase20setInheritedLogLevelENS_8LogLevelE,
                            __ZN3ctu16LoggerCommonBaseC2ENS_12OsLogContextE,
                            __ZN3ctu2cf12MakeCFStringC1EPKc,
                            __ZN3ctu2cf12MakeCFStringD1Ev,
                            __ZN3ctu2cf12convert_copyERPK10__CFStringRKNSt3__112basic_stringIcNS5_11char_traitsIcEENS5_9allocatorIcEEEEjPK13__CFAllocator,
                            __ZN3ctu2cf12convert_copyERPK8__CFDataRKNSt3__16vectorIhNS5_9allocatorIhEEEE,
                            __ZN3ctu2cf12dict_adapterC1EPK14__CFDictionaryb,
                            __ZN3ctu2cf12dict_adapterD1Ev,
                            __ZN3ctu2cf6assignERNSt3__112basic_stringIcNS1_11char_traitsIcEENS1_9allocatorIcEEEEPK10__CFString,
                            __ZN3ctu2cf6assignERNSt3__16vectorIhNS1_9allocatorIhEEEEPK8__CFData,
                            __ZN3ctu2cf6assignERbPK11__CFBoolean,
                            __ZN3ctu2cf6assignERiPK10__CFNumber,
                            __ZN3ctu3hexEPKvm,
                            __ZN3ctu3hexERKNSt3__16vectorIhNS0_9allocatorIhEEEE,
                            __ZN3ctu4rest6detail22read_enum_string_valueERiRKN3xpc6objectE,
                            __ZN3ctu9cf_to_xpcEPKv,
                            __ZN3sms5Model12setMessageIDEt,
                            __ZN3sms8asStringENS_10SMSPduTypeE,
                            __ZN3sms8asStringENS_19MsgPduProcessStatusE,
                            __ZN3stk24truncateLanguageIfNeededEPKN3ctu11OsLogLoggerERNSt3__112basic_stringIcNS4_11char_traitsIcEENS4_9allocatorIcEEEE,
                            __ZN3xpc19dyn_cast_or_defaultERKNS_6objectEb,
                            __ZN3xpc19dyn_cast_or_defaultERKNS_6objectEx,
                            __ZN42PreferredNetworksCommandDriverEventHandlerD2Ev,
                            __ZN4rest12ResetPayloadC1ENSt3__112basic_stringIcNS1_11char_traitsIcEENS1_9allocatorIcEEEEb,
                            __ZN4rest16write_rest_valueERKNS_12ResetPayloadE,
                            __ZN4rest19kDefaultDeviceTypesE,
                            __ZN4rest24kDefaultCsAttachedStatesE,
                            __ZN4rest31kDefaultRadioAccessTechnologiesE,
                            __ZN5event10subscriber11sim_refreshE,
                            __ZN6AriMsg10GetBufGmidEPKhm,
                            __ZN6AriMsg6unpackEjPvmPbPm,
                            __ZN6AriMsg9GetBufCtxEPKhm, __ZN6AriMsgC1EPKhj,
                            __ZN6AriMsgD1Ev, __ZN6AriOsa10LogSrcInfoEPKcS1_,
                            __ZN6AriSdk14ARI_AriACK_SDK6unpackEv,
                            __ZN6AriSdk14ARI_AriACK_SDKC1EPKhj,
                            __ZN6AriSdk14ARI_AriACK_SDKD1Ev,
                            __ZN6AriSdk15ARI_AriNACK_SDK6unpackEv,
                            __ZN6AriSdk15ARI_AriNACK_SDKC1EPKhj,
                            __ZN6AriSdk15ARI_AriNACK_SDKC1Ev,
                            __ZN6AriSdk15ARI_AriNACK_SDKD1Ev,
                            __ZN6AriSdk20ARI_IBISimTkInit_SDKC1Ev,
                            __ZN6AriSdk20ARI_IBISimTkInit_SDKD1Ev,
                            __ZN6AriSdk21ARI_IBISsAbortReq_SDKC1Ev,
                            __ZN6AriSdk21ARI_IBISsAbortReq_SDKD1Ev,
                            __ZN6AriSdk22ARI_IBICbsMsgIndCb_SDK6unpackEv,
                            __ZN6AriSdk22ARI_IBICbsMsgIndCb_SDKC1EPKhj,
                            __ZN6AriSdk22ARI_IBICbsMsgIndCb_SDKD1Ev,
                            __ZN6AriSdk22ARI_IBISsUssdIndCb_SDK6unpackEv,
                            __ZN6AriSdk22ARI_IBISsUssdIndCb_SDKC1EPKhj,
                            __ZN6AriSdk22ARI_IBISsUssdIndCb_SDKD1Ev,
                            __ZN6AriSdk23ARI_CsiAwdsQueryReq_SDKC1Ev,
                            __ZN6AriSdk23ARI_CsiAwdsQueryReq_SDKD1Ev,
                            __ZN6AriSdk23ARI_IBICbsConfigReq_SDKC1Ev,
                            __ZN6AriSdk23ARI_IBICbsConfigReq_SDKD1Ev,
                            __ZN6AriSdk23ARI_IBISetFilterReq_SDKC1Ev,
                            __ZN6AriSdk23ARI_IBISetFilterReq_SDKD1Ev,
                            __ZN6AriSdk23ARI_IBISimGenPinReq_SDKC1Ev,
                            __ZN6AriSdk23ARI_IBISimGenPinReq_SDKD1Ev,
                            __ZN6AriSdk23ARI_IBISsAbortRspCb_SDK6unpackEv,
                            __ZN6AriSdk23ARI_IBISsAbortRspCb_SDKC1EPKhj,
                            __ZN6AriSdk23ARI_IBISsAbortRspCb_SDKD1Ev,
                            __ZN6AriSdk23ARI_IBIVinylTapeReq_SDKC1Ev,
                            __ZN6AriSdk23ARI_IBIVinylTapeReq_SDKD1Ev,
                            __ZN6AriSdk24ARI_CsiSecGetSNUMReq_SDKC1Ev,
                            __ZN6AriSdk24ARI_CsiSecGetSNUMReq_SDKD1Ev,
                            __ZN6AriSdk24ARI_IBICallCsCrssReq_SDKC1Ev,
                            __ZN6AriSdk24ARI_IBICallCsCrssReq_SDKD1Ev,
                            __ZN6AriSdk24ARI_IBIMSimConfigReq_SDKC1Ev,
                            __ZN6AriSdk24ARI_IBIMSimConfigReq_SDKD1Ev,
                            __ZN6AriSdk24ARI_IBINetSetECBMReq_SDKC1Ev,
                            __ZN6AriSdk24ARI_IBINetSetECBMReq_SDKD1Ev,
                            __ZN6AriSdk24ARI_IBIP2PMsgPushReq_SDKC1Ev,
                            __ZN6AriSdk24ARI_IBIP2PMsgPushReq_SDKD1Ev,
                            __ZN6AriSdk24ARI_IBIPriRefreshReq_SDKC1Ev,
                            __ZN6AriSdk24ARI_IBIPriRefreshReq_SDKD1Ev,
                            __ZN6AriSdk24ARI_IBISmsSendReq_V2_SDKC1Ev,
                            __ZN6AriSdk24ARI_IBISmsSendReq_V2_SDKD1Ev,
                            __ZN6AriSdk25ARI_CsiAwdsQueryRspCb_SDK6unpackEv,
                            __ZN6AriSdk25ARI_CsiAwdsQueryRspCb_SDKC1EPKhj,
                            __ZN6AriSdk25ARI_CsiAwdsQueryRspCb_SDKD1Ev,
                            __ZN6AriSdk25ARI_IBICallPsPdnStats_SDKC1Ev,
                            __ZN6AriSdk25ARI_IBICallPsPdnStats_SDKD1Ev,
                            __ZN6AriSdk25ARI_IBICbsConfigRspCb_SDK6unpackEv,
                            __ZN6AriSdk25ARI_IBICbsConfigRspCb_SDKC1EPKhj,
                            __ZN6AriSdk25ARI_IBICbsConfigRspCb_SDKD1Ev,
                            __ZN6AriSdk25ARI_IBILapsFetchIndCb_SDK6unpackEv,
                            __ZN6AriSdk25ARI_IBILapsFetchIndCb_SDKC1EPKhj,
                            __ZN6AriSdk25ARI_IBILapsFetchIndCb_SDKD1Ev,
                            __ZN6AriSdk25ARI_IBIPriWriteReq_V2_SDKC1Ev,
                            __ZN6AriSdk25ARI_IBIPriWriteReq_V2_SDKD1Ev,
                            __ZN6AriSdk25ARI_IBISetFilterRspCb_SDK6unpackEv,
                            __ZN6AriSdk25ARI_IBISetFilterRspCb_SDKC1EPKhj,
                            __ZN6AriSdk25ARI_IBISetFilterRspCb_SDKD1Ev,
                            __ZN6AriSdk25ARI_IBISimGenPinRspCb_SDK6unpackEv,
                            __ZN6AriSdk25ARI_IBISimGenPinRspCb_SDKC1EPKhj,
                            __ZN6AriSdk25ARI_IBISimGenPinRspCb_SDKD1Ev,
                            __ZN6AriSdk25ARI_IBISimGetEfSmsReq_SDKC1Ev,
                            __ZN6AriSdk25ARI_IBISimGetEfSmsReq_SDKD1Ev,
                            __ZN6AriSdk25ARI_IBIVinylGetEidReq_SDKC1Ev,
                            __ZN6AriSdk25ARI_IBIVinylGetEidReq_SDKD1Ev,
                            __ZN6AriSdk25ARI_IBIVinylTapeIndCb_SDK6unpackEv,
                            __ZN6AriSdk25ARI_IBIVinylTapeIndCb_SDKC1EPKhj,
                            __ZN6AriSdk25ARI_IBIVinylTapeIndCb_SDKD1Ev,
                            __ZN6AriSdk25ARI_IBIVinylTapeRspCb_SDK6unpackEv,
                            __ZN6AriSdk25ARI_IBIVinylTapeRspCb_SDKC1EPKhj,
                            __ZN6AriSdk25ARI_IBIVinylTapeRspCb_SDKD1Ev,
                            __ZN6AriSdk26ARI_CsiSecGetChipIdReq_SDKC1Ev,
                            __ZN6AriSdk26ARI_CsiSecGetChipIdReq_SDKD1Ev,
                            __ZN6AriSdk26ARI_CsiSecGetSNUMRspCb_SDK6unpackEv,
                            __ZN6AriSdk26ARI_CsiSecGetSNUMRspCb_SDKC1EPKhj,
                            __ZN6AriSdk26ARI_CsiSecGetSNUMRspCb_SDKD1Ev,
                            __ZN6AriSdk26ARI_IBICallCsCrssRspCb_SDK6unpackEv,
                            __ZN6AriSdk26ARI_IBICallCsCrssRspCb_SDKC1EPKhj,
                            __ZN6AriSdk26ARI_IBICallCsCrssRspCb_SDKD1Ev,
                            __ZN6AriSdk26ARI_IBICbsGetConfigReq_SDKC1Ev,
                            __ZN6AriSdk26ARI_IBICbsGetConfigReq_SDKD1Ev,
                            __ZN6AriSdk26ARI_IBIMSimConfigIndCb_SDK6unpackEv,
                            __ZN6AriSdk26ARI_IBIMSimConfigIndCb_SDKC1EPKhj,
                            __ZN6AriSdk26ARI_IBIMSimConfigIndCb_SDKD1Ev,
                            __ZN6AriSdk26ARI_IBIMSimConfigRspCb_SDK6unpackEv,
                            __ZN6AriSdk26ARI_IBIMSimConfigRspCb_SDKC1EPKhj,
                            __ZN6AriSdk26ARI_IBIMSimConfigRspCb_SDKD1Ev,
                            __ZN6AriSdk26ARI_IBINetAttachReq_V1_SDKC1Ev,
                            __ZN6AriSdk26ARI_IBINetAttachReq_V1_SDKD1Ev,
                            __ZN6AriSdk26ARI_IBINetSetECBMIndCb_SDK6unpackEv,
                            __ZN6AriSdk26ARI_IBINetSetECBMIndCb_SDKC1EPKhj,
                            __ZN6AriSdk26ARI_IBINetSetECBMIndCb_SDKD1Ev,
                            __ZN6AriSdk26ARI_IBINetSetECBMRspCb_SDK6unpackEv,
                            __ZN6AriSdk26ARI_IBINetSetECBMRspCb_SDKC1EPKhj,
                            __ZN6AriSdk26ARI_IBINetSetECBMRspCb_SDKD1Ev,
                            __ZN6AriSdk26ARI_IBIP2PMessageIndCb_SDK6unpackEv,
                            __ZN6AriSdk26ARI_IBIP2PMessageIndCb_SDKC1EPKhj,
                            __ZN6AriSdk26ARI_IBIP2PMessageIndCb_SDKD1Ev,
                            __ZN6AriSdk26ARI_IBIP2PMsgPushRspCb_SDK6unpackEv,
                            __ZN6AriSdk26ARI_IBIP2PMsgPushRspCb_SDKC1EPKhj,
                            __ZN6AriSdk26ARI_IBIP2PMsgPushRspCb_SDKD1Ev,
                            __ZN6AriSdk26ARI_IBIPriRefreshRspCb_SDK6unpackEv,
                            __ZN6AriSdk26ARI_IBIPriRefreshRspCb_SDKC1EPKhj,
                            __ZN6AriSdk26ARI_IBIPriRefreshRspCb_SDKD1Ev,
                            __ZN6AriSdk26ARI_IBISimAccessFcpReq_SDKC1Ev,
                            __ZN6AriSdk26ARI_IBISimAccessFcpReq_SDKD1Ev,
                            __ZN6AriSdk26ARI_IBISimEccListIndCb_SDK6unpackEv,
                            __ZN6AriSdk26ARI_IBISimEccListIndCb_SDKC1EPKhj,
                            __ZN6AriSdk26ARI_IBISimEccListIndCb_SDKD1Ev,
                            __ZN6AriSdk26ARI_IBISimHwEventIndCb_SDK6unpackEv,
                            __ZN6AriSdk26ARI_IBISimHwEventIndCb_SDKC1EPKhj,
                            __ZN6AriSdk26ARI_IBISimHwEventIndCb_SDKD1Ev,
                            __ZN6AriSdk26ARI_IBISimMsgListIndCb_SDK6unpackEv,
                            __ZN6AriSdk26ARI_IBISimMsgListIndCb_SDKC1EPKhj,
                            __ZN6AriSdk26ARI_IBISimMsgListIndCb_SDKD1Ev,
                            __ZN6AriSdk26ARI_IBISmsSendRspCb_V2_SDK6unpackEv,
                            __ZN6AriSdk26ARI_IBISmsSendRspCb_V2_SDKC1EPKhj,
                            __ZN6AriSdk26ARI_IBISmsSendRspCb_V2_SDKD1Ev,
                            __ZN6AriSdk26ARI_IBISmsServiceIndCb_SDK6unpackEv,
                            __ZN6AriSdk26ARI_IBISmsServiceIndCb_SDKC1EPKhj,
                            __ZN6AriSdk26ARI_IBISmsServiceIndCb_SDKD1Ev,
                            __ZN6AriSdk26ARI_IBIVinylGetDataReq_SDKC1Ev,
                            __ZN6AriSdk26ARI_IBIVinylGetDataReq_SDKD1Ev,
                            __ZN6AriSdk27ARI_CsiAwdsAddConfigReq_SDKC1Ev,
                            __ZN6AriSdk27ARI_CsiAwdsAddConfigReq_SDKD1Ev,
                            __ZN6AriSdk27ARI_CsiAwdsMetricSubInd_SDK6unpackEv,
                            __ZN6AriSdk27ARI_CsiAwdsMetricSubInd_SDKC1EPKhj,
                            __ZN6AriSdk27ARI_CsiAwdsMetricSubInd_SDKD1Ev,
                            __ZN6AriSdk27ARI_CsiIceFilerWriteReq_SDKC1Ev,
                            __ZN6AriSdk27ARI_CsiIceFilerWriteReq_SDKD1Ev,
                            __ZN6AriSdk27ARI_CsiMsCpsReadImeiReq_SDKC1Ev,
                            __ZN6AriSdk27ARI_CsiMsCpsReadImeiReq_SDKD1Ev,
                            __ZN6AriSdk27ARI_IBICallPsRegisterFT_SDKC1Ev,
                            __ZN6AriSdk27ARI_IBICallPsRegisterFT_SDKD1Ev,
                            __ZN6AriSdk27ARI_IBIMSimGetConfigReq_SDKC1Ev,
                            __ZN6AriSdk27ARI_IBIMSimGetConfigReq_SDKD1Ev,
                            __ZN6AriSdk27ARI_IBINetBandStatusReq_SDKC1Ev,
                            __ZN6AriSdk27ARI_IBINetBandStatusReq_SDKD1Ev,
                            __ZN6AriSdk27ARI_IBINetCellInfoIndCb_SDK6unpackEv,
                            __ZN6AriSdk27ARI_IBINetCellInfoIndCb_SDKC1EPKhj,
                            __ZN6AriSdk27ARI_IBINetCellInfoIndCb_SDKD1Ev,
                            __ZN6AriSdk27ARI_IBIPriWriteRspCb_V2_SDK6unpackEv,
                            __ZN6AriSdk27ARI_IBIPriWriteRspCb_V2_SDKC1EPKhj,
                            __ZN6AriSdk27ARI_IBIPriWriteRspCb_V2_SDKD1Ev,
                            __ZN6AriSdk27ARI_IBISendApacsDataReq_SDKC1Ev,
                            __ZN6AriSdk27ARI_IBISendApacsDataReq_SDKD1Ev,
                            __ZN6AriSdk27ARI_IBISimGetEccListReq_SDKC1Ev,
                            __ZN6AriSdk27ARI_IBISimGetEccListReq_SDKD1Ev,
                            __ZN6AriSdk27ARI_IBISimGetEfSmsRspCb_SDK6unpackEv,
                            __ZN6AriSdk27ARI_IBISimGetEfSmsRspCb_SDKC1EPKhj,
                            __ZN6AriSdk27ARI_IBISimGetEfSmsRspCb_SDKD1Ev,
                            __ZN6AriSdk27ARI_IBISimGetMsgListReq_SDKC1Ev,
                            __ZN6AriSdk27ARI_IBISimGetMsgListReq_SDKD1Ev,
                            __ZN6AriSdk27ARI_IBISmsIncomingIndCb_SDK6unpackEv,
                            __ZN6AriSdk27ARI_IBISmsIncomingIndCb_SDKC1EPKhj,
                            __ZN6AriSdk27ARI_IBISmsIncomingIndCb_SDKD1Ev,
                            __ZN6AriSdk27ARI_IBISsCallForwardReq_SDKC1Ev,
                            __ZN6AriSdk27ARI_IBISsCallForwardReq_SDKD1Ev,
                            __ZN6AriSdk27ARI_IBISsCallWaitingReq_SDKC1Ev,
                            __ZN6AriSdk27ARI_IBISsCallWaitingReq_SDKD1Ev,
                            __ZN6AriSdk27ARI_IBIVinylGetEidRspCb_SDK6unpackEv,
                            __ZN6AriSdk27ARI_IBIVinylGetEidRspCb_SDKC1EPKhj,
                            __ZN6AriSdk27ARI_IBIVinylGetEidRspCb_SDKD1Ev,
                            __ZN6AriSdk27ARI_IBIVinylTapeCapsReq_SDKC1Ev,
                            __ZN6AriSdk27ARI_IBIVinylTapeCapsReq_SDKD1Ev,
                            __ZN6AriSdk28ARI_CsiIceAntennaPrefReq_SDKC1Ev,
                            __ZN6AriSdk28ARI_CsiIceAntennaPrefReq_SDKD1Ev,
                            __ZN6AriSdk28ARI_CsiIceAudToneStopReq_SDKC1Ev,
                            __ZN6AriSdk28ARI_CsiIceAudToneStopReq_SDKD1Ev,
                            __ZN6AriSdk28ARI_CsiSecGetChipIdRspCb_SDK6unpackEv,
                            __ZN6AriSdk28ARI_CsiSecGetChipIdRspCb_SDKC1EPKhj,
                            __ZN6AriSdk28ARI_CsiSecGetChipIdRspCb_SDKD1Ev,
                            __ZN6AriSdk28ARI_IBICallCsHoldCallReq_SDKC1Ev,
                            __ZN6AriSdk28ARI_IBICallCsHoldCallReq_SDKD1Ev,
                            __ZN6AriSdk28ARI_IBICallCsStopDtmfReq_SDKC1Ev,
                            __ZN6AriSdk28ARI_IBICallCsStopDtmfReq_SDKD1Ev,
                            __ZN6AriSdk28ARI_IBICallPsLqmQueryReq_SDKC1Ev,
                            __ZN6AriSdk28ARI_IBICallPsLqmQueryReq_SDKD1Ev,
                            __ZN6AriSdk28ARI_IBICallPsModifyIndCb_SDK6unpackEv,
                            __ZN6AriSdk28ARI_IBICallPsModifyIndCb_SDKC1EPKhj,
                            __ZN6AriSdk28ARI_IBICallPsModifyIndCb_SDKD1Ev,
                            __ZN6AriSdk28ARI_IBICallPsResumeIndCb_SDK6unpackEv,
                            __ZN6AriSdk28ARI_IBICallPsResumeIndCb_SDKC1EPKhj,
                            __ZN6AriSdk28ARI_IBICallPsResumeIndCb_SDKD1Ev,
                            __ZN6AriSdk28ARI_IBICbsGetConfigRspCb_SDK6unpackEv,
                            __ZN6AriSdk28ARI_IBICbsGetConfigRspCb_SDKC1EPKhj,
                            __ZN6AriSdk28ARI_IBICbsGetConfigRspCb_SDKD1Ev,
                            __ZN6AriSdk28ARI_IBIMsSimSetSmsTagReq_SDKC1Ev,
                            __ZN6AriSdk28ARI_IBIMsSimSetSmsTagReq_SDKD1Ev,
                            __ZN6AriSdk28ARI_IBINetAttachRspCb_V1_SDK6unpackEv,
                            __ZN6AriSdk28ARI_IBINetAttachRspCb_V1_SDKC1EPKhj,
                            __ZN6AriSdk28ARI_IBINetAttachRspCb_V1_SDKD1Ev,
                            __ZN6AriSdk28ARI_IBINetGetCellInfoReq_SDKC1Ev,
                            __ZN6AriSdk28ARI_IBINetGetCellInfoReq_SDKD1Ev,
                            __ZN6AriSdk28ARI_IBINetIceApStatusReq_SDKC1Ev,
                            __ZN6AriSdk28ARI_IBINetIceApStatusReq_SDKD1Ev,
                            __ZN6AriSdk28ARI_IBINetIceFdStatusReq_SDKC1Ev,
                            __ZN6AriSdk28ARI_IBINetIceFdStatusReq_SDKD1Ev,
                            __ZN6AriSdk28ARI_IBINetTimerInfoIndCb_SDK6unpackEv,
                            __ZN6AriSdk28ARI_IBINetTimerInfoIndCb_SDKC1EPKhj,
                            __ZN6AriSdk28ARI_IBINetTimerInfoIndCb_SDKD1Ev,
                            __ZN6AriSdk28ARI_IBISimAccessFcpRspCb_SDK6unpackEv,
                            __ZN6AriSdk28ARI_IBISimAccessFcpRspCb_SDKC1EPKhj,
                            __ZN6AriSdk28ARI_IBISimAccessFcpRspCb_SDKD1Ev,
                            __ZN6AriSdk28ARI_IBISimApplicationReq_SDKC1Ev,
                            __ZN6AriSdk28ARI_IBISimApplicationReq_SDKD1Ev,
                            __ZN6AriSdk28ARI_IBISimPbReadEntryReq_SDKC1Ev,
                            __ZN6AriSdk28ARI_IBISimPbReadEntryReq_SDKD1Ev,
                            __ZN6AriSdk28ARI_IBISimSetSmsTagRspCb_SDK6unpackEv,
                            __ZN6AriSdk28ARI_IBISimSetSmsTagRspCb_SDKC1EPKhj,
                            __ZN6AriSdk28ARI_IBISimSetSmsTagRspCb_SDKD1Ev,
                            __ZN6AriSdk28ARI_IBISmsIncomingSmsAck_SDKC1Ev,
                            __ZN6AriSdk28ARI_IBISmsIncomingSmsAck_SDKD1Ev,
                            __ZN6AriSdk28ARI_IBISsExtendedUssdReq_SDKC1Ev,
                            __ZN6AriSdk28ARI_IBISsExtendedUssdReq_SDKD1Ev,
                            __ZN6AriSdk28ARI_IBIVinylGetDataRspCb_SDK6unpackEv,
                            __ZN6AriSdk28ARI_IBIVinylGetDataRspCb_SDKC1EPKhj,
                            __ZN6AriSdk28ARI_IBIVinylGetDataRspCb_SDKD1Ev,
                            __ZN6AriSdk29ARI_CsiAwdsAddConfigRspCb_SDK6unpackEv,
                            __ZN6AriSdk29ARI_CsiAwdsAddConfigRspCb_SDKC1EPKhj,
                            __ZN6AriSdk29ARI_CsiAwdsAddConfigRspCb_SDKD1Ev,
                            __ZN6AriSdk29ARI_CsiIceAudSetDeviceReq_SDKC1Ev,
                            __ZN6AriSdk29ARI_CsiIceAudSetDeviceReq_SDKD1Ev,
                            __ZN6AriSdk29ARI_CsiIceAudToneEndIndCb_SDK6unpackEv,
                            __ZN6AriSdk29ARI_CsiIceAudToneEndIndCb_SDKC1EPKhj,
                            __ZN6AriSdk29ARI_CsiIceAudToneEndIndCb_SDKD1Ev,
                            __ZN6AriSdk29ARI_CsiIceAudToneStartReq_SDKC1Ev,
                            __ZN6AriSdk29ARI_CsiIceAudToneStartReq_SDKD1Ev,
                            __ZN6AriSdk29ARI_CsiIceFilerWriteRspCb_SDK6unpackEv,
                            __ZN6AriSdk29ARI_CsiIceFilerWriteRspCb_SDKC1EPKhj,
                            __ZN6AriSdk29ARI_CsiIceFilerWriteRspCb_SDKD1Ev,
                            __ZN6AriSdk29ARI_CsiMsCpsReadImeiRspCb_SDK6unpackEv,
                            __ZN6AriSdk29ARI_CsiMsCpsReadImeiRspCb_SDKC1EPKhj,
                            __ZN6AriSdk29ARI_CsiMsCpsReadImeiRspCb_SDKD1Ev,
                            __ZN6AriSdk29ARI_IBIApacsDataStatusReq_SDKC1Ev,
                            __ZN6AriSdk29ARI_IBIApacsDataStatusReq_SDKD1Ev,
                            __ZN6AriSdk29ARI_IBICallCsBurstDtmfReq_SDKC1Ev,
                            __ZN6AriSdk29ARI_IBICallCsBurstDtmfReq_SDKD1Ev,
                            __ZN6AriSdk29ARI_IBICallCsJoinCallsReq_SDKC1Ev,
                            __ZN6AriSdk29ARI_IBICallCsJoinCallsReq_SDKD1Ev,
                            __ZN6AriSdk29ARI_IBICallCsSplitMptyReq_SDKC1Ev,
                            __ZN6AriSdk29ARI_IBICallCsSplitMptyReq_SDKD1Ev,
                            __ZN6AriSdk29ARI_IBICallCsStartDtmfReq_SDKC1Ev,
                            __ZN6AriSdk29ARI_IBICallCsStartDtmfReq_SDKD1Ev,
                            __ZN6AriSdk29ARI_IBICallCsSwapCallsReq_SDKC1Ev,
                            __ZN6AriSdk29ARI_IBICallCsSwapCallsReq_SDKD1Ev,
                            __ZN6AriSdk29ARI_IBICallPsDeRegisterFT_SDKC1Ev,
                            __ZN6AriSdk29ARI_IBICallPsDeRegisterFT_SDKD1Ev,
                            __ZN6AriSdk29ARI_IBICallPsFlushDataReq_SDKC1Ev,
                            __ZN6AriSdk29ARI_IBICallPsFlushDataReq_SDKD1Ev,
                            __ZN6AriSdk29ARI_IBICallPsLqmDataIndCb_SDK6unpackEv,
                            __ZN6AriSdk29ARI_IBICallPsLqmDataIndCb_SDKC1EPKhj,
                            __ZN6AriSdk29ARI_IBICallPsLqmDataIndCb_SDKD1Ev,
                            __ZN6AriSdk29ARI_IBICallPsSuspendIndCb_SDK6unpackEv,
                            __ZN6AriSdk29ARI_IBICallPsSuspendIndCb_SDKC1EPKhj,
                            __ZN6AriSdk29ARI_IBICallPsSuspendIndCb_SDKD1Ev,
                            __ZN6AriSdk29ARI_IBICallPsUpdateNaiReq_SDKC1Ev,
                            __ZN6AriSdk29ARI_IBICallPsUpdateNaiReq_SDKD1Ev,
                            __ZN6AriSdk29ARI_IBIMSimGetConfigRspCb_SDK6unpackEv,
                            __ZN6AriSdk29ARI_IBIMSimGetConfigRspCb_SDKC1EPKhj,
                            __ZN6AriSdk29ARI_IBIMSimGetConfigRspCb_SDKD1Ev,
                            __ZN6AriSdk29ARI_IBINetBandStatusRspCb_SDK6unpackEv,
                            __ZN6AriSdk29ARI_IBINetBandStatusRspCb_SDKC1EPKhj,
                            __ZN6AriSdk29ARI_IBINetBandStatusRspCb_SDKD1Ev,
                            __ZN6AriSdk29ARI_IBISendApacsDataRspCb_SDK6unpackEv,
                            __ZN6AriSdk29ARI_IBISendApacsDataRspCb_SDKC1EPKhj,
                            __ZN6AriSdk29ARI_IBISendApacsDataRspCb_SDKD1Ev,
                            __ZN6AriSdk29ARI_IBISetRtcEpochTimeReq_SDKC1Ev,
                            __ZN6AriSdk29ARI_IBISetRtcEpochTimeReq_SDKD1Ev,
                            __ZN6AriSdk29ARI_IBISimExtendedAuthReq_SDKC1Ev,
                            __ZN6AriSdk29ARI_IBISimExtendedAuthReq_SDKD1Ev,
                            __ZN6AriSdk29ARI_IBISimFullAccessIndCb_SDK6unpackEv,
                            __ZN6AriSdk29ARI_IBISimFullAccessIndCb_SDKC1EPKhj,
                            __ZN6AriSdk29ARI_IBISimFullAccessIndCb_SDKD1Ev,
                            __ZN6AriSdk29ARI_IBISimGetEccListRspCb_SDK6unpackEv,
                            __ZN6AriSdk29ARI_IBISimGetEccListRspCb_SDKC1EPKhj,
                            __ZN6AriSdk29ARI_IBISimGetEccListRspCb_SDKD1Ev,
                            __ZN6AriSdk29ARI_IBISimGetMsgListRspCb_SDK6unpackEv,
                            __ZN6AriSdk29ARI_IBISimGetMsgListRspCb_SDKC1EPKhj,
                            __ZN6AriSdk29ARI_IBISimGetMsgListRspCb_SDKD1Ev,
                            __ZN6AriSdk29ARI_IBISimPbWriteEntryReq_SDKC1Ev,
                            __ZN6AriSdk29ARI_IBISimPbWriteEntryReq_SDKD1Ev,
                            __ZN6AriSdk29ARI_IBISimTkExecStkCmdRsp_SDKC1Ev,
                            __ZN6AriSdk29ARI_IBISimTkExecStkCmdRsp_SDKD1Ev,
                            __ZN6AriSdk29ARI_IBISimTkRefreshFcnRsp_SDKC1Ev,
                            __ZN6AriSdk29ARI_IBISimTkRefreshFcnRsp_SDKD1Ev,
                            __ZN6AriSdk29ARI_IBISmsDataDownloadReq_SDKC1Ev,
                            __ZN6AriSdk29ARI_IBISmsDataDownloadReq_SDKD1Ev,
                            __ZN6AriSdk29ARI_IBISsCallForwardRspCb_SDK6unpackEv,
                            __ZN6AriSdk29ARI_IBISsCallForwardRspCb_SDKC1EPKhj,
                            __ZN6AriSdk29ARI_IBISsCallForwardRspCb_SDKD1Ev,
                            __ZN6AriSdk29ARI_IBISsCallWaitingRspCb_SDK6unpackEv,
                            __ZN6AriSdk29ARI_IBISsCallWaitingRspCb_SDKC1EPKhj,
                            __ZN6AriSdk29ARI_IBISsCallWaitingRspCb_SDKD1Ev,
                            __ZN6AriSdk29ARI_IBIVinylLPASigningReq_SDKC1Ev,
                            __ZN6AriSdk29ARI_IBIVinylLPASigningReq_SDKD1Ev,
                            __ZN6AriSdk29ARI_IBIVinylTapeCapsRspCb_SDK6unpackEv,
                            __ZN6AriSdk29ARI_IBIVinylTapeCapsRspCb_SDKC1EPKhj,
                            __ZN6AriSdk29ARI_IBIVinylTapeCapsRspCb_SDKD1Ev,
                            __ZN6AriSdk30ARI_CsiAwdsDeleteConfigReq_SDKC1Ev,
                            __ZN6AriSdk30ARI_CsiAwdsDeleteConfigReq_SDKD1Ev,
                            __ZN6AriSdk30ARI_CsiAwdsGlobalSwitchReq_SDKC1Ev,
                            __ZN6AriSdk30ARI_CsiAwdsGlobalSwitchReq_SDKD1Ev,
                            __ZN6AriSdk30ARI_CsiAwdsPiiLocConfigReq_SDKC1Ev,
                            __ZN6AriSdk30ARI_CsiAwdsPiiLocConfigReq_SDKD1Ev,
                            __ZN6AriSdk30ARI_CsiIceAntennaPrefRspCb_SDK6unpackEv,
                            __ZN6AriSdk30ARI_CsiIceAntennaPrefRspCb_SDKC1EPKhj,
                            __ZN6AriSdk30ARI_CsiIceAntennaPrefRspCb_SDKD1Ev,
                            __ZN6AriSdk30ARI_IBICallCsAcceptCallReq_SDKC1Ev,
                            __ZN6AriSdk30ARI_IBICallCsAcceptCallReq_SDKD1Ev,
                            __ZN6AriSdk30ARI_IBICallCsAutoAnswerReq_SDKC1Ev,
                            __ZN6AriSdk30ARI_IBICallCsAutoAnswerReq_SDKD1Ev,
                            __ZN6AriSdk30ARI_IBICallCsHoldCallRspCb_SDK6unpackEv,
                            __ZN6AriSdk30ARI_IBICallCsHoldCallRspCb_SDKC1EPKhj,
                            __ZN6AriSdk30ARI_IBICallCsHoldCallRspCb_SDKD1Ev,
                            __ZN6AriSdk30ARI_IBICallCsStopDtmfIndCb_SDK6unpackEv,
                            __ZN6AriSdk30ARI_IBICallCsStopDtmfIndCb_SDKC1EPKhj,
                            __ZN6AriSdk30ARI_IBICallCsStopDtmfIndCb_SDKD1Ev,
                            __ZN6AriSdk30ARI_IBICallPsDropIPPackets_SDKC1Ev,
                            __ZN6AriSdk30ARI_IBICallPsDropIPPackets_SDKD1Ev,
                            __ZN6AriSdk30ARI_IBICallPsLqmQueryRsbCb_SDK6unpackEv,
                            __ZN6AriSdk30ARI_IBICallPsLqmQueryRsbCb_SDKC1EPKhj,
                            __ZN6AriSdk30ARI_IBICallPsLqmQueryRsbCb_SDKD1Ev,
                            __ZN6AriSdk30ARI_IBICallPsVoLTECodecReq_SDKC1Ev,
                            __ZN6AriSdk30ARI_IBICallPsVoLTECodecReq_SDKD1Ev,
                            __ZN6AriSdk30ARI_IBINetGetCellInfoIndCb_SDK6unpackEv,
                            __ZN6AriSdk30ARI_IBINetGetCellInfoIndCb_SDKC1EPKhj,
                            __ZN6AriSdk30ARI_IBINetGetCellInfoIndCb_SDKD1Ev,
                            __ZN6AriSdk30ARI_IBINetIceApStatusRspCb_SDK6unpackEv,
                            __ZN6AriSdk30ARI_IBINetIceApStatusRspCb_SDKC1EPKhj,
                            __ZN6AriSdk30ARI_IBINetIceApStatusRspCb_SDKD1Ev,
                            __ZN6AriSdk30ARI_IBINetIceFdReportIndCb_SDK6unpackEv,
                            __ZN6AriSdk30ARI_IBINetIceFdReportIndCb_SDKC1EPKhj,
                            __ZN6AriSdk30ARI_IBINetIceFdReportIndCb_SDKD1Ev,
                            __ZN6AriSdk30ARI_IBINetIceFdStatusCnfCb_SDK6unpackEv,
                            __ZN6AriSdk30ARI_IBINetIceFdStatusCnfCb_SDKC1EPKhj,
                            __ZN6AriSdk30ARI_IBINetIceFdStatusCnfCb_SDKD1Ev,
                            __ZN6AriSdk30ARI_IBINetNitzInfoIndCb_V1_SDK6unpackEv,
                            __ZN6AriSdk30ARI_IBINetNitzInfoIndCb_V1_SDKC1EPKhj,
                            __ZN6AriSdk30ARI_IBINetNitzInfoIndCb_V1_SDKD1Ev,
                            __ZN6AriSdk30ARI_IBINetRadioSignalIndCb_SDK6unpackEv,
                            __ZN6AriSdk30ARI_IBINetRadioSignalIndCb_SDKC1EPKhj,
                            __ZN6AriSdk30ARI_IBINetRadioSignalIndCb_SDKD1Ev,
                            __ZN6AriSdk30ARI_IBINetRatModeStatusReq_SDKC1Ev,
                            __ZN6AriSdk30ARI_IBINetRatModeStatusReq_SDKD1Ev,
                            __ZN6AriSdk30ARI_IBIPriWriteStatusIndCb_SDK6unpackEv,
                            __ZN6AriSdk30ARI_IBIPriWriteStatusIndCb_SDKC1EPKhj,
                            __ZN6AriSdk30ARI_IBIPriWriteStatusIndCb_SDKD1Ev,
                            __ZN6AriSdk30ARI_IBISimAccessApduCmdReq_SDKC1Ev,
                            __ZN6AriSdk30ARI_IBISimAccessApduCmdReq_SDKD1Ev,
                            __ZN6AriSdk30ARI_IBISimApplicationRspCb_SDK6unpackEv,
                            __ZN6AriSdk30ARI_IBISimApplicationRspCb_SDKC1EPKhj,
                            __ZN6AriSdk30ARI_IBISimApplicationRspCb_SDKD1Ev,
                            __ZN6AriSdk30ARI_IBISimPbCacheLoadIndCb_SDK6unpackEv,
                            __ZN6AriSdk30ARI_IBISimPbCacheLoadIndCb_SDKC1EPKhj,
                            __ZN6AriSdk30ARI_IBISimPbCacheLoadIndCb_SDKD1Ev,
                            __ZN6AriSdk30ARI_IBISimPbLocationReq_V1_SDKC1Ev,
                            __ZN6AriSdk30ARI_IBISimPbLocationReq_V1_SDKD1Ev,
                            __ZN6AriSdk30ARI_IBISimPbReadEntryRspCb_SDK6unpackEv,
                            __ZN6AriSdk30ARI_IBISimPbReadEntryRspCb_SDKC1EPKhj,
                            __ZN6AriSdk30ARI_IBISimPbReadEntryRspCb_SDKD1Ev,
                            __ZN6AriSdk30ARI_IBISimPlmnModeBitIndCb_SDK6unpackEv,
                            __ZN6AriSdk30ARI_IBISimPlmnModeBitIndCb_SDKC1EPKhj,
                            __ZN6AriSdk30ARI_IBISimPlmnModeBitIndCb_SDKD1Ev,
                            __ZN6AriSdk30ARI_IBISimSmscAddressIndCb_SDK6unpackEv,
                            __ZN6AriSdk30ARI_IBISimSmscAddressIndCb_SDKC1EPKhj,
                            __ZN6AriSdk30ARI_IBISimSmscAddressIndCb_SDKD1Ev,
                            __ZN6AriSdk30ARI_IBISmsGetMsgWaitIndReq_SDKC1Ev,
                            __ZN6AriSdk30ARI_IBISmsGetMsgWaitIndReq_SDKD1Ev,
                            __ZN6AriSdk30ARI_IBISmsSetMsgWaitIndReq_SDKC1Ev,
                            __ZN6AriSdk30ARI_IBISmsSetMsgWaitIndReq_SDKD1Ev,
                            __ZN6AriSdk30ARI_IBISsCallBarringReq_V1_SDKC1Ev,
                            __ZN6AriSdk30ARI_IBISsCallBarringReq_V1_SDKD1Ev,
                            __ZN6AriSdk30ARI_IBISsExtendedUssdRspCb_SDK6unpackEv,
                            __ZN6AriSdk30ARI_IBISsExtendedUssdRspCb_SDKC1EPKhj,
                            __ZN6AriSdk30ARI_IBISsExtendedUssdRspCb_SDKD1Ev,
                            __ZN6AriSdk30ARI_IBISsIdentificationReq_SDKC1Ev,
                            __ZN6AriSdk30ARI_IBISsIdentificationReq_SDKD1Ev,
                            __ZN6AriSdk31ARI_CsiIceAudToneStopRespCb_SDK6unpackEv,
                            __ZN6AriSdk31ARI_CsiIceAudToneStopRespCb_SDKC1EPKhj,
                            __ZN6AriSdk31ARI_CsiIceAudToneStopRespCb_SDKD1Ev,
                            __ZN6AriSdk31ARI_CsiIceAudVocoderInfoReq_SDKC1Ev,
                            __ZN6AriSdk31ARI_CsiIceAudVocoderInfoReq_SDKD1Ev,
                            __ZN6AriSdk31ARI_IBIApacsDataStatusRspCb_SDK6unpackEv,
                            __ZN6AriSdk31ARI_IBIApacsDataStatusRspCb_SDKC1EPKhj,
                            __ZN6AriSdk31ARI_IBIApacsDataStatusRspCb_SDKD1Ev,
                            __ZN6AriSdk31ARI_IBICallCsBurstDtmfRspCb_SDK6unpackEv,
                            __ZN6AriSdk31ARI_IBICallCsBurstDtmfRspCb_SDKC1EPKhj,
                            __ZN6AriSdk31ARI_IBICallCsBurstDtmfRspCb_SDKD1Ev,
                            __ZN6AriSdk31ARI_IBICallCsJoinCallsRspCb_SDK6unpackEv,
                            __ZN6AriSdk31ARI_IBICallCsJoinCallsRspCb_SDKC1EPKhj,
                            __ZN6AriSdk31ARI_IBICallCsJoinCallsRspCb_SDKD1Ev,
                            __ZN6AriSdk31ARI_IBICallCsReleaseCallReq_SDKC1Ev,
                            __ZN6AriSdk31ARI_IBICallCsReleaseCallReq_SDKD1Ev,
                            __ZN6AriSdk31ARI_IBICallCsSetupCallRspCb_SDK6unpackEv,
                            __ZN6AriSdk31ARI_IBICallCsSetupCallRspCb_SDKC1EPKhj,
                            __ZN6AriSdk31ARI_IBICallCsSetupCallRspCb_SDKD1Ev,
                            __ZN6AriSdk31ARI_IBICallCsSplitMptyRspCb_SDK6unpackEv,
                            __ZN6AriSdk31ARI_IBICallCsSplitMptyRspCb_SDKC1EPKhj,
                            __ZN6AriSdk31ARI_IBICallCsSplitMptyRspCb_SDKD1Ev,
                            __ZN6AriSdk31ARI_IBICallCsStartDtmfRspCb_SDK6unpackEv,
                            __ZN6AriSdk31ARI_IBICallCsStartDtmfRspCb_SDKC1EPKhj,
                            __ZN6AriSdk31ARI_IBICallCsStartDtmfRspCb_SDKD1Ev,
                            __ZN6AriSdk31ARI_IBICallCsSwapCallsRspCb_SDK6unpackEv,
                            __ZN6AriSdk31ARI_IBICallCsSwapCallsRspCb_SDKC1EPKhj,
                            __ZN6AriSdk31ARI_IBICallCsSwapCallsRspCb_SDKD1Ev,
                            __ZN6AriSdk31ARI_IBICallPsFlushDataRspCb_SDK6unpackEv,
                            __ZN6AriSdk31ARI_IBICallPsFlushDataRspCb_SDKC1EPKhj,
                            __ZN6AriSdk31ARI_IBICallPsFlushDataRspCb_SDKD1Ev,
                            __ZN6AriSdk31ARI_IBICallPsImsTestModeReq_SDKC1Ev,
                            __ZN6AriSdk31ARI_IBICallPsImsTestModeReq_SDKD1Ev,
                            __ZN6AriSdk31ARI_IBICallPsLqmRegisterReq_SDKC1Ev,
                            __ZN6AriSdk31ARI_IBICallPsLqmRegisterReq_SDKD1Ev,
                            __ZN6AriSdk31ARI_IBICallPsLteAttachIndCb_SDK6unpackEv,
                            __ZN6AriSdk31ARI_IBICallPsLteAttachIndCb_SDKC1EPKhj,
                            __ZN6AriSdk31ARI_IBICallPsLteAttachIndCb_SDKD1Ev,
                            __ZN6AriSdk31ARI_IBICallPsUpdateNaiRspCb_SDK6unpackEv,
                            __ZN6AriSdk31ARI_IBICallPsUpdateNaiRspCb_SDKC1EPKhj,
                            __ZN6AriSdk31ARI_IBICallPsUpdateNaiRspCb_SDKD1Ev,
                            __ZN6AriSdk31ARI_IBICallPsVoipAppInfoReq_SDKC1Ev,
                            __ZN6AriSdk31ARI_IBICallPsVoipAppInfoReq_SDKD1Ev,
                            __ZN6AriSdk31ARI_IBIMSimRemapStatusIndCb_SDK6unpackEv,
                            __ZN6AriSdk31ARI_IBIMSimRemapStatusIndCb_SDKC1EPKhj,
                            __ZN6AriSdk31ARI_IBIMSimRemapStatusIndCb_SDKD1Ev,
                            __ZN6AriSdk31ARI_IBINetGetCellInfoRespCb_SDK6unpackEv,
                            __ZN6AriSdk31ARI_IBINetGetCellInfoRespCb_SDKC1EPKhj,
                            __ZN6AriSdk31ARI_IBINetGetCellInfoRespCb_SDKD1Ev,
                            __ZN6AriSdk31ARI_IBINetSingleShotFdRspCb_SDK6unpackEv,
                            __ZN6AriSdk31ARI_IBINetSingleShotFdRspCb_SDKC1EPKhj,
                            __ZN6AriSdk31ARI_IBINetSingleShotFdRspCb_SDKD1Ev,
                            __ZN6AriSdk31ARI_IBISendPreferredListReq_SDKC1Ev,
                            __ZN6AriSdk31ARI_IBISendPreferredListReq_SDKD1Ev,
                            __ZN6AriSdk31ARI_IBISetRtcEpochTimeRspCb_SDKC1EPKhj,
                            __ZN6AriSdk31ARI_IBISetRtcEpochTimeRspCb_SDKD1Ev,
                            __ZN6AriSdk31ARI_IBISimExtendedAuthRspCb_SDK6unpackEv,
                            __ZN6AriSdk31ARI_IBISimExtendedAuthRspCb_SDKC1EPKhj,
                            __ZN6AriSdk31ARI_IBISimExtendedAuthRspCb_SDKD1Ev,
                            __ZN6AriSdk31ARI_IBISimFileReadBinaryReq_SDKC1Ev,
                            __ZN6AriSdk31ARI_IBISimFileReadBinaryReq_SDKD1Ev,
                            __ZN6AriSdk31ARI_IBISimGetPlmnModeBitReq_SDKC1Ev,
                            __ZN6AriSdk31ARI_IBISimGetPlmnModeBitReq_SDKD1Ev,
                            __ZN6AriSdk31ARI_IBISimGetSmscAddressReq_SDKC1Ev,
                            __ZN6AriSdk31ARI_IBISimGetSmscAddressReq_SDKD1Ev,
                            __ZN6AriSdk31ARI_IBISimPbWriteEntryRspCb_SDK6unpackEv,
                            __ZN6AriSdk31ARI_IBISimPbWriteEntryRspCb_SDKC1EPKhj,
                            __ZN6AriSdk31ARI_IBISimPbWriteEntryRspCb_SDKD1Ev,
                            __ZN6AriSdk31ARI_IBISimSetSmscAddressReq_SDKC1Ev,
                            __ZN6AriSdk31ARI_IBISimSetSmscAddressReq_SDKD1Ev,
                            __ZN6AriSdk31ARI_IBISimTkExecStkCmdIndCb_SDK6unpackEv,
                            __ZN6AriSdk31ARI_IBISimTkExecStkCmdIndCb_SDKC1EPKhj,
                            __ZN6AriSdk31ARI_IBISimTkExecStkCmdIndCb_SDKD1Ev,
                            __ZN6AriSdk31ARI_IBISimTkRefreshFcnIndCb_SDK6unpackEv,
                            __ZN6AriSdk31ARI_IBISimTkRefreshFcnIndCb_SDKC1EPKhj,
                            __ZN6AriSdk31ARI_IBISimTkRefreshFcnIndCb_SDKD1Ev,
                            __ZN6AriSdk31ARI_IBISimTkRefreshQueryRsp_SDKC1Ev,
                            __ZN6AriSdk31ARI_IBISimTkRefreshQueryRsp_SDKD1Ev,
                            __ZN6AriSdk31ARI_IBISmsDataDownloadRspCb_SDK6unpackEv,
                            __ZN6AriSdk31ARI_IBISmsDataDownloadRspCb_SDKC1EPKhj,
                            __ZN6AriSdk31ARI_IBISmsDataDownloadRspCb_SDKD1Ev,
                            __ZN6AriSdk31ARI_IBIVinylLPASigningRspCb_SDK6unpackEv,
                            __ZN6AriSdk31ARI_IBIVinylLPASigningRspCb_SDKC1EPKhj,
                            __ZN6AriSdk31ARI_IBIVinylLPASigningRspCb_SDKD1Ev,
                            __ZN6AriSdk32ARI_CsiAwdsDeleteConfigRspCb_SDK6unpackEv,
                            __ZN6AriSdk32ARI_CsiAwdsDeleteConfigRspCb_SDKC1EPKhj,
                            __ZN6AriSdk32ARI_CsiAwdsDeleteConfigRspCb_SDKD1Ev,
                            __ZN6AriSdk32ARI_CsiAwdsGlobalSwitchRspCb_SDK6unpackEv,
                            __ZN6AriSdk32ARI_CsiAwdsGlobalSwitchRspCb_SDKC1EPKhj,
                            __ZN6AriSdk32ARI_CsiAwdsGlobalSwitchRspCb_SDKD1Ev,
                            __ZN6AriSdk32ARI_CsiAwdsPiiLocConfigRspCb_SDK6unpackEv,
                            __ZN6AriSdk32ARI_CsiAwdsPiiLocConfigRspCb_SDKC1EPKhj,
                            __ZN6AriSdk32ARI_CsiAwdsPiiLocConfigRspCb_SDKD1Ev,
                            __ZN6AriSdk32ARI_CsiIceAudSetDeviceRespCb_SDK6unpackEv,
                            __ZN6AriSdk32ARI_CsiIceAudSetDeviceRespCb_SDKC1EPKhj,
                            __ZN6AriSdk32ARI_CsiIceAudSetDeviceRespCb_SDKD1Ev,
                            __ZN6AriSdk32ARI_CsiIceAudToneStartRespCb_SDK6unpackEv,
                            __ZN6AriSdk32ARI_CsiIceAudToneStartRespCb_SDKC1EPKhj,
                            __ZN6AriSdk32ARI_CsiIceAudToneStartRespCb_SDKD1Ev,
                            __ZN6AriSdk32ARI_IBICallCsAcceptCallRspCb_SDK6unpackEv,
                            __ZN6AriSdk32ARI_IBICallCsAcceptCallRspCb_SDKC1EPKhj,
                            __ZN6AriSdk32ARI_IBICallCsAcceptCallRspCb_SDKD1Ev,
                            __ZN6AriSdk32ARI_IBICallCsAutoAnswerRspCb_SDK6unpackEv,
                            __ZN6AriSdk32ARI_IBICallCsAutoAnswerRspCb_SDKC1EPKhj,
                            __ZN6AriSdk32ARI_IBICallCsAutoAnswerRspCb_SDKD1Ev,
                            __ZN6AriSdk32ARI_IBICallCsCallStatusIndCb_SDK6unpackEv,
                            __ZN6AriSdk32ARI_IBICallCsCallStatusIndCb_SDKC1EPKhj,
                            __ZN6AriSdk32ARI_IBICallCsCallStatusIndCb_SDKD1Ev,
                            __ZN6AriSdk32ARI_IBICallCsRetrieveCallReq_SDKC1Ev,
                            __ZN6AriSdk32ARI_IBICallCsRetrieveCallReq_SDKD1Ev,
                            __ZN6AriSdk32ARI_IBICallPsStopDataCallReq_SDKC1Ev,
                            __ZN6AriSdk32ARI_IBICallPsStopDataCallReq_SDKD1Ev,
                            __ZN6AriSdk32ARI_IBICallPsVoLTECodecRspCb_SDK6unpackEv,
                            __ZN6AriSdk32ARI_IBICallPsVoLTECodecRspCb_SDKC1EPKhj,
                            __ZN6AriSdk32ARI_IBICallPsVoLTECodecRspCb_SDKD1Ev,
                            __ZN6AriSdk32ARI_IBINetGetCurrCellInfoReq_SDKC1Ev,
                            __ZN6AriSdk32ARI_IBINetGetCurrCellInfoReq_SDKD1Ev,
                            __ZN6AriSdk32ARI_IBINetIceSingleShotFdReq_SDKC1Ev,
                            __ZN6AriSdk32ARI_IBINetIceSingleShotFdReq_SDKD1Ev,
                            __ZN6AriSdk32ARI_IBINetIncrementalScanReq_SDKC1Ev,
                            __ZN6AriSdk32ARI_IBINetIncrementalScanReq_SDKD1Ev,
                            __ZN6AriSdk32ARI_IBINetRatModeStatusIndCb_SDK6unpackEv,
                            __ZN6AriSdk32ARI_IBINetRatModeStatusIndCb_SDKC1EPKhj,
                            __ZN6AriSdk32ARI_IBINetRatModeStatusIndCb_SDKD1Ev,
                            __ZN6AriSdk32ARI_IBINetRatModeStatusRspCb_SDK6unpackEv,
                            __ZN6AriSdk32ARI_IBINetRatModeStatusRspCb_SDKC1EPKhj,
                            __ZN6AriSdk32ARI_IBINetRatModeStatusRspCb_SDKD1Ev,
                            __ZN6AriSdk32ARI_IBIP2PProximityStatusReq_SDKC1Ev,
                            __ZN6AriSdk32ARI_IBIP2PProximityStatusReq_SDKD1Ev,
                            __ZN6AriSdk32ARI_IBISimAccessApduCmdRspCb_SDK6unpackEv,
                            __ZN6AriSdk32ARI_IBISimAccessApduCmdRspCb_SDKC1EPKhj,
                            __ZN6AriSdk32ARI_IBISimAccessApduCmdRspCb_SDKD1Ev,
                            __ZN6AriSdk32ARI_IBISimPbLocationIndCb_V1_SDK6unpackEv,
                            __ZN6AriSdk32ARI_IBISimPbLocationIndCb_V1_SDKC1EPKhj,
                            __ZN6AriSdk32ARI_IBISimPbLocationIndCb_V1_SDKD1Ev,
                            __ZN6AriSdk32ARI_IBISimPbUsimPbReadyIndCb_SDK6unpackEv,
                            __ZN6AriSdk32ARI_IBISimPbUsimPbReadyIndCb_SDKC1EPKhj,
                            __ZN6AriSdk32ARI_IBISimPbUsimPbReadyIndCb_SDKD1Ev,
                            __ZN6AriSdk32ARI_IBISimTkTerminalResponse_SDKC1Ev,
                            __ZN6AriSdk32ARI_IBISimTkTerminalResponse_SDKD1Ev,
                            __ZN6AriSdk32ARI_IBISmsGetMsgWaitIndRspCb_SDK6unpackEv,
                            __ZN6AriSdk32ARI_IBISmsGetMsgWaitIndRspCb_SDKC1EPKhj,
                            __ZN6AriSdk32ARI_IBISmsGetMsgWaitIndRspCb_SDKD1Ev,
                            __ZN6AriSdk32ARI_IBISmsSetMsgWaitIndRspCb_SDK6unpackEv,
                            __ZN6AriSdk32ARI_IBISmsSetMsgWaitIndRspCb_SDKC1EPKhj,
                            __ZN6AriSdk32ARI_IBISmsSetMsgWaitIndRspCb_SDKD1Ev,
                            __ZN6AriSdk32ARI_IBISsCallBarringRspCb_V1_SDK6unpackEv,
                            __ZN6AriSdk32ARI_IBISsCallBarringRspCb_V1_SDKC1EPKhj,
                            __ZN6AriSdk32ARI_IBISsCallBarringRspCb_V1_SDKD1Ev,
                            __ZN6AriSdk32ARI_IBISsIdentificationRspCb_SDK6unpackEv,
                            __ZN6AriSdk32ARI_IBISsIdentificationRspCb_SDKC1EPKhj,
                            __ZN6AriSdk32ARI_IBISsIdentificationRspCb_SDKD1Ev,
                            __ZN6AriSdk33ARI_CsiAwdsMetricSubSwitchReq_SDKC1Ev,
                            __ZN6AriSdk33ARI_CsiAwdsMetricSubSwitchReq_SDKD1Ev,
                            __ZN6AriSdk33ARI_CsiIceAudVocoderInfoIndCb_SDK6unpackEv,
                            __ZN6AriSdk33ARI_CsiIceAudVocoderInfoIndCb_SDKC1EPKhj,
                            __ZN6AriSdk33ARI_CsiIceAudVocoderInfoIndCb_SDKD1Ev,
                            __ZN6AriSdk33ARI_IBICallCsOtaspStatusIndCb_SDK6unpackEv,
                            __ZN6AriSdk33ARI_IBICallCsOtaspStatusIndCb_SDKC1EPKhj,
                            __ZN6AriSdk33ARI_IBICallCsOtaspStatusIndCb_SDKD1Ev,
                            __ZN6AriSdk33ARI_IBICallCsReleaseCallRspCb_SDK6unpackEv,
                            __ZN6AriSdk33ARI_IBICallCsReleaseCallRspCb_SDKC1EPKhj,
                            __ZN6AriSdk33ARI_IBICallCsReleaseCallRspCb_SDKD1Ev,
                            __ZN6AriSdk33ARI_IBICallCsStopDtmfExtRspCb_SDK6unpackEv,
                            __ZN6AriSdk33ARI_IBICallCsStopDtmfExtRspCb_SDKC1EPKhj,
                            __ZN6AriSdk33ARI_IBICallCsStopDtmfExtRspCb_SDKD1Ev,
                            __ZN6AriSdk33ARI_IBICallCsTransferCallsReq_SDKC1Ev,
                            __ZN6AriSdk33ARI_IBICallCsTransferCallsReq_SDKD1Ev,
                            __ZN6AriSdk33ARI_IBICallPsDataPathSetupReq_SDKC1Ev,
                            __ZN6AriSdk33ARI_IBICallPsDataPathSetupReq_SDKD1Ev,
                            __ZN6AriSdk33ARI_IBICallPsFDBackOffTimeInd_SDK6unpackEv,
                            __ZN6AriSdk33ARI_IBICallPsFDBackOffTimeInd_SDKC1EPKhj,
                            __ZN6AriSdk33ARI_IBICallPsFDBackOffTimeInd_SDKD1Ev,
                            __ZN6AriSdk33ARI_IBICallPsImsTestModeIndCb_SDK6unpackEv,
                            __ZN6AriSdk33ARI_IBICallPsImsTestModeIndCb_SDKC1EPKhj,
                            __ZN6AriSdk33ARI_IBICallPsImsTestModeIndCb_SDKD1Ev,
                            __ZN6AriSdk33ARI_IBICallPsImsTestModeRspCb_SDK6unpackEv,
                            __ZN6AriSdk33ARI_IBICallPsImsTestModeRspCb_SDKC1EPKhj,
                            __ZN6AriSdk33ARI_IBICallPsImsTestModeRspCb_SDKD1Ev,
                            __ZN6AriSdk33ARI_IBICallPsLqmRegisterRspCb_SDK6unpackEv,
                            __ZN6AriSdk33ARI_IBICallPsLqmRegisterRspCb_SDKC1EPKhj,
                            __ZN6AriSdk33ARI_IBICallPsLqmRegisterRspCb_SDKD1Ev,
                            __ZN6AriSdk33ARI_IBICallPsStartDataCallReq_SDKC1Ev,
                            __ZN6AriSdk33ARI_IBICallPsStartDataCallReq_SDKD1Ev,
                            __ZN6AriSdk33ARI_IBICallPsTrafficClassInfo_SDKC1Ev,
                            __ZN6AriSdk33ARI_IBICallPsTrafficClassInfo_SDKD1Ev,
                            __ZN6AriSdk33ARI_IBICallPsVoiceLQMStateInd_SDK6unpackEv,
                            __ZN6AriSdk33ARI_IBICallPsVoiceLQMStateInd_SDKC1EPKhj,
                            __ZN6AriSdk33ARI_IBICallPsVoiceLQMStateInd_SDKD1Ev,
                            __ZN6AriSdk33ARI_IBICallPsVoipAppInfoRspCb_SDK6unpackEv,
                            __ZN6AriSdk33ARI_IBICallPsVoipAppInfoRspCb_SDKC1EPKhj,
                            __ZN6AriSdk33ARI_IBICallPsVoipAppInfoRspCb_SDKD1Ev,
                            __ZN6AriSdk33ARI_IBINetConnectionInfoIndCb_SDK6unpackEv,
                            __ZN6AriSdk33ARI_IBINetConnectionInfoIndCb_SDKC1EPKhj,
                            __ZN6AriSdk33ARI_IBINetConnectionInfoIndCb_SDKD1Ev,
                            __ZN6AriSdk33ARI_IBINetEmergencyCellEndReq_SDKC1Ev,
                            __ZN6AriSdk33ARI_IBINetEmergencyCellEndReq_SDKD1Ev,
                            __ZN6AriSdk33ARI_IBISendPreferredListRspCb_SDK6unpackEv,
                            __ZN6AriSdk33ARI_IBISendPreferredListRspCb_SDKC1EPKhj,
                            __ZN6AriSdk33ARI_IBISendPreferredListRspCb_SDKD1Ev,
                            __ZN6AriSdk33ARI_IBISimAccessGetSimDataReq_SDKC1Ev,
                            __ZN6AriSdk33ARI_IBISimAccessGetSimDataReq_SDKD1Ev,
                            __ZN6AriSdk33ARI_IBISimAccessReadRecordReq_SDKC1Ev,
                            __ZN6AriSdk33ARI_IBISimAccessReadRecordReq_SDKD1Ev,
                            __ZN6AriSdk33ARI_IBISimCdmaFullAccessIndCb_SDK6unpackEv,
                            __ZN6AriSdk33ARI_IBISimCdmaFullAccessIndCb_SDKC1EPKhj,
                            __ZN6AriSdk33ARI_IBISimCdmaFullAccessIndCb_SDKD1Ev,
                            __ZN6AriSdk33ARI_IBISimFileReadBinaryRspCb_SDK6unpackEv,
                            __ZN6AriSdk33ARI_IBISimFileReadBinaryRspCb_SDKC1EPKhj,
                            __ZN6AriSdk33ARI_IBISimFileReadBinaryRspCb_SDKD1Ev,
                            __ZN6AriSdk33ARI_IBISimFileUpdateBinaryReq_SDKC1Ev,
                            __ZN6AriSdk33ARI_IBISimFileUpdateBinaryReq_SDKD1Ev,
                            __ZN6AriSdk33ARI_IBISimGetPlmnModeBitRspCb_SDK6unpackEv,
                            __ZN6AriSdk33ARI_IBISimGetPlmnModeBitRspCb_SDKC1EPKhj,
                            __ZN6AriSdk33ARI_IBISimGetPlmnModeBitRspCb_SDKD1Ev,
                            __ZN6AriSdk33ARI_IBISimGetSmscAddressRspCb_SDK6unpackEv,
                            __ZN6AriSdk33ARI_IBISimGetSmscAddressRspCb_SDKC1EPKhj,
                            __ZN6AriSdk33ARI_IBISimGetSmscAddressRspCb_SDKD1Ev,
                            __ZN6AriSdk33ARI_IBISimSetSmscAddressRspCb_SDK6unpackEv,
                            __ZN6AriSdk33ARI_IBISimSetSmscAddressRspCb_SDKC1EPKhj,
                            __ZN6AriSdk33ARI_IBISimSetSmscAddressRspCb_SDKD1Ev,
                            __ZN6AriSdk33ARI_IBISimTkProactiveCmdIndCb_SDK6unpackEv,
                            __ZN6AriSdk33ARI_IBISimTkProactiveCmdIndCb_SDKC1EPKhj,
                            __ZN6AriSdk33ARI_IBISimTkProactiveCmdIndCb_SDKD1Ev,
                            __ZN6AriSdk33ARI_IBISimTkRefreshConfirmRsp_SDKC1Ev,
                            __ZN6AriSdk33ARI_IBISimTkRefreshConfirmRsp_SDKD1Ev,
                            __ZN6AriSdk33ARI_IBISimTkRefreshQueryIndCb_SDK6unpackEv,
                            __ZN6AriSdk33ARI_IBISimTkRefreshQueryIndCb_SDKC1EPKhj,
                            __ZN6AriSdk33ARI_IBISimTkRefreshQueryIndCb_SDKD1Ev,
                            __ZN6AriSdk34ARI_CsiAwdsMetricSubTriggerInd_SDK6unpackEv,
                            __ZN6AriSdk34ARI_CsiAwdsMetricSubTriggerInd_SDKC1EPKhj,
                            __ZN6AriSdk34ARI_CsiAwdsMetricSubTriggerInd_SDKD1Ev,
                            __ZN6AriSdk34ARI_CsiIceAudVocoderInfoRespCb_SDK6unpackEv,
                            __ZN6AriSdk34ARI_CsiIceAudVocoderInfoRespCb_SDKC1EPKhj,
                            __ZN6AriSdk34ARI_CsiIceAudVocoderInfoRespCb_SDKD1Ev,
                            __ZN6AriSdk34ARI_IBICallCsDisconnectedIndCb_SDK6unpackEv,
                            __ZN6AriSdk34ARI_IBICallCsDisconnectedIndCb_SDKC1EPKhj,
                            __ZN6AriSdk34ARI_IBICallCsDisconnectedIndCb_SDKD1Ev,
                            __ZN6AriSdk34ARI_IBICallCsIncomingCallIndCb_SDK6unpackEv,
                            __ZN6AriSdk34ARI_IBICallCsIncomingCallIndCb_SDKC1EPKhj,
                            __ZN6AriSdk34ARI_IBICallCsIncomingCallIndCb_SDKD1Ev,
                            __ZN6AriSdk34ARI_IBICallCsRetrieveCallRspCb_SDK6unpackEv,
                            __ZN6AriSdk34ARI_IBICallCsRetrieveCallRspCb_SDKC1EPKhj,
                            __ZN6AriSdk34ARI_IBICallCsRetrieveCallRspCb_SDKD1Ev,
                            __ZN6AriSdk34ARI_IBICallCsSetPrefPrivacyReq_SDKC1Ev,
                            __ZN6AriSdk34ARI_IBICallCsSetPrefPrivacyReq_SDKD1Ev,
                            __ZN6AriSdk34ARI_IBICallCsSetupVoiceCallReq_SDKC1Ev,
                            __ZN6AriSdk34ARI_IBICallCsSetupVoiceCallReq_SDKD1Ev,
                            __ZN6AriSdk34ARI_IBICallPsDataStallRegIndCb_SDK6unpackEv,
                            __ZN6AriSdk34ARI_IBICallPsDataStallRegIndCb_SDKC1EPKhj,
                            __ZN6AriSdk34ARI_IBICallPsDataStallRegIndCb_SDKD1Ev,
                            __ZN6AriSdk34ARI_IBICallPsNotificationIndCb_SDK6unpackEv,
                            __ZN6AriSdk34ARI_IBICallPsNotificationIndCb_SDKC1EPKhj,
                            __ZN6AriSdk34ARI_IBICallPsNotificationIndCb_SDKD1Ev,
                            __ZN6AriSdk34ARI_IBICallPsSecurityStatusInd_SDK6unpackEv,
                            __ZN6AriSdk34ARI_IBICallPsSecurityStatusInd_SDKC1EPKhj,
                            __ZN6AriSdk34ARI_IBICallPsSecurityStatusInd_SDKD1Ev,
                            __ZN6AriSdk34ARI_IBICallPsSecurityStatusReq_SDKC1Ev,
                            __ZN6AriSdk34ARI_IBICallPsSecurityStatusReq_SDKD1Ev,
                            __ZN6AriSdk34ARI_IBICallPsStopDataCallRspCb_SDK6unpackEv,
                            __ZN6AriSdk34ARI_IBICallPsStopDataCallRspCb_SDKC1EPKhj,
                            __ZN6AriSdk34ARI_IBICallPsStopDataCallRspCb_SDKD1Ev,
                            __ZN6AriSdk34ARI_IBIMsAccCurrentFreqInfoReq_SDKC1Ev,
                            __ZN6AriSdk34ARI_IBIMsAccCurrentFreqInfoReq_SDKD1Ev,
                            __ZN6AriSdk34ARI_IBIMsNetIceCsgAsfSearchReq_SDKC1Ev,
                            __ZN6AriSdk34ARI_IBIMsNetIceCsgAsfSearchReq_SDKD1Ev,
                            __ZN6AriSdk34ARI_IBINetGetCurrCellInfoRspCb_SDK6unpackEv,
                            __ZN6AriSdk34ARI_IBINetGetCurrCellInfoRspCb_SDKC1EPKhj,
                            __ZN6AriSdk34ARI_IBINetGetCurrCellInfoRspCb_SDKD1Ev,
                            __ZN6AriSdk34ARI_IBINetGetPlmnNameInfoIndCb_SDK6unpackEv,
                            __ZN6AriSdk34ARI_IBINetGetPlmnNameInfoIndCb_SDKC1EPKhj,
                            __ZN6AriSdk34ARI_IBINetGetPlmnNameInfoIndCb_SDKD1Ev,
                            __ZN6AriSdk34ARI_IBINetIncrementalScanIndCb_SDK6unpackEv,
                            __ZN6AriSdk34ARI_IBINetIncrementalScanIndCb_SDKC1EPKhj,
                            __ZN6AriSdk34ARI_IBINetIncrementalScanIndCb_SDKD1Ev,
                            __ZN6AriSdk34ARI_IBINetIncrementalScanRspCb_SDK6unpackEv,
                            __ZN6AriSdk34ARI_IBINetIncrementalScanRspCb_SDKC1EPKhj,
                            __ZN6AriSdk34ARI_IBINetIncrementalScanRspCb_SDKD1Ev,
                            __ZN6AriSdk34ARI_IBIP2PProximityStatusRspCb_SDK6unpackEv,
                            __ZN6AriSdk34ARI_IBIP2PProximityStatusRspCb_SDKC1EPKhj,
                            __ZN6AriSdk34ARI_IBIP2PProximityStatusRspCb_SDKD1Ev,
                            __ZN6AriSdk34ARI_IBISimPbUsimPbSelectReq_V1_SDKC1Ev,
                            __ZN6AriSdk34ARI_IBISimPbUsimPbSelectReq_V1_SDKD1Ev,
                            __ZN6AriSdk34ARI_IBISimTkConfigureStkCmdReq_SDKC1Ev,
                            __ZN6AriSdk34ARI_IBISimTkConfigureStkCmdReq_SDKD1Ev,
                            __ZN6AriSdk34ARI_IBISimTkEnvelopeCommandReq_SDKC1Ev,
                            __ZN6AriSdk34ARI_IBISimTkEnvelopeCommandReq_SDKD1Ev,
                            __ZN6AriSdk35ARI_CsiAwdsMetricSubSwitchRspCb_SDK6unpackEv,
                            __ZN6AriSdk35ARI_CsiAwdsMetricSubSwitchRspCb_SDKC1EPKhj,
                            __ZN6AriSdk35ARI_CsiAwdsMetricSubSwitchRspCb_SDKD1Ev,
                            __ZN6AriSdk35ARI_CsiIceAudSetAudioLoggingReq_SDKC1Ev,
                            __ZN6AriSdk35ARI_CsiIceAudSetAudioLoggingReq_SDKD1Ev,
                            __ZN6AriSdk35ARI_IBICallCsTransferCallsRspCb_SDK6unpackEv,
                            __ZN6AriSdk35ARI_IBICallCsTransferCallsRspCb_SDKC1EPKhj,
                            __ZN6AriSdk35ARI_IBICallCsTransferCallsRspCb_SDKD1Ev,
                            __ZN6AriSdk35ARI_IBICallPsDataPathSetupRspCb_SDK6unpackEv,
                            __ZN6AriSdk35ARI_IBICallPsDataPathSetupRspCb_SDKC1EPKhj,
                            __ZN6AriSdk35ARI_IBICallPsDataPathSetupRspCb_SDKD1Ev,
                            __ZN6AriSdk35ARI_IBICallPsStartDataCallRspCb_SDK6unpackEv,
                            __ZN6AriSdk35ARI_IBICallPsStartDataCallRspCb_SDKC1EPKhj,
                            __ZN6AriSdk35ARI_IBICallPsStartDataCallRspCb_SDKD1Ev,
                            __ZN6AriSdk35ARI_IBIMSimSetCurrentDataSimReq_SDKC1Ev,
                            __ZN6AriSdk35ARI_IBIMSimSetCurrentDataSimReq_SDKD1Ev,
                            __ZN6AriSdk35ARI_IBIMSimSetCurrentDataSimRsp_SDK6unpackEv,
                            __ZN6AriSdk35ARI_IBIMSimSetCurrentDataSimRsp_SDKC1EPKhj,
                            __ZN6AriSdk35ARI_IBIMSimSetCurrentDataSimRsp_SDKD1Ev,
                            __ZN6AriSdk35ARI_IBINetEmergencyCellEndRspCb_SDK6unpackEv,
                            __ZN6AriSdk35ARI_IBINetEmergencyCellEndRspCb_SDKC1EPKhj,
                            __ZN6AriSdk35ARI_IBINetEmergencyCellEndRspCb_SDKD1Ev,
                            __ZN6AriSdk35ARI_IBINetGetEmergencyCellIndCb_SDK6unpackEv,
                            __ZN6AriSdk35ARI_IBINetGetEmergencyCellIndCb_SDKC1EPKhj,
                            __ZN6AriSdk35ARI_IBINetGetEmergencyCellIndCb_SDKD1Ev,
                            __ZN6AriSdk35ARI_IBINetGetPlmnNameInfoReq_V1_SDKC1Ev,
                            __ZN6AriSdk35ARI_IBINetGetPlmnNameInfoReq_V1_SDKD1Ev,
                            __ZN6AriSdk35ARI_IBINetRatSwitchStatusReport_SDKC1Ev,
                            __ZN6AriSdk35ARI_IBINetRatSwitchStatusReport_SDKD1Ev,
                            __ZN6AriSdk35ARI_IBINetRegistrationInfoIndCb_SDK6unpackEv,
                            __ZN6AriSdk35ARI_IBINetRegistrationInfoIndCb_SDKC1EPKhj,
                            __ZN6AriSdk35ARI_IBINetRegistrationInfoIndCb_SDKD1Ev,
                            __ZN6AriSdk35ARI_IBISimAccessGetSimDataIndCb_SDK6unpackEv,
                            __ZN6AriSdk35ARI_IBISimAccessGetSimDataIndCb_SDKC1EPKhj,
                            __ZN6AriSdk35ARI_IBISimAccessGetSimDataIndCb_SDKD1Ev,
                            __ZN6AriSdk35ARI_IBISimAccessGetSimDataRspCb_SDK6unpackEv,
                            __ZN6AriSdk35ARI_IBISimAccessGetSimDataRspCb_SDKC1EPKhj,
                            __ZN6AriSdk35ARI_IBISimAccessGetSimDataRspCb_SDKD1Ev,
                            __ZN6AriSdk35ARI_IBISimAccessReadRecordRspCb_SDK6unpackEv,
                            __ZN6AriSdk35ARI_IBISimAccessReadRecordRspCb_SDKC1EPKhj,
                            __ZN6AriSdk35ARI_IBISimAccessReadRecordRspCb_SDKD1Ev,
                            __ZN6AriSdk35ARI_IBISimFileGetCdmaAuxInfoReq_SDKC1Ev,
                            __ZN6AriSdk35ARI_IBISimFileGetCdmaAuxInfoReq_SDKD1Ev,
                            __ZN6AriSdk35ARI_IBISimFileUpdateBinaryRspCb_SDK6unpackEv,
                            __ZN6AriSdk35ARI_IBISimFileUpdateBinaryRspCb_SDKC1EPKhj,
                            __ZN6AriSdk35ARI_IBISimFileUpdateBinaryRspCb_SDKD1Ev,
                            __ZN6AriSdk35ARI_IBISimMsgWaitIndicatorIndCb_SDK6unpackEv,
                            __ZN6AriSdk35ARI_IBISimMsgWaitIndicatorIndCb_SDKC1EPKhj,
                            __ZN6AriSdk35ARI_IBISimMsgWaitIndicatorIndCb_SDKD1Ev,
                            __ZN6AriSdk35ARI_IBISimPbGetLocationRspCb_V1_SDK6unpackEv,
                            __ZN6AriSdk35ARI_IBISimPbGetLocationRspCb_V1_SDKC1EPKhj,
                            __ZN6AriSdk35ARI_IBISimPbGetLocationRspCb_V1_SDKD1Ev,
                            __ZN6AriSdk35ARI_IBISimTkRefreshConfirmIndCb_SDK6unpackEv,
                            __ZN6AriSdk35ARI_IBISimTkRefreshConfirmIndCb_SDKC1EPKhj,
                            __ZN6AriSdk35ARI_IBISimTkRefreshConfirmIndCb_SDKD1Ev,
                            __ZN6AriSdk36ARI_IBICallCsSetPrefPrivacyIndCb_SDK6unpackEv,
                            __ZN6AriSdk36ARI_IBICallCsSetPrefPrivacyIndCb_SDKC1EPKhj,
                            __ZN6AriSdk36ARI_IBICallCsSetPrefPrivacyIndCb_SDKD1Ev,
                            __ZN6AriSdk36ARI_IBICallCsSetPrefPrivacyRspCb_SDK6unpackEv,
                            __ZN6AriSdk36ARI_IBICallCsSetPrefPrivacyRspCb_SDKC1EPKhj,
                            __ZN6AriSdk36ARI_IBICallCsSetPrefPrivacyRspCb_SDKD1Ev,
                            __ZN6AriSdk36ARI_IBICallCsSetTtyDeviceModeReq_SDKC1Ev,
                            __ZN6AriSdk36ARI_IBICallCsSetTtyDeviceModeReq_SDKD1Ev,
                            __ZN6AriSdk36ARI_IBICallPsActivateStatusIndCb_SDK6unpackEv,
                            __ZN6AriSdk36ARI_IBICallPsActivateStatusIndCb_SDKC1EPKhj,
                            __ZN6AriSdk36ARI_IBICallPsActivateStatusIndCb_SDKD1Ev,
                            __ZN6AriSdk36ARI_IBICallPsDataTransferTimeReq_SDKC1Ev,
                            __ZN6AriSdk36ARI_IBICallPsDataTransferTimeReq_SDKD1Ev,
                            __ZN6AriSdk36ARI_IBICallPsSecurityStatusRspCb_SDK6unpackEv,
                            __ZN6AriSdk36ARI_IBICallPsSecurityStatusRspCb_SDKC1EPKhj,
                            __ZN6AriSdk36ARI_IBICallPsSecurityStatusRspCb_SDKD1Ev,
                            __ZN6AriSdk36ARI_IBIMsAccCurrentFreqInfoIndCb_SDK6unpackEv,
                            __ZN6AriSdk36ARI_IBIMsAccCurrentFreqInfoIndCb_SDKC1EPKhj,
                            __ZN6AriSdk36ARI_IBIMsAccCurrentFreqInfoIndCb_SDKD1Ev,
                            __ZN6AriSdk36ARI_IBIMsAccCurrentFreqInfoRspCb_SDK6unpackEv,
                            __ZN6AriSdk36ARI_IBIMsAccCurrentFreqInfoRspCb_SDKC1EPKhj,
                            __ZN6AriSdk36ARI_IBIMsAccCurrentFreqInfoRspCb_SDKD1Ev,
                            __ZN6AriSdk36ARI_IBIMsNetIceCsgAsfSearchCnfCb_SDK6unpackEv,
                            __ZN6AriSdk36ARI_IBIMsNetIceCsgAsfSearchCnfCb_SDKC1EPKhj,
                            __ZN6AriSdk36ARI_IBIMsNetIceCsgAsfSearchCnfCb_SDKD1Ev,
                            __ZN6AriSdk36ARI_IBINetEmergencyCellSearchReq_SDKC1Ev,
                            __ZN6AriSdk36ARI_IBINetEmergencyCellSearchReq_SDKD1Ev,
                            __ZN6AriSdk36ARI_IBINetGetRegistrationInfoReq_SDKC1Ev,
                            __ZN6AriSdk36ARI_IBINetGetRegistrationInfoReq_SDKD1Ev,
                            __ZN6AriSdk36ARI_IBINetIceManualPlmnModeIndCb_SDK6unpackEv,
                            __ZN6AriSdk36ARI_IBINetIceManualPlmnModeIndCb_SDKC1EPKhj,
                            __ZN6AriSdk36ARI_IBINetIceManualPlmnModeIndCb_SDKD1Ev,
                            __ZN6AriSdk36ARI_IBINetNetworkModeChangeIndCb_SDK6unpackEv,
                            __ZN6AriSdk36ARI_IBINetNetworkModeChangeIndCb_SDKC1EPKhj,
                            __ZN6AriSdk36ARI_IBINetNetworkModeChangeIndCb_SDKD1Ev,
                            __ZN6AriSdk36ARI_IBISimGetFullAccessStatusReq_SDKC1Ev,
                            __ZN6AriSdk36ARI_IBISimGetFullAccessStatusReq_SDKD1Ev,
                            __ZN6AriSdk36ARI_IBISimPbUsimPbSelectIndCb_V1_SDK6unpackEv,
                            __ZN6AriSdk36ARI_IBISimPbUsimPbSelectIndCb_V1_SDKC1EPKhj,
                            __ZN6AriSdk36ARI_IBISimPbUsimPbSelectIndCb_V1_SDKD1Ev,
                            __ZN6AriSdk36ARI_IBISimPbUsimPbSelectRspCb_V1_SDK6unpackEv,
                            __ZN6AriSdk36ARI_IBISimPbUsimPbSelectRspCb_V1_SDKC1EPKhj,
                            __ZN6AriSdk36ARI_IBISimPbUsimPbSelectRspCb_V1_SDKD1Ev,
                            __ZN6AriSdk36ARI_IBISimTkConfigureStkCmdRspCb_SDK6unpackEv,
                            __ZN6AriSdk36ARI_IBISimTkConfigureStkCmdRspCb_SDKC1EPKhj,
                            __ZN6AriSdk36ARI_IBISimTkConfigureStkCmdRspCb_SDKD1Ev,
                            __ZN6AriSdk36ARI_IBISimTkEnvelopeCommandRspCb_SDK6unpackEv,
                            __ZN6AriSdk36ARI_IBISimTkEnvelopeCommandRspCb_SDKC1EPKhj,
                            __ZN6AriSdk36ARI_IBISimTkEnvelopeCommandRspCb_SDKD1Ev,
                            __ZN6AriSdk37ARI_IBICallCsCallingNameInfoIndCb_SDK6unpackEv,
                            __ZN6AriSdk37ARI_IBICallCsCallingNameInfoIndCb_SDKC1EPKhj,
                            __ZN6AriSdk37ARI_IBICallCsCallingNameInfoIndCb_SDKD1Ev,
                            __ZN6AriSdk37ARI_IBICallPsAttachApnConfigRspCb_SDK6unpackEv,
                            __ZN6AriSdk37ARI_IBICallPsAttachApnConfigRspCb_SDKC1EPKhj,
                            __ZN6AriSdk37ARI_IBICallPsAttachApnConfigRspCb_SDKD1Ev,
                            __ZN6AriSdk37ARI_IBICallPsCriticalPsSessionReq_SDKC1Ev,
                            __ZN6AriSdk37ARI_IBICallPsCriticalPsSessionReq_SDKD1Ev,
                            __ZN6AriSdk37ARI_IBICallPsDataCallStoppedIndCb_SDK6unpackEv,
                            __ZN6AriSdk37ARI_IBICallPsDataCallStoppedIndCb_SDKC1EPKhj,
                            __ZN6AriSdk37ARI_IBICallPsDataCallStoppedIndCb_SDKD1Ev,
                            __ZN6AriSdk37ARI_IBINetConfigureNetworkModeReq_SDKC1Ev,
                            __ZN6AriSdk37ARI_IBINetConfigureNetworkModeReq_SDKD1Ev,
                            __ZN6AriSdk37ARI_IBINetGetPlmnNameInfoRspCb_V1_SDK6unpackEv,
                            __ZN6AriSdk37ARI_IBINetGetPlmnNameInfoRspCb_V1_SDKC1EPKhj,
                            __ZN6AriSdk37ARI_IBINetGetPlmnNameInfoRspCb_V1_SDKD1Ev,
                            __ZN6AriSdk37ARI_IBINetSetRadioSignalReporting_SDKC1Ev,
                            __ZN6AriSdk37ARI_IBINetSetRadioSignalReporting_SDKD1Ev,
                            __ZN6AriSdk37ARI_IBISimFileGetCdmaAuxInfoRspCb_SDK6unpackEv,
                            __ZN6AriSdk37ARI_IBISimFileGetCdmaAuxInfoRspCb_SDKC1EPKhj,
                            __ZN6AriSdk37ARI_IBISimFileGetCdmaAuxInfoRspCb_SDKD1Ev,
                            __ZN6AriSdk37ARI_IBISimTkSetRequiredFcnListReq_SDKC1Ev,
                            __ZN6AriSdk37ARI_IBISimTkSetRequiredFcnListReq_SDKD1Ev,
                            __ZN6AriSdk37ARI_IBISmsDeliverySessionStatusCb_SDK6unpackEv,
                            __ZN6AriSdk37ARI_IBISmsDeliverySessionStatusCb_SDKC1EPKhj,
                            __ZN6AriSdk37ARI_IBISmsDeliverySessionStatusCb_SDKD1Ev,
                            __ZN6AriSdk38ARI_CsiIceAudSetAudioLoggingRespCb_SDK6unpackEv,
                            __ZN6AriSdk38ARI_CsiIceAudSetAudioLoggingRespCb_SDKC1EPKhj,
                            __ZN6AriSdk38ARI_CsiIceAudSetAudioLoggingRespCb_SDKD1Ev,
                            __ZN6AriSdk38ARI_CsiIceSecActivationRegisterReq_SDKC1Ev,
                            __ZN6AriSdk38ARI_CsiIceSecActivationRegisterReq_SDKD1Ev,
                            __ZN6AriSdk38ARI_IBICallCsSetTtyDeviceModeRspCb_SDK6unpackEv,
                            __ZN6AriSdk38ARI_IBICallCsSetTtyDeviceModeRspCb_SDKC1EPKhj,
                            __ZN6AriSdk38ARI_IBICallCsSetTtyDeviceModeRspCb_SDKD1Ev,
                            __ZN6AriSdk38ARI_IBICallPsDataTransferTimeRspCb_SDK6unpackEv,
                            __ZN6AriSdk38ARI_IBICallPsDataTransferTimeRspCb_SDKC1EPKhj,
                            __ZN6AriSdk38ARI_IBICallPsDataTransferTimeRspCb_SDKD1Ev,
                            __ZN6AriSdk38ARI_IBICallPsLTEAttachApnConfigReq_SDKC1Ev,
                            __ZN6AriSdk38ARI_IBICallPsLTEAttachApnConfigReq_SDKD1Ev,
                            __ZN6AriSdk38ARI_IBICallPsTrafficClassInfoRspCb_SDK6unpackEv,
                            __ZN6AriSdk38ARI_IBICallPsTrafficClassInfoRspCb_SDKC1EPKhj,
                            __ZN6AriSdk38ARI_IBICallPsTrafficClassInfoRspCb_SDKD1Ev,
                            __ZN6AriSdk38ARI_IBINetEmergencyCellSearchRspCb_SDK6unpackEv,
                            __ZN6AriSdk38ARI_IBINetEmergencyCellSearchRspCb_SDKC1EPKhj,
                            __ZN6AriSdk38ARI_IBINetEmergencyCellSearchRspCb_SDKD1Ev,
                            __ZN6AriSdk38ARI_IBINetGetRegistrationInfoRspCb_SDK6unpackEv,
                            __ZN6AriSdk38ARI_IBINetGetRegistrationInfoRspCb_SDKC1EPKhj,
                            __ZN6AriSdk38ARI_IBINetGetRegistrationInfoRspCb_SDKD1Ev,
                            __ZN6AriSdk38ARI_IBISendPreferredPlmnVersionReq_SDKC1Ev,
                            __ZN6AriSdk38ARI_IBISendPreferredPlmnVersionReq_SDKD1Ev,
                            __ZN6AriSdk38ARI_IBISimGetFullAccessStatusRspCb_SDK6unpackEv,
                            __ZN6AriSdk38ARI_IBISimGetFullAccessStatusRspCb_SDKC1EPKhj,
                            __ZN6AriSdk38ARI_IBISimGetFullAccessStatusRspCb_SDKD1Ev,
                            __ZN6AriSdk39ARI_CsiIceSecActivationTicketSetReq_SDKC1Ev,
                            __ZN6AriSdk39ARI_CsiIceSecActivationTicketSetReq_SDKD1Ev,
                            __ZN6AriSdk39ARI_IBICallPsCriticalPsSessionRspCb_SDK6unpackEv,
                            __ZN6AriSdk39ARI_IBICallPsCriticalPsSessionRspCb_SDKC1EPKhj,
                            __ZN6AriSdk39ARI_IBICallPsCriticalPsSessionRspCb_SDKD1Ev,
                            __ZN6AriSdk39ARI_IBICallPsSetKeepaliveOffloadReq_SDKC1Ev,
                            __ZN6AriSdk39ARI_IBICallPsSetKeepaliveOffloadReq_SDKD1Ev,
                            __ZN6AriSdk39ARI_IBINetConfigureNetworkModeRspCb_SDK6unpackEv,
                            __ZN6AriSdk39ARI_IBINetConfigureNetworkModeRspCb_SDKC1EPKhj,
                            __ZN6AriSdk39ARI_IBINetConfigureNetworkModeRspCb_SDKD1Ev,
                            __ZN6AriSdk39ARI_IBISimTkSetRequiredFcnListRspCb_SDK6unpackEv,
                            __ZN6AriSdk39ARI_IBISimTkSetRequiredFcnListRspCb_SDKC1EPKhj,
                            __ZN6AriSdk39ARI_IBISimTkSetRequiredFcnListRspCb_SDKD1Ev,
                            __ZN6AriSdk39ARI_IBISmsConfirmSmsDataDownloadAck_SDKC1Ev,
                            __ZN6AriSdk39ARI_IBISmsConfirmSmsDataDownloadAck_SDKD1Ev,
                            __ZN6AriSdk39ARI_IBISmsSetSendMoreMessagesStatus_SDKC1Ev,
                            __ZN6AriSdk39ARI_IBISmsSetSendMoreMessagesStatus_SDKD1Ev,
                            __ZN6AriSdk40ARI_CsiIceSecActivationRegisterIndCb_SDK6unpackEv,
                            __ZN6AriSdk40ARI_CsiIceSecActivationRegisterIndCb_SDKC1EPKhj,
                            __ZN6AriSdk40ARI_CsiIceSecActivationRegisterIndCb_SDKD1Ev,
                            __ZN6AriSdk40ARI_IBICallCsVoimsSessionTransferReq_SDKC1Ev,
                            __ZN6AriSdk40ARI_IBICallCsVoimsSessionTransferReq_SDKD1Ev,
                            __ZN6AriSdk40ARI_IBICallCsVoimsSrvccHoStatusIndCb_SDK6unpackEv,
                            __ZN6AriSdk40ARI_IBICallCsVoimsSrvccHoStatusIndCb_SDKC1EPKhj,
                            __ZN6AriSdk40ARI_IBICallCsVoimsSrvccHoStatusIndCb_SDKD1Ev,
                            __ZN6AriSdk40ARI_IBINetIceCellularSwitchStatusReq_SDKC1Ev,
                            __ZN6AriSdk40ARI_IBINetIceCellularSwitchStatusReq_SDKD1Ev,
                            __ZN6AriSdk40ARI_IBINetRegisteredPlmnNameIndCb_V1_SDK6unpackEv,
                            __ZN6AriSdk40ARI_IBINetRegisteredPlmnNameIndCb_V1_SDKC1EPKhj,
                            __ZN6AriSdk40ARI_IBINetRegisteredPlmnNameIndCb_V1_SDKD1Ev,
                            __ZN6AriSdk40ARI_IBISendPreferredPlmnVersionRspCb_SDK6unpackEv,
                            __ZN6AriSdk40ARI_IBISendPreferredPlmnVersionRspCb_SDKC1EPKhj,
                            __ZN6AriSdk40ARI_IBISendPreferredPlmnVersionRspCb_SDKD1Ev,
                            __ZN6AriSdk40ARI_IBISimPbGetMetaInformationReq_V1_SDKC1Ev,
                            __ZN6AriSdk40ARI_IBISimPbGetMetaInformationReq_V1_SDKD1Ev,
                            __ZN6AriSdk41ARI_CsiIceSecActivationRegisterRespCb_SDK6unpackEv,
                            __ZN6AriSdk41ARI_CsiIceSecActivationRegisterRespCb_SDKC1EPKhj,
                            __ZN6AriSdk41ARI_CsiIceSecActivationRegisterRespCb_SDKD1Ev,
                            __ZN6AriSdk41ARI_IBICallPsSetKeepaliveOffloadRspCb_SDK6unpackEv,
                            __ZN6AriSdk41ARI_IBICallPsSetKeepaliveOffloadRspCb_SDKC1EPKhj,
                            __ZN6AriSdk41ARI_IBICallPsSetKeepaliveOffloadRspCb_SDKD1Ev,
                            __ZN6AriSdk41ARI_IBICallPsWiFiAssociationStatusReq_SDKC1Ev,
                            __ZN6AriSdk41ARI_IBICallPsWiFiAssociationStatusReq_SDKD1Ev,
                            __ZN6AriSdk42ARI_CsiIceSecActivationTicketSetRespCb_SDK6unpackEv,
                            __ZN6AriSdk42ARI_CsiIceSecActivationTicketSetRespCb_SDKC1EPKhj,
                            __ZN6AriSdk42ARI_CsiIceSecActivationTicketSetRespCb_SDKD1Ev,
                            __ZN6AriSdk42ARI_IBICallCsVoimsSessionTransferRspCb_SDK6unpackEv,
                            __ZN6AriSdk42ARI_IBICallCsVoimsSessionTransferRspCb_SDKC1EPKhj,
                            __ZN6AriSdk42ARI_IBICallCsVoimsSessionTransferRspCb_SDKD1Ev,
                            __ZN6AriSdk42ARI_IBINetDcImsProvideImsRegStatusInfo_SDKC1Ev,
                            __ZN6AriSdk42ARI_IBINetDcImsProvideImsRegStatusInfo_SDKD1Ev,
                            __ZN6AriSdk42ARI_IBINetIceCellularSwitchStatusRspCb_SDK6unpackEv,
                            __ZN6AriSdk42ARI_IBINetIceCellularSwitchStatusRspCb_SDKC1EPKhj,
                            __ZN6AriSdk42ARI_IBINetIceCellularSwitchStatusRspCb_SDKD1Ev,
                            __ZN6AriSdk42ARI_IBISimPbGetMetaInformationIndCb_V1_SDK6unpackEv,
                            __ZN6AriSdk42ARI_IBISimPbGetMetaInformationIndCb_V1_SDKC1EPKhj,
                            __ZN6AriSdk42ARI_IBISimPbGetMetaInformationIndCb_V1_SDKD1Ev,
                            __ZN6AriSdk42ARI_IBISimPbGetMetaInformationRspCb_V1_SDK6unpackEv,
                            __ZN6AriSdk42ARI_IBISimPbGetMetaInformationRspCb_V1_SDKC1EPKhj,
                            __ZN6AriSdk42ARI_IBISimPbGetMetaInformationRspCb_V1_SDKD1Ev,
                            __ZN6AriSdk43ARI_IBICallPsWiFiAssociationStatusRspCb_SDK6unpackEv,
                            __ZN6AriSdk43ARI_IBICallPsWiFiAssociationStatusRspCb_SDKC1EPKhj,
                            __ZN6AriSdk43ARI_IBICallPsWiFiAssociationStatusRspCb_SDKD1Ev,
                            __ZN6AriSdk43ARI_IBINetDcImsProvideImsRegStatusRspCb_SDK6unpackEv,
                            __ZN6AriSdk43ARI_IBINetDcImsProvideImsRegStatusRspCb_SDKC1EPKhj,
                            __ZN6AriSdk43ARI_IBINetDcImsProvideImsRegStatusRspCb_SDKD1Ev,
                            __ZN6AriSdk44ARI_IBICallPsIPV6AddrFormationSuccessReq_SDKC1Ev,
                            __ZN6AriSdk44ARI_IBICallPsIPV6AddrFormationSuccessReq_SDKD1Ev,
                            __ZN6AriSdk44ARI_IBINetNetworkFeatureSupportInfoIndCb_SDK6unpackEv,
                            __ZN6AriSdk44ARI_IBINetNetworkFeatureSupportInfoIndCb_SDKC1EPKhj,
                            __ZN6AriSdk44ARI_IBINetNetworkFeatureSupportInfoIndCb_SDKD1Ev,
                            __ZN6AriSdk45ARI_IBICallPsAllowMultiplePDNToSameApnReq_SDKC1Ev,
                            __ZN6AriSdk45ARI_IBICallPsAllowMultiplePDNToSameApnReq_SDKD1Ev,
                            __ZN6AriSdk45ARI_IBINetSetSystemSelectionPreferenceReq_SDKC1Ev,
                            __ZN6AriSdk45ARI_IBINetSetSystemSelectionPreferenceReq_SDKD1Ev,
                            __ZN6AriSdk46ARI_IBICallPsIPV6AddrFormationSuccessRspCb_SDK6unpackEv,
                            __ZN6AriSdk46ARI_IBICallPsIPV6AddrFormationSuccessRspCb_SDKC1EPKhj,
                            __ZN6AriSdk46ARI_IBICallPsIPV6AddrFormationSuccessRspCb_SDKD1Ev,
                            __ZN6AriSdk47ARI_IBICallPsAllowMultiplePDNToSameApnRspCb_SDK6unpackEv,
                            __ZN6AriSdk47ARI_IBICallPsAllowMultiplePDNToSameApnRspCb_SDKC1EPKhj,
                            __ZN6AriSdk47ARI_IBICallPsAllowMultiplePDNToSameApnRspCb_SDKD1Ev,
                            __ZN6AriSdk47ARI_IBINetSetSystemSelectionPreferenceRspCb_SDK6unpackEv,
                            __ZN6AriSdk47ARI_IBINetSetSystemSelectionPreferenceRspCb_SDKC1EPKhj,
                            __ZN6AriSdk47ARI_IBINetSetSystemSelectionPreferenceRspCb_SDKD1Ev,
                            __ZN6AriSdk47ARI_IBINetSingleShotRadioSignalReportingReq_SDKC1Ev,
                            __ZN6AriSdk47ARI_IBINetSingleShotRadioSignalReportingReq_SDKD1Ev,
                            __ZN6AriSdk49ARI_IBINetDcSetVoiceDomainPreferenceConfigReq_SDKC1Ev,
                            __ZN6AriSdk49ARI_IBINetDcSetVoiceDomainPreferenceConfigReq_SDKD1Ev,
                            __ZN6AriSdk49ARI_IBINetSingleShotRadioSignalReportingRspCb_SDK6unpackEv,
                            __ZN6AriSdk49ARI_IBINetSingleShotRadioSignalReportingRspCb_SDKC1EPKhj,
                            __ZN6AriSdk49ARI_IBINetSingleShotRadioSignalReportingRspCb_SDKD1Ev,
                            __ZN6AriSdk50ARI_IBINetSetRadioSignalReportingConfiguration_SDKC1Ev,
                            __ZN6AriSdk50ARI_IBINetSetRadioSignalReportingConfiguration_SDKD1Ev,
                            __ZN6AriSdk51ARI_IBINetDcSetVoiceDomainPreferenceConfigRspCb_SDK6unpackEv,
                            __ZN6AriSdk51ARI_IBINetDcSetVoiceDomainPreferenceConfigRspCb_SDKC1EPKhj,
                            __ZN6AriSdk51ARI_IBINetDcSetVoiceDomainPreferenceConfigRspCb_SDKD1Ev,
                            __ZN6AriSdk53ARI_IBICallCsEmergencyCallIntermediateStatusIndCb_SDK6unpackEv,
                            __ZN6AriSdk53ARI_IBICallCsEmergencyCallIntermediateStatusIndCb_SDKC1EPKhj,
                            __ZN6AriSdk53ARI_IBICallCsEmergencyCallIntermediateStatusIndCb_SDKD1Ev,
                            __ZN6AriSdk7MsgBase11getRawBytesERNSt3__110shared_ptrIKNS1_6vectorIhNS1_9allocatorIhEEEEEE,
                            __ZN6AriSdk7MsgBase4sendEiU13block_pointerFiPhjE,
                            __ZN6SendSSD1Ev,
                            __ZN6detail18createOsLogLoggersERKNSt3__110shared_ptrIK8RegistryEERKNS0_8functionIFKPKcN10subscriber7SimSlotEEEE,
                            __ZN6detail23createLoggerBaseLoggersERKNSt3__110shared_ptrIK8RegistryEERKNS0_8functionIFKPKcN10subscriber7SimSlotEEEE,
                            __ZN6detail23createUnknownLoggerBaseERKNSt3__110shared_ptrIK8RegistryEERKNS0_8functionIFKPKcN10subscriber7SimSlotEEEE,
                            __ZN6detail24createUnknownOsLogLoggerERKNSt3__18functionIFKPKcN10subscriber7SimSlotEEEE,
                            __ZN7AriHost13RegIndicationEjiU13block_pointerFiPhjE,
                            __ZN7AriHost14RegisterClientEPKcPiP16dispatch_queue_sj,
                            __ZN7AriHost14SetMsgWakeableEjbiNSt3__18functionIFviEEE,
                            __ZN7AriHost15DeregIndicationEji,
                            __ZN7AriHost16DeregisterClientEi,
                            __ZN7AriHost17SetRTEventHandlerEiNS_13ClientRTEventEU13block_pointerFiP16dispatch_group_sE,
                            __ZN7AriHost7ExitTrxEib,
                            __ZN8CallInfo14kDefaultCallIdE, __ZN8GetInkeyD1Ev,
                            __ZN8GetInputD1Ev, __ZN8PlayToneD1Ev,
                            __ZN8SendDTMFD1Ev, __ZN8SendDataD1Ev,
                            __ZN8SendUSSDD1Ev,
                            __ZN9CSILoggerC1ERKN3ctu12OsLogContextE,
                            __ZN9CSILoggerD1Ev,
                            __ZN9DataUtils18getDataContextNameEN10subscriber7SimSlotEPKci,
                            __ZN9MCCAndMNCC1ERK3MCCRK3MNC,
                            __ZN9MCCAndMNCC1ERKNSt3__112basic_stringIcNS0_11char_traitsIcEENS0_9allocatorIcEEEE,
                            __ZN9MCCAndMNCC1Ett, __ZN9ModelBaseD2Ev,
                            __ZN9SetupMenuD1Ev,
                            __ZNK10subscriber16SimCommandDriver15allowSimRefreshEv,
                            __ZNK10subscriber16SimCommandDriver17sendSimDriverInfoERKNSt3__16vectorINS_13SimDriverInfoENS1_9allocatorIS3_EEEE,
                            __ZNK10subscriber16SimCommandDriver28markAllowedToReadCDMAAuxInfoENS_7SimSlotEb,
                            __ZNK10subscriber16SimCommandDriver7getNameEv,
                            __ZNK14CSIPhoneNumber13getBaseNumberEv,
                            __ZNK14CSIPhoneNumber13getFullNumberEv,
                            __ZNK14CSIPhoneNumber16getTypeOfAddressEv,
                            __ZNK15ATCommandDriver7getNameEv,
                            __ZNK16CSIPacketAddress11isLinkLocalEv,
                            __ZNK16CSIPacketAddress12getPrefixLenEv,
                            __ZNK16CSIPacketAddress12maskToPrefixEv,
                            __ZNK16CSIPacketAddress13toLocalLinkIdEv,
                            __ZNK16CSIPacketAddress6toIPv6EPhm,
                            __ZNK16CSIPacketAddress8isZeroIPEv,
                            __ZNK16CSIPacketAddresscvNSt3__112basic_stringIcNS0_11char_traitsIcEENS0_9allocatorIcEEEEEv,
                            __ZNK16CSIPacketAddresseqERKS_,
                            __ZNK17CallCommandDriver16isOTASPSupportedEv,
                            __ZNK17CallCommandDriver20selectCallPreferenceERK16PhoneCallSubTypeN10subscriber7SimSlotE,
                            __ZNK17CallCommandDriver34carrierSupportsCallingTimewithFWIMEN10subscriber7SimSlotE,
                            __ZNK17CallCommandDriver7getNameEv,
                            __ZNK17CallCommandDriver9dumpStateEv,
                            __ZNK18VinylCommandDriver10flush_syncEv,
                            __ZNK18VinylCommandDriver22sendReadyCallback_syncE16VinylDriverReadyN5boost8optionalIN10subscriber7SimSlotEEE,
                            __ZNK19CSISMSCommandDriver20handleSmsSendTimeoutENSt3__110shared_ptrIN3sms5ModelEEE,
                            __ZNK19CSISMSCommandDriver7getNameEv,
                            __ZNK19NetworkListOperator16getCompositeNameEv,
                            __ZNK19NetworkListOperator6getMCCEv,
                            __ZNK19NetworkListOperator6getMNCEv,
                            __ZNK21CommandDriversFactory33createDownLinkFilterCommandDriverEN8dispatch5queueEN10subscriber7SimSlotE18DataProtocolFamilyiNSt3__18weak_ptrIN8dormancy29DormancyCommandDriverObserverEEE,
                            __ZNK21DataBBResetThrottling10toThrottleEv,
                            __ZNK22BasebandSettingsDriver22getFileTransferTimeoutEv,
                            __ZNK22BasebandSettingsDriver25getSegmentTransferTimeoutEv,
                            __ZNK23PersonalitySpecificImpl13personalityIdEv,
                            __ZNK23PersonalitySpecificImpl15personalityInfoEv,
                            __ZNK23PersonalitySpecificImpl7simSlotEv,
                            __ZNK24NetworkListCommandDriver30getScanRequestTimeoutInSecondsEv,
                            __ZNK24NetworkListCommandDriver9dumpStateEv,
                            __ZNK25InterfaceAppMapperService10getMappingEv,
                            __ZNK25InterfaceAppMapperService19getInterfaceMappingEj,
                            __ZNK25SuppServicesCommandDriver31supportsCallWaitingServiceClassEN10subscriber7SimSlotE,
                            __ZNK28BBDataContextDriverInterface11getObserverEv,
                            __ZNK30PreferredNetworksCommandDriver9isImsiSetEv,
                            __ZNK33DataSubscriptionBaseCommandDriver9dumpStateEv,
                            __ZNK3MCC11getIntValueEv,
                            __ZNK3MCC14getStringValueEv, __ZNK3MCC5validEv,
                            __ZNK3MNC12isThreeDigitEv,
                            __ZNK3MNC15getIntegerWidthEv,
                            __ZNK3awd10AppContext13submitTriggerENS_10MetricInfoEy,
                            __ZNK3awd10AppContext14getAppSettingsEv,
                            __ZNK3awd10AppContext19postResultToHandlerEN8dispatch5blockIU13block_pointerFvbEEEb,
                            __ZNK3awd10AppContext19submitMetricPayloadENS_10MetricInfoEjNSt3__16vectorIhNS2_9allocatorIhEEEE,
                            __ZNK3awd10AppContext21updateAppSettingsUsedENS_10MetricInfoENS_15AppSettingsUsedE,
                            __ZNK3awd10AppContext28markMetricSubmissionCompleteENS_10MetricInfoEt,
                            __ZNK3awd10AppContext8getAppIDEv,
                            __ZNK3awd16AwdCommandDriver19broadcastState_syncENS_11ClientStateE,
                            __ZNK3awd16AwdCommandDriver7getNameEv,
                            __ZNK3ctu10LoggerBaseINSt3__110shared_ptrINS_9LogServerEEEE7enabledENS_8LogLevelE,
                            __ZNK3ctu10MallocZone4freeEPv,
                            __ZNK3ctu10RestModule10disconnectEv,
                            __ZNK3ctu10RestModule11setPropertyENSt3__112basic_stringIcNS1_11char_traitsIcEENS1_9allocatorIcEEEEN3xpc6objectE,
                            __ZNK3ctu10RestModule12observeEventENSt3__112basic_stringIcNS1_11char_traitsIcEENS1_9allocatorIcEEEEONS1_8functionIFvN3xpc6objectEEEE,
                            __ZNK3ctu10RestModule15observePropertyENSt3__112basic_stringIcNS1_11char_traitsIcEENS1_9allocatorIcEEEEONS1_8functionIFvN3xpc6objectEEEE,
                            __ZNK3ctu10RestModule7connectENSt3__110shared_ptrINS_4rest21RestDispatchConnectorEEE,
                            __ZNK3ctu10RestModule9sendEventENSt3__112basic_stringIcNS1_11char_traitsIcEENS1_9allocatorIcEEEEN3xpc6objectE,
                            __ZNK3ctu12TimerService19throwIfPeriodIsZeroERKNSt3__15tupleIJNS_8TimeTypeENS1_6chrono8durationIxNS1_5ratioILl1ELl1000000EEEEEEEE,
                            __ZNK3ctu16LoggerCommonBase12getLogDomainEv,
                            __ZNK3ctu16LoggerCommonBase16getLocalLogLevelEv,
                            __ZNK3ctu2cf11map_adapter6getIntEPK10__CFStringi,
                            __ZNK3ctu2cf11map_adapter7getBoolEPK10__CFStringb,
                            __ZNK3ctu2cf11map_adapter9getStringEPK10__CFStringRKNSt3__112basic_stringIcNS5_11char_traitsIcEENS5_9allocatorIcEEEE,
                            __ZNK3sms5Model12getMessageIDEv,
                            __ZNK3xpc6object9to_stringEv,
                            __ZNK6AriMsg6unpackEjPvmPbPm, __ZNK6AriMsg7isValidEj,
                            __ZNK6AriSdk7MsgBase7getGMIDEv,
                            __ZNK8CallInfo24getCCDisconnectErrorCodeEv,
                            __ZNK8CallInfocvbEv, __ZNK8Registry12getLogServerEv,
                            __ZNK8Registry13getServiceMapEv,
                            __ZNK8Registry15getTimerServiceEv,
                            __ZNK8Registry19getRadioPersonalityEv,
                            __ZNK8Registry24createXpcJetsamAssertionENSt3__112basic_stringIcNS0_11char_traitsIcEENS0_9allocatorIcEEEENS0_6chrono8durationIxNS0_5ratioILl1ELl1EEEEE,
                            __ZNK8Registry36createRestModuleOneTimeUseConnectionEv,
                            __ZNK9MCCAndMNC6getMccEv, __ZNK9MCCAndMNC6getMncEv,
                            __ZNK9MCCAndMNCltERKS_,
                            __ZNKSt13runtime_error4whatEv,
                            __ZNKSt3__112basic_stringIcNS_11char_traitsIcEENS_9allocatorIcEEE7compareEPKc,
                            __ZNKSt3__112basic_stringIcNS_11char_traitsIcEENS_9allocatorIcEEE7compareEmmPKc,
                            __ZNKSt3__119__shared_weak_count13__get_deleterERKSt9type_info,
                            __ZNKSt3__120__vector_base_commonILb1EE20__throw_length_errorEv,
                            __ZNKSt3__120__vector_base_commonILb1EE20__throw_out_of_rangeEv,
                            __ZNKSt3__121__basic_string_commonILb1EE20__throw_length_errorEv,
                            __ZNKSt3__16locale9use_facetERNS0_2idE,
                            __ZNKSt3__18ios_base6getlocEv,
                            __ZNKSt9exception4whatEv, __ZNSt11logic_errorC2EPKc,
                            __ZNSt12length_errorD1Ev, __ZNSt12out_of_rangeD1Ev,
                            __ZNSt13runtime_errorC2EPKc,
                            __ZNSt13runtime_errorC2ERKS_,
                            __ZNSt13runtime_errorD2Ev,
                            __ZNSt19bad_optional_accessD1Ev,
                            __ZNSt3__112__next_primeEm,
                            __ZNSt3__112bad_weak_ptrD1Ev,
                            __ZNSt3__112basic_stringIcNS_11char_traitsIcEENS_9allocatorIcEEE5eraseEmm,
                            __ZNSt3__112basic_stringIcNS_11char_traitsIcEENS_9allocatorIcEEE6appendEPKc,
                            __ZNSt3__112basic_stringIcNS_11char_traitsIcEENS_9allocatorIcEEE6appendEPKcm,
                            __ZNSt3__112basic_stringIcNS_11char_traitsIcEENS_9allocatorIcEEE6assignEPKc,
                            __ZNSt3__112basic_stringIcNS_11char_traitsIcEENS_9allocatorIcEEE6assignEPKcm,
                            __ZNSt3__112basic_stringIcNS_11char_traitsIcEENS_9allocatorIcEEE6resizeEmc,
                            __ZNSt3__112basic_stringIcNS_11char_traitsIcEENS_9allocatorIcEEE9__grow_byEmmmmmm,
                            __ZNSt3__112basic_stringIcNS_11char_traitsIcEENS_9allocatorIcEEE9push_backEc,
                            __ZNSt3__112basic_stringIcNS_11char_traitsIcEENS_9allocatorIcEEEC1ERKS5_,
                            __ZNSt3__112basic_stringIcNS_11char_traitsIcEENS_9allocatorIcEEEaSERKS5_,
                            __ZNSt3__113basic_istreamIcNS_11char_traitsIcEEE5seekgExNS_8ios_base7seekdirE,
                            __ZNSt3__113basic_istreamIcNS_11char_traitsIcEEE5tellgEv,
                            __ZNSt3__113basic_istreamIcNS_11char_traitsIcEEED0Ev,
                            __ZNSt3__113basic_istreamIcNS_11char_traitsIcEEED1Ev,
                            __ZNSt3__113basic_ostreamIcNS_11char_traitsIcEEE3putEc,
                            __ZNSt3__113basic_ostreamIcNS_11char_traitsIcEEE5flushEv,
                            __ZNSt3__113basic_ostreamIcNS_11char_traitsIcEEE6sentryC1ERS3_,
                            __ZNSt3__113basic_ostreamIcNS_11char_traitsIcEEE6sentryD1Ev,
                            __ZNSt3__113basic_ostreamIcNS_11char_traitsIcEEED0Ev,
                            __ZNSt3__113basic_ostreamIcNS_11char_traitsIcEEED1Ev,
                            __ZNSt3__113basic_ostreamIcNS_11char_traitsIcEEED2Ev,
                            __ZNSt3__113basic_ostreamIcNS_11char_traitsIcEEElsEb,
                            __ZNSt3__113basic_ostreamIcNS_11char_traitsIcEEElsEi,
                            __ZNSt3__114basic_iostreamIcNS_11char_traitsIcEEED0Ev,
                            __ZNSt3__114basic_iostreamIcNS_11char_traitsIcEEED1Ev,
                            __ZNSt3__114basic_iostreamIcNS_11char_traitsIcEEED2Ev,
                            __ZNSt3__115basic_streambufIcNS_11char_traitsIcEEE4syncEv,
                            __ZNSt3__115basic_streambufIcNS_11char_traitsIcEEE5imbueERKNS_6localeE,
                            __ZNSt3__115basic_streambufIcNS_11char_traitsIcEEE5uflowEv,
                            __ZNSt3__115basic_streambufIcNS_11char_traitsIcEEE6setbufEPcl,
                            __ZNSt3__115basic_streambufIcNS_11char_traitsIcEEE6xsgetnEPcl,
                            __ZNSt3__115basic_streambufIcNS_11char_traitsIcEEE6xsputnEPKcl,
                            __ZNSt3__115basic_streambufIcNS_11char_traitsIcEEE9showmanycEv,
                            __ZNSt3__115basic_streambufIcNS_11char_traitsIcEEEC2Ev,
                            __ZNSt3__115basic_streambufIcNS_11char_traitsIcEEED2Ev,
                            __ZNSt3__118condition_variable15__do_timed_waitERNS_11unique_lockINS_5mutexEEENS_6chrono10time_pointINS5_12system_clockENS5_8durationIxNS_5ratioILl1ELl1000000000EEEEEEE,
                            __ZNSt3__119__shared_weak_count14__release_weakEv,
                            __ZNSt3__119__shared_weak_count4lockEv,
                            __ZNSt3__119__shared_weak_countD2Ev,
                            __ZNSt3__15ctypeIcE2idE, __ZNSt3__15mutex4lockEv,
                            __ZNSt3__15mutex6unlockEv,
                            __ZNSt3__16chrono12steady_clock3nowEv,
                            __ZNSt3__16chrono12system_clock3nowEv,
                            __ZNSt3__16futureIvED1Ev, __ZNSt3__16localeD1Ev,
                            __ZNSt3__17promiseIvE10get_futureEv,
                            __ZNSt3__17promiseIvE9set_valueEv,
                            __ZNSt3__17promiseIvEC1Ev, __ZNSt3__17promiseIvED1Ev,
                            __ZNSt3__18ios_base33__set_badbit_and_consider_rethrowEv,
                            __ZNSt3__18ios_base4initEPv,
                            __ZNSt3__18ios_base5clearEj,
                            __ZNSt3__19basic_iosIcNS_11char_traitsIcEEED2Ev,
                            __ZNSt3__19to_stringEi, __ZNSt3__19to_stringEj,
                            __ZNSt9exceptionD2Ev, __ZSt9terminatev,
                            __ZTI12OTASPService, __ZTI15ATCommandDriver,
                            __ZTI15CallAudioDriver, __ZTI16DMSCommandDriver,
                            __ZTI16P2PCommandDriver, __ZTI17CallCommandDriver,
                            __ZTI17STK_CommandDriver, __ZTI17SettingsInterface,
                            __ZTI18AudioCommandDriver, __ZTI18VinylCommandDriver,
                            __ZTI19CSISMSCommandDriver,
                            __ZTI20DesenseCommandDriver,
                            __ZTI21CommandDriversFactory,
                            __ZTI21DormancyCommandDriver,
                            __ZTI21RegistrationInterface,
                            __ZTI22AttachApnCommandDriver,
                            __ZTI22BasebandSettingsDriver,
                            __ZTI22CarrierBundleInterface,
                            __ZTI22PhonebookCommandDriver,
                            __ZTI23ActivationCommandDriver,
                            __ZTI23PersonalitySpecificImpl,
                            __ZTI24CarrierSettingsInterface,
                            __ZTI24CellMonitorCommandDriver,
                            __ZTI24EnhancedLQMCommandDriver,
                            __ZTI24NetworkListCommandDriver,
                            __ZTI25AudioRoutingCommandDriver,
                            __ZTI25BasebandSettingsInterface,
                            __ZTI25CDMASettingsCommandDriver,
                            __ZTI25NetworkRegistrationDriver,
                            __ZTI25SuppServicesCommandDriver,
                            __ZTI25WiFiSettingsCommandDriver,
                            __ZTI26BBDataFactoryCommandDriver,
                            __ZTI26DisallowedNumbersInterface,
                            __ZTI27SignalStrengthCommandDriver,
                            __ZTI28BBDataCommandDriverInterface,
                            __ZTI28BBDataContextDriverInterface,
                            __ZTI29AttachApnCommandDriverFactory,
                            __ZTI30PreferredNetworksCommandDriver,
                            __ZTI31BBDataCommandDriverEventHandler,
                            __ZTI33DataSubscriptionBaseCommandDriver,
                            __ZTI42PreferredNetworksCommandDriverEventHandler,
                            __ZTI9ModelBase,
                            __ZTIN10subscriber16SimCommandDriverE,
                            __ZTIN3awd16AwdCommandDriverE,
                            __ZTIN3ctu13TrackedLoggerE,
                            __ZTIN3ctu16LoggerCommonBaseE,
                            __ZTIN6AriSdk33ARI_CsiIceAudVocoderInfoIndCb_SDKE,
                            __ZTIN6AriSdk34ARI_CsiIceAudVocoderInfoRespCb_SDKE,
                            __ZTIN6AriSdk7MsgBaseE, __ZTINSt3__112bad_weak_ptrE,
                            __ZTINSt3__113basic_istreamIcNS_11char_traitsIcEEEE,
                            __ZTINSt3__113basic_ostreamIcNS_11char_traitsIcEEEE,
                            __ZTINSt3__114basic_iostreamIcNS_11char_traitsIcEEEE,
                            __ZTINSt3__115basic_streambufIcNS_11char_traitsIcEEEE,
                            __ZTINSt3__119__shared_weak_countE,
                            __ZTISt13runtime_error, __ZTISt19bad_optional_access,
                            __ZTISt9exception, __ZTV10SelectItem,
                            __ZTV11DisplayText, __ZTV11OpenChannel,
                            __ZTV11ReceiveData, __ZTV12CloseChannel,
                            __ZTV12RefreshAlpha, __ZTV13PDPMetricInfo,
                            __ZTV13SetupIdleText, __ZTV16SendShortMessage,
                            __ZTV17STK_CommandDriver, __ZTV19PersonalitySpecific,
                            __ZTV20LanguageNotification,
                            __ZTV21SetupCallAlphaDisplay,
                            __ZTV22SetupEventIMSRegNotify,
                            __ZTV22SetupEventUserActivity,
                            __ZTV24ProvideLocalInfoLanguage,
                            __ZTV25CDMASettingsCommandDriver,
                            __ZTV25SetupCallUserConfirmation,
                            __ZTV26BBDataFactoryCommandDriver,
                            __ZTV26SetupEventIdleScreenNotify,
                            __ZTV27SignalStrengthCommandDriver,
                            __ZTV29AttachApnCommandDriverFactory,
                            __ZTV30SetupEventLanguageSelectNotify,
                            __ZTV42PreferredNetworksCommandDriverEventHandler,
                            __ZTV4None, __ZTV6SendSS, __ZTV8GetInkey, __ZTV8GetInput,
                            __ZTV8PlayTone, __ZTV8SendDTMF, __ZTV8SendData,
                            __ZTV8SendUSSD, __ZTV9ModelBase, __ZTV9SetupCall,
                            __ZTV9SetupMenu,
                            __ZTVN10__cxxabiv117__class_type_infoE,
                            __ZTVN10__cxxabiv119__pointer_type_infoE,
                            __ZTVN10__cxxabiv120__function_type_infoE,
                            __ZTVN10__cxxabiv120__si_class_type_infoE,
                            __ZTVN10__cxxabiv121__vmi_class_type_infoE,
                            __ZTVNSt3__112bad_weak_ptrE, __ZTVSt12length_error,
                            __ZTVSt12out_of_range, __ZTVSt19bad_optional_access,
                            __ZThn16_NSt3__114basic_iostreamIcNS_11char_traitsIcEEED0Ev,
                            __ZThn16_NSt3__114basic_iostreamIcNS_11char_traitsIcEEED1Ev,
                            __ZTv0_n24_N28BBDataCommandDriverInterfaceD0Ev,
                            __ZTv0_n24_N28BBDataCommandDriverInterfaceD1Ev,
                            __ZTv0_n24_N28BBDataContextDriverInterfaceD0Ev,
                            __ZTv0_n24_N28BBDataContextDriverInterfaceD1Ev,
                            __ZTv0_n24_NSt3__113basic_istreamIcNS_11char_traitsIcEEED0Ev,
                            __ZTv0_n24_NSt3__113basic_istreamIcNS_11char_traitsIcEEED1Ev,
                            __ZTv0_n24_NSt3__113basic_ostreamIcNS_11char_traitsIcEEED0Ev,
                            __ZTv0_n24_NSt3__113basic_ostreamIcNS_11char_traitsIcEEED1Ev,
                            __ZTv0_n24_NSt3__114basic_iostreamIcNS_11char_traitsIcEEED0Ev,
                            __ZTv0_n24_NSt3__114basic_iostreamIcNS_11char_traitsIcEEED1Ev,
                            ___CFConstantStringClassReference,
                            ___TUAssertTrigger, ___assert_rtn,
                            ___cxa_allocate_exception, ___cxa_atexit,
                            ___cxa_bad_cast, ___cxa_begin_catch, ___cxa_end_catch,
                            ___cxa_free_exception, ___cxa_guard_acquire,
                            ___cxa_guard_release, ___cxa_pure_virtual,
                            ___cxa_rethrow, ___cxa_throw, ___dynamic_cast,
                            ___gxx_personality_v0, ___stack_chk_fail,
                            ___stack_chk_guard, __os_log_default,
                            __os_log_error_impl, __os_log_impl, __xpc_type_array,
                            __xpc_type_bool, __xpc_type_dictionary,
                            __xpc_type_int64, __xpc_type_string, __xpc_type_uint64,
                            _baseLog, _bzero, _ctConvertLteBandToMask,
                            _dispatch_async, _dispatch_async_f,
                            _dispatch_barrier_async_f, _dispatch_group_create,
                            _dispatch_group_enter, _dispatch_group_leave,
                            _dispatch_group_notify, _dispatch_release,
                            _dispatch_retain, _div, _gettimeofday, _k3GPP,
                            _kAddCallAllowedKey, _kAllowedWhileRoaming,
                            _kAmbiguousCallListKey, _kAmbiguousMultiPartyKey,
                            _kAuthPrefCHAP, _kAuthPrefPAP,
                            _kCALL_IBI_CD_LOG_DOMAIN,
                            _kCALL_IBI_OTASP_LOG_DOMAIN, _kCFAllocatorDefault,
                            _kCFBooleanFalse, _kCFBooleanTrue,
                            _kCFPreferencesAnyHost, _kCFPreferencesCurrentUser,
                            _kCFTypeArrayCallBacks,
                            _kCFTypeDictionaryKeyCallBacks,
                            _kCFTypeDictionaryValueCallBacks,
                            _kCTQualityOfServiceDestinationIP,
                            _kCTQualityOfServiceDestinationPort,
                            _kCTQualityOfServiceDropOperation,
                            _kCTQualityOfServiceFamily,
                            _kCTQualityOfServiceFamilyIPv4,
                            _kCTQualityOfServiceFamilyIPv6,
                            _kCTQualityOfServiceOffsetBytes,
                            _kCTQualityOfServicePayloadType,
                            _kCTQualityOfServiceSourceIP,
                            _kCTQualityOfServiceSourcePort,
                            _kCTQualityOfServiceTimestampValue,
                            _kCTQualityOfServiceTransactionID,
                            _kCTQualityOfServiceUniqueTag,
                            _kCallerIdDefaultValue, _kCtLoggingSystemName,
                            _kDefaultSMSCommandTimeoutMS,
                            _kEndAndAnswerAllowedKey, _kEndToneInProgressKey,
                            _kHoldAllowedKey, _kIsConferenceSideBarBlockedKey,
                            _kMaxMultiPartyCallCountKey,
                            _kMaxSupportedCallCountKey, _kMergeableKey,
                            _kSendDTMFInBursts, _kSwappableKey, _kVoicePrivacyKey,
                            _memcmp, _memcpy, _memmove, _memset, _memset_pattern16,
                            _os_log_type_enabled, _pthread_mutex_lock,
                            _pthread_mutex_unlock, _strcmp, _strlen, _strnlen, _time,
                            _xpc_array_get_count, _xpc_array_get_value,
                            _xpc_bool_create, _xpc_dictionary_get_value,
                            _xpc_get_type, _xpc_null_create, _xpc_release,
                            _xpc_retain, _xpc_string_create, dyld_stub_binder ]
...
