--- !tapi-tbd-v3
archs:                 [ armv7, armv7s, arm64, arm64e ]
platform:              ios
flags:                 [ flat_namespace ]
install-name:          /System/Library/PrivateFrameworks/CoreIndoor.framework/CoreIndoor
current-version:       0
compatibility-version: 1
objc-constraint:       retain_release
exports:
  - archs:                [ armv7, armv7s, arm64, arm64e ]
    symbols:              [ __ZN5boost10filesystem16filesystem_error14get_empty_pathEv,
                            __ZN5boost10filesystem16filesystem_errorC1EPKcNS_6system10error_codeE,
                            __ZN5boost10filesystem16filesystem_errorC1EPKcRKNS0_4pathENS_6system10error_codeE,
                            __ZN5boost10filesystem16filesystem_errorC1EPKcRKNS0_4pathES6_NS_6system10error_codeE,
                            __ZN5boost10filesystem16filesystem_errorC1ERKNSt3__112basic_stringIcNS2_11char_traitsIcEENS2_9allocatorIcEEEENS_6system10error_codeE,
                            __ZN5boost10filesystem16filesystem_errorC1ERKNSt3__112basic_stringIcNS2_11char_traitsIcEENS2_9allocatorIcEEEERKNS0_4pathENS_6system10error_codeE,
                            __ZN5boost10filesystem16filesystem_errorC1ERKNSt3__112basic_stringIcNS2_11char_traitsIcEENS2_9allocatorIcEEEERKNS0_4pathESD_NS_6system10error_codeE,
                            __ZN5boost10filesystem16filesystem_errorC1ERKS1_,
                            __ZN5boost10filesystem16filesystem_errorC2EPKcNS_6system10error_codeE,
                            __ZN5boost10filesystem16filesystem_errorC2EPKcRKNS0_4pathENS_6system10error_codeE,
                            __ZN5boost10filesystem16filesystem_errorC2EPKcRKNS0_4pathES6_NS_6system10error_codeE,
                            __ZN5boost10filesystem16filesystem_errorC2ERKNSt3__112basic_stringIcNS2_11char_traitsIcEENS2_9allocatorIcEEEENS_6system10error_codeE,
                            __ZN5boost10filesystem16filesystem_errorC2ERKNSt3__112basic_stringIcNS2_11char_traitsIcEENS2_9allocatorIcEEEERKNS0_4pathENS_6system10error_codeE,
                            __ZN5boost10filesystem16filesystem_errorC2ERKNSt3__112basic_stringIcNS2_11char_traitsIcEENS2_9allocatorIcEEEERKNS0_4pathESD_NS_6system10error_codeE,
                            __ZN5boost10filesystem16filesystem_errorC2ERKS1_,
                            __ZN5boost10filesystem16filesystem_errorD0Ev,
                            __ZN5boost10filesystem16filesystem_errorD1Ev,
                            __ZN5boost10filesystem16filesystem_errorD2Ev,
                            __ZN5boost10filesystem16filesystem_erroraSERKS1_,
                            __ZN5boost10filesystem6detail18utf8_codecvt_facet15get_octet_countEh,
                            __ZN5boost10filesystem6detail18utf8_codecvt_facet24get_cont_octet_out_countEw,
                            __ZN5boost10filesystem6detail18utf8_codecvt_facetC1Em,
                            __ZN5boost10filesystem6detail18utf8_codecvt_facetC2Em,
                            __ZN5boost10filesystem6detail18utf8_codecvt_facetD0Ev,
                            __ZN5boost10filesystem6detail18utf8_codecvt_facetD1Ev,
                            __ZN5boost10filesystem6detail18utf8_codecvt_facetD2Ev,
                            __ZNK5boost10filesystem16filesystem_error4whatEv,
                            __ZNK5boost10filesystem6detail18utf8_codecvt_facet5do_inER11__mbstate_tPKcS6_RS6_PwS8_RS8_,
                            __ZNK5boost10filesystem6detail18utf8_codecvt_facet6do_outER11__mbstate_tPKwS6_RS6_PcS8_RS8_,
                            __ZNK5boost10filesystem6detail18utf8_codecvt_facet9do_lengthER11__mbstate_tPKcS6_m,
                            __ZTIN5boost10filesystem16filesystem_errorE,
                            __ZTIN5boost10filesystem6detail18utf8_codecvt_facetE,
                            __ZTSN5boost10filesystem16filesystem_errorE,
                            __ZTSN5boost10filesystem6detail18utf8_codecvt_facetE,
                            __ZTVN5boost10filesystem16filesystem_errorE,
                            __ZTVN5boost10filesystem6detail18utf8_codecvt_facetE ]
    objc-classes:         [ CLAvailabilityTileParser,
                            CLAvailableVenuesStateMachine, CLGpsPosition,
                            CLGpsSignalQuality, CLIndoorAvailabilityTileParams,
                            CLIndoorCommonHooks, CLIndoorLocation,
                            CLIndoorMaintenance, CLIndoorPositionProvider,
                            CLIndoorSettings, CLLocationContextUtil,
                            CLLocationGroup,
                            CLPOutdoorEstimatorLogEntryNotification,
                            CLPrefetchFloorRequest, CLVisionNotification,
                            ECEFCoordinate, ENUCoordinate, GeographicCoordinate ]
    weak-def-symbols:     [ __ZN5boost6system6detail17system_cat_holderIvE8instanceE,
                            __ZN5boost6system6detail18generic_cat_holderIvE8instanceE ]
...
