--- !tapi-tbd
tbd-version:           4
targets:               [ armv7-ios, armv7s-ios, arm64-ios, arm64e-ios ]
flags:                 [ flat_namespace ]
install-name:          /System/Library/PrivateFrameworks/DiskImages2.framework/DiskImages2
current-version:       198.40.3
compatibility-version: 1
exports:
  - targets:              [ armv7-ios, armv7s-ios, arm64-ios, arm64e-ios ]
    symbols:              [ _DIErrorDomain, _DIErrorVerboseInfoKey,
                            _DiskImages2_Attach,
                            __Z15make_error_code11DIErrorEnum,
                            __ZN13diskimage_uio11add_di_roleENS_9diskimage4roleEONS_21diskimage_open_paramsE,
                            __ZN13diskimage_uio12is_read_onlyE13DIImageFormat,
                            __ZN13diskimage_uio15small_vector_ns20report_size_overflowEmm,
                            __ZN13diskimage_uio15small_vector_ns26report_at_maximum_capacityEm,
                            __ZN13diskimage_uio15small_vector_ns4llvm11safe_callocEmm,
                            __ZN13diskimage_uio15small_vector_ns4llvm11safe_mallocEm,
                            __ZN13diskimage_uio15small_vector_ns4llvm12safe_reallocEPvm,
                            __ZN13diskimage_uio17diskimage_context4readERKNS_15small_vector_ns4llvm23SmallVectorTemplateBaseINS_9buffer_ns5boost4asio14mutable_bufferELb1EEEym,
                            __ZN13diskimage_uio17diskimage_context5flushENS0_10flush_modeE,
                            __ZN13diskimage_uio17diskimage_context5unmapERKNS_15small_vector_ns4llvm23SmallVectorTemplateBaseINS_7unmap_tELb1EEE,
                            __ZN13diskimage_uio17diskimage_context5writeERKNS_15small_vector_ns4llvm23SmallVectorTemplateBaseINS_9buffer_ns5boost4asio12const_bufferELb1EEEym,
                            __ZN13diskimage_uio17diskimage_contextC1EOS0_,
                            __ZN13diskimage_uio17diskimage_contextC2EOS0_,
                            __ZN13diskimage_uio17diskimage_contextD1Ev,
                            __ZN13diskimage_uio17diskimage_contextD2Ev,
                            __ZN13diskimage_uio17diskimage_contextaSEOS0_,
                            __ZN13diskimage_uio21diskimage_open_params12get_internalEv,
                            __ZN13diskimage_uio21diskimage_open_params14set_passphraseEPKc,
                            __ZN13diskimage_uio21diskimage_open_params6createERKNSt3__14__fs10filesystem4pathENS0_4modeE,
                            __ZN13diskimage_uio21diskimage_open_params6createEiNS0_4modeEb,
                            __ZN13diskimage_uio21diskimage_open_params6decodeERNS_11decode_fn_tE,
                            __ZN13diskimage_uio21diskimage_open_paramsC1EOS0_,
                            __ZN13diskimage_uio21diskimage_open_paramsC1EPNS_7details26diskimage_open_params_implE,
                            __ZN13diskimage_uio21diskimage_open_paramsC1ERKNSt3__14__fs10filesystem4pathENS0_4modeE,
                            __ZN13diskimage_uio21diskimage_open_paramsC1EiNS0_4modeEb,
                            __ZN13diskimage_uio21diskimage_open_paramsC2EOS0_,
                            __ZN13diskimage_uio21diskimage_open_paramsC2EPNS_7details26diskimage_open_params_implE,
                            __ZN13diskimage_uio21diskimage_open_paramsC2ERKNSt3__14__fs10filesystem4pathENS0_4modeE,
                            __ZN13diskimage_uio21diskimage_open_paramsC2EiNS0_4modeEb,
                            __ZN13diskimage_uio21diskimage_open_paramsD1Ev,
                            __ZN13diskimage_uio21diskimage_open_paramsD2Ev,
                            __ZN13diskimage_uio21diskimage_open_paramsaSEOS0_,
                            __ZN13diskimage_uio9diskimage14create_contextEv,
                            __ZN13diskimage_uio9diskimage6createEONS_21diskimage_open_paramsE,
                            __ZN13diskimage_uio9diskimage6createEONSt3__16vectorINS_26diskimage_open_params_pairENS1_9allocatorIS3_EEEEj,
                            __ZN13diskimage_uio9diskimage6createESt16initializer_listINS_12rref_captureINS_26diskimage_open_params_pairEEEEj,
                            __ZN13diskimage_uio9diskimageC1EONS_21diskimage_open_paramsE,
                            __ZN13diskimage_uio9diskimageC1EONSt3__16vectorINS_26diskimage_open_params_pairENS1_9allocatorIS3_EEEEj,
                            __ZN13diskimage_uio9diskimageC1EOS0_,
                            __ZN13diskimage_uio9diskimageC1ESt16initializer_listINS_12rref_captureINS_26diskimage_open_params_pairEEEEj,
                            __ZN13diskimage_uio9diskimageC2EONS_21diskimage_open_paramsE,
                            __ZN13diskimage_uio9diskimageC2EONSt3__16vectorINS_26diskimage_open_params_pairENS1_9allocatorIS3_EEEEj,
                            __ZN13diskimage_uio9diskimageC2EOS0_,
                            __ZN13diskimage_uio9diskimageC2ESt16initializer_listINS_12rref_captureINS_26diskimage_open_params_pairEEEEj,
                            __ZN13diskimage_uio9diskimageD1Ev,
                            __ZN13diskimage_uio9diskimageD2Ev,
                            __ZN13diskimage_uio9diskimageaSEOS0_,
                            __ZN13diskimage_uiolsEONSt3__113basic_ostreamIcNS0_11char_traitsIcEEEE13DIImageFormat,
                            __ZN13diskimage_uiolsEONSt3__113basic_ostreamIcNS0_11char_traitsIcEEEENS_21diskimage_open_params4modeE,
                            __ZN13diskimage_uiolsEONSt3__113basic_ostreamIcNS0_11char_traitsIcEEEENS_9diskimage4roleE,
                            __ZN13diskimage_uiolsERNSt3__113basic_ostreamIcNS0_11char_traitsIcEEEE13DIImageFormat,
                            __ZN13diskimage_uiolsERNSt3__113basic_ostreamIcNS0_11char_traitsIcEEEENS_21diskimage_open_params4modeE,
                            __ZN13diskimage_uiolsERNSt3__113basic_ostreamIcNS0_11char_traitsIcEEEENS_9diskimage4roleE,
                            __ZNK13diskimage_uio21diskimage_open_params12is_encryptedEv,
                            __ZNK13diskimage_uio21diskimage_open_params12is_read_onlyEv,
                            __ZNK13diskimage_uio21diskimage_open_params13get_nr_blocksEv,
                            __ZNK13diskimage_uio21diskimage_open_params14get_block_sizeEv,
                            __ZNK13diskimage_uio21diskimage_open_params18query_image_formatEv,
                            __ZNK13diskimage_uio21diskimage_open_params6encodeERNS_11encode_fn_tE,
                            __ZNK13diskimage_uio21diskimage_open_params8get_uuidEv,
                            __ZNK13diskimage_uio21diskimage_open_params9is_lockedEv,
                            __ZNK13diskimage_uio9diskimage12is_read_onlyEv,
                            __ZNK13diskimage_uio9diskimage13get_nr_blocksEv,
                            __ZNK13diskimage_uio9diskimage14get_block_sizeEv ]
    objc-classes:         [ BackendXPC, CryptoBackendXPC, DIAttachParams,
                            DIAttachedDeviceInfo, DIBaseAgentDelegate,
                            DIBaseAgentXPCHandler, DIBaseParams,
                            DIBaseServiceDelegate, DIBaseXPCHandler, DIBlockDevice,
                            DIClient2Controller_XPCHandler,
                            DIClient2IODaemonXPCHandler, DICommonAttach,
                            DIController2ClientDelegate, DIConvertParams,
                            DICreateASIFParams, DICreateParams, DICreateRAWParams,
                            DICreateUDSBParams, DICryptoHelper, DIDeviceHandle,
                            DIDiskArb, DIDiskArbEmulation, DIEncryptionCreator,
                            DIEncryptionFrontend, DIEncryptionUnlocker, DIError,
                            DIHelpers, DIIOIterator, DIIOMedia, DIIOObject, DISaks,
                            DIShadowChain, DIStatFS, DIURL, DIUserDataParams,
                            DIVerifyParams, DiskImageParamsAppleSparseImage_XPC,
                            DiskImageParamsLocked_XPC, DiskImageParamsRAM_XPC,
                            DiskImageParamsRaw_XPC,
                            DiskImageParamsSparseBundle_XPC,
                            DiskImageParamsUDIF_XPC, DiskImageParamsXPC,
                            DiskImages2, FileLocalXPC, QuarantineFileHandler, RamXPC,
                            SparseBundleBackendXPC ]
    objc-ivars:           [ BackendXPC._backend, BackendXPC._cryptoHeader,
                            CryptoBackendXPC._baseBackendXPC,
                            DIAttachParams._autoMount,
                            DIAttachParams._commandSize,
                            DIAttachParams._fileMode,
                            DIAttachParams._handleRefCount,
                            DIAttachParams._inputMountedFrom,
                            DIAttachParams._inputStatFS,
                            DIAttachParams._onDiskCache,
                            DIAttachParams._quarantine,
                            DIAttachParams._regEntryID,
                            DIAttachParams._uniqueDevice,
                            DIAttachedDeviceInfo._cacheURL,
                            DIAttachedDeviceInfo._frameworkNum,
                            DIAttachedDeviceInfo._imageURL,
                            DIAttachedDeviceInfo._ioMedia,
                            DIAttachedDeviceInfo._pid,
                            DIAttachedDeviceInfo._shadowURL,
                            DIBaseParams._deserializationError,
                            DIBaseParams._diskImageParamsXPC,
                            DIBaseParams._inputURL,
                            DIBaseParams._readPassphraseFlags,
                            DIBaseParams._shadowChain,
                            DIBaseServiceDelegate._dispatchQueue,
                            DIBaseServiceDelegate._listener,
                            DIBaseXPCHandler._connection,
                            DIBaseXPCHandler._isPrivileged,
                            DIBaseXPCHandler._remoteProxy,
                            DIBaseXPCHandler._semaphore,
                            DIBaseXPCHandler._xpcError,
                            DIClient2IODaemonXPCHandler._xpcListenerEndpoint,
                            DIController2ClientDelegate._deviceHandle,
                            DIConvertParams._createParams,
                            DIConvertParams._encryptionMethod,
                            DIConvertParams._inPlaceConversion,
                            DIConvertParams._maxRawUDIFRunSize,
                            DIConvertParams._outputFormat,
                            DIConvertParams._outputURL,
                            DIConvertParams._sparseBundleBandSize,
                            DICreateParams._encryptionMethod,
                            DICreateParams._numBlocks,
                            DICreateParams._systemKeychainAccount,
                            DICreateUDSBParams._sparseBundleBandSize,
                            DIDeviceHandle._BSDName,
                            DIDeviceHandle._client2IOhandler,
                            DIDeviceHandle._handleRefCount,
                            DIDeviceHandle._regEntryID,
                            DIDeviceHandle._xpcEndpoint,
                            DIDiskArb._callbackReached, DIDiskArb._daSession,
                            DIDiskArb._delegate, DIDiskArb._inputMountedOnURL,
                            DIDiskArb._operationError,
                            DIDiskArb._shadowMountedOnURLs,
                            DIEncryptionFrontend._CLIPassphrasePrompt,
                            DIEncryptionFrontend._CLIVerifyPassphrasePrompt,
                            DIEncryptionFrontend._GUIPassphraseLabel,
                            DIEncryptionFrontend._GUIPassphrasePrompt,
                            DIEncryptionFrontend._GUIVerifyPassphraseLabel,
                            DIEncryptionFrontend._allowStoringInKeychain,
                            DIEncryptionFrontend._diParams,
                            DIEncryptionFrontend._encryptionUUID,
                            DIIOIterator._attempt,
                            DIIOIterator._retryIfInvalidated, DIIOObject._ioObj,
                            DISaks._URL, DISaks._appStr,
                            DIShadowChain._shadowBackends,
                            DIShadowChain._shadowStats,
                            DIShadowChain._shadowURLs, DIStatFS._blockSize,
                            DIStatFS._mountedFrom, DIStatFS._mountedOnURL,
                            DIUserDataParams._userDict,
                            DiskImageParamsAppleSparseImage_XPC._header,
                            DiskImageParamsRAM_XPC._ramSizeStr,
                            DiskImageParamsUDIF_XPC._header,
                            DiskImageParamsXPC._backendXPC,
                            DiskImageParamsXPC._blockSize,
                            DiskImageParamsXPC._cacheBackendXPC,
                            DiskImageParamsXPC._cacheURL,
                            DiskImageParamsXPC._instanceID,
                            DiskImageParamsXPC._shadowBackendsXPC,
                            QuarantineFileHandler._isQuarantined ]
...
