--- !tapi-tbd-v3
archs:                 [ armv7, armv7s, arm64, arm64e ]
platform:              ios
flags:                 [ flat_namespace ]
install-name:          /usr/lib/AppleConvergedTransport.dylib
current-version:       1
compatibility-version: 1
exports:
  - archs:                [ armv7, armv7s, arm64, arm64e ]
    symbols:              [ _AppleConvergedTransportCreate,
                            _AppleConvergedTransportFree,
                            _AppleConvergedTransportInitParameters,
                            _AppleConvergedTransportIsValid,
                            _AppleConvergedTransportRead,
                            _AppleConvergedTransportReadRegister,
                            _AppleConvergedTransportRegisterEventBlock,
                            _AppleConvergedTransportRegisterEventBlockQ,
                            _AppleConvergedTransportRegisterTimeSyncEventBlock,
                            _AppleConvergedTransportRegisterTimeSyncEventBlockQ,
                            _AppleConvergedTransportSendImage,
                            _AppleConvergedTransportUnregisterEventBlock,
                            _AppleConvergedTransportUnregisterTimeSyncEventBlock,
                            _AppleConvergedTransportWrite, __ZN3pci3log3getEv,
                            __ZN3pci5event8Listener4initEv,
                            __ZN3pci5event8Listener6createEN10applesauce8dispatch2v15blockIFvNS0_4typeEONSt3__112basic_stringIcNS7_11char_traitsIcEENS7_9allocatorIcEEEEjEEEP11__CFRunLoop,
                            __ZN3pci5event8Listener6createEN10applesauce8dispatch2v15blockIFvNS0_4typeEONSt3__112basic_stringIcNS7_11char_traitsIcEENS7_9allocatorIcEEEEjEEEP16dispatch_queue_s,
                            __ZN3pci5event8Listener6notifyE14acipcErrorTypePvS3_,
                            __ZN3pci5event8ListenerC1EN10applesauce8dispatch2v15blockIFvNS0_4typeEONSt3__112basic_stringIcNS7_11char_traitsIcEENS7_9allocatorIcEEEEjEEEP11__CFRunLoopP16dispatch_queue_s,
                            __ZN3pci5event8ListenerC2EN10applesauce8dispatch2v15blockIFvNS0_4typeEONSt3__112basic_stringIcNS7_11char_traitsIcEENS7_9allocatorIcEEEEjEEEP11__CFRunLoopP16dispatch_queue_s,
                            __ZN3pci5event8ListenerD1Ev,
                            __ZN3pci5event8ListenerD2Ev,
                            __ZN3pci6system4info3getEv,
                            __ZN3pci6system4info4lockEv,
                            __ZN3pci6system4info5getTHEPKv,
                            __ZN3pci6system4info6unlockEv,
                            __ZN3pci6system4info7eraseTHEPKv,
                            __ZN3pci6system4info8insertBHEiNSt3__18weak_ptrINS_9transport2bhEEEj,
                            __ZN3pci6system4info8insertTHENSt3__110shared_ptrINS_9transport2thEEE,
                            __ZN3pci6system4info8removeBHEi,
                            __ZN3pci6system4infoC1Ev, __ZN3pci6system4infoC2Ev,
                            __ZN3pci6system4infoD1Ev, __ZN3pci6system4infoD2Ev,
                            __ZN3pci9transport2bh12ioCompletionEPviS2_,
                            __ZN3pci9transport2bh12readRegisterENSt3__110shared_ptrINS0_4taskEEE20PCITransportRegister,
                            __ZN3pci9transport2bh13cmdCompletionEPvi,
                            __ZN3pci9transport2bh15imageCompletionEPviS2_S2_,
                            __ZN3pci9transport2bh16generateCallbackENSt3__110shared_ptrINS0_4taskEEEPKcb,
                            __ZN3pci9transport2bh19invokeCallbackAsyncEN10applesauce8dispatch2v15blockIFvijjEEEijj,
                            __ZN3pci9transport2bh4initERKNS1_10parametersE,
                            __ZN3pci9transport2bh4openENSt3__110shared_ptrINS0_4taskEEE21PCITransportDirection,
                            __ZN3pci9transport2bh4readENSt3__110shared_ptrINS0_4taskEEEb,
                            __ZN3pci9transport2bh5closeENSt3__110shared_ptrINS0_4taskEEE21PCITransportDirection,
                            __ZN3pci9transport2bh5writeENSt3__110shared_ptrINS0_4taskEEE,
                            __ZN3pci9transport2bh6createERKNS1_10parametersE,
                            __ZN3pci9transport2bh9sendImageENSt3__110shared_ptrINS0_4taskEEE,
                            __ZN3pci9transport2bh9setNotifyENSt3__110shared_ptrINS0_4taskEEE,
                            __ZN3pci9transport2bhC1ERKNS1_10parametersE,
                            __ZN3pci9transport2bhC2ERKNS1_10parametersE,
                            __ZN3pci9transport2bhD1Ev, __ZN3pci9transport2bhD2Ev,
                            __ZN3pci9transport2th10initParamsEP22PCITransportParameters,
                            __ZN3pci9transport2th10writeAsyncEPKhjPFvPvE,
                            __ZN3pci9transport2th11unblockReadEv,
                            __ZN3pci9transport2th12readInternalEPKhjPFvPvEN10applesauce8dispatch2v15blockIFviS4_jjEEE,
                            __ZN3pci9transport2th12readRegisterEjPKhRjj,
                            __ZN3pci9transport2th13writeInternalEPKhjPFvPvEN10applesauce8dispatch2v15blockIFviS4_jjEEE,
                            __ZN3pci9transport2th14sendImageAsyncEPKhjPFvPvE,
                            __ZN3pci9transport2th14validateParamsEPK22PCITransportParameters,
                            __ZN3pci9transport2th17sendImageInternalEPKhjPFvPvEN10applesauce8dispatch2v15blockIFviS4_jjEEE,
                            __ZN3pci9transport2th20readRegisterInternalEjPKhjN10applesauce8dispatch2v15blockIFviPvjjEEE,
                            __ZN3pci9transport2th4initEv,
                            __ZN3pci9transport2th4lockEv,
                            __ZN3pci9transport2th4readEPKhRjPFvPvEj,
                            __ZN3pci9transport2th5writeEPKhjPFvPvEj,
                            __ZN3pci9transport2th6createEPK22PCITransportParameters,
                            __ZN3pci9transport2th6notifyEv,
                            __ZN3pci9transport2th6unlockEv,
                            __ZN3pci9transport2th9flushReadEv,
                            __ZN3pci9transport2th9readAsyncEv,
                            __ZN3pci9transport2th9sendImageEPKhjRjPFvPvEj,
                            __ZN3pci9transport2thC1EPK22PCITransportParameters,
                            __ZN3pci9transport2thC2EPK22PCITransportParameters,
                            __ZN3pci9transport2thD1Ev, __ZN3pci9transport2thD2Ev,
                            __ZN3pci9transport4bind13setCompletionEN10applesauce8dispatch2v15blockIFviPvjjEEE,
                            __ZN3pci9transport4bind6setCIOEPv,
                            __ZN3pci9transport4bind9setStatusEijjb20PCITransportTaskType,
                            __ZN3pci9transport4bindC1ERKNS1_10parametersERNSt3__14listINS5_10shared_ptrINS0_4taskEEENS5_9allocatorIS9_EEEE,
                            __ZN3pci9transport4bindC2ERKNS1_10parametersERNSt3__14listINS5_10shared_ptrINS0_4taskEEENS5_9allocatorIS9_EEEE,
                            __ZN3pci9transport4bindD1Ev,
                            __ZN3pci9transport4bindD2Ev,
                            __ZN3pci9transport4task4initERKNS1_10parametersERNSt3__14listINS5_10shared_ptrIS1_EENS5_9allocatorIS8_EEEE,
                            __ZN3pci9transport4task6createERKNS1_10parametersERNSt3__14listINS5_10shared_ptrIS1_EENS5_9allocatorIS8_EEEE,
                            __ZN3pci9transport4task6poisonEi,
                            __ZN3pci9transport4task8completeEijj,
                            __ZN3pci9transport4taskC1ERKNS1_10parametersE,
                            __ZN3pci9transport4taskC2ERKNS1_10parametersE,
                            __ZN3pci9transport4taskD1Ev,
                            __ZN3pci9transport4taskD2Ev,
                            __ZNK3pci9transport4bind6getCIOEv,
                            __ZNK3pci9transport4bind7getSizeEv,
                            __ZNK3pci9transport4task7getDataEv,
                            __ZNK3pci9transport4task7getSizeEv,
                            __ZNK3pci9transport4task7getTypeEv ]
    weak-def-symbols:     [ __ZNSt3__119piecewise_constructE ]
...
