--- !tapi-tbd-v3
archs:                 [ armv7, armv7s, arm64, arm64e ]
platform:              ios
flags:                 [ flat_namespace ]
install-name:          /usr/lib/libBasebandManagerDAL.dylib
current-version:       1
compatibility-version: 1
objc-constraint:       retain_release
exports:
  - archs:                [ armv7, armv7s, arm64, arm64e ]
    symbols:              [ _AppleBasebandManagerGetProfile,
                            _AppleBasebandManagerInitServer,
                            _AppleBasebandManagerShutdownServer,
                            _AppleBasebandManagerStartServer,
                            _AppleBasebandManagerStopServer,
                            __Z15GetABMLogServerv,
                            __Z15GetGlobalLoggerNSt3__110shared_ptrIN3ctu9LogServerEEE,
                            __Z15GetOsLogContextv, __Z18ClientGetLogServerv,
                            __Z20ABMGetProjectVersionv,
                            __Z22hasBasebandEntitlementRKN3xpc4dictEb,
                            __Z23ABMGetRootVersionStringv,
                            __Z8asString13ShutdownStage,
                            __Z8asStringRK10PowerState,
                            __Z8asStringRK10SleepState, __Z8asStringRK7LogInfo,
                            __ZN10BootModule10initializeEN8dispatch13group_sessionE,
                            __ZN10BootModule11bbResetFlagEb,
                            __ZN10BootModule12requestResetE9ResetInfoN8dispatch5blockIU13block_pointerFviNSt3__112basic_stringIcNS3_11char_traitsIcEENS3_9allocatorIcEEEEEEE,
                            __ZN10BootModule12setRat1_syncEN3abm21RadioAccessTechnologyE,
                            __ZN10BootModule12setRat2_syncEN3abm21RadioAccessTechnologyE,
                            __ZN10BootModule13setPLMN1_syncENSt3__112basic_stringIcNS0_11char_traitsIcEENS0_9allocatorIcEEEE,
                            __ZN10BootModule13setPLMN2_syncENSt3__112basic_stringIcNS0_11char_traitsIcEENS0_9allocatorIcEEEE,
                            __ZN10BootModule13shutdown_syncEN8dispatch5blockIU13block_pointerFviNSt3__112basic_stringIcNS2_11char_traitsIcEENS2_9allocatorIcEEEEEEE,
                            __ZN10BootModule14hardReset_syncE9ResetInfoN8dispatch5blockIU13block_pointerFviNSt3__112basic_stringIcNS3_11char_traitsIcEENS3_9allocatorIcEEEEEEE,
                            __ZN10BootModule14setCellId_syncEyNS_12SimSlotIndexE,
                            __ZN10BootModule14softReset_syncE9ResetInfoN8dispatch5blockIU13block_pointerFviNSt3__112basic_stringIcNS3_11char_traitsIcEENS3_9allocatorIcEEEEEEE,
                            __ZN10BootModule16changeState_syncENS_5StateE,
                            __ZN10BootModule16handleReset_syncE9ResetInfoN8dispatch5blockIU13block_pointerFviNSt3__112basic_stringIcNS3_11char_traitsIcEENS3_9allocatorIcEEEEEEE,
                            __ZN10BootModule16setAreaCode_syncEyNS_12SimSlotIndexE,
                            __ZN10BootModule17setVoiceCall_syncEb,
                            __ZN10BootModule17submitMetric_syncEjyb,
                            __ZN10BootModule21handleBootFailed_syncENSt3__112basic_stringIcNS0_11char_traitsIcEENS0_9allocatorIcEEEE,
                            __ZN10BootModule22checkFSSyncStatus_syncEN8dispatch5blockIU13block_pointerFvbbEEE,
                            __ZN10BootModule24submitBBResetMetric_syncEN3xpc4dictE,
                            __ZN10BootModule25finishInitialization_syncEv,
                            __ZN10BootModule25updateAnalyticsEvent_syncEN3xpc4dictE,
                            __ZN10BootModule28calculateBootStatistics_syncEv,
                            __ZN10BootModule31reportStatisticsBootUpTime_syncEv,
                            __ZN10BootModule34reportStatisticsHardResetTime_syncEv,
                            __ZN10BootModule4initEv,
                            __ZN10BootModule5startEN8dispatch13group_sessionE,
                            __ZN10BootModule6createENSt3__18weak_ptrI14ServiceManagerEE,
                            __ZN10BootModule8shutdownE13ShutdownStageN8dispatch13group_sessionE,
                            __ZN10BootModule9boot_syncEv,
                            __ZN10BootModuleC1ENSt3__18weak_ptrI14ServiceManagerEENS0_10shared_ptrI14BootControllerEE,
                            __ZN10BootModuleC2ENSt3__18weak_ptrI14ServiceManagerEENS0_10shared_ptrI14BootControllerEE,
                            __ZN10BootModuleD0Ev, __ZN10BootModuleD1Ev,
                            __ZN10BootModuleD2Ev,
                            __ZN10LogTracker10initializeEN8dispatch13group_sessionE,
                            __ZN10LogTracker13markPurgeableENSt3__112basic_stringIcNS0_11char_traitsIcEENS0_9allocatorIcEEEES6_,
                            __ZN10LogTracker14copyPreferenceENSt3__112basic_stringIcNS0_11char_traitsIcEENS0_9allocatorIcEEEE,
                            __ZN10LogTracker14systemLog_syncEN8dispatch13group_sessionEN3xpc4dictENSt3__18functionIFvbS3_EEE,
                            __ZN10LogTracker16archiveLogs_syncEN8dispatch13group_sessionEN3xpc4dictE,
                            __ZN10LogTracker16getConfigurationEv,
                            __ZN10LogTracker16getLoggingConfigEv,
                            __ZN10LogTracker16jsonSummary_syncEN8dispatch13group_sessionEN3xpc4dictE,
                            __ZN10LogTracker16setProperty_syncEN3xpc4dictEN8dispatch5blockIU13block_pointerFviS1_EEE,
                            __ZN10LogTracker20dumpLogInternal_syncEN3xpc4dictEN8dispatch5blockIU13block_pointerFviS1_EEE,
                            __ZN10LogTracker21houseKeepingLogs_syncENSt3__112basic_stringIcNS0_11char_traitsIcEENS0_9allocatorIcEEEE,
                            __ZN10LogTracker22processLogarchive_syncEN8dispatch13group_sessionENSt3__112basic_stringIcNS2_11char_traitsIcEENS2_9allocatorIcEEEENS2_8functionIFvbEEE,
                            __ZN10LogTracker23diagnosticToolsLog_syncEN8dispatch13group_sessionEN3xpc4dictEb,
                            __ZN10LogTracker23isInternalProperty_syncEN3xpc4dictERS1_Ri,
                            __ZN10LogTracker24checkLoggingVersion_syncEv,
                            __ZN10LogTracker25finishInitialization_syncEv,
                            __ZN10LogTracker26postLogCollectionSupportedEv,
                            __ZN10LogTracker26updateLoggingSettings_syncEN3abm6helper13LoggingConfigEN3xpc4dictENSt3__112basic_stringIcNS5_11char_traitsIcEENS5_9allocatorIcEEEE,
                            __ZN10LogTracker27sendUserNotificationForDumpENSt3__112basic_stringIcNS0_11char_traitsIcEENS0_9allocatorIcEEEE,
                            __ZN10LogTracker27validateSelectedConfig_syncERN3abm6helper13LoggingConfigE,
                            __ZN10LogTracker28moveBasebandServicesLog_syncEN8dispatch13group_sessionEN3xpc4dictE,
                            __ZN10LogTracker30postLogCollectionExternal_syncEN3xpc4dictE,
                            __ZN10LogTracker30postLogCollectionInternal_syncEN3xpc4dictE,
                            __ZN10LogTracker32isDefaultCarrierProfileInstalledEv,
                            __ZN10LogTracker6createENSt3__18weak_ptrI14ServiceManagerEE,
                            __ZN10LogTracker8shutdownEN8dispatch13group_sessionE,
                            __ZN10LogTrackerC1ENSt3__18weak_ptrI14ServiceManagerEE,
                            __ZN10LogTrackerC2ENSt3__18weak_ptrI14ServiceManagerEE,
                            __ZN10LogTrackerD0Ev, __ZN10LogTrackerD1Ev,
                            __ZN10LogTrackerD2Ev,
                            __ZN10PowerStats11reportStatsEj,
                            __ZN10PowerStats12gotAssertionENSt3__112basic_stringIcNS0_11char_traitsIcEENS0_9allocatorIcEEEEN3ctu5power9assertion6StatusE,
                            __ZN10PowerStats18noPendingAssertionEv,
                            __ZN10PowerStats19setPowerdownMessageEN3xpc4dictE,
                            __ZN10PowerStats20registerStatsHandlerEN8dispatch8callbackIU13block_pointerFvN3xpc4dictEEEE,
                            __ZN10PowerStats23reportSystemStateChangeE11SystemStateS0_,
                            __ZN10PowerStats5clearEv, __ZN10PowerStats6createEv,
                            __ZN10PowerStats9dumpStateEv, __ZN10PowerStatsC1Ev,
                            __ZN10PowerStatsC2Ev, __ZN10PowerStatsD1Ev,
                            __ZN10PowerStatsD2Ev,
                            __ZN10TapToRadar21createRadarIfPossibleEN3xpc4dictERKNSt3__112basic_stringIcNS2_11char_traitsIcEENS2_9allocatorIcEEEE,
                            __ZN10TapToRadar7getModeEv,
                            __ZN10TapToRadar7setModeENS_4ModeE,
                            __ZN11HealthEvent7setTimeENSt3__112basic_stringIcNS0_11char_traitsIcEENS0_9allocatorIcEEEE,
                            __ZN11HealthEvent7setTimeENSt3__16chrono8durationIxNS0_5ratioILl1ELl1EEEEE,
                            __ZN11HealthEvent7setTypeENS_4TypeE,
                            __ZN11HealthEvent8toStringENS_4TypeE,
                            __ZN11HealthEventC1ENS_4TypeENSt3__112basic_stringIcNS1_11char_traitsIcEENS1_9allocatorIcEEEE,
                            __ZN11HealthEventC1ENS_4TypeENSt3__16chrono8durationIxNS1_5ratioILl1ELl1EEEEE,
                            __ZN11HealthEventC2ENS_4TypeENSt3__112basic_stringIcNS1_11char_traitsIcEENS1_9allocatorIcEEEE,
                            __ZN11HealthEventC2ENS_4TypeENSt3__16chrono8durationIxNS1_5ratioILl1ELl1EEEEE,
                            __ZN11RadioModule10initializeEN8dispatch13group_sessionE,
                            __ZN11RadioModule14setRegion_syncEv,
                            __ZN11RadioModule15getVersion_syncEN8dispatch5blockIU13block_pointerFvNSt3__112basic_stringIcNS2_11char_traitsIcEENS2_9allocatorIcEEEEEEE,
                            __ZN11RadioModule20handleResetSPMI_syncEj,
                            __ZN11RadioModule21getOperatingMode_syncEN8dispatch5blockIU13block_pointerFviEEE,
                            __ZN11RadioModule21setOperatingMode_syncEjN5radio13OperatingModeEbN8dispatch5blockIU13block_pointerFvbEEE,
                            __ZN11RadioModule23getResetProperties_syncEv,
                            __ZN11RadioModule23monitorBatteryInfo_syncEv,
                            __ZN11RadioModule23startHealthService_syncEv,
                            __ZN11RadioModule25finishInitialization_syncEv,
                            __ZN11RadioModule25queryFieldTestConfig_syncEv,
                            __ZN11RadioModule29queryRFCalibrationStatus_syncEv,
                            __ZN11RadioModule30stopMonitoringBatteryInfo_syncEv,
                            __ZN11RadioModule34queryFactoryCalibrationStatus_syncEv,
                            __ZN11RadioModule4initEv,
                            __ZN11RadioModule4wakeEN8dispatch13group_sessionE,
                            __ZN11RadioModule5sleepEN8dispatch13group_sessionE,
                            __ZN11RadioModule5startEN8dispatch13group_sessionE,
                            __ZN11RadioModule6createENSt3__18weak_ptrI14ServiceManagerEE,
                            __ZN11RadioModule8shutdownE13ShutdownStageN8dispatch13group_sessionE,
                            __ZN11RadioModuleC1ENSt3__18weak_ptrI14ServiceManagerEEN8dispatch8workloopE,
                            __ZN11RadioModuleC2ENSt3__18weak_ptrI14ServiceManagerEEN8dispatch8workloopE,
                            __ZN11RadioModuleD0Ev, __ZN11RadioModuleD1Ev,
                            __ZN11RadioModuleD2Ev,
                            __ZN11SystemState13getPowerStateEv,
                            __ZN11SystemState13getSleepStateEv,
                            __ZN11SystemState21getSystemNotificationEv,
                            __ZN11SystemState24acceptSystemNotificationEj,
                            __ZN11SystemStateC1Ev, __ZN11SystemStateC2Ev,
                            __ZN11SystemStateD1Ev, __ZN11SystemStateD2Ev,
                            __ZN11TraceFilter21determineFilterActionERNSt3__112basic_stringIcNS0_11char_traitsIcEENS0_9allocatorIcEEEE,
                            __ZN12BBLogTracker10getLastLogEj,
                            __ZN12BBLogTracker5countEv,
                            __ZN12BBLogTracker6addLogERKNSt3__112basic_stringIcNS0_11char_traitsIcEENS0_9allocatorIcEEEEN3abm6helper14SystemLogsModeES8_,
                            __ZN12BBLogTracker6getLogERKNSt3__112basic_stringIcNS0_11char_traitsIcEENS0_9allocatorIcEEEE,
                            __ZN12BBLogTracker9limitLogsEj,
                            __ZN12Capabilities21create_default_globalEv,
                            __ZN12CapabilitiesC1Ev, __ZN12CapabilitiesC2Ev,
                            __ZN12PowerManager10initializeEv,
                            __ZN12PowerManager20createPowerAssertionENSt3__112basic_stringIcNS0_11char_traitsIcEENS0_9allocatorIcEEEENS0_6chrono8durationIxNS0_5ratioILl1ELl1000EEEEE,
                            __ZN12PowerManager21releasePowerAssertionENSt3__112basic_stringIcNS0_11char_traitsIcEENS0_9allocatorIcEEEE,
                            __ZN12PowerManager22registerForPowerEventsEN8dispatch5blockIU13block_pointerFv10PowerStateNS0_13group_sessionEEEE,
                            __ZN12PowerManager6createENSt3__18weak_ptrI14ServiceManagerEE,
                            __ZN12PowerManager8shutdownEv,
                            __ZN12PowerManagerC1ENSt3__18weak_ptrI14ServiceManagerEE,
                            __ZN12PowerManagerC2ENSt3__18weak_ptrI14ServiceManagerEE,
                            __ZN12TraceManager10initializeEN8dispatch13group_sessionE,
                            __ZN12TraceManager16collectLogs_syncEN3xpc4dictEN8dispatch5blockIU13block_pointerFviS1_EEE,
                            __ZN12TraceManager16runOnHelper_syncEN3abm6helper6TaskIDEPKcjbN3xpc4dictEN8dispatch13group_sessionENS7_8callbackIU13block_pointerFvN12TelephonyXPC6ResultES6_EEE,
                            __ZN12TraceManager20initTraceHelper_syncEv,
                            __ZN12TraceManager20updateBasebandFWInfoEv,
                            __ZN12TraceManager23postBBResetNotificationEv,
                            __ZN12TraceManager24collectBasebandLogs_syncEN3xpc4dictEN8dispatch5blockIU13block_pointerFviS1_EEE,
                            __ZN12TraceManager25finishInitialization_syncEv,
                            __ZN12TraceManager28setupDumpLogsIndication_syncEv,
                            __ZN12TraceManager29handleDumpLogsIndication_syncEN3ctu2cf11CFSharedRefIK14__CFDictionaryEE,
                            __ZN12TraceManager31isCellullarLoggingStreamingModeEN4diag6config4ModeEN3abm14traceOwnershipEN5trace17LiveFilterSettingE,
                            __ZN12TraceManager4initEv,
                            __ZN12TraceManager4wakeEN8dispatch13group_sessionE,
                            __ZN12TraceManager5sleepEN8dispatch13group_sessionE,
                            __ZN12TraceManager5startEN8dispatch13group_sessionE,
                            __ZN12TraceManager6createENSt3__18weak_ptrI14ServiceManagerEE,
                            __ZN12TraceManager8shutdownE13ShutdownStageN8dispatch13group_sessionE,
                            __ZN12TraceManagerC1ENSt3__18weak_ptrI14ServiceManagerEE,
                            __ZN12TraceManagerC2ENSt3__18weak_ptrI14ServiceManagerEE,
                            __ZN12TraceManagerD0Ev, __ZN12TraceManagerD1Ev,
                            __ZN12TraceManagerD2Ev,
                            __ZN13ServerLogging13snapshot_syncEN3ctu2cf11CFSharedRefIK14__CFDictionaryEE,
                            __ZN13ServerLogging17registerLogServerENSt3__110shared_ptrIN3ctu9LogServerEEE,
                            __ZN13ServerLogging18backupFolders_syncERKNSt3__112basic_stringIcNS0_11char_traitsIcEENS0_9allocatorIcEEEES8_,
                            __ZN13ServerLogging24clearScratchFolders_syncEv,
                            __ZN13ServerLogging24monitorSnapshotPath_syncEv,
                            __ZN13ServerLogging4initEv,
                            __ZN13ServerLogging8snapshotEN3ctu2cf11CFSharedRefIK14__CFDictionaryEE,
                            __ZN13ServerLogging9init_syncEv,
                            __ZN13ServerLoggingC1ERKNSt3__112basic_stringIcNS0_11char_traitsIcEENS0_9allocatorIcEEEES8_,
                            __ZN13ServerLoggingC2ERKNSt3__112basic_stringIcNS0_11char_traitsIcEENS0_9allocatorIcEEEES8_,
                            __ZN13ServerLoggingD1Ev, __ZN13ServerLoggingD2Ev,
                            __ZN14BootController10resetModemEv,
                            __ZN14BootController13powerOffModemEv,
                            __ZN14BootController15getManagerStateER12ManagerState,
                            __ZN14BootController15powerCycleModemEv,
                            __ZN14BootController15setManagerStateE12ManagerState,
                            __ZN14BootController16getBasebandStateER13BasebandState,
                            __ZN14BootController16setBasebandStateE13BasebandState,
                            __ZN14BootController25markNonvolatileDataErasedEv,
                            __ZN14BootController7prepareERNSt3__112basic_stringIcNS0_11char_traitsIcEENS0_9allocatorIcEEEE,
                            __ZN14BootControllerC2Ev,
                            __ZN14ResetDetection16addToBlocks_syncENSt3__112basic_stringIcNS0_11char_traitsIcEENS0_9allocatorIcEEEEN8dispatch5blockIU13block_pointerFviEEERNS0_3mapIS6_NS0_4pairIP17dispatch_source_sSB_EENS0_4lessIS6_EENS4_INSD_IKS6_SG_EEEEEEy,
                            __ZN14ResetDetection16invokeBlock_syncERNSt3__14pairIKNS0_12basic_stringIcNS0_11char_traitsIcEENS0_9allocatorIcEEEENS1_IP17dispatch_source_sN8dispatch5blockIU13block_pointerFviEEEEEEEi,
                            __ZN14ResetDetection19resetDetectCallbackEPvjjS0_,
                            __ZN14ResetDetection20sResetDetectCallbackEPvjjS0_,
                            __ZN14ResetDetection28notifyResetDetectBlocks_syncERNSt3__13mapINS0_12basic_stringIcNS0_11char_traitsIcEENS0_9allocatorIcEEEENS0_4pairIP17dispatch_source_sN8dispatch5blockIU13block_pointerFviEEEEENS0_4lessIS7_EENS5_INS8_IKS7_SG_EEEEEE,
                            __ZN14ResetDetection3addENSt3__112basic_stringIcNS0_11char_traitsIcEENS0_9allocatorIcEEEEbN8dispatch5blockIU13block_pointerFviEEEy,
                            __ZN14ResetDetection4pollERb,
                            __ZN14ResetDetection5startEv,
                            __ZN14ResetDetection6createEN8dispatch5queueENSt3__110shared_ptrIN3ctu9LogServerEEEP11__CFRunLoop,
                            __ZN14ResetDetectionC1EN8dispatch5queueENSt3__110shared_ptrIN3ctu9LogServerEEEP11__CFRunLoop,
                            __ZN14ResetDetectionC2EN8dispatch5queueENSt3__110shared_ptrIN3ctu9LogServerEEEP11__CFRunLoop,
                            __ZN14ResetDetectionD0Ev, __ZN14ResetDetectionD1Ev,
                            __ZN14ResetDetectionD2Ev,
                            __ZN14ServiceManager20createPowerAssertionENSt3__112basic_stringIcNS0_11char_traitsIcEENS0_9allocatorIcEEEENS0_6chrono8durationIxNS0_5ratioILl1ELl1000EEEEE,
                            __ZN14ServiceManager21releasePowerAssertionENSt3__112basic_stringIcNS0_11char_traitsIcEENS0_9allocatorIcEEEE,
                            __ZN14ServiceManager22shutdownGlobalServicesEv,
                            __ZN14ServiceManager23registerEventDispatcherEN8dispatch5blockIU13block_pointerFvNSt3__112basic_stringIcNS2_11char_traitsIcEENS2_9allocatorIcEEEEN3ctu2cf11CFSharedRefIK14__CFDictionaryEENS1_IU13block_pointerFvvEEEEEE,
                            __ZN14ServiceManager23shutdownDynamicServicesEv,
                            __ZN14ServiceManager24initializeGlobalServicesEv,
                            __ZN14ServiceManager25initializeDynamicServicesEv,
                            __ZN14ServiceManager4initENSt3__110shared_ptrI14PowerInterfaceEE,
                            __ZN14ServiceManager4wakeEN8dispatch13group_sessionE,
                            __ZN14ServiceManager5sleepEN8dispatch13group_sessionE,
                            __ZN14ServiceManagerC2EPKc, __ZN14ServiceManagerD0Ev,
                            __ZN14ServiceManagerD1Ev, __ZN14ServiceManagerD2Ev,
                            __ZN15AnalyticsHelper10updateDataEN3xpc4dictE,
                            __ZN15AnalyticsHelper11submitEventENSt3__112basic_stringIcNS0_11char_traitsIcEENS0_9allocatorIcEEEERNS0_3mapIS6_N3xpc4dictENS0_4lessIS6_EENS4_INS0_4pairIKS6_S9_EEEEEE,
                            __ZN15AnalyticsHelper22describeAnalyticsCacheEv,
                            __ZN15AnalyticsHelper6appendERN3xpc4dictERNSt3__13mapINS3_12basic_stringIcNS3_11char_traitsIcEENS3_9allocatorIcEEEES1_NS3_4lessISA_EENS8_INS3_4pairIKSA_S1_EEEEEE,
                            __ZN15AnalyticsHelper6createEv,
                            __ZN15AnalyticsHelperC1Ev, __ZN15AnalyticsHelperC2Ev,
                            __ZN15AnalyticsHelperD0Ev, __ZN15AnalyticsHelperD1Ev,
                            __ZN15AnalyticsHelperD2Ev,
                            __ZN15TraceCAReporter14prepTraceStatsEN3xpc4dictE,
                            __ZN15TraceCAReporter21prepTraceStatsEnabledEN3xpc4dictE,
                            __ZN15TraceCAReporter25gatherDurationInformationERN3xpc4dictE,
                            __ZN15TraceCAReporter30convertPlistValToCAInformationERKNSt3__112basic_stringIcNS0_11char_traitsIcEENS0_9allocatorIcEEEES8_,
                            __ZN15TraceCAReporter31gatherMissingBasebandTraceStateERN3xpc4dictE,
                            __ZN15TraceCAReporter6createEv,
                            __ZN15TraceCAReporterC1Ev, __ZN15TraceCAReporterC2Ev,
                            __ZN15TransportModule10initializeEN8dispatch13group_sessionE,
                            __ZN15TransportModule17submitMetric_syncERKN3xpc4dictE,
                            __ZN15TransportModule20claimSystemWake_syncEv,
                            __ZN15TransportModule25finishInitialization_syncEv,
                            __ZN15TransportModule28configureDataThrottling_syncEN3xpc4dictES1_,
                            __ZN15TransportModule29notifyWakeToNetworkStack_syncEv,
                            __ZN15TransportModule31configureWakeEventPktDelay_syncEv,
                            __ZN15TransportModule4initEv,
                            __ZN15TransportModule4wakeEN8dispatch13group_sessionE,
                            __ZN15TransportModule5sleepEN8dispatch13group_sessionE,
                            __ZN15TransportModule5startEN8dispatch13group_sessionE,
                            __ZN15TransportModule6createENSt3__18weak_ptrI14ServiceManagerEENS0_10shared_ptrI8RegistryEE,
                            __ZN15TransportModule8shutdownE13ShutdownStageN8dispatch13group_sessionE,
                            __ZN15TransportModuleC1ENSt3__18weak_ptrI14ServiceManagerEENS0_10shared_ptrI8RegistryEE,
                            __ZN15TransportModuleC2ENSt3__18weak_ptrI14ServiceManagerEENS0_10shared_ptrI8RegistryEE,
                            __ZN15TransportModuleD0Ev, __ZN15TransportModuleD1Ev,
                            __ZN15TransportModuleD2Ev,
                            __ZN16ABMServerFactory18createRouterServerEv,
                            __ZN16ABMServerFactory20createServiceManagerENSt3__110shared_ptrI8RegistryEE,
                            __ZN16ABMServerFactory24createBBServerConnectionEv,
                            __ZN16ABMServerFactory6createEv,
                            __ZN16ABMServerFactoryC1Ev,
                            __ZN16ABMServerFactoryC2Ev,
                            __ZN16ABMServerFactoryD0Ev,
                            __ZN16ABMServerFactoryD1Ev,
                            __ZN16ABMServerFactoryD2Ev,
                            __ZN16TransportService6createENSt3__110shared_ptrIN3ctu9LogServerEEENS1_I20AppleBasebandManagerEENS0_8weak_ptrI15TransportModuleEENS1_I8RegistryEE,
                            __ZN17ABMServerInternal10getRunLoopEv,
                            __ZN17ABMServerInternal10start_syncEN8dispatch13group_sessionE,
                            __ZN17ABMServerInternal12unicast_syncEN3xpc10connectionENSt3__112basic_stringIcNS2_11char_traitsIcEENS2_9allocatorIcEEEEN3ctu2cf11CFSharedRefIK14__CFDictionaryEEN8dispatch5blockIU13block_pointerFvvEEE,
                            __ZN17ABMServerInternal13getState_syncEv,
                            __ZN17ABMServerInternal13shutdown_syncEN8dispatch13group_sessionE,
                            __ZN17ABMServerInternal14broadcast_syncENSt3__112basic_stringIcNS0_11char_traitsIcEENS0_9allocatorIcEEEEN3ctu2cf11CFSharedRefIK14__CFDictionaryEEN8dispatch5blockIU13block_pointerFvvEEE,
                            __ZN17ABMServerInternal15finishStop_syncEv,
                            __ZN17ABMServerInternal16changeState_syncE11ServerState,
                            __ZN17ABMServerInternal16stopRunLoop_syncEv,
                            __ZN17ABMServerInternal17startRunLoop_syncEv,
                            __ZN17ABMServerInternal18checkShutdown_syncEN8dispatch13group_sessionE,
                            __ZN17ABMServerInternal18handleMessage_syncEN3xpc10connectionENS0_4dictE,
                            __ZN17ABMServerInternal19finishShutdown_syncEv,
                            __ZN17ABMServerInternal19getClientState_syncEN3xpc10connectionE,
                            __ZN17ABMServerInternal20handleNewClient_syncEN3xpc10connectionE,
                            __ZN17ABMServerInternal20registerNotificationEN3xpc10connectionEbN3ctu2cf11CFSharedRefIK9__CFArrayEE,
                            __ZN17ABMServerInternal22handleClientError_syncEN3xpc10connectionENS0_6objectE,
                            __ZN17ABMServerInternal22handleServerError_syncEN3xpc6objectE,
                            __ZN17ABMServerInternal24handlePublicMessage_syncEN3xpc10connectionERNS0_4dictE,
                            __ZN17ABMServerInternal25broadcastServerState_syncENSt3__112basic_stringIcNS0_11char_traitsIcEENS0_9allocatorIcEEEE,
                            __ZN17ABMServerInternal26handleInternalMessage_syncEN3xpc10connectionERNS0_4dictE,
                            __ZN17ABMServerInternal4initENSt3__112basic_stringIcNS0_11char_traitsIcEENS0_9allocatorIcEEEERKN3abm9OverridesE,
                            __ZN17ABMServerInternal4stopEP16dispatch_group_s,
                            __ZN17ABMServerInternal5startEP16dispatch_group_s,
                            __ZN17ABMServerInternal6createEv,
                            __ZN17ABMServerInternal8shutdownEP16dispatch_group_s,
                            __ZN17ABMServerInternal9broadcastENSt3__112basic_stringIcNS0_11char_traitsIcEENS0_9allocatorIcEEEEN3ctu2cf11CFSharedRefIK14__CFDictionaryEEN8dispatch5blockIU13block_pointerFvvEEE,
                            __ZN17ABMServerInternal9stop_syncEN8dispatch13group_sessionE,
                            __ZN17ABMServerInternalC1Ev,
                            __ZN17ABMServerInternalC2Ev,
                            __ZN17ABMServerInternalD0Ev,
                            __ZN17ABMServerInternalD1Ev,
                            __ZN17ABMServerInternalD2Ev,
                            __ZN17ABMServiceManager17getInitTimeoutSecEv,
                            __ZN17ABMServiceManager18getSleepTimeoutSecEv,
                            __ZN17ABMServiceManager18getStartTimeoutSecEv,
                            __ZN17ABMServiceManager21getShutdownTimeoutSecE13ShutdownStage,
                            __ZN17ABMServiceManager22registerGlobalServicesEv,
                            __ZN17ABMServiceManager23registerDynamicServicesEv,
                            __ZN17ABMServiceManager28getDefaultShutdownTimeoutSecEv,
                            __ZN17ABMServiceManager4initEv,
                            __ZN17ABMServiceManager6createENSt3__110shared_ptrI8RegistryEE,
                            __ZN17ABMServiceManagerC1ENSt3__110shared_ptrI8RegistryEE,
                            __ZN17ABMServiceManagerC2ENSt3__110shared_ptrI8RegistryEE,
                            __ZN17BasebandTransport10asProtocolENSt3__112basic_stringIcNS0_11char_traitsIcEENS0_9allocatorIcEEEE,
                            __ZN17BasebandTransport10close_syncEv,
                            __ZN17BasebandTransport10stopReaderEv,
                            __ZN17BasebandTransport12openPCI_syncEv,
                            __ZN17BasebandTransport12reportStatusEjN8dispatch5blockIU13block_pointerFvNS_6StatusEEEE,
                            __ZN17BasebandTransport12timerOn_syncEv,
                            __ZN17BasebandTransport13timerOff_syncEv,
                            __ZN17BasebandTransport14queueRead_syncEv,
                            __ZN17BasebandTransport15switchDIAG_syncEv,
                            __ZN17BasebandTransport16startReader_syncEv,
                            __ZN17BasebandTransport17asStringLowerCaseENS_8ProtocolE,
                            __ZN17BasebandTransport17updateDeltas_syncEv,
                            __ZN17BasebandTransport21getSupportedProtocolsEv,
                            __ZN17BasebandTransport29getDefaultTransportIOReadSizeENS_8ProtocolE,
                            __ZN17BasebandTransport29getSupportedProtocolsAsStringEv,
                            __ZN17BasebandTransport30getDefaultTransportIOReadCountENS_8ProtocolE,
                            __ZN17BasebandTransport38getSupportedProtocolsAsStringLowerCaseEv,
                            __ZN17BasebandTransport4initEv,
                            __ZN17BasebandTransport4openENS_10ParametersEN8dispatch5blockIU13block_pointerFvPhjEEE,
                            __ZN17BasebandTransport4readEPhmPjbj,
                            __ZN17BasebandTransport5closeEv,
                            __ZN17BasebandTransport5writeEPKhmPjbj,
                            __ZN17BasebandTransport6Status4initEv,
                            __ZN17BasebandTransport6StatusC1Ev,
                            __ZN17BasebandTransport6StatusC2Ev,
                            __ZN17BasebandTransport6createEN8dispatch5queueE,
                            __ZN17BasebandTransport6createENSt3__110shared_ptrIN3ctu9LogServerEEEN8dispatch5queueE,
                            __ZN17BasebandTransport7getNameEv,
                            __ZN17BasebandTransport8asStringENS_5StateE,
                            __ZN17BasebandTransport8asStringENS_8ProtocolE,
                            __ZN17BasebandTransport9dumpStateEb,
                            __ZN17BasebandTransport9getStatusEv,
                            __ZN17BasebandTransport9read_syncEN8dispatch13group_sessionE,
                            __ZN17BasebandTransportC1ENSt3__110shared_ptrIN3ctu9LogServerEEEN8dispatch5queueE,
                            __ZN17BasebandTransportC2ENSt3__110shared_ptrIN3ctu9LogServerEEEN8dispatch5queueE,
                            __ZN17BasebandTransportD0Ev,
                            __ZN17BasebandTransportD1Ev,
                            __ZN17BasebandTransportD2Ev,
                            __ZN17BasebandTransportdeEv,
                            __ZN17ServerClientState12setCheckedInERKNSt3__112basic_stringIcNS0_11char_traitsIcEENS0_9allocatorIcEEEE,
                            __ZN17ServerClientState25registerNotification_syncEbN3ctu2cf11CFSharedRefIK9__CFArrayEE,
                            __ZN17ServerClientState29isNotificationRegistered_syncERKNSt3__112basic_stringIcNS0_11char_traitsIcEENS0_9allocatorIcEEEE,
                            __ZN17ServerClientStateC1ERKNSt3__112basic_stringIcNS0_11char_traitsIcEENS0_9allocatorIcEEEE,
                            __ZN17ServerClientStateC1Ev,
                            __ZN17ServerClientStateC2ERKNSt3__112basic_stringIcNS0_11char_traitsIcEENS0_9allocatorIcEEEE,
                            __ZN17ServerClientStateC2Ev,
                            __ZN18DataStallDetection11setCallbackEN8dispatch8callbackIU13block_pointerFvNSt3__112basic_stringIcNS2_11char_traitsIcEENS2_9allocatorIcEEEEEEE,
                            __ZN18DataStallDetection5startEv,
                            __ZN18DataStallDetection6createENSt3__110shared_ptrIN3ctu9LogServerEEE,
                            __ZN18DataStallDetectionC1ENSt3__110shared_ptrIN3ctu9LogServerEEE,
                            __ZN18DataStallDetectionC2ENSt3__110shared_ptrIN3ctu9LogServerEEE,
                            __ZN18DataStallDetectionD0Ev,
                            __ZN18DataStallDetectionD1Ev,
                            __ZN18DataStallDetectionD2Ev,
                            __ZN20MipcTransportService12enableBypassEb,
                            __ZN20MipcTransportService12exitLowPowerEN8dispatch13group_sessionE,
                            __ZN20MipcTransportService13enterLowPowerEN8dispatch13group_sessionE,
                            __ZN20MipcTransportService13shutdown_syncEv,
                            __ZN20MipcTransportService18getWakeReason_syncEj,
                            __ZN20MipcTransportService18resetBaseband_syncERKNSt3__112basic_stringIcNS0_11char_traitsIcEENS0_9allocatorIcEEEE,
                            __ZN20MipcTransportService21registerForWakeReasonEN8dispatch8callbackIU13block_pointerFv10WakeReasonEEE,
                            __ZN20MipcTransportService21updateWakeReason_syncEv,
                            __ZN20MipcTransportService22cancelWakeRequest_syncEv,
                            __ZN20MipcTransportService25shouldTeardownOnWillResetEv,
                            __ZN20MipcTransportService28reportPowerDownMessages_syncEv,
                            __ZN20MipcTransportService4initEv,
                            __ZN20MipcTransportService6engageEv,
                            __ZN20MipcTransportService7recoverEv,
                            __ZN20MipcTransportService8shutdownEv,
                            __ZN20MipcTransportService8snapshotENSt3__112basic_stringIcNS0_11char_traitsIcEENS0_9allocatorIcEEEE,
                            __ZN20MipcTransportService8tearDownEv,
                            __ZN20MipcTransportService9dumpStateEv,
                            __ZN20MipcTransportServiceC1ENSt3__110shared_ptrIN3ctu9LogServerEEENS1_I20AppleBasebandManagerEENS0_8weak_ptrI15TransportModuleEENS1_I8RegistryEE,
                            __ZN20MipcTransportServiceC2ENSt3__110shared_ptrIN3ctu9LogServerEEENS1_I20AppleBasebandManagerEENS0_8weak_ptrI15TransportModuleEENS1_I8RegistryEE,
                            __ZN20MipcTransportServiceD0Ev,
                            __ZN20MipcTransportServiceD1Ev,
                            __ZN20MipcTransportServiceD2Ev,
                            __ZN21NetworkStatsInterface5queryEv,
                            __ZN21NetworkStatsInterface6createENSt3__110shared_ptrIN3ctu9LogServerEEE,
                            __ZN21NetworkStatsInterfaceC1ENSt3__110shared_ptrIN3ctu9LogServerEEE,
                            __ZN21NetworkStatsInterfaceC2ENSt3__110shared_ptrIN3ctu9LogServerEEE,
                            __ZN24ABMServerRegistryBuilder13setupServicesERKNSt3__110shared_ptrI8RegistryEE,
                            __ZN24ABMServerRegistryBuilder14setupQMIServerERKNSt3__110shared_ptrI8RegistryEENS1_I18BBServerConnectionEE,
                            __ZN24ABMServerRegistryBuilder17setupRouterServerERKNSt3__110shared_ptrI8RegistryEENS1_IN3abb6router6ServerEEE,
                            __ZN24ABMServerRegistryBuilder6createENSt3__110shared_ptrI7FactoryEE,
                            __ZN24ABMServerRegistryBuilderC1ENSt3__110shared_ptrI7FactoryEE,
                            __ZN24ABMServerRegistryBuilderC2ENSt3__110shared_ptrI7FactoryEE,
                            __ZN24ABMServerRegistryBuilderD1Ev,
                            __ZN24ABMServerRegistryBuilderD2Ev,
                            __ZN25BasebandCrashReasonFilter12shouldSetCOFERKNSt3__112basic_stringIcNS0_11char_traitsIcEENS0_9allocatorIcEEEE,
                            __ZN25BasebandCrashReasonFilter12shouldSetSCDERKNSt3__112basic_stringIcNS0_11char_traitsIcEENS0_9allocatorIcEEEE,
                            __ZN25BasebandCrashReasonFilter46readBasebandCrashReasonPatternsFromFactoryFileEv,
                            __ZN25BasebandCrashReasonFilter46readBasebandCrashReasonPatternsFromPreferencesEv,
                            __ZN25BasebandCrashReasonFilter59convertBasebandCrashReasonPatternsFromCFSharedArrayToVectorEN3ctu2cf11CFSharedRefIK9__CFArrayEE,
                            __ZN25BasebandCrashReasonFilter6createEv,
                            __ZN25BasebandCrashReasonFilterC1Ev,
                            __ZN25BasebandCrashReasonFilterC2Ev,
                            __ZN25BasebandCrashReasonFilterD0Ev,
                            __ZN25BasebandCrashReasonFilterD1Ev,
                            __ZN25BasebandCrashReasonFilterD2Ev,
                            __ZN3abm16kKeyTimestampUTCE,
                            __ZN3abm18kKeyLogDumpHistoryE,
                            __ZN3abm20isWISServerAvailableEv,
                            __ZN3abm22AWDHelperGetConnectionEv,
                            __ZN3abm22AWDHelperSetConnectionENSt3__110shared_ptrIN3wis19WISServerConnectionEEE,
                            __ZN3abm22kEventTransportIsReadyE,
                            __ZN3abm22kKeyPowerDownMessageIdE,
                            __ZN3abm24kKeyPowerDownMessageListE,
                            __ZN3abm26kKeyPowerDownMessageQMISvcE,
                            __ZN3abm29kActionCreateNetworkInterfaceE,
                            __ZN3abm29kActionRemoveNetworkInterfaceE,
                            __ZN3abm30kActionConfigureDataThrottlingE,
                            __ZN3abm31kActionActivateNetworkInterfaceE,
                            __ZN3abm31kCommandNetworkInterfaceControlE,
                            __ZN3abm31kCommandSetPowerDownMessageListE,
                            __ZN3abm33kActionDeactivateNetworkInterfaceE,
                            __ZN3abm5debug17registerLogServerENSt3__110shared_ptrIN3ctu9LogServerEEE,
                            __ZN3sys10UIObserver21create_default_globalEv,
                            __ZN3sys10UIObserver30handleDisplayLockedChange_syncEv,
                            __ZN3sys10UIObserver40registerForScreenLockedNotification_syncEv,
                            __ZN3sys10UIObserver42unregisterForScreenLockedNotification_syncEv,
                            __ZN3sys10UIObserver7observeEb,
                            __ZN3sys10UIObserverC1Ev, __ZN3sys10UIObserverC2Ev,
                            __ZN4data16TransportService12exitLowPowerEv,
                            __ZN4data16TransportService13enterLowPowerEv,
                            __ZN4data16TransportService17unblockThrottlingEv,
                            __ZN4data16TransportService9setConfigERKNS0_16ThrottlingConfigE,
                            __ZN4data16TransportServiceC1ENSt3__110shared_ptrIN3ctu9LogServerEEE,
                            __ZN4data16TransportServiceC1Ev,
                            __ZN4data16TransportServiceC2ENSt3__110shared_ptrIN3ctu9LogServerEEE,
                            __ZN4data16TransportServiceC2Ev,
                            __ZN4prop10systemlogs3getERKNSt3__112basic_stringIcNS1_11char_traitsIcEENS1_9allocatorIcEEEERS7_,
                            __ZN4prop10systemlogs3setERKNSt3__112basic_stringIcNS1_11char_traitsIcEENS1_9allocatorIcEEEES9_,
                            __ZN4prop11compression3getERKNSt3__112basic_stringIcNS1_11char_traitsIcEENS1_9allocatorIcEEEERS7_,
                            __ZN4prop11compression3setERKNSt3__112basic_stringIcNS1_11char_traitsIcEENS1_9allocatorIcEEEES9_,
                            __ZN4prop13tracesettings10anyEnabledEv,
                            __ZN4prop13tracesettings12isContinuousEv,
                            __ZN4prop13tracesettings29mobileBasebandServicesEnabledEv,
                            __ZN4prop13tracesettings3getERKNSt3__112basic_stringIcNS1_11char_traitsIcEENS1_9allocatorIcEEEERS7_,
                            __ZN4prop13tracesettings3setERKNSt3__112basic_stringIcNS1_11char_traitsIcEENS1_9allocatorIcEEEES9_,
                            __ZN4prop13tracesettings7enabledEPKc,
                            __ZN4prop3getERKNSt3__112basic_stringIcNS0_11char_traitsIcEENS0_9allocatorIcEEEES8_RS6_,
                            __ZN4prop3ipc3getERKNSt3__112basic_stringIcNS1_11char_traitsIcEENS1_9allocatorIcEEEERS7_,
                            __ZN4prop3ipc3setERKNSt3__112basic_stringIcNS1_11char_traitsIcEENS1_9allocatorIcEEEES9_,
                            __ZN4prop3setERKNSt3__112basic_stringIcNS0_11char_traitsIcEENS0_9allocatorIcEEEES8_S8_,
                            __ZN4prop3ttr3getERKNSt3__112basic_stringIcNS1_11char_traitsIcEENS1_9allocatorIcEEEERS7_,
                            __ZN4prop3ttr3setERKNSt3__112basic_stringIcNS1_11char_traitsIcEENS1_9allocatorIcEEEES9_,
                            __ZN4prop5bbipc3getERKNSt3__112basic_stringIcNS1_11char_traitsIcEENS1_9allocatorIcEEEERS7_,
                            __ZN4prop5bbipc3setERKNSt3__112basic_stringIcNS1_11char_traitsIcEENS1_9allocatorIcEEEES9_,
                            __ZN4prop7bbtrace3getERKNSt3__112basic_stringIcNS1_11char_traitsIcEENS1_9allocatorIcEEEERS7_,
                            __ZN4prop7bbtrace3setERKNSt3__112basic_stringIcNS1_11char_traitsIcEENS1_9allocatorIcEEEES9_,
                            __ZN4prop7profile3getERKNSt3__112basic_stringIcNS1_11char_traitsIcEENS1_9allocatorIcEEEERS7_,
                            __ZN4prop7profile3setERKNSt3__112basic_stringIcNS1_11char_traitsIcEENS1_9allocatorIcEEEES9_,
                            __ZN4prop8coredump3getERKNSt3__112basic_stringIcNS1_11char_traitsIcEENS1_9allocatorIcEEEERS7_,
                            __ZN4prop8coredump3setERKNSt3__112basic_stringIcNS1_11char_traitsIcEENS1_9allocatorIcEEEES9_,
                            __ZN4prop8tailspin3getERKNSt3__112basic_stringIcNS1_11char_traitsIcEENS1_9allocatorIcEEEERS7_,
                            __ZN4prop8tailspin3setERKNSt3__112basic_stringIcNS1_11char_traitsIcEENS1_9allocatorIcEEEES9_,
                            __ZN4prop9logfilter3getERKNSt3__112basic_stringIcNS1_11char_traitsIcEENS1_9allocatorIcEEEERS7_,
                            __ZN4prop9logfilter3setERKNSt3__112basic_stringIcNS1_11char_traitsIcEENS1_9allocatorIcEEEES9_,
                            __ZN4util12equal_nocaseERKNSt3__112basic_stringIcNS0_11char_traitsIcEENS0_9allocatorIcEEEES8_,
                            __ZN4util13strip_patternERKNSt3__112basic_stringIcNS0_11char_traitsIcEENS0_9allocatorIcEEEES8_,
                            __ZN4util14generateSHA256ENSt3__112basic_stringIcNS0_11char_traitsIcEENS0_9allocatorIcEEEEPcj,
                            __ZN4util14moveDirContentENSt3__112basic_stringIcNS0_11char_traitsIcEENS0_9allocatorIcEEEES6_bjNS0_11basic_regexIcNS0_12regex_traitsIcEEEE,
                            __ZN4util15checkLogFileAgeENSt3__112basic_stringIcNS0_11char_traitsIcEENS0_9allocatorIcEEEElNS0_11basic_regexIcNS0_12regex_traitsIcEEEE,
                            __ZN4util15convert_garbageERNSt3__112basic_stringIcNS0_11char_traitsIcEENS0_9allocatorIcEEEE,
                            __ZN4util15strip_non_alphaERNSt3__112basic_stringIcNS0_11char_traitsIcEENS0_9allocatorIcEEEE,
                            __ZN4util17markPurgeableFileENSt3__112basic_stringIcNS0_11char_traitsIcEENS0_9allocatorIcEEEE,
                            __ZN4util18GuaranteedCallback3runEiNSt3__112basic_stringIcNS1_11char_traitsIcEENS1_9allocatorIcEEEE,
                            __ZN4util18GuaranteedCallback5startEv,
                            __ZN4util18GuaranteedCallback6createEN8dispatch5blockIU13block_pointerFviNSt3__112basic_stringIcNS3_11char_traitsIcEENS3_9allocatorIcEEEEEEENS1_5queueENS3_6chrono8durationIxNS3_5ratioILl1ELl1000EEEEE,
                            __ZN4util18GuaranteedCallbackC1EN8dispatch5blockIU13block_pointerFviNSt3__112basic_stringIcNS3_11char_traitsIcEENS3_9allocatorIcEEEEEEENS1_5queueENS3_6chrono8durationIxNS3_5ratioILl1ELl1000EEEEE,
                            __ZN4util18GuaranteedCallbackC2EN8dispatch5blockIU13block_pointerFviNSt3__112basic_stringIcNS3_11char_traitsIcEENS3_9allocatorIcEEEEEEENS1_5queueENS3_6chrono8durationIxNS3_5ratioILl1ELl1000EEEEE,
                            __ZN4util18GuaranteedCallbackD1Ev,
                            __ZN4util18GuaranteedCallbackD2Ev,
                            __ZN4util19getNumberOfLogDumpsENSt3__112basic_stringIcNS0_11char_traitsIcEENS0_9allocatorIcEEEES6_,
                            __ZN4util19strip_non_printableERNSt3__112basic_stringIcNS0_11char_traitsIcEENS0_9allocatorIcEEEE,
                            __ZN4util20isDumpForSysdiagnoseENSt3__112basic_stringIcNS0_11char_traitsIcEENS0_9allocatorIcEEEES6_,
                            __ZN4util22strip_leading_trailingERKNSt3__112basic_stringIcNS0_11char_traitsIcEENS0_9allocatorIcEEEES8_,
                            __ZN4util23findBasebandLogInfoFileENSt3__112basic_stringIcNS0_11char_traitsIcEENS0_9allocatorIcEEEENS0_6vectorIS6_NS4_IS6_EEEE,
                            __ZN4util23readPlistToCFDictionaryENSt3__112basic_stringIcNS0_11char_traitsIcEENS0_9allocatorIcEEEE,
                            __ZN4util24findLastLogDumpTimestampEPKcS1_jbS1_,
                            __ZN4util28compareTwoStringsWithPatternERKNSt3__112basic_stringIcNS0_11char_traitsIcEENS0_9allocatorIcEEEES8_S8_,
                            __ZN4util4apfs24is_transcription_pendingEv,
                            __ZN4util8to_upperERNSt3__112basic_stringIcNS0_11char_traitsIcEENS0_9allocatorIcEEEE,
                            __ZN5radio13HealthService12exitLowPowerEN8dispatch8callbackIU13block_pointerFvvEEE,
                            __ZN5radio13HealthService13enterLowPowerEN8dispatch8callbackIU13block_pointerFvvEEE,
                            __ZN5radio13HealthService15reportDataStatsEv,
                            __ZN5radio13HealthService25kKeyDataReportingIntervalE,
                            __ZN5radio13HealthService5State12exitLowPowerEN8dispatch8callbackIU13block_pointerFvvEEE,
                            __ZN5radio13HealthService5State13enterLowPowerEN8dispatch8callbackIU13block_pointerFvvEEE,
                            __ZN5radio13HealthService5State15reportDataStatsEv,
                            __ZN5radio13HealthService5State20reportDataStats_syncEv,
                            __ZN5radio13HealthService5State27stopDataReportingTimer_syncEv,
                            __ZN5radio13HealthService5State28queryAndReportDataStats_syncEv,
                            __ZN5radio13HealthService5State28startDataReportingTimer_syncEN3ctu2cf11CFSharedRefIK14__CFDictionaryEE,
                            __ZN5radio13HealthService5State28startDataStallReporting_syncEv,
                            __ZN5radio13HealthService5State5resetEv,
                            __ZN5radio13HealthService5State5startEN3ctu2cf11CFSharedRefIK14__CFDictionaryEE,
                            __ZN5radio13HealthService5StateC1ENSt3__110shared_ptrIN3ctu9LogServerEEENS3_I18DataStallDetectionEE,
                            __ZN5radio13HealthService5StateC2ENSt3__110shared_ptrIN3ctu9LogServerEEENS3_I18DataStallDetectionEE,
                            __ZN5radio13HealthService5StateD0Ev,
                            __ZN5radio13HealthService5StateD1Ev,
                            __ZN5radio13HealthService5StateD2Ev,
                            __ZN5radio13HealthService5resetEv,
                            __ZN5radio13HealthServiceC1ENSt3__110shared_ptrIN3ctu9LogServerEEENS2_I18DataStallDetectionEENS3_2cf11CFSharedRefIK14__CFDictionaryEE,
                            __ZN5radio13HealthServiceC2ENSt3__110shared_ptrIN3ctu9LogServerEEENS2_I18DataStallDetectionEENS3_2cf11CFSharedRefIK14__CFDictionaryEE,
                            __ZN6config2hw10regionCodeEv,
                            __ZN6config2hw10regionInfoEv,
                            __ZN6config2hw11getBootArgsEv,
                            __ZN6config2hw14deviceMaterialEv,
                            __ZN6config2hw4iPadEv, __ZN6config2hw5watchEv,
                            __ZN6config2hw7productEv,
                            __ZN6config5build19internal_or_carrierEv,
                            __ZN6config5build7carrierEv,
                            __ZN6config5build7versionEv,
                            __ZN6config5build8internalEv,
                            __ZN6metric22sendCoreAnalyticsEventENSt3__112basic_stringIcNS0_11char_traitsIcEENS0_9allocatorIcEEEEN3xpc4dictE,
                            __ZN7Service17getServiceManagerEv,
                            __ZN7Service22registerCommandHandlerERKNSt3__112basic_stringIcNS0_11char_traitsIcEENS0_9allocatorIcEEEEN8dispatch5blockIU13block_pointerFvN3xpc4dictENSA_IU13block_pointerFviSC_EEEEEE,
                            __ZN7ServiceC2ENSt3__18weak_ptrI14ServiceManagerEE,
                            __ZN7ServiceD0Ev, __ZN7ServiceD1Ev, __ZN7ServiceD2Ev,
                            __ZN7support2fs10fileExistsERKNSt3__112basic_stringIcNS1_11char_traitsIcEENS1_9allocatorIcEEEE,
                            __ZN7support2fs10removeFileERKNSt3__112basic_stringIcNS1_11char_traitsIcEENS1_9allocatorIcEEEE,
                            __ZN7support2fs11getBasePathERKNSt3__112basic_stringIcNS1_11char_traitsIcEENS1_9allocatorIcEEEE,
                            __ZN7support2fs11getFileNameERKNSt3__112basic_stringIcNS1_11char_traitsIcEENS1_9allocatorIcEEEE,
                            __ZN7support2fs11getFileSizeERKNSt3__112basic_stringIcNS1_11char_traitsIcEENS1_9allocatorIcEEEERm,
                            __ZN7support2fs11getFileSizeERNSt3__114basic_ifstreamIcNS1_11char_traitsIcEEEERm,
                            __ZN7support2fs11updateOwnerENSt3__112basic_stringIcNS1_11char_traitsIcEENS1_9allocatorIcEEEEjj,
                            __ZN7support2fs13moveDirUniqueERKNSt3__112basic_stringIcNS1_11char_traitsIcEENS1_9allocatorIcEEEES9_,
                            __ZN7support2fs15readCurrentLineERNSt3__114basic_ifstreamIcNS1_11char_traitsIcEEEE,
                            __ZN7support2fs16createUniquePathENSt3__112basic_stringIcNS1_11char_traitsIcEENS1_9allocatorIcEEEE,
                            __ZN7support2fs16getFilteredFilesENSt3__112basic_stringIcNS1_11char_traitsIcEENS1_9allocatorIcEEEENS1_11basic_regexIcNS1_12regex_traitsIcEEEERNS1_6vectorIS7_NS5_IS7_EEEEb,
                            __ZN7support2fs16getLastNumberDirERKNSt3__112basic_stringIcNS1_11char_traitsIcEENS1_9allocatorIcEEEE,
                            __ZN7support2fs16getPartitionInfoENSt3__112basic_stringIcNS1_11char_traitsIcEENS1_9allocatorIcEEEERmS8_S8_,
                            __ZN7support2fs17removeDirContentsERKNSt3__112basic_stringIcNS1_11char_traitsIcEENS1_9allocatorIcEEEEm,
                            __ZN7support2fs17writeToCompletionEP7__sFILEPKhm,
                            __ZN7support2fs17writeToCompletionEiPKhm,
                            __ZN7support2fs20createUniqueFilenameENSt3__112basic_stringIcNS1_11char_traitsIcEENS1_9allocatorIcEEEE,
                            __ZN7support2fs5chmodERKNSt3__112basic_stringIcNS1_11char_traitsIcEENS1_9allocatorIcEEEEt,
                            __ZN7support2fs5chownERKNSt3__112basic_stringIcNS1_11char_traitsIcEENS1_9allocatorIcEEEEjj,
                            __ZN7support2fs5isDirERKNSt3__112basic_stringIcNS1_11char_traitsIcEENS1_9allocatorIcEEEE,
                            __ZN7support2fs6renameERKNSt3__112basic_stringIcNS1_11char_traitsIcEENS1_9allocatorIcEEEES9_,
                            __ZN7support2fs7lockDirERKNSt3__112basic_stringIcNS1_11char_traitsIcEENS1_9allocatorIcEEEE,
                            __ZN7support2fs7readDirERKNSt3__112basic_stringIcNS1_11char_traitsIcEENS1_9allocatorIcEEEERNS1_6vectorIS7_NS5_IS7_EEEE,
                            __ZN7support2fs8copyFileERKNSt3__112basic_stringIcNS1_11char_traitsIcEENS1_9allocatorIcEEEES9_b,
                            __ZN7support2fs8loadFileERKNSt3__112basic_stringIcNS1_11char_traitsIcEENS1_9allocatorIcEEEERNS1_6vectorIcS6_EE,
                            __ZN7support2fs8loadFileERKNSt3__112basic_stringIcNS1_11char_traitsIcEENS1_9allocatorIcEEEERNS1_6vectorIhNS5_IhEEEE,
                            __ZN7support2fs8openFileERKNSt3__112basic_stringIcNS1_11char_traitsIcEENS1_9allocatorIcEEEEit,
                            __ZN7support2fs8toStringENS0_6userIDE,
                            __ZN7support2fs9closeFileEi,
                            __ZN7support2fs9createDirERKNSt3__112basic_stringIcNS1_11char_traitsIcEENS1_9allocatorIcEEEEtb,
                            __ZN7support2fs9getUidGidENS0_6userIDERjS2_,
                            __ZN7support2fs9removeDirERKNSt3__112basic_stringIcNS1_11char_traitsIcEENS1_9allocatorIcEEEE,
                            __ZN7support2fs9unlockDirEi,
                            __ZN7support2ui16showNotificationENS0_10callerNameENS0_16NotificationInfoEU13block_pointerFvvE,
                            __ZN7support2ui16showNotificationENS0_10callerNameENS0_16NotificationInfoEU13block_pointerFvvEN8dispatch5queueE,
                            __ZN7support2ui23displayUserNotificationERKNSt3__112basic_stringIcNS1_11char_traitsIcEENS1_9allocatorIcEEEES9_bd,
                            __ZN7support2ui28displayAlertWithUserResponseEPK10__CFStringS3_,
                            __ZN7support3log14manager_globalC1Ev,
                            __ZN7support3log14manager_globalC2Ev,
                            __ZN7support3log15stdout_delegate6createENSt3__18weak_ptrINS0_8delegate7contextEEE,
                            __ZN7support3log15stdout_delegate6createEv,
                            __ZN7support3log15stdout_delegate7messageERKNS0_7detailsEPKc,
                            __ZN7support3log15stdout_delegateC1ENSt3__18weak_ptrINS0_8delegate7contextEEE,
                            __ZN7support3log15stdout_delegateC2ENSt3__18weak_ptrINS0_8delegate7contextEEE,
                            __ZN7support3log6client10descriptorC1ENSt3__112basic_stringIcNS3_11char_traitsIcEENS3_9allocatorIcEEEES9_,
                            __ZN7support3log6client10descriptorC2ENSt3__112basic_stringIcNS3_11char_traitsIcEENS3_9allocatorIcEEEES9_,
                            __ZN7support3log6clientC1ENSt3__112basic_stringIcNS2_11char_traitsIcEENS2_9allocatorIcEEEES8_,
                            __ZN7support3log6clientC1ENSt3__112basic_stringIcNS2_11char_traitsIcEENS2_9allocatorIcEEEES8_NS2_10shared_ptrINS0_7managerEEE,
                            __ZN7support3log6clientC1ENSt3__112basic_stringIcNS2_11char_traitsIcEENS2_9allocatorIcEEEES8_PKNS0_7managerE,
                            __ZN7support3log6clientC2ENSt3__112basic_stringIcNS2_11char_traitsIcEENS2_9allocatorIcEEEES8_,
                            __ZN7support3log6clientC2ENSt3__112basic_stringIcNS2_11char_traitsIcEENS2_9allocatorIcEEEES8_NS2_10shared_ptrINS0_7managerEEE,
                            __ZN7support3log6clientC2ENSt3__112basic_stringIcNS2_11char_traitsIcEENS2_9allocatorIcEEEES8_PKNS0_7managerE,
                            __ZN7support3log7manager10parameters12set_defaultsEv,
                            __ZN7support3log7manager10parametersC1ENS0_5levelE,
                            __ZN7support3log7manager10parametersC1Ev,
                            __ZN7support3log7manager10parametersC2ENS0_5levelE,
                            __ZN7support3log7manager10parametersC2Ev,
                            __ZN7support3log7manager12add_delegateEONSt3__110unique_ptrINS0_8delegateENS2_14default_deleteIS4_EEEE,
                            __ZN7support3log7manager12set_defaultsEv,
                            __ZN7support3log7manager13add_delegatesEONSt3__14listINS2_10unique_ptrINS0_8delegateENS2_14default_deleteIS5_EEEENS2_9allocatorIS8_EEEE,
                            __ZN7support3log7manager6createENSt3__112basic_stringIcNS2_11char_traitsIcEENS2_9allocatorIcEEEERKNS1_10parametersEONS2_10unique_ptrINS0_8delegateENS2_14default_deleteISD_EEEE,
                            __ZN7support3log7manager6createENSt3__112basic_stringIcNS2_11char_traitsIcEENS2_9allocatorIcEEEERKNS1_10parametersEONS2_4listINS2_10unique_ptrINS0_8delegateENS2_14default_deleteISE_EEEENS6_ISH_EEEE,
                            __ZN7support3log7manager9set_levelENS0_5levelE,
                            __ZN7support3log7managerC1ENSt3__112basic_stringIcNS2_11char_traitsIcEENS2_9allocatorIcEEEERKNS1_10parametersEONS2_10unique_ptrINS0_8delegateENS2_14default_deleteISD_EEEE,
                            __ZN7support3log7managerC1ENSt3__112basic_stringIcNS2_11char_traitsIcEENS2_9allocatorIcEEEERKNS1_10parametersEONS2_4listINS2_10unique_ptrINS0_8delegateENS2_14default_deleteISE_EEEENS6_ISH_EEEE,
                            __ZN7support3log7managerC2ENSt3__112basic_stringIcNS2_11char_traitsIcEENS2_9allocatorIcEEEERKNS1_10parametersEONS2_10unique_ptrINS0_8delegateENS2_14default_deleteISD_EEEE,
                            __ZN7support3log7managerC2ENSt3__112basic_stringIcNS2_11char_traitsIcEENS2_9allocatorIcEEEERKNS1_10parametersEONS2_4listINS2_10unique_ptrINS0_8delegateENS2_14default_deleteISE_EEEENS6_ISH_EEEE,
                            __ZN7support3log8delegate7context6createEPv,
                            __ZN7support3log8delegate7contextC1EPv,
                            __ZN7support3log8delegate7contextC2EPv,
                            __ZN7support3log8delegateC2ENSt3__18weak_ptrINS1_7contextEEE,
                            __ZN8defaults10systemlogs24userConfirmationRequiredEv,
                            __ZN8defaults10systemlogs3getERKNSt3__112basic_stringIcNS1_11char_traitsIcEENS1_9allocatorIcEEEERS7_,
                            __ZN8defaults10systemlogs4modeEv,
                            __ZN8defaults10systemlogs7historyEv,
                            __ZN8defaults10systemlogs9supportedEv,
                            __ZN8defaults11compression12splitArchiveEv,
                            __ZN8defaults11compression3getERKNSt3__112basic_stringIcNS1_11char_traitsIcEENS1_9allocatorIcEEEERS7_,
                            __ZN8defaults11compression4modeEv,
                            __ZN8defaults11compression9supportedEv,
                            __ZN8defaults13tracesettings3getERKNSt3__112basic_stringIcNS1_11char_traitsIcEENS1_9allocatorIcEEEERS7_,
                            __ZN8defaults13tracesettings6configEv,
                            __ZN8defaults3getERKNSt3__112basic_stringIcNS0_11char_traitsIcEENS0_9allocatorIcEEEES8_RS6_,
                            __ZN8defaults3ipc12buffer_countEv,
                            __ZN8defaults3ipc3getERKNSt3__112basic_stringIcNS1_11char_traitsIcEENS1_9allocatorIcEEEERS7_,
                            __ZN8defaults3ipc7enabledEv,
                            __ZN8defaults3ipc7historyEv,
                            __ZN8defaults3ttr3getERKNSt3__112basic_stringIcNS1_11char_traitsIcEENS1_9allocatorIcEEEERS7_,
                            __ZN8defaults3ttr4modeEv,
                            __ZN8defaults3ttr8agelimitEv,
                            __ZN8defaults3ttr9supportedEv,
                            __ZN8defaults5bbipc20mhiConfigPayloadSizeEv,
                            __ZN8defaults5bbipc3getERKNSt3__112basic_stringIcNS1_11char_traitsIcEENS1_9allocatorIcEEEERS7_,
                            __ZN8defaults5bbipc7enabledEv,
                            __ZN8defaults5bbipc8logLevelEv,
                            __ZN8defaults6helper9supportedEv,
                            __ZN8defaults7bbtrace11live_filterEv,
                            __ZN8defaults7bbtrace11primary_dmcEv,
                            __ZN8defaults7bbtrace12data_loggingEv,
                            __ZN8defaults7bbtrace12privacyLevelEv,
                            __ZN8defaults7bbtrace13min_file_sizeEv,
                            __ZN8defaults7bbtrace13secondary_dmcEv,
                            __ZN8defaults7bbtrace13stall_retriesEv,
                            __ZN8defaults7bbtrace14error_handlingEv,
                            __ZN8defaults7bbtrace14low_water_markEv,
                            __ZN8defaults7bbtrace14stall_recoveryEv,
                            __ZN8defaults7bbtrace15high_water_markEv,
                            __ZN8defaults7bbtrace15stall_detectionEv,
                            __ZN8defaults7bbtrace16trace_sleep_modeEv,
                            __ZN8defaults7bbtrace17keep_scratch_logsEv,
                            __ZN8defaults7bbtrace19transport_read_sizeEv,
                            __ZN8defaults7bbtrace20buffering_on_ap_wakeEv,
                            __ZN8defaults7bbtrace20enabled_during_sleepEv,
                            __ZN8defaults7bbtrace20transport_read_countEv,
                            __ZN8defaults7bbtrace21max_memory_file_countEv,
                            __ZN8defaults7bbtrace23carrier_logging_allowedEv,
                            __ZN8defaults7bbtrace3getERKNSt3__112basic_stringIcNS1_11char_traitsIcEENS1_9allocatorIcEEEERS7_,
                            __ZN8defaults7bbtrace4modeEv,
                            __ZN8defaults7bbtrace7enabledEv,
                            __ZN8defaults7bbtrace7historyEv,
                            __ZN8defaults7bbtrace9extra_dmcEv,
                            __ZN8defaults7bbtrace9file_sizeEv,
                            __ZN8defaults7bbtrace9high_tputEv,
                            __ZN8defaults7bbtrace9sleep_dmcEv,
                            __ZN8defaults7profile3getERKNSt3__112basic_stringIcNS1_11char_traitsIcEENS1_9allocatorIcEEEERS7_,
                            __ZN8defaults7profile7enabledEv,
                            __ZN8defaults7profile7versionEv,
                            __ZN8defaults8coredump3getERKNSt3__112basic_stringIcNS1_11char_traitsIcEENS1_9allocatorIcEEEERS7_,
                            __ZN8defaults8coredump7enabledEv,
                            __ZN8defaults8tailspin3getERKNSt3__112basic_stringIcNS1_11char_traitsIcEENS1_9allocatorIcEEEERS7_,
                            __ZN8defaults8tailspin7enabledEv,
                            __ZN8defaults8tailspin9supportedEv,
                            __ZN8defaults9logfilter13max_log_limitEv,
                            __ZN8defaults9logfilter16free_space_limitEv,
                            __ZN8defaults9logfilter3getERKNSt3__112basic_stringIcNS1_11char_traitsIcEENS1_9allocatorIcEEEERS7_,
                            __ZN8defaults9logfilter9supportedEv,
                            __ZN9ABMServer10getProfileEv,
                            __ZN9ABMServer10getRunLoopEv,
                            __ZN9ABMServer21create_default_globalEv,
                            __ZN9ABMServer24previousShutdownWasCleanEv,
                            __ZN9ABMServer4initENSt3__112basic_stringIcNS0_11char_traitsIcEENS0_9allocatorIcEEEERKN3abm9OverridesE,
                            __ZN9ABMServer4stopEP16dispatch_group_s,
                            __ZN9ABMServer5startEP16dispatch_group_s,
                            __ZN9ABMServer8shutdownEP16dispatch_group_s,
                            __ZN9ABMServer9broadcastENSt3__112basic_stringIcNS0_11char_traitsIcEENS0_9allocatorIcEEEEN3ctu2cf11CFSharedRefIK14__CFDictionaryEEN8dispatch5blockIU13block_pointerFvvEEE,
                            __ZN9ABMServerC1Ev, __ZN9ABMServerC2Ev,
                            __ZN9AWDModule10initializeEN8dispatch13group_sessionE,
                            __ZN9AWDModule15appCheckIn_syncEN3awd5AppIDE,
                            __ZN9AWDModule16queryMetric_syncENSt3__110shared_ptrIN3awd10AppContextEEENS2_10MetricInfoENS2_11TriggerInfoEN8dispatch5blockIU13block_pointerFvbEEE,
                            __ZN9AWDModule16sendPayload_syncENSt3__110shared_ptrIN3awd10AppContextEEENS2_11PayloadTypeERKNS0_6vectorIhNS0_9allocatorIhEEEEN8dispatch5blockIU13block_pointerFvbEEE,
                            __ZN9AWDModule21updateProperties_syncENSt3__110shared_ptrIN3awd10AppContextEEEN8dispatch5blockIU13block_pointerFvbEEE,
                            __ZN9AWDModule23clearConfiguration_syncENSt3__110shared_ptrIN3awd10AppContextEEEN8dispatch5blockIU13block_pointerFvbEEE,
                            __ZN9AWDModule27enableMetricSubmission_syncENSt3__110shared_ptrIN3awd10AppContextEEEbN8dispatch5blockIU13block_pointerFvbEEE,
                            __ZN9AWDModule4initEv,
                            __ZN9AWDModule5startEN8dispatch13group_sessionE,
                            __ZN9AWDModule6createENSt3__18weak_ptrI14ServiceManagerEE,
                            __ZN9AWDModule8shutdownE13ShutdownStageN8dispatch13group_sessionE,
                            __ZN9AWDModuleC1ENSt3__18weak_ptrI14ServiceManagerEE,
                            __ZN9AWDModuleC2ENSt3__18weak_ptrI14ServiceManagerEE,
                            __ZN9AWDModuleD0Ev, __ZN9AWDModuleD1Ev,
                            __ZN9AWDModuleD2Ev, __ZN9LogDumpDB12commitToDiskEv,
                            __ZN9LogDumpDB12isDuplicatedERK9ResetInfoNSt3__16chrono8durationIxNS3_5ratioILl1ELl1EEEEE,
                            __ZN9LogDumpDB4initEv, __ZN9LogDumpDB7getNameEv,
                            __ZN9LogDumpDBC1Ev, __ZN9LogDumpDBC2Ev,
                            __ZN9ResetInfo10setSubTypeEPK10__CFString,
                            __ZN9ResetInfo13fetchFromDictERN3xpc4dictE,
                            __ZN9ResetInfo13sPatternMasksE,
                            __ZN9ResetInfo14setCrashReasonERKNSt3__112basic_stringIcNS0_11char_traitsIcEENS0_9allocatorIcEEEE,
                            __ZN9ResetInfo23readResetReasonPatternsEv,
                            __ZN9ResetInfo40reasonMatchesAtLeastOneApplicablePatternEiRKNSt3__112basic_stringIcNS0_11char_traitsIcEENS0_9allocatorIcEEEERKNS0_6vectorINS_25RegexPatternAndReasonMaskENS4_ISA_EEEE,
                            __ZN9ResetInfo7setTimeENSt3__112basic_stringIcNS0_11char_traitsIcEENS0_9allocatorIcEEEE,
                            __ZN9ResetInfo7setTypeEPK10__CFString,
                            __ZN9ResetInfo8setRadarEN3abm6helper9RadarTypeE,
                            __ZN9ResetInfo9setReasonERKNSt3__112basic_stringIcNS0_11char_traitsIcEENS0_9allocatorIcEEEE,
                            __ZN9ResetInfoC1EPK10__CFStringS2_NSt3__112basic_stringIcNS3_11char_traitsIcEENS3_9allocatorIcEEEES9_N3abm6helper9RadarTypeES9_,
                            __ZN9ResetInfoC1ERKNSt3__112basic_stringIcNS0_11char_traitsIcEENS0_9allocatorIcEEEES8_S8_S6_N3abm6helper9RadarTypeES6_,
                            __ZN9ResetInfoC1Ev,
                            __ZN9ResetInfoC2EPK10__CFStringS2_NSt3__112basic_stringIcNS3_11char_traitsIcEENS3_9allocatorIcEEEES9_N3abm6helper9RadarTypeES9_,
                            __ZN9ResetInfoC2ERKNSt3__112basic_stringIcNS0_11char_traitsIcEENS0_9allocatorIcEEEES8_S8_S6_N3abm6helper9RadarTypeES6_,
                            __ZN9ResetInfoC2Ev, __ZN9ResetInfoD1Ev,
                            __ZN9ResetInfoD2Ev,
                            __ZN9Simulator10initializeEN8dispatch13group_sessionE,
                            __ZN9Simulator25finishInitialization_syncEv,
                            __ZN9Simulator37handleSimulatedPowerNotification_syncEj,
                            __ZN9Simulator5startEN8dispatch13group_sessionE,
                            __ZN9Simulator6createENSt3__18weak_ptrI14ServiceManagerEE,
                            __ZN9Simulator8shutdownE13ShutdownStageN8dispatch13group_sessionE,
                            __ZN9SimulatorC1ENSt3__18weak_ptrI14ServiceManagerEE,
                            __ZN9SimulatorC2ENSt3__18weak_ptrI14ServiceManagerEE,
                            __ZN9Timestamp3nowER7timeval,
                            __ZN9Timestamp3setERK7timevalNS_10TimeDomainE,
                            __ZN9Timestamp7convertENSt3__112basic_stringIcNS0_11char_traitsIcEENS0_9allocatorIcEEEE,
                            __ZN9TimestampC1ENSt3__112basic_stringIcNS0_11char_traitsIcEENS0_9allocatorIcEEEENS_6FormatENS_10TimeDomainE,
                            __ZN9TimestampC1ERK7timevalNS_10TimeDomainE,
                            __ZN9TimestampC1ERKS_,
                            __ZN9TimestampC1ElNS_10TimeDomainE,
                            __ZN9TimestampC1Ev,
                            __ZN9TimestampC2ENSt3__112basic_stringIcNS0_11char_traitsIcEENS0_9allocatorIcEEEENS_6FormatENS_10TimeDomainE,
                            __ZN9TimestampC2ERK7timevalNS_10TimeDomainE,
                            __ZN9TimestampC2ERKS_,
                            __ZN9TimestampC2ElNS_10TimeDomainE,
                            __ZN9TimestampC2Ev,
                            __ZN9analytics33registerCallbackForTimedEventImplEPKcN8dispatch5queueEU13block_pointerFvNSt3__112basic_stringIcNS4_11char_traitsIcEENS4_9allocatorIcEEEEE,
                            __ZNK10BootModule17getShutdownStagesEv,
                            __ZNK10BootModule7getNameEv,
                            __ZNK10LogTracker7getNameEv,
                            __ZNK10PowerStats25submitWakeInfoMetric_syncEN3awd7metrics19CommCenterSleepTypeEjj,
                            __ZNK10PowerStats30submitLowPowerEventMetric_syncEN3awd7metrics27CommCenterLowPowerEventTypeENS1_19CommCenterSleepTypeENSt3__112basic_stringIcNS4_11char_traitsIcEENS4_9allocatorIcEEEE,
                            __ZNK10PowerStats30submitLowPowerStatsMetric_syncEv,
                            __ZNK10PowerStats7getNameEv,
                            __ZNK11HealthEvent13getChronoTimeEv,
                            __ZNK11HealthEvent7getTimeEv,
                            __ZNK11HealthEvent7getTypeEv,
                            __ZNK11HealthEvent8asStringEv,
                            __ZNK11RadioModule17getShutdownStagesEv,
                            __ZNK11RadioModule7getNameEv,
                            __ZNK12Capabilities26isCMHandDetectionSupportedEv,
                            __ZNK12TraceManager17getShutdownStagesEv,
                            __ZNK12TraceManager22submitTraceMetric_syncENSt3__112basic_stringIcNS0_11char_traitsIcEENS0_9allocatorIcEEEES6_,
                            __ZNK12TraceManager7getNameEv,
                            __ZNK14BootController7getNameEv,
                            __ZNK14ResetDetection7getNameEv,
                            __ZNK14ServiceManager10runCommandERKNSt3__112basic_stringIcNS0_11char_traitsIcEENS0_9allocatorIcEEEEN3xpc4dictEN8dispatch5blockIU13block_pointerFviSA_EEE,
                            __ZNK14ServiceManager12isServerDownEv,
                            __ZNK14ServiceManager14broadcastEventENSt3__112basic_stringIcNS0_11char_traitsIcEENS0_9allocatorIcEEEEN3ctu2cf11CFSharedRefIK14__CFDictionaryEEN8dispatch5blockIU13block_pointerFvvEEE,
                            __ZNK14ServiceManager22registerCommandHandlerERKNSt3__112basic_stringIcNS0_11char_traitsIcEENS0_9allocatorIcEEEEN8dispatch5blockIU13block_pointerFvN3xpc4dictENSA_IU13block_pointerFviSC_EEEEEE,
                            __ZNK15AnalyticsHelper7getNameEv,
                            __ZNK15TraceCAReporter28supportedTraceDomainToReportERKNSt3__112basic_stringIcNS0_11char_traitsIcEENS0_9allocatorIcEEEE,
                            __ZNK15TraceCAReporter30supportedTracePropertyToReportERKNSt3__112basic_stringIcNS0_11char_traitsIcEENS0_9allocatorIcEEEE,
                            __ZNK15TransportModule17getShutdownStagesEv,
                            __ZNK15TransportModule7getNameEv,
                            __ZNK17ABMServerInternal7getNameEv,
                            __ZNK17ABMServiceManager7getNameEv,
                            __ZNK17BasebandTransport10Parameters8toStringEv,
                            __ZNK17BasebandTransport11getIOSizeRxEv,
                            __ZNK17BasebandTransport6Status8toStringEv,
                            __ZNK17ServerClientState7getNameEv,
                            __ZNK18DataStallDetection7getNameEv,
                            __ZNK20MipcTransportService7getNameEv,
                            __ZNK21NetworkStatsInterface15applyInterfacesEU13block_pointerFvP7ifaddrsjE,
                            __ZNK21NetworkStatsInterface16getInterfaceListEv,
                            __ZNK21NetworkStatsInterface7getNameEv,
                            __ZNK4data16TransportService16ThrottlingConfig8asStringEv,
                            __ZNK4data16TransportService9dumpStateEv,
                            __ZNK5radio13HealthService5State7getNameEv,
                            __ZNK7Service10runCommandERKNSt3__112basic_stringIcNS0_11char_traitsIcEENS0_9allocatorIcEEEEN3xpc4dictEN8dispatch5blockIU13block_pointerFviSA_EEE,
                            __ZNK7Service12isServerDownEv,
                            __ZNK7Service14broadcastEventENSt3__112basic_stringIcNS0_11char_traitsIcEENS0_9allocatorIcEEEEN3ctu2cf11CFSharedRefIK14__CFDictionaryEEN8dispatch5blockIU13block_pointerFvvEEE,
                            __ZNK7Service14broadcastEventENSt3__112basic_stringIcNS0_11char_traitsIcEENS0_9allocatorIcEEEEN3xpc4dictEN8dispatch5blockIU13block_pointerFvvEEE,
                            __ZNK7Service21getRegisteredCommandsEv,
                            __ZNK7support3log6client10descriptoreqERKS2_,
                            __ZNK7support3log6client11get_managerEv,
                            __ZNK7support3log6client14get_descriptorEv,
                            __ZNK7support3log7manager14get_log_bufferEv,
                            __ZNK7support3log7manager17message_delegatesERKNS0_7detailsEPc,
                            __ZNK7support3log7manager18release_log_bufferEPc,
                            __ZNK7support3log7manager9get_levelEv,
                            __ZNK7support3log8delegate11get_contextEv,
                            __ZNK9AWDModule17getShutdownStagesEv,
                            __ZNK9AWDModule7getNameEv,
                            __ZNK9LogDumpDB26checkIfDuplicatedSignatureERK9ResetInfoS2_,
                            __ZNK9ResetInfo10getSubTypeEv,
                            __ZNK9ResetInfo12shouldSetCOFEv,
                            __ZNK9ResetInfo12shouldSetSCDEv,
                            __ZNK9ResetInfo13getChronoTimeEv,
                            __ZNK9ResetInfo14getCrashReasonEv,
                            __ZNK9ResetInfo6isMTBFEv, __ZNK9ResetInfo7getTimeEv,
                            __ZNK9ResetInfo7getTypeEv,
                            __ZNK9ResetInfo8asStringEv,
                            __ZNK9ResetInfo8getRadarEv,
                            __ZNK9ResetInfo9addToDictERN3ctu2cf11CFSharedRefI14__CFDictionaryEE,
                            __ZNK9ResetInfo9addToDictERN3xpc4dictE,
                            __ZNK9ResetInfo9getReasonEv,
                            __ZNK9Simulator17getShutdownStagesEv,
                            __ZNK9Simulator7getNameEv,
                            __ZNK9Timestamp3getER7timevalNS_10TimeDomainE,
                            __ZNK9Timestamp8asStringENS_10TimeDomainENS_6FormatE,
                            __ZTI10BootModule, __ZTI10LogTracker,
                            __ZTI11RadioModule, __ZTI12PowerManager,
                            __ZTI12TraceManager, __ZTI14BootController,
                            __ZTI14ResetDetection, __ZTI14ServiceManager,
                            __ZTI15AnalyticsHelper, __ZTI15TransportModule,
                            __ZTI16ABMServerFactory, __ZTI17ABMServerInternal,
                            __ZTI17ABMServiceManager, __ZTI17BasebandTransport,
                            __ZTI18DataStallDetection,
                            __ZTI20MipcTransportService,
                            __ZTI25BasebandCrashReasonFilter, __ZTI7Service,
                            __ZTI9AWDModule, __ZTI9LogDumpDB, __ZTI9Simulator,
                            __ZTIN5radio13HealthService5StateE,
                            __ZTIN7support3log15stdout_delegateE,
                            __ZTIN7support3log7manager10parametersE,
                            __ZTIN7support3log7managerE,
                            __ZTIN7support3log8delegateE, __ZTS10BootModule,
                            __ZTS10LogTracker, __ZTS11RadioModule,
                            __ZTS12PowerManager, __ZTS12TraceManager,
                            __ZTS14BootController, __ZTS14ResetDetection,
                            __ZTS14ServiceManager, __ZTS15AnalyticsHelper,
                            __ZTS15TransportModule, __ZTS16ABMServerFactory,
                            __ZTS17ABMServerInternal, __ZTS17ABMServiceManager,
                            __ZTS17BasebandTransport, __ZTS18DataStallDetection,
                            __ZTS20MipcTransportService,
                            __ZTS25BasebandCrashReasonFilter, __ZTS7Service,
                            __ZTS9AWDModule, __ZTS9LogDumpDB, __ZTS9Simulator,
                            __ZTSN5radio13HealthService5StateE,
                            __ZTSN7support3log15stdout_delegateE,
                            __ZTSN7support3log7manager10parametersE,
                            __ZTSN7support3log7managerE,
                            __ZTSN7support3log8delegateE, __ZTV10BootModule,
                            __ZTV10LogTracker, __ZTV11RadioModule,
                            __ZTV12PowerManager, __ZTV12TraceManager,
                            __ZTV14BootController, __ZTV14ResetDetection,
                            __ZTV14ServiceManager, __ZTV15AnalyticsHelper,
                            __ZTV15TransportModule, __ZTV16ABMServerFactory,
                            __ZTV17ABMServerInternal, __ZTV17ABMServiceManager,
                            __ZTV17BasebandTransport, __ZTV18DataStallDetection,
                            __ZTV20MipcTransportService,
                            __ZTV25BasebandCrashReasonFilter, __ZTV7Service,
                            __ZTV9AWDModule, __ZTV9LogDumpDB, __ZTV9Simulator,
                            __ZTVN5radio13HealthService5StateE,
                            __ZTVN7support3log15stdout_delegateE,
                            __ZTVN7support3log7manager10parametersE,
                            __ZTVN7support3log7managerE,
                            __ZTVN7support3log8delegateE,
                            __ZThn104_N20MipcTransportService12enableBypassEb,
                            __ZThn104_N20MipcTransportService12exitLowPowerEN8dispatch13group_sessionE,
                            __ZThn104_N20MipcTransportService13enterLowPowerEN8dispatch13group_sessionE,
                            __ZThn104_N20MipcTransportService21registerForWakeReasonEN8dispatch8callbackIU13block_pointerFv10WakeReasonEEE,
                            __ZThn104_N20MipcTransportService25shouldTeardownOnWillResetEv,
                            __ZThn104_N20MipcTransportService28reportPowerDownMessages_syncEv,
                            __ZThn104_N20MipcTransportService4initEv,
                            __ZThn104_N20MipcTransportService6engageEv,
                            __ZThn104_N20MipcTransportService7recoverEv,
                            __ZThn104_N20MipcTransportService8shutdownEv,
                            __ZThn104_N20MipcTransportService8snapshotENSt3__112basic_stringIcNS0_11char_traitsIcEENS0_9allocatorIcEEEE,
                            __ZThn104_N20MipcTransportService8tearDownEv,
                            __ZThn104_N20MipcTransportService9dumpStateEv,
                            __ZThn104_NK20MipcTransportService7getNameEv,
                            __ZThn48_N10BootModuleD0Ev,
                            __ZThn48_N10BootModuleD1Ev,
                            __ZThn48_N10LogTrackerD0Ev,
                            __ZThn48_N10LogTrackerD1Ev,
                            __ZThn48_N11RadioModuleD0Ev,
                            __ZThn48_N11RadioModuleD1Ev,
                            __ZThn48_N12TraceManagerD0Ev,
                            __ZThn48_N12TraceManagerD1Ev,
                            __ZThn48_N15TransportModuleD0Ev,
                            __ZThn48_N15TransportModuleD1Ev,
                            __ZThn48_N9AWDModuleD0Ev, __ZThn48_N9AWDModuleD1Ev,
                            __ZThn72_N17ABMServerInternalD0Ev,
                            __ZThn72_N17ABMServerInternalD1Ev,
                            _kABMDefaultServiceName, _kABMProjectBuildReason,
                            _kABMProjectBuildRevision, _kABMProjectVersion,
                            _kBasebandXpc, _kBasebandXpcRestricted,
                            _kCommandCheckIn, _kCommandCheckOut,
                            _kCommandEventsOff, _kCommandEventsOn,
                            _kCommandSignalNotification, _kDaemonLogScratchDir,
                            _kDefaultPatternMasks, _kKeepScratchLogsKey,
                            _kKeyClientName, _kKeyCommand, _kKeyCommandData,
                            _kKeyCommandResult, _kKeyEntitlementBasebanddAllow,
                            _kKeyEntitlementFineGrained, _kKeyEvent,
                            _kKeyEventData, _kKeyEventsList, _kOptionServiceName,
                            _kValueInvalid ]
    objc-classes:         [ ABMCacheDelete, ABMTapToRadar, UserNotificationManager ]
    objc-ivars:           [ ABMTapToRadar.fMaxUniqueSignatures,
                            ABMTapToRadar.fMinTimeBetweenSameNotificationSec,
                            ABMTapToRadar.fMode, ABMTapToRadar.fQueue,
                            UserNotificationManager.fCallBackMapWithQueue,
                            UserNotificationManager.fQueue,
                            UserNotificationManager.fUserNotificationCenter ]
    weak-def-symbols:     [ __ZGVN3ctu9SingletonI10SharedDataS1_NS_23PthreadMutexGuardPolicyIS1_EEE9sInstanceE,
                            __ZGVN3ctu9SingletonI13ABMPropertiesS1_NS_23PthreadMutexGuardPolicyIS1_EEE9sInstanceE,
                            __ZGVN3ctu9SingletonI13ServerLoggingS1_NS_23PthreadMutexGuardPolicyIS1_EEE9sInstanceE,
                            __ZGVN3ctu9SingletonI20CommandDriverFactoryS1_NS_23PthreadMutexGuardPolicyIS1_EEE9sInstanceE,
                            __ZGVN3ctu9SingletonI9ABMServerS1_NS_23PthreadMutexGuardPolicyIS1_EEE9sInstanceE,
                            __ZGVN3ctu9SingletonI9LogDumpDBS1_NS_23PthreadMutexGuardPolicyIS1_EEE9sInstanceE,
                            __ZGVN3ctu9SingletonIN3abm9AWDHelperES2_NS_23PthreadMutexGuardPolicyIS2_EEE9sInstanceE,
                            __ZGVN3ctu9SingletonIN3sys10UIObserverES2_NS_23PthreadMutexGuardPolicyIS2_EEE9sInstanceE,
                            __ZGVN3ctu9SingletonIN7support3log12shared_stdioES3_NS_23PthreadMutexGuardPolicyIS3_EEE9sInstanceE,
                            __ZGVN3ctu9SingletonIN7support3log14manager_globalES3_NS_23PthreadMutexGuardPolicyIS3_EEE9sInstanceE,
                            __ZGVN3ctu9SingletonIN7support3log6bufferES3_NS_23PthreadMutexGuardPolicyIS3_EEE9sInstanceE,
                            __ZGVN3ctu9SingletonINS_5power9assertionES2_NS_23PthreadMutexGuardPolicyIS2_EEE9sInstanceE,
                            __ZGVN3ctu9SingletonINS_7GestaltES1_NS_23PthreadMutexGuardPolicyIS1_EEE9sInstanceE,
                            __ZN3ctu9SingletonI10SharedDataS1_NS_23PthreadMutexGuardPolicyIS1_EEE9sInstanceE,
                            __ZN3ctu9SingletonI13ABMPropertiesS1_NS_23PthreadMutexGuardPolicyIS1_EEE9sInstanceE,
                            __ZN3ctu9SingletonI13ServerLoggingS1_NS_23PthreadMutexGuardPolicyIS1_EEE9sInstanceE,
                            __ZN3ctu9SingletonI20CommandDriverFactoryS1_NS_23PthreadMutexGuardPolicyIS1_EEE9sInstanceE,
                            __ZN3ctu9SingletonI9ABMServerS1_NS_23PthreadMutexGuardPolicyIS1_EEE9sInstanceE,
                            __ZN3ctu9SingletonI9LogDumpDBS1_NS_23PthreadMutexGuardPolicyIS1_EEE9sInstanceE,
                            __ZN3ctu9SingletonIN3abm9AWDHelperES2_NS_23PthreadMutexGuardPolicyIS2_EEE9sInstanceE,
                            __ZN3ctu9SingletonIN3sys10UIObserverES2_NS_23PthreadMutexGuardPolicyIS2_EEE9sInstanceE,
                            __ZN3ctu9SingletonIN7support3log12shared_stdioES3_NS_23PthreadMutexGuardPolicyIS3_EEE9sInstanceE,
                            __ZN3ctu9SingletonIN7support3log14manager_globalES3_NS_23PthreadMutexGuardPolicyIS3_EEE9sInstanceE,
                            __ZN3ctu9SingletonIN7support3log6bufferES3_NS_23PthreadMutexGuardPolicyIS3_EEE9sInstanceE,
                            __ZN3ctu9SingletonINS_5power9assertionES2_NS_23PthreadMutexGuardPolicyIS2_EEE9sInstanceE,
                            __ZN3ctu9SingletonINS_7GestaltES1_NS_23PthreadMutexGuardPolicyIS1_EEE9sInstanceE,
                            __ZNSt3__119piecewise_constructE ]
...
