--- !tapi-tbd-v3
archs:                 [ armv7, armv7s, arm64, arm64e ]
platform:              ios
flags:                 [ flat_namespace ]
install-name:          /System/Library/PrivateFrameworks/AppleBasebandLink.framework/AppleBasebandLink
current-version:       0
compatibility-version: 1
exports:
  - archs:                [ armv7, armv7s, arm64, arm64e ]
    symbols:              [ __ZN3abb4link10ClientLinkD0Ev,
                            __ZN3abb4link10ClientLinkD1Ev,
                            __ZN3abb4link10ClientLinkD2Ev,
                            __ZN3abb4link10ServerLinkD0Ev,
                            __ZN3abb4link10ServerLinkD1Ev,
                            __ZN3abb4link10ServerLinkD2Ev,
                            __ZN3abb4link12LinkAccepterD0Ev,
                            __ZN3abb4link12LinkAccepterD1Ev,
                            __ZN3abb4link12LinkAccepterD2Ev,
                            __ZN3abb4link13XpcClientLink10disconnectEv,
                            __ZN3abb4link13XpcClientLink13handleMessageERKN3xpc4dictE,
                            __ZN3abb4link13XpcClientLink15connectInternalERKNSt3__112basic_stringIcNS2_11char_traitsIcEENS2_9allocatorIcEEEE,
                            __ZN3abb4link13XpcClientLink17handleServerErrorERKN3xpc6objectE,
                            __ZN3abb4link13XpcClientLink6createEN3xpc8endpointE,
                            __ZN3abb4link13XpcClientLink6createERKNSt3__112basic_stringIcNS2_11char_traitsIcEENS2_9allocatorIcEEEE,
                            __ZN3abb4link13XpcClientLinkC1EN3xpc8endpointE,
                            __ZN3abb4link13XpcClientLinkC1ERKNSt3__112basic_stringIcNS2_11char_traitsIcEENS2_9allocatorIcEEEE,
                            __ZN3abb4link13XpcClientLinkC2EN3xpc8endpointE,
                            __ZN3abb4link13XpcClientLinkC2ERKNSt3__112basic_stringIcNS2_11char_traitsIcEENS2_9allocatorIcEEEE,
                            __ZN3abb4link13XpcClientLinkD0Ev,
                            __ZN3abb4link13XpcClientLinkD1Ev,
                            __ZN3abb4link13XpcClientLinkD2Ev,
                            __ZN3abb4link13XpcServerLink11connectLinkEN3xpc6objectE,
                            __ZN3abb4link13XpcServerLink17handleClientErrorERKN3xpc10connectionERKNS2_6objectE,
                            __ZN3abb4link13XpcServerLink19handleClientMessageERKN3xpc10connectionERKNS2_4dictE,
                            __ZN3abb4link13XpcServerLink6createERKNSt3__112basic_stringIcNS2_11char_traitsIcEENS2_9allocatorIcEEEEN3xpc10connectionE,
                            __ZN3abb4link13XpcServerLinkC1ERKNSt3__112basic_stringIcNS2_11char_traitsIcEENS2_9allocatorIcEEEEN3xpc10connectionE,
                            __ZN3abb4link13XpcServerLinkC2ERKNSt3__112basic_stringIcNS2_11char_traitsIcEENS2_9allocatorIcEEEEN3xpc10connectionE,
                            __ZN3abb4link13XpcServerLinkD0Ev,
                            __ZN3abb4link13XpcServerLinkD1Ev,
                            __ZN3abb4link13XpcServerLinkD2Ev,
                            __ZN3abb4link15LocalClientLink10disconnectEv,
                            __ZN3abb4link15LocalClientLink15connectInternalERKNSt3__112basic_stringIcNS2_11char_traitsIcEENS2_9allocatorIcEEEE,
                            __ZN3abb4link15LocalClientLink16registerAccepterENSt3__18weak_ptrINS0_17LocalLinkAccepterEEE,
                            __ZN3abb4link15LocalClientLink17handleServerErrorEN3xpc6objectE,
                            __ZN3abb4link15LocalClientLink19handleServerMessageEN3xpc4dictE,
                            __ZN3abb4link15LocalClientLink19handleServerMessageEN3xpc4dictEN8dispatch5queueENSt3__18functionIFvNS2_6objectEEEE,
                            __ZN3abb4link15LocalClientLink6createEv,
                            __ZN3abb4link15LocalClientLinkC1Ev,
                            __ZN3abb4link15LocalClientLinkC2Ev,
                            __ZN3abb4link15LocalClientLinkD0Ev,
                            __ZN3abb4link15LocalClientLinkD1Ev,
                            __ZN3abb4link15LocalClientLinkD2Ev,
                            __ZN3abb4link15LocalServerLink11connectLinkEN3xpc6objectE,
                            __ZN3abb4link15LocalServerLink17handleClientErrorEN3xpc6objectE,
                            __ZN3abb4link15LocalServerLink19handleClientMessageEN3xpc4dictE,
                            __ZN3abb4link15LocalServerLink19handleClientMessageEN3xpc4dictENSt3__18functionIFvNS2_6objectEEEE,
                            __ZN3abb4link15LocalServerLink6createERKNSt3__112basic_stringIcNS2_11char_traitsIcEENS2_9allocatorIcEEEE,
                            __ZN3abb4link15LocalServerLinkC1ERKNSt3__112basic_stringIcNS2_11char_traitsIcEENS2_9allocatorIcEEEE,
                            __ZN3abb4link15LocalServerLinkC2ERKNSt3__112basic_stringIcNS2_11char_traitsIcEENS2_9allocatorIcEEEE,
                            __ZN3abb4link15LocalServerLinkD0Ev,
                            __ZN3abb4link15LocalServerLinkD1Ev,
                            __ZN3abb4link15LocalServerLinkD2Ev,
                            __ZN3abb4link15XpcLinkAccepter13ConfigurationC1ERKNSt3__112basic_stringIcNS3_11char_traitsIcEENS3_9allocatorIcEEEE,
                            __ZN3abb4link15XpcLinkAccepter13ConfigurationC2ERKNSt3__112basic_stringIcNS3_11char_traitsIcEENS3_9allocatorIcEEEE,
                            __ZN3abb4link15XpcLinkAccepter14startAcceptingEv,
                            __ZN3abb4link15XpcLinkAccepter15handleNewClientEN3xpc10connectionE,
                            __ZN3abb4link15XpcLinkAccepter16createClientLinkEv,
                            __ZN3abb4link15XpcLinkAccepter17handleClientErrorEN3xpc10connectionENS2_6objectE,
                            __ZN3abb4link15XpcLinkAccepter19handleClientMessageERKN3xpc10connectionERKNS2_4dictE,
                            __ZN3abb4link15XpcLinkAccepter19handleListenerErrorEN3xpc6objectE,
                            __ZN3abb4link15XpcLinkAccepter6createEN3xpc10connectionEN8dispatch5queueENS1_13ConfigurationE,
                            __ZN3abb4link15XpcLinkAccepterC1EN3xpc10connectionEN8dispatch5queueENS1_13ConfigurationE,
                            __ZN3abb4link15XpcLinkAccepterC2EN3xpc10connectionEN8dispatch5queueENS1_13ConfigurationE,
                            __ZN3abb4link16ClientHandleBaseD0Ev,
                            __ZN3abb4link16ClientHandleBaseD1Ev,
                            __ZN3abb4link16ClientHandleBaseD2Ev,
                            __ZN3abb4link16ServerHandleBaseD0Ev,
                            __ZN3abb4link16ServerHandleBaseD1Ev,
                            __ZN3abb4link16ServerHandleBaseD2Ev,
                            __ZN3abb4link17LocalLinkAccepter15handleNewClientERKNSt3__112basic_stringIcNS2_11char_traitsIcEENS2_9allocatorIcEEEENS2_10shared_ptrINS0_16ClientHandleBaseEEE,
                            __ZN3abb4link17LocalLinkAccepter16createClientLinkEv,
                            __ZN3abb4link17LocalLinkAccepter6createEN8dispatch5queueE,
                            __ZN3abb4link17LocalLinkAccepterC1EN8dispatch5queueE,
                            __ZN3abb4link17LocalLinkAccepterC2EN8dispatch5queueE,
                            __ZN3abb4link22ClientLinkDelegateBaseD0Ev,
                            __ZN3abb4link22ClientLinkDelegateBaseD1Ev,
                            __ZN3abb4link22ClientLinkDelegateBaseD2Ev,
                            __ZN3abb4link24LinkAccepterDelegateBaseD0Ev,
                            __ZN3abb4link24LinkAccepterDelegateBaseD1Ev,
                            __ZN3abb4link24LinkAccepterDelegateBaseD2Ev,
                            __ZNK3abb4link13XpcClientLink11isConnectedEv,
                            __ZNK3abb4link13XpcClientLink11sendMessageERKN3xpc4dictE,
                            __ZNK3abb4link13XpcClientLink4sendERKN3xpc4dictE,
                            __ZNK3abb4link13XpcClientLink4sendERKN3xpc4dictENSt3__18weak_ptrIKvEERKN8dispatch5queueENS6_8functionIFvNS2_6objectEEEE,
                            __ZNK3abb4link13XpcClientLink4sendERKN3xpc4dictEP16dispatch_queue_sU13block_pointerFvPvE,
                            __ZNK3abb4link13XpcClientLink5flushERKN8dispatch5groupE,
                            __ZNK3abb4link13XpcServerLink11sendMessageEN3xpc4dictE,
                            __ZNK3abb4link13XpcServerLink11sendMessageEN3xpc4dictEN8dispatch5queueENS4_5blockIU13block_pointerFvNS2_6objectEEEE,
                            __ZNK3abb4link13XpcServerLink11sendMessageEN3xpc4dictEN8dispatch5queueENSt3__18functionIFvNS2_6objectEEEE,
                            __ZNK3abb4link13XpcServerLink16getXpcConnectionEv,
                            __ZNK3abb4link15LocalClientLink11isConnectedEv,
                            __ZNK3abb4link15LocalClientLink11sendMessageERKN3xpc4dictE,
                            __ZNK3abb4link15LocalClientLink4sendERKN3xpc4dictE,
                            __ZNK3abb4link15LocalClientLink4sendERKN3xpc4dictENSt3__18weak_ptrIKvEERKN8dispatch5queueENS6_8functionIFvNS2_6objectEEEE,
                            __ZNK3abb4link15LocalClientLink5flushERKN8dispatch5groupE,
                            __ZNK3abb4link15LocalServerLink11sendMessageEN3xpc4dictE,
                            __ZNK3abb4link15LocalServerLink11sendMessageEN3xpc4dictEN8dispatch5queueENS4_5blockIU13block_pointerFvNS2_6objectEEEE,
                            __ZNK3abb4link15LocalServerLink11sendMessageEN3xpc4dictEN8dispatch5queueENSt3__18functionIFvNS2_6objectEEEE,
                            __ZNK3abb4link15XpcLinkAccepter13Configuration10isEntitledEN3xpc10connectionE,
                            __ZTIN3abb4link10ClientLinkE,
                            __ZTIN3abb4link10ServerLinkE,
                            __ZTIN3abb4link12LinkAccepterE,
                            __ZTIN3abb4link13XpcClientLinkE,
                            __ZTIN3abb4link13XpcServerLinkE,
                            __ZTIN3abb4link15LocalClientLinkE,
                            __ZTIN3abb4link15LocalServerLinkE,
                            __ZTIN3abb4link15XpcLinkAccepterE,
                            __ZTIN3abb4link16ClientHandleBaseE,
                            __ZTIN3abb4link16ServerHandleBaseE,
                            __ZTIN3abb4link17LocalLinkAccepterE,
                            __ZTIN3abb4link22ClientLinkDelegateBaseE,
                            __ZTIN3abb4link24LinkAccepterDelegateBaseE,
                            __ZTSN3abb4link10ClientLinkE,
                            __ZTSN3abb4link10ServerLinkE,
                            __ZTSN3abb4link12LinkAccepterE,
                            __ZTSN3abb4link13XpcClientLinkE,
                            __ZTSN3abb4link13XpcServerLinkE,
                            __ZTSN3abb4link15LocalClientLinkE,
                            __ZTSN3abb4link15LocalServerLinkE,
                            __ZTSN3abb4link15XpcLinkAccepterE,
                            __ZTSN3abb4link16ClientHandleBaseE,
                            __ZTSN3abb4link16ServerHandleBaseE,
                            __ZTSN3abb4link17LocalLinkAccepterE,
                            __ZTSN3abb4link22ClientLinkDelegateBaseE,
                            __ZTSN3abb4link24LinkAccepterDelegateBaseE,
                            __ZTVN3abb4link10ClientLinkE,
                            __ZTVN3abb4link10ServerLinkE,
                            __ZTVN3abb4link12LinkAccepterE,
                            __ZTVN3abb4link13XpcClientLinkE,
                            __ZTVN3abb4link13XpcServerLinkE,
                            __ZTVN3abb4link15LocalClientLinkE,
                            __ZTVN3abb4link15LocalServerLinkE,
                            __ZTVN3abb4link15XpcLinkAccepterE,
                            __ZTVN3abb4link16ClientHandleBaseE,
                            __ZTVN3abb4link16ServerHandleBaseE,
                            __ZTVN3abb4link17LocalLinkAccepterE,
                            __ZTVN3abb4link22ClientLinkDelegateBaseE,
                            __ZTVN3abb4link24LinkAccepterDelegateBaseE,
                            __ZThn32_N3abb4link15LocalServerLink17handleClientErrorEN3xpc6objectE,
                            __ZThn32_N3abb4link15LocalServerLink19handleClientMessageEN3xpc4dictE,
                            __ZThn32_N3abb4link15LocalServerLink19handleClientMessageEN3xpc4dictENSt3__18functionIFvNS2_6objectEEEE,
                            __ZThn32_N3abb4link15LocalServerLinkD0Ev,
                            __ZThn32_N3abb4link15LocalServerLinkD1Ev,
                            __ZThn8_N3abb4link15LocalClientLink17handleServerErrorEN3xpc6objectE,
                            __ZThn8_N3abb4link15LocalClientLink19handleServerMessageEN3xpc4dictE,
                            __ZThn8_N3abb4link15LocalClientLink19handleServerMessageEN3xpc4dictEN8dispatch5queueENSt3__18functionIFvNS2_6objectEEEE,
                            __ZThn8_N3abb4link15LocalClientLinkD0Ev,
                            __ZThn8_N3abb4link15LocalClientLinkD1Ev ]
...
