--- !tapi-tbd-v3
archs:                 [ armv7, armv7s, arm64, arm64e ]
platform:              ios
flags:                 [ flat_namespace ]
install-name:          "/System/Library/PrivateFrameworks/AGXCompilerCore-S2A8.framework/AGXCompilerCore-S2A8"
current-version:       1
compatibility-version: 1
objc-constraint:       retain_release
exports:
  - archs:                [ armv7, armv7s, arm64, arm64e ]
    symbols:              [ _GLCompilerBuildRequest, _GLCompilerCreate,
                            _GLCompilerDelete, _GLCompilerLogBuildRequest,
                            _GLCompilerReleaseReply, _MTLCompilerBuildRequest,
                            _MTLCompilerBuildRequestWithOptions,
                            _MTLCompilerCreate, _MTLCompilerDelete,
                            _MTLCompilerReleaseReply ]
undefineds:
  - archs:                [ armv7, armv7s, arm64, arm64e ]
    symbols:              [ _CFBundleCopyResourceURL,
                            _CFBundleGetBundleWithIdentifier, _CFRelease,
                            _CFStringCreateWithBytes, _CFStringGetCString,
                            _CFURLCopyFileSystemPath,
                            _LLVMAGXRuntimeMajorVersion,
                            _LLVMAGXRuntimeMinorVersion, _MGGetBoolAnswer,
                            __Block_object_assign, __Block_object_dispose,
                            __DefaultRuneLocale, __NSConcreteGlobalBlock,
                            __NSConcreteStackBlock,
                            __ZN11flatbuffers12GenerateTextERKNS_6ParserEPKvRKNS_16GeneratorOptionsEPNSt3__112basic_stringIcNS8_11char_traitsIcEENS8_9allocatorIcEEEE,
                            __ZN11flatbuffers6Parser5ParseEPKcPS2_S2_,
                            __ZN4llvm10AllocaInstC1EPNS_4TypeEjPNS_5ValueERKNS_5TwineEPNS_11InstructionE,
                            __ZN4llvm10BasicBlock15eraseFromParentEv,
                            __ZN4llvm10BasicBlock15splitBasicBlockENS_14ilist_iteratorINS_12ilist_detail12node_optionsINS_11InstructionELb0ELb0EvEELb0ELb0EEERKNS_5TwineE,
                            __ZN4llvm10BasicBlock17dropAllReferencesEv,
                            __ZN4llvm10BasicBlock17removePredecessorEPS0_b,
                            __ZN4llvm10BasicBlockC1ERNS_11LLVMContextERKNS_5TwineEPNS_8FunctionEPS0_,
                            __ZN4llvm10BranchInstC1EPNS_10BasicBlockEPNS_11InstructionE,
                            __ZN4llvm10BranchInstC1EPNS_10BasicBlockES2_PNS_5ValueEPNS_11InstructionE,
                            __ZN4llvm10CallbackVH6anchorEv,
                            __ZN4llvm10ConstantFP3getEPNS_4TypeEd,
                            __ZN4llvm10DILocation7getImplERNS_11LLVMContextEjjPNS_8MetadataES4_NS3_11StorageTypeEb,
                            __ZN4llvm10DataLayout5resetENS_9StringRefE,
                            __ZN4llvm10DataLayoutD1Ev,
                            __ZN4llvm10ModulePass17assignPassManagerERNS_7PMStackENS_15PassManagerTypeE,
                            __ZN4llvm10ModulePassD2Ev,
                            __ZN4llvm10ReturnInstC1ERNS_11LLVMContextEPNS_5ValueEPNS_11InstructionE,
                            __ZN4llvm10StructType3getERNS_11LLVMContextENS_8ArrayRefIPNS_4TypeEEEb,
                            __ZN4llvm10StructType3getERNS_11LLVMContextEb,
                            __ZN4llvm10StructType6createERNS_11LLVMContextENS_8ArrayRefIPNS_4TypeEEENS_9StringRefEb,
                            __ZN4llvm10StructType7setBodyENS_8ArrayRefIPNS_4TypeEEEb,
                            __ZN4llvm10SwitchInst7addCaseEPNS_11ConstantIntEPNS_10BasicBlockE,
                            __ZN4llvm10SwitchInstC1EPNS_5ValueEPNS_10BasicBlockEjPNS_11InstructionE,
                            __ZN4llvm10UndefValue3getEPNS_4TypeE,
                            __ZN4llvm10VectorType3getEPNS_4TypeEj,
                            __ZN4llvm11APFloatBase10IEEEdoubleEv,
                            __ZN4llvm11APFloatBase15PPCDoubleDoubleEv,
                            __ZN4llvm11BitCastInstC1EPNS_5ValueEPNS_4TypeERKNS_5TwineEPNS_11InstructionE,
                            __ZN4llvm11ConstantInt3getEPNS_11IntegerTypeEyb,
                            __ZN4llvm11ConstantInt3getEPNS_4TypeEyb,
                            __ZN4llvm11ConstantInt9getSignedEPNS_4TypeEx,
                            __ZN4llvm11Instruction10moveBeforeEPS0_,
                            __ZN4llvm11Instruction10setIsExactEb,
                            __ZN4llvm11Instruction11insertAfterEPS0_,
                            __ZN4llvm11Instruction11setMetadataEjPNS_6MDNodeE,
                            __ZN4llvm11Instruction12insertBeforeEPS0_,
                            __ZN4llvm11Instruction15eraseFromParentEv,
                            __ZN4llvm11Instruction16setFastMathFlagsENS_13FastMathFlagsE,
                            __ZN4llvm11Instruction16setHasApproxFuncEb,
                            __ZN4llvm11Instruction18setHasAllowReassocEb,
                            __ZN4llvm11Instruction18setHasNoSignedWrapEb,
                            __ZN4llvm11Instruction20setHasNoUnsignedWrapEb,
                            __ZN4llvm11Instruction7setFastEb,
                            __ZN4llvm11InstructionC2EPNS_4TypeEjPNS_3UseEjPS0_,
                            __ZN4llvm11IntegerType3getERNS_11LLVMContextEj,
                            __ZN4llvm11LLVMContext24setDiagnosticsOutputFileENSt3__110unique_ptrINS_4yaml6OutputENS1_14default_deleteIS4_EEEE,
                            __ZN4llvm11LLVMContextC1Ev,
                            __ZN4llvm11LLVMContextD1Ev,
                            __ZN4llvm11NamedMDNode10addOperandEPNS_6MDNodeE,
                            __ZN4llvm11NamedMDNode15eraseFromParentEv,
                            __ZN4llvm11PointerType3getEPNS_4TypeEj,
                            __ZN4llvm11ValueMapper11mapConstantERKNS_8ConstantE,
                            __ZN4llvm11ValueMapper16remapInstructionERNS_11InstructionE,
                            __ZN4llvm11ValueMapperC1ERNS_8ValueMapIPKNS_5ValueENS_14WeakTrackingVHENS_14ValueMapConfigIS4_NS_3sys10SmartMutexILb0EEEEEEENS_10RemapFlagsEPNS_20ValueMapTypeRemapperEPNS_17ValueMaterializerE,
                            __ZN4llvm11ValueMapperD1Ev,
                            __ZN4llvm11raw_ostream14flush_nonemptyEv,
                            __ZN4llvm11raw_ostream5writeEPKcm,
                            __ZN4llvm12ConstantExpr10getBitCastEPNS_8ConstantEPNS_4TypeEb,
                            __ZN4llvm12ConstantExpr10getCompareEtPNS_8ConstantES2_b,
                            __ZN4llvm12ConstantExpr11getIntToPtrEPNS_8ConstantEPNS_4TypeEb,
                            __ZN4llvm12ConstantExpr11getPtrToIntEPNS_8ConstantEPNS_4TypeEb,
                            __ZN4llvm12ConstantExpr14getInsertValueEPNS_8ConstantES2_NS_8ArrayRefIjEEPNS_4TypeE,
                            __ZN4llvm12ConstantExpr14getIntegerCastEPNS_8ConstantEPNS_4TypeEb,
                            __ZN4llvm12ConstantExpr14getPointerCastEPNS_8ConstantEPNS_4TypeE,
                            __ZN4llvm12ConstantExpr15getExtractValueEPNS_8ConstantENS_8ArrayRefIjEEPNS_4TypeE,
                            __ZN4llvm12ConstantExpr16getGetElementPtrEPNS_4TypeEPNS_8ConstantENS_8ArrayRefIPNS_5ValueEEEbNS_8OptionalIjEES2_,
                            __ZN4llvm12ConstantExpr16getInsertElementEPNS_8ConstantES2_S2_PNS_4TypeE,
                            __ZN4llvm12ConstantExpr16getShuffleVectorEPNS_8ConstantES2_S2_PNS_4TypeE,
                            __ZN4llvm12ConstantExpr17getExtractElementEPNS_8ConstantES2_PNS_4TypeE,
                            __ZN4llvm12ConstantExpr17getTruncOrBitCastEPNS_8ConstantEPNS_4TypeE,
                            __ZN4llvm12ConstantExpr3getEjPNS_8ConstantES2_jPNS_4TypeE,
                            __ZN4llvm12ConstantExpr5getOrEPNS_8ConstantES2_,
                            __ZN4llvm12ConstantExpr6getAddEPNS_8ConstantES2_bb,
                            __ZN4llvm12ConstantExpr6getAndEPNS_8ConstantES2_,
                            __ZN4llvm12ConstantExpr6getMulEPNS_8ConstantES2_bb,
                            __ZN4llvm12ConstantExpr6getNegEPNS_8ConstantEbb,
                            __ZN4llvm12ConstantExpr6getNotEPNS_8ConstantE,
                            __ZN4llvm12ConstantExpr6getShlEPNS_8ConstantES2_bb,
                            __ZN4llvm12ConstantExpr6getSubEPNS_8ConstantES2_bb,
                            __ZN4llvm12ConstantExpr7getAShrEPNS_8ConstantES2_b,
                            __ZN4llvm12ConstantExpr7getCastEjPNS_8ConstantEPNS_4TypeEb,
                            __ZN4llvm12ConstantExpr7getFNegEPNS_8ConstantE,
                            __ZN4llvm12ConstantExpr7getLShrEPNS_8ConstantES2_b,
                            __ZN4llvm12ConstantExpr7getUDivEPNS_8ConstantES2_b,
                            __ZN4llvm12ConstantExpr9getFPCastEPNS_8ConstantEPNS_4TypeE,
                            __ZN4llvm12ConstantExpr9getSelectEPNS_8ConstantES2_S2_PNS_4TypeE,
                            __ZN4llvm12FunctionType3getEPNS_4TypeENS_8ArrayRefIS2_EEb,
                            __ZN4llvm12FunctionType3getEPNS_4TypeEb,
                            __ZN4llvm12GlobalObject10setSectionENS_9StringRefE,
                            __ZN4llvm12GlobalObject12setAlignmentEj,
                            __ZN4llvm12IntEqClasses10uncompressEv,
                            __ZN4llvm12IntEqClasses4growEj,
                            __ZN4llvm12IntEqClasses4joinEjj,
                            __ZN4llvm12IntEqClasses8compressEv,
                            __ZN4llvm12MemoryBuffer12getMemBufferENS_9StringRefES1_b,
                            __ZN4llvm12PassRegistry15getPassRegistryEv,
                            __ZN4llvm12verifyModuleERKNS_6ModuleEPNS_11raw_ostreamEPb,
                            __ZN4llvm13AtomicRMWInstC1ENS0_5BinOpEPNS_5ValueES3_NS_14AtomicOrderingEhPNS_11InstructionE,
                            __ZN4llvm13AttributeList3getERNS_11LLVMContextENS_8ArrayRefINSt3__14pairIjNS_12AttributeSetEEEEE,
                            __ZN4llvm13ConstantArray3getEPNS_9ArrayTypeENS_8ArrayRefIPNS_8ConstantEEE,
                            __ZN4llvm13GetStatisticsEv,
                            __ZN4llvm13StringMapImpl11RehashTableEj,
                            __ZN4llvm13StringMapImpl15LookupBucketForENS_9StringRefE,
                            __ZN4llvm13StringMapImpl9RemoveKeyEPNS_18StringMapEntryBaseE,
                            __ZN4llvm13getNamedTimerENS_9StringRefES0_,
                            __ZN4llvm13initializeIPOERNS_12PassRegistryE,
                            __ZN4llvm14BinaryOperator10CreateFNegEPNS_5ValueERKNS_5TwineEPNS_11InstructionE,
                            __ZN4llvm14BinaryOperator6CreateENS_11Instruction9BinaryOpsEPNS_5ValueES4_RKNS_5TwineEPS1_,
                            __ZN4llvm14BinaryOperator9CreateNegEPNS_5ValueERKNS_5TwineEPNS_11InstructionE,
                            __ZN4llvm14BinaryOperator9CreateNotEPNS_5ValueERKNS_5TwineEPNS_11InstructionE,
                            __ZN4llvm14ConstantStruct3getEPNS_10StructTypeENS_8ArrayRefIPNS_8ConstantEEE,
                            __ZN4llvm14ConstantVector3getENS_8ArrayRefIPNS_8ConstantEEE,
                            __ZN4llvm14GlobalVariable14setInitializerEPNS_8ConstantE,
                            __ZN4llvm14GlobalVariable15eraseFromParentEv,
                            __ZN4llvm14GlobalVariable18copyAttributesFromEPKS0_,
                            __ZN4llvm14GlobalVariableC1ERNS_6ModuleEPNS_4TypeEbNS_11GlobalValue12LinkageTypesEPNS_8ConstantERKNS_5TwineEPS0_NS5_15ThreadLocalModeEjb,
                            __ZN4llvm14createSROAPassEv,
                            __ZN4llvm14initializeCoreERNS_12PassRegistryE,
                            __ZN4llvm15InsertValueInst4initEPNS_5ValueES2_NS_8ArrayRefIjEERKNS_5TwineE,
                            __ZN4llvm15ResetStatisticsEv,
                            __ZN4llvm15SmallVectorBase8grow_podEPvmm,
                            __ZN4llvm15ValueAsMetadata3getEPNS_5ValueE,
                            __ZN4llvm15ValueHandleBase12AddToUseListEv,
                            __ZN4llvm15ValueHandleBase17RemoveFromUseListEv,
                            __ZN4llvm15ValueHandleBase20AddToExistingUseListEPPS0_,
                            __ZN4llvm16EnableStatisticsEb,
                            __ZN4llvm16ExtractValueInst14getIndexedTypeEPNS_4TypeENS_8ArrayRefIjEE,
                            __ZN4llvm16ExtractValueInst4initENS_8ArrayRefIjEERKNS_5TwineE,
                            __ZN4llvm16MetadataTracking5trackEPvRNS_8MetadataENS_12PointerUnionIPNS_15MetadataAsValueEPS2_EE,
                            __ZN4llvm16MetadataTracking7retrackEPvRNS_8MetadataES1_,
                            __ZN4llvm16MetadataTracking7untrackEPvRNS_8MetadataE,
                            __ZN4llvm16NamedRegionTimerC1ENS_9StringRefES1_S1_S1_b,
                            __ZN4llvm16enableTimePassesEv,
                            __ZN4llvm16initializeTargetERNS_12PassRegistryE,
                            __ZN4llvm16parseBitcodeFileENS_15MemoryBufferRefERNS_11LLVMContextE,
                            __ZN4llvm17AtomicCmpXchgInstC1EPNS_5ValueES2_S2_NS_14AtomicOrderingES3_hPNS_11InstructionE,
                            __ZN4llvm17GetElementPtrInst13setIsInBoundsEb,
                            __ZN4llvm17GetElementPtrInst14getIndexedTypeEPNS_4TypeENS_8ArrayRefIPNS_5ValueEEE,
                            __ZN4llvm17GetElementPtrInst4initEPNS_5ValueENS_8ArrayRefIS2_EERKNS_5TwineE,
                            __ZN4llvm17InsertElementInstC1EPNS_5ValueES2_S2_RKNS_5TwineEPNS_11InstructionE,
                            __ZN4llvm17ShuffleVectorInst12getMaskValueEPKNS_8ConstantEj,
                            __ZN4llvm17ShuffleVectorInstC1EPNS_5ValueES2_S2_RKNS_5TwineEPNS_11InstructionE,
                            __ZN4llvm18ConstantDataVector8getSplatEjPNS_8ConstantE,
                            __ZN4llvm18ExtractElementInstC1EPNS_5ValueES2_RKNS_5TwineEPNS_11InstructionE,
                            __ZN4llvm18initializeAnalysisERNS_12PassRegistryE,
                            __ZN4llvm18raw_string_ostreamD1Ev,
                            __ZN4llvm19ConstantPointerNull3getEPNS_11PointerTypeE,
                            __ZN4llvm19SmallPtrSetImplBase14insert_imp_bigEPKv,
                            __ZN4llvm19SmallPtrSetImplBase8CopyFromERKS0_,
                            __ZN4llvm19createGlobalDCEPassEv,
                            __ZN4llvm19parseAssemblyStringENS_9StringRefERNS_12SMDiagnosticERNS_11LLVMContextEPNS_11SlotMappingEbS0_,
                            __ZN4llvm20initializeScalarOptsERNS_12PassRegistryE,
                            __ZN4llvm21initializeInstCombineERNS_12PassRegistryE,
                            __ZN4llvm22ConstantFoldTerminatorEPNS_10BasicBlockEbPKNS_17TargetLibraryInfoEPNS_17DeferredDominanceE,
                            __ZN4llvm22report_bad_alloc_errorEPKcb,
                            __ZN4llvm23initializeVectorizationERNS_12PassRegistryE,
                            __ZN4llvm24initializeTransformUtilsERNS_12PassRegistryE,
                            __ZN4llvm25MergeBlockIntoPredecessorEPNS_10BasicBlockEPNS_13DominatorTreeEPNS_8LoopInfoEPNS_23MemoryDependenceResultsEPNS_17DeferredDominanceE,
                            __ZN4llvm25createGlobalOptimizerPassEv,
                            __ZN4llvm28TargetLibraryInfoWrapperPassC1ERKNS_6TripleE,
                            __ZN4llvm29createAlwaysInlinerLegacyPassEb,
                            __ZN4llvm29createDeadCodeEliminationPassEv,
                            __ZN4llvm30createInstructionCombiningPassEb,
                            __ZN4llvm3AGX11AGXCompiler17createCompilePlanENS0_12PipelineTypeENS0_8OptimizeENS0_7LoggingENS0_13CodeGenOutputE,
                            __ZN4llvm3AGX11AGXCompiler18getLastDiagnosticsEv,
                            __ZN4llvm3AGX11AGXCompiler6createERKNSt3__112basic_stringIcNS2_11char_traitsIcEENS2_9allocatorIcEEEEPS9_,
                            __ZN4llvm3AGX11AGXCompilerC1EOS1_,
                            __ZN4llvm3AGX11AGXCompilerD1Ev,
                            __ZN4llvm3AGX12CompileReply14getDiagnosticsEv,
                            __ZN4llvm3AGX12CompileReply9getBinaryEv,
                            __ZN4llvm3AGX12CompileReplyC1EOS1_,
                            __ZN4llvm3AGX12CompileReplyD1Ev,
                            __ZN4llvm3AGX14AGXCompilePlan7executeERNS0_14CompileRequestE,
                            __ZN4llvm3AGX14AGXCompilePlanC1EOS1_,
                            __ZN4llvm3AGX14AGXCompilePlanD1Ev,
                            __ZN4llvm3AGX14CompileRequest15addDMAListEntryEjjjj,
                            __ZN4llvm3AGX14CompileRequest16setLoggingStreamERNSt3__113basic_ostreamIcNS2_11char_traitsIcEEEE,
                            __ZN4llvm3AGX14CompileRequestC1ERNS_6ModuleENS0_14CodeGenOptionsENSt3__112basic_stringIcNS5_11char_traitsIcEENS5_9allocatorIcEEEEi,
                            __ZN4llvm3AGX14CompileRequestD1Ev,
                            __ZN4llvm3AGXlsERNS_11raw_ostreamERKNS0_10DiagnosticE,
                            __ZN4llvm3AGXlsERNSt3__113basic_ostreamIcNS1_11char_traitsIcEEEERKNS0_10DiagnosticE,
                            __ZN4llvm42RecursivelyDeleteTriviallyDeadInstructionsEPNS_5ValueEPKNS_17TargetLibraryInfoE,
                            __ZN4llvm4Pass13releaseMemoryEv,
                            __ZN4llvm4Pass17dumpPassStructureEj,
                            __ZN4llvm4Pass18getAsImmutablePassEv,
                            __ZN4llvm4Pass18getAsPMDataManagerEv,
                            __ZN4llvm4Pass18preparePassManagerERNS_7PMStackE,
                            __ZN4llvm4Pass26getAdjustedAnalysisPointerEPKv,
                            __ZN4llvm4Type10getFloatTyERNS_11LLVMContextE,
                            __ZN4llvm4Type10getInt16TyERNS_11LLVMContextE,
                            __ZN4llvm4Type10getInt32TyERNS_11LLVMContextE,
                            __ZN4llvm4Type10getInt64TyERNS_11LLVMContextE,
                            __ZN4llvm4Type12getInt8PtrTyERNS_11LLVMContextEj,
                            __ZN4llvm4Type13getInt32PtrTyERNS_11LLVMContextEj,
                            __ZN4llvm4Type9getHalfTyERNS_11LLVMContextE,
                            __ZN4llvm4Type9getInt1TyERNS_11LLVMContextE,
                            __ZN4llvm4Type9getInt8TyERNS_11LLVMContextE,
                            __ZN4llvm4Type9getVoidTyERNS_11LLVMContextE,
                            __ZN4llvm4User13getDescriptorEv,
                            __ZN4llvm4User16allocHungoffUsesEjb,
                            __ZN4llvm4UsernwEm, __ZN4llvm4UsernwEmj,
                            __ZN4llvm4UsernwEmjj, __ZN4llvm4errsEv,
                            __ZN4llvm4yaml6OutputC1ERNS_11raw_ostreamEPvi,
                            __ZN4llvm5Timer5clearEv, __ZN4llvm5Timer9stopTimerEv,
                            __ZN4llvm5Value18replaceAllUsesWithEPS0_,
                            __ZN4llvm5Value7setNameERKNS_5TwineE,
                            __ZN4llvm5Value8takeNameEPS0_,
                            __ZN4llvm6Linker11linkModulesERNS_6ModuleENSt3__110unique_ptrIS1_NS3_14default_deleteIS1_EEEEjNS3_8functionIFvS2_RKNS_9StringSetINS_15MallocAllocatorEEEEEE,
                            __ZN4llvm6Module13setDataLayoutENS_9StringRefE,
                            __ZN4llvm6Module18eraseNamedMetadataEPNS_11NamedMDNodeE,
                            __ZN4llvm6Module19getOrInsertFunctionENS_9StringRefEPNS_12FunctionTypeE,
                            __ZN4llvm6Module19getOrInsertFunctionENS_9StringRefEPNS_12FunctionTypeENS_13AttributeListE,
                            __ZN4llvm6Module24getOrInsertNamedMetadataENS_9StringRefE,
                            __ZN4llvm6ModuleC1ENS_9StringRefERNS_11LLVMContextE,
                            __ZN4llvm6ModuleD1Ev,
                            __ZN4llvm6TripleC1ERKNS_5TwineE,
                            __ZN4llvm6detail9IEEEFloatC1Ed,
                            __ZN4llvm6detail9IEEEFloatD1Ev,
                            __ZN4llvm6legacy11PassManager3runERNS_6ModuleE,
                            __ZN4llvm6legacy11PassManagerC1Ev,
                            __ZN4llvm7APFloat7StorageC1ENS_6detail9IEEEFloatERKNS_12fltSemanticsE,
                            __ZN4llvm7APFloat7convertERKNS_12fltSemanticsENS_11APFloatBase12roundingModeEPb,
                            __ZN4llvm7CmpInstC2EPNS_4TypeENS_11Instruction8OtherOpsENS0_9PredicateEPNS_5ValueES7_RKNS_5TwineEPS3_,
                            __ZN4llvm7MDTuple7getImplERNS_11LLVMContextENS_8ArrayRefIPNS_8MetadataEEENS4_11StorageTypeEb,
                            __ZN4llvm7PHINode12growOperandsEv,
                            __ZN4llvm7parseIRENS_15MemoryBufferRefERNS_12SMDiagnosticERNS_11LLVMContextEbNS_9StringRefE,
                            __ZN4llvm8CallInst4initEPNS_12FunctionTypeEPNS_5ValueENS_8ArrayRefIS4_EENS5_INS_17OperandBundleDefTIS4_EEEERKNS_5TwineE,
                            __ZN4llvm8CastInst12CreateFPCastEPNS_5ValueEPNS_4TypeERKNS_5TwineEPNS_11InstructionE,
                            __ZN4llvm8CastInst17CreateIntegerCastEPNS_5ValueEPNS_4TypeEbRKNS_5TwineEPNS_11InstructionE,
                            __ZN4llvm8CastInst17CreatePointerCastEPNS_5ValueEPNS_4TypeERKNS_5TwineEPNS_11InstructionE,
                            __ZN4llvm8CastInst20CreateTruncOrBitCastEPNS_5ValueEPNS_4TypeERKNS_5TwineEPNS_11InstructionE,
                            __ZN4llvm8CastInst6CreateENS_11Instruction7CastOpsEPNS_5ValueEPNS_4TypeERKNS_5TwineEPS1_,
                            __ZN4llvm8Constant12getNullValueEPNS_4TypeE,
                            __ZN4llvm8Constant15getAllOnesValueEPNS_4TypeE,
                            __ZN4llvm8DebugLocC1EPKNS_10DILocationE,
                            __ZN4llvm8Function12addAttributeEjNS_9Attribute8AttrKindE,
                            __ZN4llvm8Function12addAttributeEjNS_9AttributeE,
                            __ZN4llvm8Function12addParamAttrEjNS_9Attribute8AttrKindE,
                            __ZN4llvm8Function13setSubprogramEPNS_12DISubprogramE,
                            __ZN4llvm8Function15eraseFromParentEv,
                            __ZN4llvm8Function15removeAttributeEjNS_9Attribute8AttrKindE,
                            __ZN4llvm8LoadInst12setAlignmentEj,
                            __ZN4llvm8LoadInstC1EPNS_4TypeEPNS_5ValueEPKcbPNS_11InstructionE,
                            __ZN4llvm8MDString3getERNS_11LLVMContextENS_9StringRefE,
                            __ZN4llvm9ArrayType3getEPNS_4TypeEy,
                            __ZN4llvm9Attribute3getERNS_11LLVMContextENS_9StringRefES3_,
                            __ZN4llvm9StoreInst12setAlignmentEj,
                            __ZN4llvm9StoreInstC1EPNS_5ValueES2_bPNS_11InstructionE,
                            __ZNK4llvm10BasicBlock13getTerminatorEv,
                            __ZNK4llvm10BasicBlock14getFirstNonPHIEv,
                            __ZNK4llvm10BasicBlock19getFirstInsertionPtEv,
                            __ZNK4llvm10BasicBlock20getSinglePredecessorEv,
                            __ZNK4llvm10ConstantFP14isExactlyValueERKNS_7APFloatE,
                            __ZNK4llvm10DataLayout14getPointerSizeEj,
                            __ZNK4llvm10DataLayout15getStructLayoutEPNS_10StructTypeE,
                            __ZNK4llvm10DataLayout19getABITypeAlignmentEPNS_4TypeE,
                            __ZNK4llvm10DataLayout22getIndexedOffsetInTypeEPNS_4TypeENS_8ArrayRefIPNS_5ValueEEE,
                            __ZNK4llvm10ModulePass17createPrinterPassERNS_11raw_ostreamERKNSt3__112basic_stringIcNS3_11char_traitsIcEENS3_9allocatorIcEEEE,
                            __ZNK4llvm10ModulePass27getPotentialPassManagerTypeEv,
                            __ZNK4llvm11GEPOperator20getSourceElementTypeEv,
                            __ZNK4llvm11GlobalValue13isDeclarationEv,
                            __ZNK4llvm11Instruction15getMetadataImplEj,
                            __ZNK4llvm11Instruction16getFastMathFlagsEv,
                            __ZNK4llvm11Instruction5cloneEv,
                            __ZNK4llvm11NamedMDNode10getOperandEj,
                            __ZNK4llvm11NamedMDNode14getNumOperandsEv,
                            __ZNK4llvm12AttributeSet12addAttributeERNS_11LLVMContextENS_9StringRefES3_,
                            __ZNK4llvm12AttributeSet15removeAttributeERNS_11LLVMContextENS_9Attribute8AttrKindE,
                            __ZNK4llvm12DILocalScope27getNonLexicalBlockFileScopeEv,
                            __ZNK4llvm12GlobalObject14getSectionImplEv,
                            __ZNK4llvm12MemoryBuffer15getMemBufferRefEv,
                            __ZNK4llvm12SMDiagnostic5printEPKcRNS_11raw_ostreamEbb,
                            __ZNK4llvm13AttributeList12getAttributeEjNS_9StringRefE,
                            __ZNK4llvm13AttributeList12hasAttributeEjNS_9Attribute8AttrKindE,
                            __ZNK4llvm13AttributeList14hasFnAttributeENS_9Attribute8AttrKindE,
                            __ZNK4llvm13AttributeList15getFnAttributesEv,
                            __ZNK4llvm13AttributeList17hasParamAttributeEjNS_9Attribute8AttrKindE,
                            __ZNK4llvm13CompositeType14getTypeAtIndexEPKNS_5ValueE,
                            __ZNK4llvm13StringMapImpl7FindKeyENS_9StringRefE,
                            __ZNK4llvm14TerminatorInst12getSuccessorEj,
                            __ZNK4llvm14TerminatorInst16getNumSuccessorsEv,
                            __ZNK4llvm17GetElementPtrInst10isInBoundsEv,
                            __ZNK4llvm17GetElementPtrInst21hasAllConstantIndicesEv,
                            __ZNK4llvm19SmallPtrSetImplBase13FindBucketForEPKv,
                            __ZNK4llvm3AGX10Diagnostic10getMessageEv,
                            __ZNK4llvm3AGX11AGXCompiler7isValidEv,
                            __ZNK4llvm3AGX12CompileReply7isValidEv,
                            __ZNK4llvm3AGX14AGXCompilePlan7isValidEv,
                            __ZNK4llvm3Use12getOperandNoEv,
                            __ZNK4llvm3Use7getUserEv,
                            __ZNK4llvm4Pass14verifyAnalysisEv,
                            __ZNK4llvm4Pass5printERNS_11raw_ostreamEPKNS_6ModuleE,
                            __ZNK4llvm4Type11isIntegerTyEj,
                            __ZNK4llvm4Type12getPointerToEj,
                            __ZNK4llvm4Type18isSizedDerivedTypeEPNS_15SmallPtrSetImplIPS0_EE,
                            __ZNK4llvm4Type19getScalarSizeInBitsEv,
                            __ZNK4llvm4Type22getPrimitiveSizeInBitsEv,
                            __ZNK4llvm4Type5printERNS_11raw_ostreamEbb,
                            __ZNK4llvm5APInt25countLeadingZerosSlowCaseEv,
                            __ZNK4llvm5APInt25countTrailingOnesSlowCaseEv,
                            __ZNK4llvm5Twine3strEv,
                            __ZNK4llvm5Value10getNumUsesEv,
                            __ZNK4llvm5Value17stripPointerCastsEv,
                            __ZNK4llvm5Value5printERNS_11raw_ostreamEb,
                            __ZNK4llvm5Value7getNameEv,
                            __ZNK4llvm6Module11getFunctionENS_9StringRefE,
                            __ZNK4llvm6Module13getDataLayoutEv,
                            __ZNK4llvm6Module16getNamedMetadataERKNS_5TwineE,
                            __ZNK4llvm6Module17getGlobalVariableENS_9StringRefEb,
                            __ZNK4llvm6Module5printERNS_11raw_ostreamEPNS_24AssemblyAnnotationWriterEbb,
                            __ZNK4llvm8Argument14hasNoAliasAttrEv,
                            __ZNK4llvm8Constant11isNullValueEv,
                            __ZNK4llvm8Constant11isZeroValueEv,
                            __ZNK4llvm8Constant19getAggregateElementEj,
                            __ZNK4llvm8Constant23removeDeadConstantUsersEv,
                            __ZNK4llvm8Function10getContextEv,
                            __ZNK4llvm8Function13getSubprogramEv,
                            __ZNK4llvm8Function18BuildLazyArgumentsEv,
                            __ZNK4llvm8MDString9getStringEv,
                            __ZNK4llvm9Attribute16getValueAsStringEv,
                            __ZNK4llvm9Attribute17isStringAttributeEv,
                            __ZNK4llvm9StringRef4findES0_m,
                            __ZNKSt3__112basic_stringIcNS_11char_traitsIcEENS_9allocatorIcEEE4findEPKcmm,
                            __ZNKSt3__112basic_stringIcNS_11char_traitsIcEENS_9allocatorIcEEE4findEcm,
                            __ZNKSt3__112basic_stringIcNS_11char_traitsIcEENS_9allocatorIcEEE7compareEPKc,
                            __ZNKSt3__112basic_stringIcNS_11char_traitsIcEENS_9allocatorIcEEE7compareEmmPKcm,
                            __ZNKSt3__120__vector_base_commonILb1EE20__throw_length_errorEv,
                            __ZNKSt3__121__basic_string_commonILb1EE20__throw_length_errorEv,
                            __ZNKSt3__16locale9has_facetERNS0_2idE,
                            __ZNKSt3__16locale9use_facetERNS0_2idE,
                            __ZNKSt3__18ios_base6getlocEv,
                            __ZNSt3__112__next_primeEm,
                            __ZNSt3__112basic_stringIcNS_11char_traitsIcEENS_9allocatorIcEEE5eraseEmm,
                            __ZNSt3__112basic_stringIcNS_11char_traitsIcEENS_9allocatorIcEEE6appendEPKc,
                            __ZNSt3__112basic_stringIcNS_11char_traitsIcEENS_9allocatorIcEEE6appendEPKcm,
                            __ZNSt3__112basic_stringIcNS_11char_traitsIcEENS_9allocatorIcEEE6assignEPKc,
                            __ZNSt3__112basic_stringIcNS_11char_traitsIcEENS_9allocatorIcEEE6insertEmPKc,
                            __ZNSt3__112basic_stringIcNS_11char_traitsIcEENS_9allocatorIcEEE6insertEmPKcm,
                            __ZNSt3__112basic_stringIcNS_11char_traitsIcEENS_9allocatorIcEEE6resizeEmc,
                            __ZNSt3__112basic_stringIcNS_11char_traitsIcEENS_9allocatorIcEEE9push_backEc,
                            __ZNSt3__112basic_stringIcNS_11char_traitsIcEENS_9allocatorIcEEEC1ERKS5_,
                            __ZNSt3__112basic_stringIcNS_11char_traitsIcEENS_9allocatorIcEEEC1ERKS5_mmRKS4_,
                            __ZNSt3__112basic_stringIcNS_11char_traitsIcEENS_9allocatorIcEEED1Ev,
                            __ZNSt3__112basic_stringIcNS_11char_traitsIcEENS_9allocatorIcEEEaSERKS5_,
                            __ZNSt3__113basic_istreamIcNS_11char_traitsIcEEE6sentryC1ERS3_b,
                            __ZNSt3__113basic_istreamIcNS_11char_traitsIcEEED0Ev,
                            __ZNSt3__113basic_istreamIcNS_11char_traitsIcEEED1Ev,
                            __ZNSt3__113basic_istreamIcNS_11char_traitsIcEEED2Ev,
                            __ZNSt3__113basic_ostreamIcNS_11char_traitsIcEEE3putEc,
                            __ZNSt3__113basic_ostreamIcNS_11char_traitsIcEEE5flushEv,
                            __ZNSt3__113basic_ostreamIcNS_11char_traitsIcEEE6sentryC1ERS3_,
                            __ZNSt3__113basic_ostreamIcNS_11char_traitsIcEEE6sentryD1Ev,
                            __ZNSt3__113basic_ostreamIcNS_11char_traitsIcEEED0Ev,
                            __ZNSt3__113basic_ostreamIcNS_11char_traitsIcEEED1Ev,
                            __ZNSt3__113basic_ostreamIcNS_11char_traitsIcEEED2Ev,
                            __ZNSt3__113basic_ostreamIcNS_11char_traitsIcEEElsEj,
                            __ZNSt3__113basic_ostreamIcNS_11char_traitsIcEEElsEm,
                            __ZNSt3__113basic_ostreamIcNS_11char_traitsIcEEElsEy,
                            __ZNSt3__114basic_iostreamIcNS_11char_traitsIcEEED0Ev,
                            __ZNSt3__114basic_iostreamIcNS_11char_traitsIcEEED1Ev,
                            __ZNSt3__114basic_iostreamIcNS_11char_traitsIcEEED2Ev,
                            __ZNSt3__115basic_streambufIcNS_11char_traitsIcEEE4syncEv,
                            __ZNSt3__115basic_streambufIcNS_11char_traitsIcEEE5imbueERKNS_6localeE,
                            __ZNSt3__115basic_streambufIcNS_11char_traitsIcEEE5uflowEv,
                            __ZNSt3__115basic_streambufIcNS_11char_traitsIcEEE6setbufEPcl,
                            __ZNSt3__115basic_streambufIcNS_11char_traitsIcEEE6xsgetnEPcl,
                            __ZNSt3__115basic_streambufIcNS_11char_traitsIcEEE6xsputnEPKcl,
                            __ZNSt3__115basic_streambufIcNS_11char_traitsIcEEE9showmanycEv,
                            __ZNSt3__115basic_streambufIcNS_11char_traitsIcEEEC2Ev,
                            __ZNSt3__115basic_streambufIcNS_11char_traitsIcEEED2Ev,
                            __ZNSt3__14cerrE,
                            __ZNSt3__14stoiERKNS_12basic_stringIcNS_11char_traitsIcEENS_9allocatorIcEEEEPmi,
                            __ZNSt3__15ctypeIcE2idE, __ZNSt3__16localeC1ERKS0_,
                            __ZNSt3__16localeD1Ev,
                            __ZNSt3__17codecvtIcc11__mbstate_tE2idE,
                            __ZNSt3__18ios_base4initEPv,
                            __ZNSt3__18ios_base5clearEj,
                            __ZNSt3__19basic_iosIcNS_11char_traitsIcEEED2Ev,
                            __ZNSt3__19to_stringEi, __ZNSt3__19to_stringEj,
                            __ZNSt3__19to_stringEy,
                            __ZNSt3__1plIcNS_11char_traitsIcEENS_9allocatorIcEEEENS_12basic_stringIT_T0_T1_EEPKS6_RKS9_,
                            __ZTVN4llvm18raw_string_ostreamE,
                            __ZThn16_NSt3__114basic_iostreamIcNS_11char_traitsIcEEED0Ev,
                            __ZThn16_NSt3__114basic_iostreamIcNS_11char_traitsIcEEED1Ev,
                            __ZTv0_n24_NSt3__113basic_istreamIcNS_11char_traitsIcEEED0Ev,
                            __ZTv0_n24_NSt3__113basic_istreamIcNS_11char_traitsIcEEED1Ev,
                            __ZTv0_n24_NSt3__113basic_ostreamIcNS_11char_traitsIcEEED0Ev,
                            __ZTv0_n24_NSt3__113basic_ostreamIcNS_11char_traitsIcEEED1Ev,
                            __ZTv0_n24_NSt3__114basic_iostreamIcNS_11char_traitsIcEEED0Ev,
                            __ZTv0_n24_NSt3__114basic_iostreamIcNS_11char_traitsIcEEED1Ev,
                            ___CFConstantStringClassReference, ___chkstk_darwin,
                            ___cxa_atexit, ___cxa_guard_acquire,
                            ___cxa_guard_release, ___cxa_pure_virtual, ___error,
                            ___maskrune, ___stack_chk_fail, ___stack_chk_guard,
                            ___stderrp, __os_log_debug_impl, __os_log_default,
                            __os_log_impl, _abort, _analytics_send_event, _atoi,
                            _bzero, _calloc, _chown, _createCompilerHelper,
                            _deleteCompilerHelper, _dispatch_once, _dlclose,
                            _dlerror, _dlopen, _dlsym, _fclose, _fflush, _fopen, _fprintf,
                            _fread, _free, _fseeko, _ftello, _fwrite, _getpid,
                            _mach_absolute_time, _mach_timebase_info, _malloc,
                            _memchr, _memcmp, _memcpy, _memmove, _memset,
                            _memset_pattern4, _mkdir, _objc_alloc_init,
                            _objc_msgSend, _os_log_create, _os_log_type_enabled,
                            _os_variant_has_internal_diagnostics, _printf,
                            _snprintf, _sprintf, _stat, _strcmp, _strdup, _strlen,
                            _strncmp, _syslog, _vasprintf, _xpc_copy,
                            _xpc_copy_description, _xpc_dictionary_create,
                            _xpc_dictionary_get_uint64,
                            _xpc_dictionary_set_uint64, _xpc_release,
                            dyld_stub_binder ]
    objc-classes:         [ NSDate, NSDateFormatter, NSFileManager, NSString ]
...
