---
archs:                 [ armv7, armv7s, arm64, i386, x86_64 ]
platform:              ios
install-name:          /System/Library/PrivateFrameworks/VoiceServices.framework/VoiceServices
current-version:       1
compatibility-version: 1
exports:
  - archs:              [ armv7, armv7s, arm64, i386, x86_64 ]
    symbols:            [ _Diagnostics_set_log_level, _VSAttributedStringCreateFromSerializedAttributes,
                          _VSAttributedStringCreateSerializedAttributes, _VSCFArrayGetValueAtIndexIfType,
                          _VSCFAttributedStringCreateStringByBracketingAttributeWithString,
                          _VSCFAttributedStringGetAttributeAndLongestEffectiveRange, _VSCFDictionaryGetValueIfType,
                          _VSCFPropertyListCreateBinaryXMLData, _VSCFPropertyListCreateFromBinaryXMLData,
                          _VSCFSetCreateMutableArray, _VSCFSetSendDifferences, _VSCFURLDeleteDirectoryContents,
                          _VSCopyContentsOfDirectoryAtURL, _VSCopyModificationDateForFileAtURL,
                          _VSCopyUpdatableRecognitionModelDataProviderInfos, _VSCreateDataFromContentsOfURL, _VSCreateDirectory,
                          _VSCreateTemporaryDirectory, _VSCreateURLAndDirectory, _VSDeleteItemAtURL, _VSDirectoryExistsAtURL,
                          _VSErrorCreate, _VSFileExistsAtURL, _VSGetLogObject, _VSKeepAliveEntitlement,
                          _VSKeepAliveMachServiceName, _VSKeywordIndexCopyDefaultURL,
                          _VSKeywordIndexCopyKeywordsForModelIdentifier, _VSKeywordIndexCopyKeywordsForTopLevelModels,
                          _VSKeywordIndexCreate, _VSKeywordIndexCreateWithURL, _VSKeywordIndexSaveToURL,
                          _VSKeywordIndexSetKeywordsForClassIdentifier, _VSKeywordIndexSetKeywordsForModelIdentifier,
                          _VSLogBundleCopyPath, _VSLogBundleCopyPathForFile, _VSLogBundleCopyURL, _VSLogBundleCopyURLForFile,
                          _VSLogBundleCreate, _VSLogBundleCreateFromPath, _VSPluginRegsitryRebuild,
                          _VSPreferencesCopyAutoDownloadedAssetsInfo, _VSPreferencesCopyAvailableLanguageIdentifiers,
                          _VSPreferencesCopyAvailableOutputLanguageIdentifiers,
                          _VSPreferencesCopyDefaultOutputLanguageIdentifierForUserPreferences,
                          _VSPreferencesCopyDefaultSpokenLanguageIdentifierForUserPreferences,
                          _VSPreferencesCopyLastAggressiveDownloadDates, _VSPreferencesCopyLastAssetPathForLanguage,
                          _VSPreferencesCopyLastCustomAssetRemoteQueryDate, _VSPreferencesCopySpokenLanguageIdentifier,
                          _VSPreferencesCopySpokenLanguageIdentifierArray, _VSPreferencesCopyValueForKey,
                          _VSPreferencesGetLogging, _VSPreferencesGetLoggingLevel, _VSPreferencesHandleLanguageChange,
                          _VSPreferencesInitialize, _VSPreferencesSetAutoDownloadedAssetsInfo,
                          _VSPreferencesSetLastAggressiveDownloadDates, _VSPreferencesSetLastAssetPathForLanguage,
                          _VSPreferencesSetLastCustomAssetRemoteQueryDate, _VSPreferencesSetLogging,
                          _VSPreferencesSetLoggingLevel, _VSPreferencesSetSpokenLanguageIdentifier, _VSPreferencesSetValueForKey,
                          _VSRecognitionBegin, _VSRecognitionCancel, _VSRecognitionConfigurationCacheUpdate,
                          _VSRecognitionCopyDebugDumpPath, _VSRecognitionCopyResults, _VSRecognitionCreate,
                          _VSRecognitionCreateForDisambiguation, _VSRecognitionDisambiguationContextCreate,
                          _VSRecognitionDisambiguationContextCreateDictionaryRepresentation,
                          _VSRecognitionDisambiguationContextCreateFromDictionaryRepresentation,
                          _VSRecognitionDisambiguationContextGetAmbiguousClassValueAtIndex,
                          _VSRecognitionDisambiguationContextGetAmbiguousClassValues,
                          _VSRecognitionDisambiguationContextGetKnownClassValue,
                          _VSRecognitionDisambiguationContextGetKnownClassValues,
                          _VSRecognitionDisambiguationContextGetModelIdentifier,
                          _VSRecognitionDisambiguationContextGetSequenceTag, _VSRecognitionDisambiguationContextGetTypeID,
                          _VSRecognitionDisambiguationContextSetAmbiguousClassValues,
                          _VSRecognitionDisambiguationContextSetKnownClassValues,
                          _VSRecognitionDisambiguationContextSetModelIdentifier,
                          _VSRecognitionDisambiguationContextSetSequenceTag, _VSRecognitionGetInputLevel,
                          _VSRecognitionGetInputLevelDB, _VSRecognitionGetModelIdentifier, _VSRecognitionGetPreferredEngine,
                          _VSRecognitionGetTypeID, _VSRecognitionIsActive, _VSRecognitionIsPrepared,
                          _VSRecognitionModelCopyActiveLanguageIdentifier, _VSRecognitionModelCopyActiveLanguageIdentifierArray,
                          _VSRecognitionModelCopyLanguageResourceURL, _VSRecognitionModelCopyResourceURL,
                          _VSRecognitionModelCopyResourceURLForLanguage, _VSRecognitionModelDataProviderChanged,
                          _VSRecognitionModelMaximumClassValueWeight, _VSRecognitionModelMinimumClassValueWeight,
                          _VSRecognitionModelNeutralClassValueWeight, _VSRecognitionPluginInfoCreateString,
                          _VSRecognitionPluginStringCopyInfo, _VSRecognitionPrepare, _VSRecognitionResultCopyClassIDsAndPhrases,
                          _VSRecognitionResultCopyDescriptionWithIndent, _VSRecognitionResultCreate,
                          _VSRecognitionResultCreateDictionaryRepresentation,
                          _VSRecognitionResultCreateDictionaryRepresentationWithResultHandlerInfo,
                          _VSRecognitionResultCreateFromDictionaryRepresentation, _VSRecognitionResultGetContext,
                          _VSRecognitionResultGetHandlerInfoString, _VSRecognitionResultGetModelIdentifier,
                          _VSRecognitionResultGetPhraseAtIndex, _VSRecognitionResultGetPhraseCount,
                          _VSRecognitionResultGetTypeID, _VSRecognitionResultSetContext, _VSRecognitionSetAudioInputPath,
                          _VSRecognitionSetBluetoothInputAllowed, _VSRecognitionSetDebugDumpPath,
                          _VSRecognitionSetEngineResetRequired, _VSRecognitionSetInputLevelUpdateInterval,
                          _VSRecognitionSetPreferredEngine, _VSStringForSpeechFootprint, _VSStringForSpeechGender,
                          _VSSystemRootDirectory, _VSTTSEntitlement, _VSTTSMachServiceName, _VSVocalizerAssetExistsForLanguage,
                          _VSVocalizerCopyDefaultAssetLanguage, _VSVocalizerCopyFileNameForToneName,
                          _VSVocalizerCopyPathForBuiltInVoice, _VSVocalizerCopyPathForCommonResources,
                          _VSVocalizerCopyPathForLocalizedResources, _VSVocalizerCopyPathForResources,
                          _VSVocalizerCopyPathForTones, _VSVocalizerCopyURLForAssets,
                          _VSVocalizerCopyVoiceEngineFormatVersionForLanguage, _VSVocalizerDeleteAssetForLanguage,
                          _VSVocalizerShouldUseAssetForLanguage, __VSBundleCopyResourceURL, __VSCopyAvailableLanguageIdentifiers,
                          __VSCopyAvailableOutputLanguageIdentifiers, __VSCopyDefaultLanguageIdentifierFallbackMapURL,
                          __VSCopyDefaultOutputLanguageIdentifierFallbackMapURL,
                          __VSCopyFallbackLanguageIdentifierForLanguageIdentifier, __VSCopyFallbackLanguageIdentifierForLocale,
                          __VSCopyLanguageArrayForLanguageIdentifier, __VSCopyLanguageCodeFromLanguageIdentifier,
                          __VSCopyLanguageIdentifierForLocale, __VSCopyLocalizedString,
                          __VSCopyLocationCodeFromLanguageIdentifier, __VSCopyQualifiedLanguageIdentifierForLanguageCode,
                          __VSLanguageIdentifierIsLanguageOnly,
                          __VSPreferencesCopyDefaultOutputLanguageIdentifierForUserPreferences,
                          __VSServerConnectionCopyClientPort, __VSServerConnectionCopyServerPort, __VSServerConnectionCreate,
                          __VSServerConnectionDeliverInRunLoop, __VSServerConnectionGetTypeID, __VSServerConnectionInvalidate,
                          __VSVocalizerCopyVoiceEngineFormatVersionsForLanguage,
                          __ZGVZN5boost6spirit7classic4impl14get_definitionINS_13property_tree11json_parser12json_grammarINS4_11basic_ptreeINSt3__112basic_stringIcNS8_11char_traitsIcEENS8_9allocatorIcEEEESE_NS8_4lessISE_EEEEEENS1_14parser_contextINS1_5nil_tEEENS1_7scannerINS8_11__wrap_iterIPcEENS1_16scanner_policiesINS1_28skip_parser_iteration_policyINS1_11alternativeINSS_INS1_12space_parserENS1_13confix_parserINS1_6strlitIPKcEENS1_11kleene_starINS1_14anychar_parserEEENSS_INS1_10eol_parserENS1_10end_parserEEENS1_21unary_parser_categoryENS1_10non_nestedENS1_9is_lexemeEEEEENSU_ISY_S11_SY_S15_S16_S17_EEEENS1_16iteration_policyEEENS1_12match_policyENS1_13action_policyEEEEEEERNT_10definitionIT1_EEPKNS1_7grammarIS1I_T0_EEE6helper,
                          __ZGVZN5boost6spirit7classic4impl19object_with_id_baseINS2_11grammar_tagEmE17acquire_object_idEvE13static_supply,
                          __ZN11Diagnostics11s_log_levelE, __ZN11Diagnostics3logEiPKcz, __ZN11Diagnostics4vlogEiPKcPv,
                          __ZN11Diagnostics7s_flagsE, __ZN11MarkerTable10add_markerEN6Marker4TypeERKS0_t,
                          __ZN11MarkerTable11end_markersEm, __ZN11MarkerTable15inherit_markersERKS_,
                          __ZN11MarkerTable17set_initial_valueEN6Marker4TypeERKNSt3__112basic_stringIcNS2_11char_traitsIcEENS2_9allocatorIcEEEE,
                          __ZN11MarkerTable19add_deferred_markerEN6Marker4TypeERKS0_,
                          __ZN11MarkerTable24resolve_deferred_markersEN6Marker4TypeE,
                          __ZN11MarkerTable30apply_insertions_and_deletionsERKNSt3__16vectorINS1_IiNS0_9allocatorIiEEEENS2_IS4_EEEERKNS0_3mapIjbNS0_4lessIjEENS2_INS0_4pairIKjbEEEEEE,
                          __ZN11MarkerTable5resetEv, __ZN11MarkerTableC1Ev, __ZN11MarkerTableC2Ev,
                          __ZN11VoiceConfig13create_configERKNSt3__112basic_stringIcNS0_11char_traitsIcEENS0_9allocatorIcEEEE,
                          __ZN11VoiceConfigD0Ev, __ZN11VoiceConfigD1Ev, __ZN11VoiceConfigD2Ev,
                          __ZN12AudioDecoder15CreateACDecoderEPK27AudioStreamBasicDescriptionPKci, __ZN12AudioDecoderD0Ev,
                          __ZN12AudioDecoderD1Ev, __ZN12AudioDecoderD2Ev, __ZN12Fingerprints18compute_mismatchesEhh,
                          __ZN12PCMPackInt24ILb0EE7processEPvPKvm, __ZN12PCMPackInt24ILb1EE7processEPvPKvm,
                          __ZN12PCMProcessorD0Ev, __ZN12PCMProcessorD1Ev, __ZN12PCMProcessorD2Ev,
                          __ZN12PredictorMDN26generate_prediction_outputERNSt3__16vectorINS0_12basic_stringIcNS0_11char_traitsIcEENS0_9allocatorIcEEEENS5_IS7_EEEERNS1_IS9_NS5_IS9_EEEERNS1_INS1_IiNS5_IiEEEENS5_ISF_EEEE,
                          __ZN12PredictorMDNC1ENSt3__110shared_ptrI13NNetExtractorEERKNS0_12basic_stringIcNS0_11char_traitsIcEENS0_9allocatorIcEEEE,
                          __ZN12PredictorMDNC2ENSt3__110shared_ptrI13NNetExtractorEERKNS0_12basic_stringIcNS0_11char_traitsIcEENS0_9allocatorIcEEEE,
                          __ZN12TAPExtractor10rabin_hashERKNSt3__112basic_stringIcNS0_11char_traitsIcEENS0_9allocatorIcEEEE,
                          __ZN12TAPExtractor11store_matchEtttt,
                          __ZN12TAPExtractor12detect_matchERKNSt3__112basic_stringIcNS0_11char_traitsIcEENS0_9allocatorIcEEEEttRKN14TAPFileBuilder21top_level_prompt_infoERK11MarkerTableRKNS0_6vectorIS6_NS4_IS6_EEEERKNSG_ISI_NS4_ISI_EEEE,
                          __ZN12TAPExtractor12string_matchERKNSt3__112basic_stringIcNS0_11char_traitsIcEENS0_9allocatorIcEEEEttRKN14TAPFileBuilder21top_level_prompt_infoE,
                          __ZN12TAPExtractor13generate_mapsEv,
                          __ZN12TAPExtractor13process_matchERKNSt3__112basic_stringIcNS0_11char_traitsIcEENS0_9allocatorIcEEEEttRKN14TAPFileBuilder21top_level_prompt_infoE,
                          __ZN12TAPExtractor16non_zero_markersEv,
                          __ZN12TAPExtractor17process_tag_matchEPKN14TAPFileBuilder21top_level_prompt_infoEt,
                          __ZN12TAPExtractor17set_phone_in_wordERNSt3__112basic_stringIcNS0_11char_traitsIcEENS0_9allocatorIcEEEERKNS0_6vectorINS8_IS6_NS4_IS6_EEEENS4_ISA_EEEE,
                          __ZN12TAPExtractor18make_tap_extractorERKNSt3__112basic_stringIcNS0_11char_traitsIcEENS0_9allocatorIcEEEE,
                          __ZN12TAPExtractor19process_all_matchesERKNSt3__112basic_stringIcNS0_11char_traitsIcEENS0_9allocatorIcEEEERK11MarkerTableRKNS0_6vectorIS6_NS4_IS6_EEEERKNSC_ISE_NS4_ISE_EEEE,
                          __ZN12TAPExtractor20truncated_rabin_hashERKNSt3__112basic_stringIcNS0_11char_traitsIcEENS0_9allocatorIcEEEEt,
                          __ZN12TAPExtractor21load_top_level_headerEv,
                          __ZN12TAPExtractor21set_character_in_wordERNSt3__112basic_stringIcNS0_11char_traitsIcEENS0_9allocatorIcEEEERKNS0_6vectorINS8_IS6_NS4_IS6_EEEENS4_ISA_EEEE,
                          __ZN12TAPExtractor22end_boundary_conditionEttRKN14TAPFileBuilder21top_level_prompt_infoE,
                          __ZN12TAPExtractor23no_prematched_positionsEtt,
                          __ZN12TAPExtractor24start_boundary_conditionEttRKN14TAPFileBuilder21top_level_prompt_infoE,
                          __ZN12TAPExtractor26extract_nonblank_characterEtbRNSt3__112basic_stringIcNS0_11char_traitsIcEENS0_9allocatorIcEEEERKS6_,
                          __ZN12TAPExtractor28load_polynomial_coefficientsEv,
                          __ZN12TAPExtractor31check_phrase_for_prompt_matchesERNSt3__112basic_stringIcNS0_11char_traitsIcEENS0_9allocatorIcEEEES7_RK11MarkerTableRKNS0_6vectorIS6_NS4_IS6_EEEERKNSB_ISD_NS4_ISD_EEEE,
                          __ZN12TAPExtractor33check_for_matches_of_fixed_lengthERKNSt3__112basic_stringIcNS0_11char_traitsIcEENS0_9allocatorIcEEEEPKN14TAPFileBuilder21top_level_prompt_infoEttRK11MarkerTableRKNS0_6vectorIS6_NS4_IS6_EEEERKNSG_ISI_NS4_ISI_EEEE,
                          __ZN12TAPExtractor34extract_utf8_character_from_stringEtbRNSt3__112basic_stringIcNS0_11char_traitsIcEENS0_9allocatorIcEEEERKS6_,
                          __ZN12TAPExtractor34trigger_prompts_from_audio_markersERK11MarkerTable,
                          __ZN12TAPExtractor35calculate_feature_indices_from_specERKNSt3__16vectorINS0_12basic_stringIcNS0_11char_traitsIcEENS0_9allocatorIcEEEENS5_IS7_EEEE,
                          __ZN12TAPExtractor38compare_prompts_by_boundary_conditionsERKN14TAPFileBuilder21top_level_prompt_infoES3_,
                          __ZN12TAPExtractor41generate_vector_of_prompt_section_offsetsEv,
                          __ZN12TAPExtractor42set_values_based_on_word_and_phone_vectorsERKNSt3__112basic_stringIcNS0_11char_traitsIcEENS0_9allocatorIcEEEEtt,
                          __ZN12TAPExtractor46make_sorted_priority_vector_of_matched_promptsERNSt3__16vectorINS0_4pairIttEENS0_9allocatorIS3_EEEERNS1_IN14TAPFileBuilder21top_level_prompt_infoENS4_IS9_EEEE,
                          __ZN12TAPExtractorC1ERKNSt3__112basic_stringIcNS0_11char_traitsIcEENS0_9allocatorIcEEEE,
                          __ZN12TAPExtractorC2ERKNSt3__112basic_stringIcNS0_11char_traitsIcEENS0_9allocatorIcEEEE,
                          __ZN12TAPExtractorD1Ev, __ZN12TAPExtractorD2Ev,
                          __ZN12TTSACDecoder6decodeEjPKvRKNSt3__16vectorItNS2_9allocatorItEEEEjPs,
                          __ZN12TTSACDecoder9load_opusEv, __ZN12TTSACDecoderC1EPK27AudioStreamBasicDescriptionPKci,
                          __ZN12TTSACDecoderC2EPK27AudioStreamBasicDescriptionPKci, __ZN12TTSACDecoderD0Ev,
                          __ZN12TTSACDecoderD1Ev, __ZN12TTSACDecoderD2Ev,
                          __ZN13NNetExtractor14compute_outputERNSt3__16vectorINS1_IfNS0_9allocatorIfEEEENS2_IS4_EEEE,
                          __ZN13NNetExtractorC1ERKNSt3__112basic_stringIcNS0_11char_traitsIcEENS0_9allocatorIcEEEE,
                          __ZN13NNetExtractorC2ERKNSt3__112basic_stringIcNS0_11char_traitsIcEENS0_9allocatorIcEEEE,
                          __ZN13NNetExtractorD1Ev, __ZN13NNetExtractorD2Ev,
                          __ZN13PCMReader_CAFC1ERKNSt3__112basic_stringIcNS0_11char_traitsIcEENS0_9allocatorIcEEEE,
                          __ZN13PCMReader_CAFC2ERKNSt3__112basic_stringIcNS0_11char_traitsIcEENS0_9allocatorIcEEEE,
                          __ZN13PCMReader_CAFD0Ev, __ZN13PCMReader_CAFD1Ev, __ZN13PCMReader_CAFD2Ev,
                          __ZN13PCMReader_WAVC1ERKNSt3__112basic_stringIcNS0_11char_traitsIcEENS0_9allocatorIcEEEE,
                          __ZN13PCMReader_WAVC2ERKNSt3__112basic_stringIcNS0_11char_traitsIcEENS0_9allocatorIcEEEE,
                          __ZN13PCMReader_WAVD0Ev, __ZN13PCMReader_WAVD1Ev, __ZN13PCMReader_WAVD2Ev,
                          __ZN13PCMWriter_CAFC1ERKNSt3__112basic_stringIcNS0_11char_traitsIcEENS0_9allocatorIcEEEERKN7PCMFile4InfoE,
                          __ZN13PCMWriter_CAFC2ERKNSt3__112basic_stringIcNS0_11char_traitsIcEENS0_9allocatorIcEEEERKN7PCMFile4InfoE,
                          __ZN13PCMWriter_WAVC1ERKNSt3__112basic_stringIcNS0_11char_traitsIcEENS0_9allocatorIcEEEERKN7PCMFile4InfoE,
                          __ZN13PCMWriter_WAVC2ERKNSt3__112basic_stringIcNS0_11char_traitsIcEENS0_9allocatorIcEEEERKN7PCMFile4InfoE,
                          __ZN13PCMWriter_WAVD0Ev, __ZN13PCMWriter_WAVD1Ev, __ZN13PCMWriter_WAVD2Ev,
                          __ZN13TTSACIterator10fetch_dataEPmP11AudioBufferPP28AudioStreamPacketDescription,
                          __ZN13TTSACIteratorC1EiiRKNSt3__16vectorItNS0_9allocatorItEEEEjPKv,
                          __ZN13TTSACIteratorC2EiiRKNSt3__16vectorItNS0_9allocatorItEEEEjPKv,
                          __ZN14AudioExtractor16extract_sequenceEiiRNSt3__16vectorIfNS0_9allocatorIfEEEEiib,
                          __ZN14AudioExtractor16get_silence_modeEv,
                          __ZN14AudioExtractor44process_packet_and_stride_table_for_sequenceEjjRNSt3__16vectorItNS0_9allocatorItEEEERNS1_IyNS2_IyEEEE,
                          __ZN14AudioExtractorC1ERKNSt3__112basic_stringIcNS0_11char_traitsIcEENS0_9allocatorIcEEEEj,
                          __ZN14AudioExtractorC2ERKNSt3__112basic_stringIcNS0_11char_traitsIcEENS0_9allocatorIcEEEEj,
                          __ZN14AudioExtractorD1Ev, __ZN14AudioExtractorD2Ev, __ZN14UnitCandidates9preflightEm,
                          __ZN14UnitCandidatesC1Emb, __ZN14UnitCandidatesC2Emb,
                          __ZN15DecompressAudio21CreateDecompressAudioEPK27AudioStreamBasicDescriptionPKciRNSt3__112basic_stringIcNS5_11char_traitsIcEENS5_9allocatorIcEEEE,
                          __ZN15DecompressAudio25decompress_relevant_audioERKNSt3__16vectorItNS0_9allocatorItEEEEyRNS1_IsNS2_IsEEEE,
                          __ZN15DecompressAudioC1EPK27AudioStreamBasicDescriptionPKciRNSt3__112basic_stringIcNS5_11char_traitsIcEENS5_9allocatorIcEEEE,
                          __ZN15DecompressAudioC2EPK27AudioStreamBasicDescriptionPKciRNSt3__112basic_stringIcNS5_11char_traitsIcEENS5_9allocatorIcEEEE,
                          __ZN15DecompressAudioD1Ev, __ZN15DecompressAudioD2Ev, __ZN15GryphonAnalysis10is_enabledEv,
                          __ZN15GryphonAnalysis11fe_featuresE, __ZN15GryphonAnalysis11phone_data_E,
                          __ZN15GryphonAnalysis12database_ptrE,
                          __ZN15GryphonAnalysis12dump_latticeERN8nlohmann10basic_jsonINSt3__13mapENS2_6vectorENS2_12basic_stringIcNS2_11char_traitsIcEENS2_9allocatorIcEEEEbxydS8_EE,
                          __ZN15GryphonAnalysis12set_databaseEP8Database,
                          __ZN15GryphonAnalysis13dump_analysisENSt3__112basic_stringIcNS0_11char_traitsIcEENS0_9allocatorIcEEEE,
                          __ZN15GryphonAnalysis13dump_featuresERN8nlohmann10basic_jsonINSt3__13mapENS2_6vectorENS2_12basic_stringIcNS2_11char_traitsIcEENS2_9allocatorIcEEEEbxydS8_EE,
                          __ZN15GryphonAnalysis13original_textE, __ZN15GryphonAnalysis14audio_segmentsE,
                          __ZN15GryphonAnalysis15add_FE_featuresENSt3__16vectorINS1_INS0_12basic_stringIcNS0_11char_traitsIcEENS0_9allocatorIcEEEENS5_IS7_EEEENS5_IS9_EEEE,
                          __ZN15GryphonAnalysis15add_audio_labelEffii, __ZN15GryphonAnalysis16fe_specificationE,
                          __ZN15GryphonAnalysis16word_unit_rangesE,
                          __ZN15GryphonAnalysis17set_original_textERKNSt3__112basic_stringIcNS0_11char_traitsIcEENS0_9allocatorIcEEEE,
                          __ZN15GryphonAnalysis18add_input_featuresENSt3__16vectorINS1_IfNS0_9allocatorIfEEEENS2_IS4_EEEE,
                          __ZN15GryphonAnalysis18nnet_extractor_ptrE, __ZN15GryphonAnalysis18set_nnet_extractorEP13NNetExtractor,
                          __ZN15GryphonAnalysis19add_word_unit_rangeENSt3__112basic_stringIcNS0_11char_traitsIcEENS0_9allocatorIcEEEEii,
                          __ZN15GryphonAnalysis19dump_audio_segmentsERN8nlohmann10basic_jsonINSt3__13mapENS2_6vectorENS2_12basic_stringIcNS2_11char_traitsIcEENS2_9allocatorIcEEEEbxydS8_EE,
                          __ZN15GryphonAnalysis20input_feature_array_E,
                          __ZN15GryphonAnalysis28set_FE_feature_specificationENSt3__16vectorINS0_12basic_stringIcNS0_11char_traitsIcEENS0_9allocatorIcEEEENS5_IS7_EEEE,
                          __ZN15GryphonAnalysis5data_E, __ZN15GryphonAnalysis7enabledE, __ZN15GryphonAnalysis9add_phoneE5Phone,
                          __ZN15GryphonAnalysis9add_sliceENSt3__16vectorI4UnitNS0_9allocatorIS2_EEEE,
                          __ZN15GryphonAnalysis9dump_pathE, __ZN15PCMExtractInt24IfLb0EE7processEPvPKvm,
                          __ZN15PCMExtractInt24IfLb1EE7processEPvPKvm, __ZN15PCMExtractInt24IiLb0EE7processEPvPKvm,
                          __ZN15PCMExtractInt24IiLb1EE7processEPvPKvm, __ZN15PCMExtractInt24IsLb0EE7processEPvPKvm,
                          __ZN15PCMExtractInt24IsLb1EE7processEPvPKvm, __ZN15PromptsDisabler11is_disabledEv,
                          __ZN15PromptsDisabler8disabledE,
                          __ZN16VoiceConfigEyrieC1ERKNSt3__112basic_stringIcNS0_11char_traitsIcEENS0_9allocatorIcEEEE,
                          __ZN16VoiceConfigEyrieC2ERKNSt3__112basic_stringIcNS0_11char_traitsIcEENS0_9allocatorIcEEEE,
                          __ZN16VoiceConfigEyrieD0Ev, __ZN16VoiceConfigEyrieD1Ev, __ZN16VoiceConfigEyrieD2Ev,
                          __ZN19VoiceConfigFlexible13set_param_intERKNSt3__112basic_stringIcNS0_11char_traitsIcEENS0_9allocatorIcEEEEj,
                          __ZN19VoiceConfigFlexible16set_param_stringERKNSt3__112basic_stringIcNS0_11char_traitsIcEENS0_9allocatorIcEEEES8_,
                          __ZN19VoiceConfigFlexible20set_param_string_setERKNSt3__112basic_stringIcNS0_11char_traitsIcEENS0_9allocatorIcEEEERKNS0_3setIS6_NS0_4lessIS6_EENS4_IS6_EEEE,
                          __ZN19VoiceConfigFlexible8set_pathERKNSt3__112basic_stringIcNS0_11char_traitsIcEENS0_9allocatorIcEEEES8_,
                          __ZN21FrontendMiscellaneous17aug_feature_tableERNSt3__16vectorINS0_12basic_stringIcNS0_11char_traitsIcEENS0_9allocatorIcEEEENS5_IS7_EEEERNS1_IS9_NS5_IS9_EEEER11MarkerTableiRKNS0_3setIS7_NS0_4lessIS7_EES8_EESL_i,
                          __ZN22FeatureExtractorTarget14set_patch_fileEPKc, __ZN22FeatureExtractorTarget16end_all_featuresEv,
                          __ZN22FeatureExtractorTarget20whisper_next_requestEb,
                          __ZN22FeatureExtractorTarget22init_with_install_pathEPKc,
                          __ZN22FeatureExtractorTarget7destroyEPK6RSRC_S, __ZN22FeatureExtractorTarget8add_wordERK12WordFeatures,
                          __ZN22FeatureExtractorTarget8retrieveE9_VE_HSAFE, __ZN22FeatureExtractorTarget8retrieveEPK6RSRC_S,
                          __ZN22FeatureExtractorTargetC1Ev, __ZN22FeatureExtractorTargetC2Ev,
                          __ZN24VectorAndMatrixUtilities23negative_log_likelihoodEPfS0_S0_PKfi,
                          __ZN24VectorAndMatrixUtilities37variance_term_negative_log_likelihoodEPfS0_i,
                          __ZN24VectorAndMatrixUtilities41non_variance_term_negative_log_likelihoodEPKfS1_S1_S1_i,
                          __ZN5Input10input_dataERKNSt3__16vectorINS1_INS0_12basic_stringIcNS0_11char_traitsIcEENS0_9allocatorIcEEEENS5_IS7_EEEENS5_IS9_EEEE,
                          __ZN5Input4dumpENSt3__16vectorINS1_IfNS0_9allocatorIfEEEENS2_IS4_EEEE,
                          __ZN5InputC1ENSt3__16vectorINS0_12basic_stringIcNS0_11char_traitsIcEENS0_9allocatorIcEEEENS5_IS7_EEEER8Database,
                          __ZN5InputC2ENSt3__16vectorINS0_12basic_stringIcNS0_11char_traitsIcEENS0_9allocatorIcEEEENS5_IS7_EEEER8Database,
                          __ZN6Target11set_patchesERKNSt3__112basic_stringIcNS0_11char_traitsIcEENS0_9allocatorIcEEEE,
                          __ZN6Target13run_slicewiseERKNSt3__16vectorINS1_IfNS0_9allocatorIfEEEENS2_IS4_EEEE,
                          __ZN6Target16set_marker_tableERK11MarkerTable,
                          __ZN6Target17target_cost_multiEiPKfRKNSt3__112basic_stringIcNS2_11char_traitsIcEENS2_9allocatorIcEEEES1_jRNS2_6vectorIfNS6_IfEEEE,
                          __ZN6Target19single_slice_targetERNSt3__16vectorI4UnitNS0_9allocatorIS2_EEEERKNS1_IfNS3_IfEEEE,
                          __ZN6Target21get_vetoes_and_forcesERNSt3__18multimapIjiNS0_4lessIjEENS0_9allocatorINS0_4pairIKjiEEEEEERNS0_3mapIjiS3_S8_EE,
                          __ZN6Target21set_vetoes_and_forcesERKNSt3__18multimapIjiNS0_4lessIjEENS0_9allocatorINS0_4pairIKjiEEEEEERKNS0_3mapIjiS3_S8_EE,
                          __ZN6Target22get_target_fingerprintERKNSt3__16vectorIfNS0_9allocatorIfEEEE,
                          __ZN6Target22silence_slice_handlingEiRNSt3__16vectorI4UnitNS0_9allocatorIS2_EEEERKNS1_IfNS3_IfEEEE,
                          __ZN6Target22single_slice_preselectEiRKNSt3__16vectorINS0_12basic_stringIcNS0_11char_traitsIcEENS0_9allocatorIcEEEENS5_IS7_EEEEhhRNS1_I4UnitNS5_ISC_EEEE,
                          __ZN6Target24update_vetoes_and_forcesEm,
                          __ZN6Target28set_insertions_and_deletionsERKNSt3__16vectorINS1_IiNS0_9allocatorIiEEEENS2_IS4_EEEERKNS0_3mapIjbNS0_4lessIjEENS2_INS0_4pairIKjbEEEEEE,
                          __ZN6TargetC1ER8DatabaseNSt3__110shared_ptrI13NNetExtractorEE,
                          __ZN6TargetC2ER8DatabaseNSt3__110shared_ptrI13NNetExtractorEE, __ZN6TargetD1Ev, __ZN6TargetD2Ev,
                          __ZN7Backend15compute_samplesERNSt3__16vectorIsNS0_9allocatorIsEEEE, __ZN7BackendC1EPK11VoiceConfigj,
                          __ZN7BackendC2EPK11VoiceConfigj, __ZN7BackendD1Ev, __ZN7BackendD2Ev,
                          __ZN7PCMFile13create_readerERKNSt3__112basic_stringIcNS0_11char_traitsIcEENS0_9allocatorIcEEEE,
                          __ZN7PCMFile13create_writerERKNSt3__112basic_stringIcNS0_11char_traitsIcEENS0_9allocatorIcEEEERKNS_4InfoE,
                          __ZN7PCMFile6Reader10set_offsetEm, __ZN7PCMFile6Reader11set_channelEi,
                          __ZN7PCMFile6Reader12read_samplesEmPvibf, __ZN7PCMFile6ReaderD0Ev, __ZN7PCMFile6ReaderD1Ev,
                          __ZN7PCMFile6ReaderD2Ev, __ZN7PCMFile6Writer13write_samplesEmPKvibf,
                          __ZN7PCMFile6WriterC1ERKNSt3__112basic_stringIcNS1_11char_traitsIcEENS1_9allocatorIcEEEERKNS_4InfoE,
                          __ZN7PCMFile6WriterC2ERKNSt3__112basic_stringIcNS1_11char_traitsIcEENS1_9allocatorIcEEEERKNS_4InfoE,
                          __ZN7PCMFile6WriterD0Ev, __ZN7PCMFile6WriterD1Ev, __ZN7PCMFile6WriterD2Ev,
                          __ZN7Viterbi21concat_model_cost_varEPKfS1_S1_RNSt3__16vectorIfNS2_9allocatorIfEEEES1_,
                          __ZN7Viterbi21concat_model_df0_costERK4UnitS2_RKNSt3__16vectorIfNS3_9allocatorIfEEEERS7_S9_,
                          __ZN7Viterbi24best_path_from_slicewiseEv,
                          __ZN7Viterbi24viterbi_add_single_sliceERNSt3__16vectorI4UnitNS0_9allocatorIS2_EEEERKNS1_IfNS3_IfEEEE,
                          __ZN7Viterbi4dumpEv, __ZN7Viterbi6outputEv,
                          __ZN7ViterbiC1ER8DatabaseNSt3__110shared_ptrI13NNetExtractorEERNS2_6vectorINS6_IiNS2_9allocatorIiEEEENS7_IS9_EEEERKNS2_3mapIjbNS2_4lessIjEENS7_INS2_4pairIKjbEEEEEE,
                          __ZN7ViterbiC2ER8DatabaseNSt3__110shared_ptrI13NNetExtractorEERNS2_6vectorINS6_IiNS2_9allocatorIiEEEENS7_IS9_EEEERKNS2_3mapIjbNS2_4lessIjEENS7_INS2_4pairIKjbEEEEEE,
                          __ZN7Whisper12AllPassDelayENSt3__16vectorIfNS0_9allocatorIfEEEE,
                          __ZN7Whisper14LevinsonDurbinENSt3__16vectorIdNS0_9allocatorIdEEEE,
                          __ZN7Whisper19chebyshev_transformENSt3__16vectorIdNS0_9allocatorIdEEEE,
                          __ZN7Whisper23find_real_roots_cacm283ENSt3__16vectorIdNS0_9allocatorIdEEEE,
                          __ZN7Whisper24whisper_formant_shiftingENSt3__16vectorIfNS0_9allocatorIfEEEE,
                          __ZN7Whisper25modify_vocal_tract_lengthENSt3__16vectorIfNS0_9allocatorIfEEEE,
                          __ZN7Whisper26whisper_formant_sharpeningENSt3__16vectorIfNS0_9allocatorIfEEEE,
                          __ZN7Whisper28whisper_reduce_first_formantENSt3__16vectorIfNS0_9allocatorIfEEEE,
                          __ZN7Whisper2LPENSt3__16vectorIfNS0_9allocatorIfEEEE,
                          __ZN7Whisper3WLPENSt3__16vectorIfNS0_9allocatorIfEEEE, __ZN7Whisper6windowEii,
                          __ZN7Whisper7whisperERKNSt3__16vectorIfNS0_9allocatorIfEEEE,
                          __ZN7Whisper8convolveENSt3__16vectorIdNS0_9allocatorIdEEEES4_,
                          __ZN7Whisper8lsf2polyENSt3__16vectorIfNS0_9allocatorIfEEEE,
                          __ZN7Whisper8poly2lsfENSt3__16vectorIfNS0_9allocatorIfEEEE,
                          __ZN7Whisper9firfilterENSt3__16vectorIfNS0_9allocatorIfEEEES4_,
                          __ZN7Whisper9iirfilterENSt3__16vectorIfNS0_9allocatorIfEEEES4_S4_, __ZN7WhisperC1Ei, __ZN7WhisperC2Ei,
                          __ZN8Database10get_stddevERKNSt3__112basic_stringIcNS0_11char_traitsIcEENS0_9allocatorIcEEEES8_,
                          __ZN8Database10read_indexERKNSt3__112basic_stringIcNS0_11char_traitsIcEENS0_9allocatorIcEEEE,
                          __ZN8Database10read_indexEixm,
                          __ZN8Database10set_meansdERKNSt3__112basic_stringIcNS0_11char_traitsIcEENS0_9allocatorIcEEEE,
                          __ZN8Database10voice_nameEv,
                          __ZN8Database13num_feat_keysERKNSt3__112basic_stringIcNS0_11char_traitsIcEENS0_9allocatorIcEEEE,
                          __ZN8Database13num_feat_keysEi, __ZN8Database13voice_versionEv,
                          __ZN8Database14add_unit_rangeEjjR14UnitCandidates, __ZN8Database14context_encodeEhhhhhb,
                          __ZN8Database14context_stringEj,
                          __ZN8Database16feat_name_to_numERKNSt3__112basic_stringIcNS0_11char_traitsIcEENS0_9allocatorIcEEEE,
                          __ZN8Database16feat_num_to_nameEi, __ZN8Database16version_at_leastEhh,
                          __ZN8Database19get_unit_candidatesERKNSt3__112basic_stringIcNS0_11char_traitsIcEENS0_9allocatorIcEEEER14UnitCandidates,
                          __ZN8Database19get_unit_for_targetEiRNSt3__16vectorIfNS0_9allocatorIfEEEE,
                          __ZN8Database29feat_name_to_fingerprint_maskERKNSt3__112basic_stringIcNS0_11char_traitsIcEENS0_9allocatorIcEEEE,
                          __ZN8Database8feat_valERKNSt3__112basic_stringIcNS0_11char_traitsIcEENS0_9allocatorIcEEEEi,
                          __ZN8Database8feat_valEii,
                          __ZN8Database8get_meanERKNSt3__112basic_stringIcNS0_11char_traitsIcEENS0_9allocatorIcEEEES8_,
                          __ZN8Database8get_unitEiRNSt3__16vectorIfNS0_9allocatorIfEEEE,
                          __ZN8Database9add_unitsEjR14UnitCandidates, __ZN8Database9add_unitsEjjR14UnitCandidates,
                          __ZN8Database9feat_typeERKNSt3__112basic_stringIcNS0_11char_traitsIcEENS0_9allocatorIcEEEE,
                          __ZN8Database9feat_typeEi, __ZN8Database9num_featsEv, __ZN8Database9num_unitsEv,
                          __ZN8DatabaseC1ERKNSt3__112basic_stringIcNS0_11char_traitsIcEENS0_9allocatorIcEEEE,
                          __ZN8DatabaseC2ERKNSt3__112basic_stringIcNS0_11char_traitsIcEENS0_9allocatorIcEEEE, __ZN8DatabaseD0Ev,
                          __ZN8DatabaseD1Ev, __ZN8DatabaseD2Ev,
                          __ZN8Features10add_markerEijjjjRKNSt3__112basic_stringIcNS0_11char_traitsIcEENS0_9allocatorIcEEEE,
                          __ZN8Features11add_featureERKNSt3__112basic_stringIcNS0_11char_traitsIcEENS0_9allocatorIcEEEE,
                          __ZN8Features12end_featuresEv, __ZN8Features13phone_convertEi, __ZN8Features14set_api_volumeEi,
                          __ZN8Features14start_featuresEv, __ZN8Features15inherit_markersERK11MarkerTable,
                          __ZN8Features16add_feature_nameERKNSt3__112basic_stringIcNS0_11char_traitsIcEENS0_9allocatorIcEEEE,
                          __ZN8Features16end_all_featuresEv, __ZN8Features16send_prompt_textEPKctS1_t,
                          __ZN8Features17add_word_propertyEN6Marker4TypeEjjjjRKNSt3__112basic_stringIcNS2_11char_traitsIcEENS2_9allocatorIcEEEE,
                          __ZN8Features17end_feature_namesEv, __ZN8Features19handle_unseen_phoneEv,
                          __ZN8Features19start_feature_namesEv,
                          __ZN8Features24send_prompt_text_stringsERNSt3__112basic_stringIcNS0_11char_traitsIcEENS0_9allocatorIcEEEES7_,
                          __ZN8Features25get_forces_from_extractorEv, __ZN8Features25send_original_prompt_textEPKct,
                          __ZN8Features27send_normalized_prompt_textEPKct, __ZN8Features28get_deletions_from_extractorEv,
                          __ZN8Features29get_insertions_from_extractorEv, __ZN8Features34update_marker_table_from_extractorEv,
                          __ZN8Features5clearEv,
                          __ZN8FeaturesC1EiNSt3__110shared_ptrI13NNetExtractorEERKNS0_12basic_stringIcNS0_11char_traitsIcEENS0_9allocatorIcEEEESB_SB_RKNS0_3setIS9_NS0_4lessIS9_EENS7_IS9_EEEESI_,
                          __ZN8FeaturesC1EiRKNSt3__112basic_stringIcNS0_11char_traitsIcEENS0_9allocatorIcEEEERKNS0_3setIS6_NS0_4lessIS6_EENS4_IS6_EEEESF_NS0_10shared_ptrI13NNetExtractorEES8_,
                          __ZN8FeaturesC1EiRKNSt3__112basic_stringIcNS0_11char_traitsIcEENS0_9allocatorIcEEEES8_S8_S8_RKNS0_3setIS6_NS0_4lessIS6_EENS4_IS6_EEEESF_,
                          __ZN8FeaturesC2EiNSt3__110shared_ptrI13NNetExtractorEERKNS0_12basic_stringIcNS0_11char_traitsIcEENS0_9allocatorIcEEEESB_SB_RKNS0_3setIS9_NS0_4lessIS9_EENS7_IS9_EEEESI_,
                          __ZN8FeaturesC2EiRKNSt3__112basic_stringIcNS0_11char_traitsIcEENS0_9allocatorIcEEEERKNS0_3setIS6_NS0_4lessIS6_EENS4_IS6_EEEESF_NS0_10shared_ptrI13NNetExtractorEES8_,
                          __ZN8FeaturesC2EiRKNSt3__112basic_stringIcNS0_11char_traitsIcEENS0_9allocatorIcEEEES8_S8_S8_RKNS0_3setIS6_NS0_4lessIS6_EENS4_IS6_EEEESF_,
                          __ZN8UnitWave10units2segsERKNSt3__16vectorIiNS0_9allocatorIiEEEE,
                          __ZN8UnitWave11samples2wavERKNSt3__112basic_stringIcNS0_11char_traitsIcEENS0_9allocatorIcEEEEb,
                          __ZN8UnitWave11set_whisperEP7Whisper,
                          __ZN8UnitWave13get_from_fileERKNSt3__112basic_stringIcNS0_11char_traitsIcEENS0_9allocatorIcEEEExi,
                          __ZN8UnitWave13lay_out_trackERKNSt3__16vectorI7SegmentNS0_9allocatorIS2_EEEE,
                          __ZN8UnitWave13units2samplesERKNSt3__16vectorIiNS0_9allocatorIiEEEE,
                          __ZN8UnitWave16apply_whisperingERKNSt3__16vectorI7SegmentNS0_9allocatorIS2_EEEE,
                          __ZN8UnitWave16crosscorrelationERKNSt3__16vectorIfNS0_9allocatorIfEEEES6_,
                          __ZN8UnitWave16set_marker_tableERK11MarkerTable,
                          __ZN8UnitWave18unit_idx_to_sampleERKNSt3__16vectorI7SegmentNS0_9allocatorIS2_EEEEm,
                          __ZN8UnitWave20apply_volume_changesERKNSt3__16vectorI7SegmentNS0_9allocatorIS2_EEEE,
                          __ZN8UnitWave7samplesEv,
                          __ZN8UnitWaveC1ER8DatabaseRKNSt3__112basic_stringIcNS2_11char_traitsIcEENS2_9allocatorIcEEEEiSA_,
                          __ZN8UnitWaveC2ER8DatabaseRKNSt3__112basic_stringIcNS2_11char_traitsIcEENS2_9allocatorIcEEEEiSA_,
                          __ZN9InputDataC1ENSt3__112basic_stringIcNS0_11char_traitsIcEENS0_9allocatorIcEEEE,
                          __ZN9InputDataC2ENSt3__112basic_stringIcNS0_11char_traitsIcEENS0_9allocatorIcEEEE,
                          __ZN9Predictor11phone_existENSt3__112basic_stringIcNS0_11char_traitsIcEENS0_9allocatorIcEEEE,
                          __ZN9Predictor13get_in_streamERKNSt3__16vectorINS0_12basic_stringIcNS0_11char_traitsIcEENS0_9allocatorIcEEEENS5_IS7_EEEERKNS1_IS9_NS5_IS9_EEEERNS1_INS1_IiNS5_IiEEEENS5_ISH_EEEE,
                          __ZN9Predictor14init_from_jsonERN5boost13property_tree11basic_ptreeINSt3__112basic_stringIcNS3_11char_traitsIcEENS3_9allocatorIcEEEES9_NS3_4lessIS9_EEEE,
                          __ZN9Predictor15get_phone_indexEv,
                          __ZN9Predictor18make_predictor_mdnENSt3__110shared_ptrI13NNetExtractorEERKNS0_12basic_stringIcNS0_11char_traitsIcEENS0_9allocatorIcEEEE,
                          __ZN9Predictor19init_from_phonebookENSt3__112basic_stringIcNS0_11char_traitsIcEENS0_9allocatorIcEEEE,
                          __ZN9PredictorC2ERKNSt3__112basic_stringIcNS0_11char_traitsIcEENS0_9allocatorIcEEEE,
                          __ZN9Selection10get_targetEv,
                          __ZN9Selection10synthesizeERKNSt3__16vectorINS1_IfNS0_9allocatorIfEEEENS2_IS4_EEEE,
                          __ZN9Selection11set_patchesERKNSt3__112basic_stringIcNS0_11char_traitsIcEENS0_9allocatorIcEEEE,
                          __ZN9Selection16set_marker_tableERK11MarkerTable,
                          __ZN9Selection21get_vetoes_and_forcesERNSt3__18multimapIjiNS0_4lessIjEENS0_9allocatorINS0_4pairIKjiEEEEEERNS0_3mapIjiS3_S8_EE,
                          __ZN9Selection21set_vetoes_and_forcesERKNSt3__18multimapIjiNS0_4lessIjEENS0_9allocatorINS0_4pairIKjiEEEEEERKNS0_3mapIjiS3_S8_EE,
                          __ZN9Selection28set_insertions_and_deletionsERNSt3__16vectorINS1_IiNS0_9allocatorIiEEEENS2_IS4_EEEERKNS0_3mapIjbNS0_4lessIjEENS2_INS0_4pairIKjbEEEEEE,
                          __ZN9Selection6get_dbEv, __ZN9Selection6outputEv,
                          __ZN9SelectionC1ER8DatabaseNSt3__110shared_ptrI13NNetExtractorEE,
                          __ZN9SelectionC1ER8DatabaseRKNSt3__112basic_stringIcNS2_11char_traitsIcEENS2_9allocatorIcEEEE,
                          __ZN9SelectionC2ER8DatabaseNSt3__110shared_ptrI13NNetExtractorEE,
                          __ZN9SelectionC2ER8DatabaseRKNSt3__112basic_stringIcNS2_11char_traitsIcEENS2_9allocatorIcEEEE,
                          __ZN9SelectionD1Ev, __ZN9SelectionD2Ev, __ZNK11MarkerTable11unit_markerEmN6Marker4TypeE,
                          __ZNK11MarkerTable13audio_markersERNSt3__16vectorIK6MarkerNS0_9allocatorIS3_EEEE,
                          __ZNK11MarkerTable25normalized_word_ending_atEj, __ZNK11MarkerTable27normalized_word_starting_atEj,
                          __ZNK11MarkerTable28phrase_split_boundary_markerEv,
                          __ZNK11MarkerTable4dumpERNSt3__113basic_ostreamIcNS0_11char_traitsIcEEEE,
                          __ZNK11MarkerTable9last_wordEv, __ZNK16VoiceConfigEyrie13get_param_intEN11VoiceConfig5ParamE,
                          __ZNK16VoiceConfigEyrie16get_param_stringEN11VoiceConfig5ParamE,
                          __ZNK16VoiceConfigEyrie20get_param_string_setEN11VoiceConfig5ParamE,
                          __ZNK16VoiceConfigEyrie8get_pathEN11VoiceConfig4PathE,
                          __ZNK19VoiceConfigFlexible13get_param_intEN11VoiceConfig5ParamE,
                          __ZNK19VoiceConfigFlexible16get_param_stringEN11VoiceConfig5ParamE,
                          __ZNK19VoiceConfigFlexible20get_param_string_setEN11VoiceConfig5ParamE,
                          __ZNK19VoiceConfigFlexible8get_pathEN11VoiceConfig4PathE, __ZNK8UnitWave11sample_rateEv,
                          __ZNSt3__12wsIcNS_11char_traitsIcEEEERNS_13basic_istreamIT_T0_EES7_, __ZTI11PCMByteSwapIiE,
                          __ZTI11PCMByteSwapIsE, __ZTI11VoiceConfig, __ZTI12AudioDecoder, __ZTI12PCMPackInt24ILb0EE,
                          __ZTI12PCMPackInt24ILb1EE, __ZTI12PCMProcessor, __ZTI12PredictorMDN, __ZTI12TTSACDecoder,
                          __ZTI13PCMReader_CAF, __ZTI13PCMReader_WAV, __ZTI13PCMWriter_CAF, __ZTI13PCMWriter_WAV,
                          __ZTI14PCMScaleSampleIffE, __ZTI14PCMScaleSampleIfiE, __ZTI14PCMScaleSampleIfsE,
                          __ZTI14PCMScaleSampleIifE, __ZTI14PCMScaleSampleIisE, __ZTI14PCMScaleSampleIsfE,
                          __ZTI14PCMScaleSampleIsiE, __ZTI15PCMDeinterleaveIiE, __ZTI15PCMDeinterleaveIsE,
                          __ZTI15PCMExtractInt24IfLb0EE, __ZTI15PCMExtractInt24IfLb1EE, __ZTI15PCMExtractInt24IiLb0EE,
                          __ZTI15PCMExtractInt24IiLb1EE, __ZTI15PCMExtractInt24IsLb0EE, __ZTI15PCMExtractInt24IsLb1EE,
                          __ZTI16VoiceConfigEyrie, __ZTI19VoiceConfigFlexible, __ZTI8Database, __ZTI9Predictor,
                          __ZTIN5boost13property_tree11json_parser17json_parser_errorE,
                          __ZTIN5boost13property_tree11ptree_errorE,
                          __ZTIN5boost13property_tree11string_pathINSt3__112basic_stringIcNS2_11char_traitsIcEENS2_9allocatorIcEEEENS0_13id_translatorIS8_EEEE,
                          __ZTIN5boost13property_tree14ptree_bad_dataE, __ZTIN5boost13property_tree14ptree_bad_pathE,
                          __ZTIN5boost13property_tree17file_parser_errorE, __ZTIN5boost16exception_detail10clone_baseE,
                          __ZTIN5boost16exception_detail10clone_implINS0_19error_info_injectorINS_13property_tree11json_parser17json_parser_errorEEEEE,
                          __ZTIN5boost16exception_detail10clone_implINS0_19error_info_injectorINS_13property_tree14ptree_bad_dataEEEEE,
                          __ZTIN5boost16exception_detail10clone_implINS0_19error_info_injectorINS_13property_tree14ptree_bad_pathEEEEE,
                          __ZTIN5boost16exception_detail10clone_implINS0_19error_info_injectorINS_6spirit7classic12parser_errorINSt3__112basic_stringIcNS6_11char_traitsIcEENS6_9allocatorIcEEEENS6_11__wrap_iterIPcEEEEEEEE,
                          __ZTIN5boost16exception_detail19error_info_injectorINS_13property_tree11json_parser17json_parser_errorEEE,
                          __ZTIN5boost16exception_detail19error_info_injectorINS_13property_tree14ptree_bad_dataEEE,
                          __ZTIN5boost16exception_detail19error_info_injectorINS_13property_tree14ptree_bad_pathEEE,
                          __ZTIN5boost16exception_detail19error_info_injectorINS_6spirit7classic12parser_errorINSt3__112basic_stringIcNS5_11char_traitsIcEENS5_9allocatorIcEEEENS5_11__wrap_iterIPcEEEEEE,
                          __ZTIN5boost3any11placeholderE,
                          __ZTIN5boost3any6holderINS_13property_tree11string_pathINSt3__112basic_stringIcNS4_11char_traitsIcEENS4_9allocatorIcEEEENS2_13id_translatorISA_EEEEEE,
                          __ZTIN5boost3any6holderINSt3__112basic_stringIcNS2_11char_traitsIcEENS2_9allocatorIcEEEEEE,
                          __ZTIN5boost6detail15sp_counted_baseE,
                          __ZTIN5boost6detail17sp_counted_impl_pINS_6spirit7classic11basic_chsetIcEEEE,
                          __ZTIN5boost6detail17sp_counted_impl_pINS_6spirit7classic4impl14grammar_helperINS3_7grammarINS_13property_tree11json_parser12json_grammarINS7_11basic_ptreeINSt3__112basic_stringIcNSB_11char_traitsIcEENSB_9allocatorIcEEEESH_NSB_4lessISH_EEEEEENS3_14parser_contextINS3_5nil_tEEEEESL_NS3_7scannerINSB_11__wrap_iterIPcEENS3_16scanner_policiesINS3_28skip_parser_iteration_policyINS3_11alternativeINSW_INS3_12space_parserENS3_13confix_parserINS3_6strlitIPKcEENS3_11kleene_starINS3_14anychar_parserEEENSW_INS3_10eol_parserENS3_10end_parserEEENS3_21unary_parser_categoryENS3_10non_nestedENS3_9is_lexemeEEEEENSY_IS12_S15_S12_S19_S1A_S1B_EEEENS3_16iteration_policyEEENS3_12match_policyENS3_13action_policyEEEEEEEEE,
                          __ZTIN5boost6detail17sp_counted_impl_pINS_6spirit7classic4impl26object_with_id_base_supplyImEEEE,
                          __ZTIN5boost6spirit7classic12parser_errorINSt3__112basic_stringIcNS3_11char_traitsIcEENS3_9allocatorIcEEEENS3_11__wrap_iterIPcEEEE,
                          __ZTIN5boost6spirit7classic17parser_error_baseE,
                          __ZTIN5boost6spirit7classic4impl14grammar_helperINS1_7grammarINS_13property_tree11json_parser12json_grammarINS5_11basic_ptreeINSt3__112basic_stringIcNS9_11char_traitsIcEENS9_9allocatorIcEEEESF_NS9_4lessISF_EEEEEENS1_14parser_contextINS1_5nil_tEEEEESJ_NS1_7scannerINS9_11__wrap_iterIPcEENS1_16scanner_policiesINS1_28skip_parser_iteration_policyINS1_11alternativeINSU_INS1_12space_parserENS1_13confix_parserINS1_6strlitIPKcEENS1_11kleene_starINS1_14anychar_parserEEENSU_INS1_10eol_parserENS1_10end_parserEEENS1_21unary_parser_categoryENS1_10non_nestedENS1_9is_lexemeEEEEENSW_IS10_S13_S10_S17_S18_S19_EEEENS1_16iteration_policyEEENS1_12match_policyENS1_13action_policyEEEEEEE,
                          __ZTIN5boost6spirit7classic4impl15abstract_parserINS1_7scannerINSt3__111__wrap_iterIPcEENS1_16scanner_policiesINS1_27no_skipper_iteration_policyINS1_28skip_parser_iteration_policyINS1_11alternativeINSC_INS1_12space_parserENS1_13confix_parserINS1_6strlitIPKcEENS1_11kleene_starINS1_14anychar_parserEEENSC_INS1_10eol_parserENS1_10end_parserEEENS1_21unary_parser_categoryENS1_10non_nestedENS1_9is_lexemeEEEEENSE_ISI_SL_SI_SP_SQ_SR_EEEENS1_16iteration_policyEEEEENS1_12match_policyENS1_13action_policyEEEEENS1_5nil_tEEE,
                          __ZTIN5boost6spirit7classic4impl15abstract_parserINS1_7scannerINSt3__111__wrap_iterIPcEENS1_16scanner_policiesINS1_28skip_parser_iteration_policyINS1_11alternativeINSB_INS1_12space_parserENS1_13confix_parserINS1_6strlitIPKcEENS1_11kleene_starINS1_14anychar_parserEEENSB_INS1_10eol_parserENS1_10end_parserEEENS1_21unary_parser_categoryENS1_10non_nestedENS1_9is_lexemeEEEEENSD_ISH_SK_SH_SO_SP_SQ_EEEENS1_16iteration_policyEEENS1_12match_policyENS1_13action_policyEEEEENS1_5nil_tEEE,
                          __ZTIN5boost6spirit7classic4impl15concrete_parserINS1_11alternativeINS1_6actionINS1_10differenceINS6_INS1_14anychar_parserENS1_6strlitIPKcEEEESB_EENS_13property_tree11json_parser7contextINSE_11basic_ptreeINSt3__112basic_stringIcNSI_11char_traitsIcEENSI_9allocatorIcEEEESO_NSI_4lessISO_EEEEE6a_charEEENS1_8sequenceINS1_5chlitIcEENS1_16assertive_parserISO_NS1_4ruleINS1_7scannerINSI_11__wrap_iterIPcEENS1_16scanner_policiesINS1_27no_skipper_iteration_policyINS1_28skip_parser_iteration_policyINS4_INS4_INS1_12space_parserENS1_13confix_parserISB_NS1_11kleene_starIS7_EENS4_INS1_10eol_parserENS1_10end_parserEEENS1_21unary_parser_categoryENS1_10non_nestedENS1_9is_lexemeEEEEENS18_ISB_S1A_SB_S1E_S1F_S1G_EEEENS1_16iteration_policyEEEEENS1_12match_policyENS1_13action_policyEEEEENS1_5nil_tES1S_EEEEEEEES1R_S1S_EE,
                          __ZTIN5boost6spirit7classic4impl15concrete_parserINS1_11alternativeINS1_6actionINS1_5chsetIcEENS_13property_tree11json_parser7contextINS8_11basic_ptreeINSt3__112basic_stringIcNSC_11char_traitsIcEENSC_9allocatorIcEEEESI_NSC_4lessISI_EEEEE8a_escapeEEENS1_8sequenceINS1_5chlitIcEENS5_INS1_11uint_parserImLi16ELj4ELi4EEENSM_9a_unicodeEEEEEEENS1_7scannerINSC_11__wrap_iterIPcEENS1_16scanner_policiesINS1_27no_skipper_iteration_policyINS1_28skip_parser_iteration_policyINS4_INS4_INS1_12space_parserENS1_13confix_parserINS1_6strlitIPKcEENS1_11kleene_starINS1_14anychar_parserEEENS4_INS1_10eol_parserENS1_10end_parserEEENS1_21unary_parser_categoryENS1_10non_nestedENS1_9is_lexemeEEEEENS16_IS1A_S1D_S1A_S1H_S1I_S1J_EEEENS1_16iteration_policyEEEEENS1_12match_policyENS1_13action_policyEEEEENS1_5nil_tEEE,
                          __ZTIN5boost6spirit7classic4impl15concrete_parserINS1_11alternativeINS4_INS4_INS1_6actionINS1_4ruleINS1_7scannerINSt3__111__wrap_iterIPcEENS1_16scanner_policiesINS1_28skip_parser_iteration_policyINS4_INS4_INS1_12space_parserENS1_13confix_parserINS1_6strlitIPKcEENS1_11kleene_starINS1_14anychar_parserEEENS4_INS1_10eol_parserENS1_10end_parserEEENS1_21unary_parser_categoryENS1_10non_nestedENS1_9is_lexemeEEEEENSF_ISJ_SM_SJ_SQ_SR_SS_EEEENS1_16iteration_policyEEENS1_12match_policyENS1_13action_policyEEEEENS1_5nil_tES13_EENS_13property_tree11json_parser7contextINS15_11basic_ptreeINS8_12basic_stringIcNS8_11char_traitsIcEENS8_9allocatorIcEEEES1E_NS8_4lessIS1E_EEEEE12a_string_valEEENS5_INS4_INS4_INS4_IS14_SJ_EESJ_EESJ_EENS1I_13a_literal_valEEEEES14_EES14_EES12_S13_EE,
                          __ZTIN5boost6spirit7classic4impl15concrete_parserINS1_16assertive_parserINSt3__112basic_stringIcNS5_11char_traitsIcEENS5_9allocatorIcEEEENS1_4ruleINS1_7scannerINS5_11__wrap_iterIPcEENS1_16scanner_policiesINS1_28skip_parser_iteration_policyINS1_11alternativeINSJ_INS1_12space_parserENS1_13confix_parserINS1_6strlitIPKcEENS1_11kleene_starINS1_14anychar_parserEEENSJ_INS1_10eol_parserENS1_10end_parserEEENS1_21unary_parser_categoryENS1_10non_nestedENS1_9is_lexemeEEEEENSL_ISP_SS_SP_SW_SX_SY_EEEENS1_16iteration_policyEEENS1_12match_policyENS1_13action_policyEEEEENS1_5nil_tES19_EEEES18_S19_EE,
                          __ZTIN5boost6spirit7classic4impl15concrete_parserINS1_8positiveINS1_10contiguousINS1_13confix_parserINS1_5chlitIcEENS1_11kleene_starINS1_4ruleINS1_7scannerINSt3__111__wrap_iterIPcEENS1_16scanner_policiesINS1_27no_skipper_iteration_policyINS1_28skip_parser_iteration_policyINS1_11alternativeINSJ_INS1_12space_parserENS6_INS1_6strlitIPKcEENS9_INS1_14anychar_parserEEENSJ_INS1_10eol_parserENS1_10end_parserEEENS1_21unary_parser_categoryENS1_10non_nestedENS1_9is_lexemeEEEEENS6_ISO_SQ_SO_SU_SV_SW_EEEENS1_16iteration_policyEEEEENS1_12match_policyENS1_13action_policyEEEEENS1_5nil_tES18_EEEES8_SU_SV_NS1_10non_lexemeEEEEEEENSB_ISF_NSG_IS12_S14_S15_EEEES18_EE,
                          __ZTIN5boost6spirit7classic4impl15concrete_parserINS1_8sequenceINS1_16assertive_parserINSt3__112basic_stringIcNS6_11char_traitsIcEENS6_9allocatorIcEEEENS1_11alternativeINS1_4ruleINS1_7scannerINS6_11__wrap_iterIPcEENS1_16scanner_policiesINS1_28skip_parser_iteration_policyINSD_INSD_INS1_12space_parserENS1_13confix_parserINS1_6strlitIPKcEENS1_11kleene_starINS1_14anychar_parserEEENSD_INS1_10eol_parserENS1_10end_parserEEENS1_21unary_parser_categoryENS1_10non_nestedENS1_9is_lexemeEEEEENSM_ISQ_ST_SQ_SX_SY_SZ_EEEENS1_16iteration_policyEEENS1_12match_policyENS1_13action_policyEEEEENS1_5nil_tES1A_EES1B_EEEENS5_ISC_SV_EEEES19_S1A_EE,
                          __ZTIN5boost6spirit7classic4impl15concrete_parserINS1_8sequenceINS1_6actionINS1_5chlitIcEENS_13property_tree11json_parser7contextINS8_11basic_ptreeINSt3__112basic_stringIcNSC_11char_traitsIcEENSC_9allocatorIcEEEESI_NSC_4lessISI_EEEEE10a_object_sEEENS1_11alternativeINS5_IS7_NSM_10a_object_eEEENS4_INS1_11list_parserINS1_4ruleINS1_7scannerINSC_11__wrap_iterIPcEENS1_16scanner_policiesINS1_28skip_parser_iteration_policyINSP_INSP_INS1_12space_parserENS1_13confix_parserINS1_6strlitIPKcEENS1_11kleene_starINS1_14anychar_parserEEENSP_INS1_10eol_parserENS1_10end_parserEEENS1_21unary_parser_categoryENS1_10non_nestedENS1_9is_lexemeEEEEENS11_IS15_S18_S15_S1C_S1D_S1E_EEEENS1_16iteration_policyEEENS1_12match_policyENS1_13action_policyEEEEENS1_5nil_tES1P_EES7_NS1_16no_list_endtokenENS1_21plain_parser_categoryEEENS1_16assertive_parserISI_SR_EEEEEEEES1O_S1P_EE,
                          __ZTIN5boost6spirit7classic4impl15concrete_parserINS1_8sequenceINS4_INS1_16assertive_parserINSt3__112basic_stringIcNS6_11char_traitsIcEENS6_9allocatorIcEEEENS1_6actionINS1_4ruleINS1_7scannerINS6_11__wrap_iterIPcEENS1_16scanner_policiesINS1_28skip_parser_iteration_policyINS1_11alternativeINSL_INS1_12space_parserENS1_13confix_parserINS1_6strlitIPKcEENS1_11kleene_starINS1_14anychar_parserEEENSL_INS1_10eol_parserENS1_10end_parserEEENS1_21unary_parser_categoryENS1_10non_nestedENS1_9is_lexemeEEEEENSN_ISR_SU_SR_SY_SZ_S10_EEEENS1_16iteration_policyEEENS1_12match_policyENS1_13action_policyEEEEENS1_5nil_tES1B_EENS_13property_tree11json_parser7contextINS1D_11basic_ptreeISC_SC_NS6_4lessISC_EEEEE6a_nameEEEEENS5_ISC_NS1_5chlitIcEEEEEENS5_ISC_S1C_EEEES1A_S1B_EE,
                          __ZTIN5boost6spirit7classic4impl15concrete_parserINS1_8sequenceINS4_INS4_INS1_8optionalINS1_5chlitIcEEEENS1_11alternativeIS7_NS4_INS1_5rangeIcEENS1_11kleene_starINS1_12digit_parserEEEEEEEEENS5_INS4_IS7_NS1_8positiveISD_EEEEEEEENS5_INS4_INS4_INS1_5chsetIcEENS5_ISO_EEEESJ_EEEEEENS1_7scannerINSt3__111__wrap_iterIPcEENS1_16scanner_policiesINS1_28skip_parser_iteration_policyINS9_INS9_INS1_12space_parserENS1_13confix_parserINS1_6strlitIPKcEENSC_INS1_14anychar_parserEEENS9_INS1_10eol_parserENS1_10end_parserEEENS1_21unary_parser_categoryENS1_10non_nestedENS1_9is_lexemeEEEEENS12_IS16_S18_S16_S1C_S1D_S1E_EEEENS1_16iteration_policyEEENS1_12match_policyENS1_13action_policyEEEEENS1_5nil_tEEE,
                          __ZTIN5boost6spirit7classic4impl19grammar_helper_baseINS1_7grammarINS_13property_tree11json_parser12json_grammarINS5_11basic_ptreeINSt3__112basic_stringIcNS9_11char_traitsIcEENS9_9allocatorIcEEEESF_NS9_4lessISF_EEEEEENS1_14parser_contextINS1_5nil_tEEEEEEE,
                          __ZTIN5boost9exceptionE, __ZTIN7PCMFile6ReaderE, __ZTIN7PCMFile6WriterE,
                          __ZTINSt3__112basic_stringIcNS_11char_traitsIcEENS_9allocatorIcEEEE,
                          __ZTINSt3__113basic_filebufIcNS_11char_traitsIcEEEE,
                          __ZTINSt3__114basic_ifstreamIcNS_11char_traitsIcEEEE,
                          __ZTINSt3__114basic_ofstreamIcNS_11char_traitsIcEEEE,
                          __ZTINSt3__115basic_stringbufIcNS_11char_traitsIcEENS_9allocatorIcEEEE,
                          __ZTINSt3__118basic_stringstreamIcNS_11char_traitsIcEENS_9allocatorIcEEEE,
                          __ZTINSt3__119basic_istringstreamIcNS_11char_traitsIcEENS_9allocatorIcEEEE,
                          __ZTINSt3__120__shared_ptr_emplaceI13NNetExtractorNS_9allocatorIS1_EEEE,
                          __ZTINSt3__120__shared_ptr_pointerIP13NNetExtractorNS_14default_deleteIS1_EENS_9allocatorIS1_EEEE,
                          __ZTINSt3__121__basic_string_commonILb1EEE, __ZTS11PCMByteSwapIiE, __ZTS11PCMByteSwapIsE,
                          __ZTS11VoiceConfig, __ZTS12AudioDecoder, __ZTS12PCMPackInt24ILb0EE, __ZTS12PCMPackInt24ILb1EE,
                          __ZTS12PCMProcessor, __ZTS12PredictorMDN, __ZTS12TTSACDecoder, __ZTS13PCMReader_CAF,
                          __ZTS13PCMReader_WAV, __ZTS13PCMWriter_CAF, __ZTS13PCMWriter_WAV, __ZTS14PCMScaleSampleIffE,
                          __ZTS14PCMScaleSampleIfiE, __ZTS14PCMScaleSampleIfsE, __ZTS14PCMScaleSampleIifE,
                          __ZTS14PCMScaleSampleIisE, __ZTS14PCMScaleSampleIsfE, __ZTS14PCMScaleSampleIsiE,
                          __ZTS15PCMDeinterleaveIiE, __ZTS15PCMDeinterleaveIsE, __ZTS15PCMExtractInt24IfLb0EE,
                          __ZTS15PCMExtractInt24IfLb1EE, __ZTS15PCMExtractInt24IiLb0EE, __ZTS15PCMExtractInt24IiLb1EE,
                          __ZTS15PCMExtractInt24IsLb0EE, __ZTS15PCMExtractInt24IsLb1EE, __ZTS16VoiceConfigEyrie,
                          __ZTS19VoiceConfigFlexible, __ZTS8Database, __ZTS9Predictor,
                          __ZTSN5boost13property_tree11json_parser17json_parser_errorE,
                          __ZTSN5boost13property_tree11ptree_errorE,
                          __ZTSN5boost13property_tree11string_pathINSt3__112basic_stringIcNS2_11char_traitsIcEENS2_9allocatorIcEEEENS0_13id_translatorIS8_EEEE,
                          __ZTSN5boost13property_tree14ptree_bad_dataE, __ZTSN5boost13property_tree14ptree_bad_pathE,
                          __ZTSN5boost13property_tree17file_parser_errorE, __ZTSN5boost16exception_detail10clone_baseE,
                          __ZTSN5boost16exception_detail10clone_implINS0_19error_info_injectorINS_13property_tree11json_parser17json_parser_errorEEEEE,
                          __ZTSN5boost16exception_detail10clone_implINS0_19error_info_injectorINS_13property_tree14ptree_bad_dataEEEEE,
                          __ZTSN5boost16exception_detail10clone_implINS0_19error_info_injectorINS_13property_tree14ptree_bad_pathEEEEE,
                          __ZTSN5boost16exception_detail10clone_implINS0_19error_info_injectorINS_6spirit7classic12parser_errorINSt3__112basic_stringIcNS6_11char_traitsIcEENS6_9allocatorIcEEEENS6_11__wrap_iterIPcEEEEEEEE,
                          __ZTSN5boost16exception_detail19error_info_injectorINS_13property_tree11json_parser17json_parser_errorEEE,
                          __ZTSN5boost16exception_detail19error_info_injectorINS_13property_tree14ptree_bad_dataEEE,
                          __ZTSN5boost16exception_detail19error_info_injectorINS_13property_tree14ptree_bad_pathEEE,
                          __ZTSN5boost16exception_detail19error_info_injectorINS_6spirit7classic12parser_errorINSt3__112basic_stringIcNS5_11char_traitsIcEENS5_9allocatorIcEEEENS5_11__wrap_iterIPcEEEEEE,
                          __ZTSN5boost3any11placeholderE,
                          __ZTSN5boost3any6holderINS_13property_tree11string_pathINSt3__112basic_stringIcNS4_11char_traitsIcEENS4_9allocatorIcEEEENS2_13id_translatorISA_EEEEEE,
                          __ZTSN5boost3any6holderINSt3__112basic_stringIcNS2_11char_traitsIcEENS2_9allocatorIcEEEEEE,
                          __ZTSN5boost6detail15sp_counted_baseE,
                          __ZTSN5boost6detail17sp_counted_impl_pINS_6spirit7classic11basic_chsetIcEEEE,
                          __ZTSN5boost6detail17sp_counted_impl_pINS_6spirit7classic4impl14grammar_helperINS3_7grammarINS_13property_tree11json_parser12json_grammarINS7_11basic_ptreeINSt3__112basic_stringIcNSB_11char_traitsIcEENSB_9allocatorIcEEEESH_NSB_4lessISH_EEEEEENS3_14parser_contextINS3_5nil_tEEEEESL_NS3_7scannerINSB_11__wrap_iterIPcEENS3_16scanner_policiesINS3_28skip_parser_iteration_policyINS3_11alternativeINSW_INS3_12space_parserENS3_13confix_parserINS3_6strlitIPKcEENS3_11kleene_starINS3_14anychar_parserEEENSW_INS3_10eol_parserENS3_10end_parserEEENS3_21unary_parser_categoryENS3_10non_nestedENS3_9is_lexemeEEEEENSY_IS12_S15_S12_S19_S1A_S1B_EEEENS3_16iteration_policyEEENS3_12match_policyENS3_13action_policyEEEEEEEEE,
                          __ZTSN5boost6detail17sp_counted_impl_pINS_6spirit7classic4impl26object_with_id_base_supplyImEEEE,
                          __ZTSN5boost6spirit7classic12parser_errorINSt3__112basic_stringIcNS3_11char_traitsIcEENS3_9allocatorIcEEEENS3_11__wrap_iterIPcEEEE,
                          __ZTSN5boost6spirit7classic17parser_error_baseE,
                          __ZTSN5boost6spirit7classic4impl14grammar_helperINS1_7grammarINS_13property_tree11json_parser12json_grammarINS5_11basic_ptreeINSt3__112basic_stringIcNS9_11char_traitsIcEENS9_9allocatorIcEEEESF_NS9_4lessISF_EEEEEENS1_14parser_contextINS1_5nil_tEEEEESJ_NS1_7scannerINS9_11__wrap_iterIPcEENS1_16scanner_policiesINS1_28skip_parser_iteration_policyINS1_11alternativeINSU_INS1_12space_parserENS1_13confix_parserINS1_6strlitIPKcEENS1_11kleene_starINS1_14anychar_parserEEENSU_INS1_10eol_parserENS1_10end_parserEEENS1_21unary_parser_categoryENS1_10non_nestedENS1_9is_lexemeEEEEENSW_IS10_S13_S10_S17_S18_S19_EEEENS1_16iteration_policyEEENS1_12match_policyENS1_13action_policyEEEEEEE,
                          __ZTSN5boost6spirit7classic4impl15abstract_parserINS1_7scannerINSt3__111__wrap_iterIPcEENS1_16scanner_policiesINS1_27no_skipper_iteration_policyINS1_28skip_parser_iteration_policyINS1_11alternativeINSC_INS1_12space_parserENS1_13confix_parserINS1_6strlitIPKcEENS1_11kleene_starINS1_14anychar_parserEEENSC_INS1_10eol_parserENS1_10end_parserEEENS1_21unary_parser_categoryENS1_10non_nestedENS1_9is_lexemeEEEEENSE_ISI_SL_SI_SP_SQ_SR_EEEENS1_16iteration_policyEEEEENS1_12match_policyENS1_13action_policyEEEEENS1_5nil_tEEE,
                          __ZTSN5boost6spirit7classic4impl15abstract_parserINS1_7scannerINSt3__111__wrap_iterIPcEENS1_16scanner_policiesINS1_28skip_parser_iteration_policyINS1_11alternativeINSB_INS1_12space_parserENS1_13confix_parserINS1_6strlitIPKcEENS1_11kleene_starINS1_14anychar_parserEEENSB_INS1_10eol_parserENS1_10end_parserEEENS1_21unary_parser_categoryENS1_10non_nestedENS1_9is_lexemeEEEEENSD_ISH_SK_SH_SO_SP_SQ_EEEENS1_16iteration_policyEEENS1_12match_policyENS1_13action_policyEEEEENS1_5nil_tEEE,
                          __ZTSN5boost6spirit7classic4impl15concrete_parserINS1_11alternativeINS1_6actionINS1_10differenceINS6_INS1_14anychar_parserENS1_6strlitIPKcEEEESB_EENS_13property_tree11json_parser7contextINSE_11basic_ptreeINSt3__112basic_stringIcNSI_11char_traitsIcEENSI_9allocatorIcEEEESO_NSI_4lessISO_EEEEE6a_charEEENS1_8sequenceINS1_5chlitIcEENS1_16assertive_parserISO_NS1_4ruleINS1_7scannerINSI_11__wrap_iterIPcEENS1_16scanner_policiesINS1_27no_skipper_iteration_policyINS1_28skip_parser_iteration_policyINS4_INS4_INS1_12space_parserENS1_13confix_parserISB_NS1_11kleene_starIS7_EENS4_INS1_10eol_parserENS1_10end_parserEEENS1_21unary_parser_categoryENS1_10non_nestedENS1_9is_lexemeEEEEENS18_ISB_S1A_SB_S1E_S1F_S1G_EEEENS1_16iteration_policyEEEEENS1_12match_policyENS1_13action_policyEEEEENS1_5nil_tES1S_EEEEEEEES1R_S1S_EE,
                          __ZTSN5boost6spirit7classic4impl15concrete_parserINS1_11alternativeINS1_6actionINS1_5chsetIcEENS_13property_tree11json_parser7contextINS8_11basic_ptreeINSt3__112basic_stringIcNSC_11char_traitsIcEENSC_9allocatorIcEEEESI_NSC_4lessISI_EEEEE8a_escapeEEENS1_8sequenceINS1_5chlitIcEENS5_INS1_11uint_parserImLi16ELj4ELi4EEENSM_9a_unicodeEEEEEEENS1_7scannerINSC_11__wrap_iterIPcEENS1_16scanner_policiesINS1_27no_skipper_iteration_policyINS1_28skip_parser_iteration_policyINS4_INS4_INS1_12space_parserENS1_13confix_parserINS1_6strlitIPKcEENS1_11kleene_starINS1_14anychar_parserEEENS4_INS1_10eol_parserENS1_10end_parserEEENS1_21unary_parser_categoryENS1_10non_nestedENS1_9is_lexemeEEEEENS16_IS1A_S1D_S1A_S1H_S1I_S1J_EEEENS1_16iteration_policyEEEEENS1_12match_policyENS1_13action_policyEEEEENS1_5nil_tEEE,
                          __ZTSN5boost6spirit7classic4impl15concrete_parserINS1_11alternativeINS4_INS4_INS1_6actionINS1_4ruleINS1_7scannerINSt3__111__wrap_iterIPcEENS1_16scanner_policiesINS1_28skip_parser_iteration_policyINS4_INS4_INS1_12space_parserENS1_13confix_parserINS1_6strlitIPKcEENS1_11kleene_starINS1_14anychar_parserEEENS4_INS1_10eol_parserENS1_10end_parserEEENS1_21unary_parser_categoryENS1_10non_nestedENS1_9is_lexemeEEEEENSF_ISJ_SM_SJ_SQ_SR_SS_EEEENS1_16iteration_policyEEENS1_12match_policyENS1_13action_policyEEEEENS1_5nil_tES13_EENS_13property_tree11json_parser7contextINS15_11basic_ptreeINS8_12basic_stringIcNS8_11char_traitsIcEENS8_9allocatorIcEEEES1E_NS8_4lessIS1E_EEEEE12a_string_valEEENS5_INS4_INS4_INS4_IS14_SJ_EESJ_EESJ_EENS1I_13a_literal_valEEEEES14_EES14_EES12_S13_EE,
                          __ZTSN5boost6spirit7classic4impl15concrete_parserINS1_16assertive_parserINSt3__112basic_stringIcNS5_11char_traitsIcEENS5_9allocatorIcEEEENS1_4ruleINS1_7scannerINS5_11__wrap_iterIPcEENS1_16scanner_policiesINS1_28skip_parser_iteration_policyINS1_11alternativeINSJ_INS1_12space_parserENS1_13confix_parserINS1_6strlitIPKcEENS1_11kleene_starINS1_14anychar_parserEEENSJ_INS1_10eol_parserENS1_10end_parserEEENS1_21unary_parser_categoryENS1_10non_nestedENS1_9is_lexemeEEEEENSL_ISP_SS_SP_SW_SX_SY_EEEENS1_16iteration_policyEEENS1_12match_policyENS1_13action_policyEEEEENS1_5nil_tES19_EEEES18_S19_EE,
                          __ZTSN5boost6spirit7classic4impl15concrete_parserINS1_8positiveINS1_10contiguousINS1_13confix_parserINS1_5chlitIcEENS1_11kleene_starINS1_4ruleINS1_7scannerINSt3__111__wrap_iterIPcEENS1_16scanner_policiesINS1_27no_skipper_iteration_policyINS1_28skip_parser_iteration_policyINS1_11alternativeINSJ_INS1_12space_parserENS6_INS1_6strlitIPKcEENS9_INS1_14anychar_parserEEENSJ_INS1_10eol_parserENS1_10end_parserEEENS1_21unary_parser_categoryENS1_10non_nestedENS1_9is_lexemeEEEEENS6_ISO_SQ_SO_SU_SV_SW_EEEENS1_16iteration_policyEEEEENS1_12match_policyENS1_13action_policyEEEEENS1_5nil_tES18_EEEES8_SU_SV_NS1_10non_lexemeEEEEEEENSB_ISF_NSG_IS12_S14_S15_EEEES18_EE,
                          __ZTSN5boost6spirit7classic4impl15concrete_parserINS1_8sequenceINS1_16assertive_parserINSt3__112basic_stringIcNS6_11char_traitsIcEENS6_9allocatorIcEEEENS1_11alternativeINS1_4ruleINS1_7scannerINS6_11__wrap_iterIPcEENS1_16scanner_policiesINS1_28skip_parser_iteration_policyINSD_INSD_INS1_12space_parserENS1_13confix_parserINS1_6strlitIPKcEENS1_11kleene_starINS1_14anychar_parserEEENSD_INS1_10eol_parserENS1_10end_parserEEENS1_21unary_parser_categoryENS1_10non_nestedENS1_9is_lexemeEEEEENSM_ISQ_ST_SQ_SX_SY_SZ_EEEENS1_16iteration_policyEEENS1_12match_policyENS1_13action_policyEEEEENS1_5nil_tES1A_EES1B_EEEENS5_ISC_SV_EEEES19_S1A_EE,
                          __ZTSN5boost6spirit7classic4impl15concrete_parserINS1_8sequenceINS1_6actionINS1_5chlitIcEENS_13property_tree11json_parser7contextINS8_11basic_ptreeINSt3__112basic_stringIcNSC_11char_traitsIcEENSC_9allocatorIcEEEESI_NSC_4lessISI_EEEEE10a_object_sEEENS1_11alternativeINS5_IS7_NSM_10a_object_eEEENS4_INS1_11list_parserINS1_4ruleINS1_7scannerINSC_11__wrap_iterIPcEENS1_16scanner_policiesINS1_28skip_parser_iteration_policyINSP_INSP_INS1_12space_parserENS1_13confix_parserINS1_6strlitIPKcEENS1_11kleene_starINS1_14anychar_parserEEENSP_INS1_10eol_parserENS1_10end_parserEEENS1_21unary_parser_categoryENS1_10non_nestedENS1_9is_lexemeEEEEENS11_IS15_S18_S15_S1C_S1D_S1E_EEEENS1_16iteration_policyEEENS1_12match_policyENS1_13action_policyEEEEENS1_5nil_tES1P_EES7_NS1_16no_list_endtokenENS1_21plain_parser_categoryEEENS1_16assertive_parserISI_SR_EEEEEEEES1O_S1P_EE,
                          __ZTSN5boost6spirit7classic4impl15concrete_parserINS1_8sequenceINS4_INS1_16assertive_parserINSt3__112basic_stringIcNS6_11char_traitsIcEENS6_9allocatorIcEEEENS1_6actionINS1_4ruleINS1_7scannerINS6_11__wrap_iterIPcEENS1_16scanner_policiesINS1_28skip_parser_iteration_policyINS1_11alternativeINSL_INS1_12space_parserENS1_13confix_parserINS1_6strlitIPKcEENS1_11kleene_starINS1_14anychar_parserEEENSL_INS1_10eol_parserENS1_10end_parserEEENS1_21unary_parser_categoryENS1_10non_nestedENS1_9is_lexemeEEEEENSN_ISR_SU_SR_SY_SZ_S10_EEEENS1_16iteration_policyEEENS1_12match_policyENS1_13action_policyEEEEENS1_5nil_tES1B_EENS_13property_tree11json_parser7contextINS1D_11basic_ptreeISC_SC_NS6_4lessISC_EEEEE6a_nameEEEEENS5_ISC_NS1_5chlitIcEEEEEENS5_ISC_S1C_EEEES1A_S1B_EE,
                          __ZTSN5boost6spirit7classic4impl15concrete_parserINS1_8sequenceINS4_INS4_INS1_8optionalINS1_5chlitIcEEEENS1_11alternativeIS7_NS4_INS1_5rangeIcEENS1_11kleene_starINS1_12digit_parserEEEEEEEEENS5_INS4_IS7_NS1_8positiveISD_EEEEEEEENS5_INS4_INS4_INS1_5chsetIcEENS5_ISO_EEEESJ_EEEEEENS1_7scannerINSt3__111__wrap_iterIPcEENS1_16scanner_policiesINS1_28skip_parser_iteration_policyINS9_INS9_INS1_12space_parserENS1_13confix_parserINS1_6strlitIPKcEENSC_INS1_14anychar_parserEEENS9_INS1_10eol_parserENS1_10end_parserEEENS1_21unary_parser_categoryENS1_10non_nestedENS1_9is_lexemeEEEEENS12_IS16_S18_S16_S1C_S1D_S1E_EEEENS1_16iteration_policyEEENS1_12match_policyENS1_13action_policyEEEEENS1_5nil_tEEE,
                          __ZTSN5boost6spirit7classic4impl19grammar_helper_baseINS1_7grammarINS_13property_tree11json_parser12json_grammarINS5_11basic_ptreeINSt3__112basic_stringIcNS9_11char_traitsIcEENS9_9allocatorIcEEEESF_NS9_4lessISF_EEEEEENS1_14parser_contextINS1_5nil_tEEEEEEE,
                          __ZTSN5boost9exceptionE, __ZTSN7PCMFile6ReaderE, __ZTSN7PCMFile6WriterE,
                          __ZTSNSt3__112basic_stringIcNS_11char_traitsIcEENS_9allocatorIcEEEE,
                          __ZTSNSt3__113basic_filebufIcNS_11char_traitsIcEEEE,
                          __ZTSNSt3__114basic_ifstreamIcNS_11char_traitsIcEEEE,
                          __ZTSNSt3__114basic_ofstreamIcNS_11char_traitsIcEEEE, __ZTSNSt3__114default_deleteI13NNetExtractorEE,
                          __ZTSNSt3__115basic_stringbufIcNS_11char_traitsIcEENS_9allocatorIcEEEE,
                          __ZTSNSt3__118basic_stringstreamIcNS_11char_traitsIcEENS_9allocatorIcEEEE,
                          __ZTSNSt3__119basic_istringstreamIcNS_11char_traitsIcEENS_9allocatorIcEEEE,
                          __ZTSNSt3__120__shared_ptr_emplaceI13NNetExtractorNS_9allocatorIS1_EEEE,
                          __ZTSNSt3__120__shared_ptr_pointerIP13NNetExtractorNS_14default_deleteIS1_EENS_9allocatorIS1_EEEE,
                          __ZTSNSt3__121__basic_string_commonILb1EEE, __ZTV11VoiceConfig, __ZTV12AudioDecoder,
                          __ZTV12PCMProcessor, __ZTV12PredictorMDN, __ZTV12TTSACDecoder, __ZTV13PCMReader_CAF,
                          __ZTV13PCMReader_WAV, __ZTV13PCMWriter_WAV, __ZTV16VoiceConfigEyrie, __ZTV19VoiceConfigFlexible,
                          __ZTV8Database, __ZTVN7PCMFile6ReaderE, __ZTVN7PCMFile6WriterE,
                          __ZZN5boost6spirit7classic4impl14get_definitionINS_13property_tree11json_parser12json_grammarINS4_11basic_ptreeINSt3__112basic_stringIcNS8_11char_traitsIcEENS8_9allocatorIcEEEESE_NS8_4lessISE_EEEEEENS1_14parser_contextINS1_5nil_tEEENS1_7scannerINS8_11__wrap_iterIPcEENS1_16scanner_policiesINS1_28skip_parser_iteration_policyINS1_11alternativeINSS_INS1_12space_parserENS1_13confix_parserINS1_6strlitIPKcEENS1_11kleene_starINS1_14anychar_parserEEENSS_INS1_10eol_parserENS1_10end_parserEEENS1_21unary_parser_categoryENS1_10non_nestedENS1_9is_lexemeEEEEENSU_ISY_S11_SY_S15_S16_S17_EEEENS1_16iteration_policyEEENS1_12match_policyENS1_13action_policyEEEEEEERNT_10definitionIT1_EEPKNS1_7grammarIS1I_T0_EEE6helper,
                          __ZZN5boost6spirit7classic4impl19object_with_id_baseINS2_11grammar_tagEmE17acquire_object_idEvE13static_supply,
                          _client_VSPostNotification, _client_VSVoiceServicesClient_subsystem, _gryphon_AnalysisDumpAnalysis,
                          _gryphon_AnalysisSetEnabled, _gryphon_GetCurrentCompatibilityVersion,
                          _gryphon_GetMinCompatibilityVersion, _gryphon_InitWithInstallPath, _gryphon_SetDisablePrompts,
                          _gryphon_SetGlobalWhisper, _gryphon_SetPatchFilePath, _gryphon_WhisperNextRequest, _kVSErrorDomain,
                          _kVSFrameworkBundleIdentifier, _kVSKeywordIndexDidChangeNotification, _kVSLogBundlePlistExtension,
                          _kVSPreferencesLoggingDomain, _kVSPreferencesLoggingLogLevelKey, _kVSPreferencesLoggingOutputLevelKey,
                          _kVSPreferencesSpokenLanguageChangedNotification, _kVSRecognitionAllDefaultModelIdentifier,
                          _kVSRecognitionSessionKeywordsDidChangeNotification, _kVSServerDiedNotification,
                          _kVSServerRecognitionCancelledNotification, _kVSServerRecognitionErrorCodeKey,
                          _kVSServerRecognitionErrorDescriptionKey, _kVSServerRecognitionErrorNotification,
                          _kVSServerRecognitionPreparedNotification, _kVSServerRecognitionResultsKey,
                          _kVSServerRecognitionResultsNotification, _kVSServerRecognitionStartedNotification,
                          _kVSSpeechTextClassAttribute, _kVSSpeechTextClassName, _kVSSpeechTextClassTitle,
                          _kVSVocalizerResourceAssetInstalledNotification ]
    objc-classes:       [ _VSAssetBase, _VSAssetUpdateListener, _VSAudioPreviewDelegate, _VSCacheUpdateListener,
                          _VSCacheUpdateRequest, _VSFormatArgument, _VSGenericBlockHolder, _VSGenericUpdateEndpoint,
                          _VSInstrumentMetrics, _VSKeepAlive, _VSMobileAssetsManager, _VSRecognitionAction,
                          _VSRecognitionConfirmAction, _VSRecognitionDisambiguateAction, _VSRecognitionRecognizeAction,
                          _VSRecognitionResult, _VSRecognitionResultHandlingRequest, _VSRecognitionResultHandlingThread,
                          _VSRecognitionSession, _VSRecognitionSpeakAction, _VSRecognitionURLAction, _VSSpeechCharacterSet,
                          _VSSpeechConnection, _VSSpeechConnectionDelegateWrapper, _VSSpeechRequest, _VSSpeechSynthesizer,
                          _VSSpeechSynthesizerPreference, _VSTextPreProcessor, _VSTextPreProcessorRule, _VSVoiceAsset,
                          _VSVoiceAssetSelection, _VSVoiceResourceAsset ]
    objc-ivars:         [ _VSAssetBase._bundleIdentifier, _VSAssetBase._compatibilityVersion, _VSAssetBase._contentVersion,
                          _VSAssetBase._masteredVersion, _VSAssetUpdateListener._assetCleanupTimer,
                          _VSAssetUpdateListener._isListening, _VSAudioPreviewDelegate._completion,
                          _VSCacheUpdateListener._dataProviders, _VSCacheUpdateListener._flushTimer,
                          _VSCacheUpdateListener._isListening, _VSCacheUpdateListener._lock,
                          _VSCacheUpdateListener._updateRequestQueue, _VSCacheUpdateRequest._classID,
                          _VSCacheUpdateRequest._modelID, _VSFormatArgument.attributes, _VSFormatArgument.formatSpecifier,
                          _VSFormatArgument.formattedArg, _VSGenericBlockHolder._block, _VSGenericUpdateEndpoint._endpoint,
                          _VSGenericUpdateEndpoint._handler, _VSGenericUpdateEndpoint._listener, _VSGenericUpdateEndpoint._queue,
                          _VSInstrumentMetrics._isWarmStart, _VSInstrumentMetrics._requestCreatedTimestamp,
                          _VSInstrumentMetrics._speechBeginTimestamp, _VSInstrumentMetrics._speechEndTimestamp,
                          _VSInstrumentMetrics._utterance, _VSInstrumentMetrics._voiceAssetKey, _VSKeepAlive._active,
                          _VSKeepAlive._audioType, _VSKeepAlive._keepAudioSessionActive, _VSKeepAlive._serverConnection,
                          _VSMobileAssetsManager._cacheConcurrentQueue, _VSMobileAssetsManager._voiceResourceCache,
                          _VSMobileAssetsManager._voiceSelectionCache, _VSRecognitionAction._resultString,
                          _VSRecognitionAction._session, _VSRecognitionAction._spokenString,
                          _VSRecognitionAction._spokenStringIsAttributed, _VSRecognitionAction._statusString,
                          _VSRecognitionConfirmAction._confirmFlags, _VSRecognitionConfirmAction._confirmedAction,
                          _VSRecognitionConfirmAction._deniedAction, _VSRecognitionDisambiguateAction._ambiguousPhoneticValues,
                          _VSRecognitionDisambiguateAction._ambiguousValues, _VSRecognitionDisambiguateAction._context,
                          _VSRecognitionDisambiguateAction._knownPhoneticValues, _VSRecognitionDisambiguateAction._knownValues,
                          _VSRecognitionDisambiguateAction._repeatedSpokenFeedbackString,
                          _VSRecognitionDisambiguateAction._sequenceTag, _VSRecognitionRecognizeAction._audioInputPath,
                          _VSRecognitionRecognizeAction._debugDumpPath, _VSRecognitionRecognizeAction._keywords,
                          _VSRecognitionRecognizeAction._levelInterval, _VSRecognitionRecognizeAction._modelIdentifier,
                          _VSRecognitionRecognizeAction._recognition, _VSRecognitionRecognizeAction._recognizeFlags,
                          _VSRecognitionRecognizeAction._results, _VSRecognitionResultHandlingRequest._action,
                          _VSRecognitionResultHandlingRequest._handler, _VSRecognitionResultHandlingRequest._results,
                          _VSRecognitionResultHandlingThread._delegate, _VSRecognitionResultHandlingThread._lock,
                          _VSRecognitionResultHandlingThread._requests, _VSRecognitionResultHandlingThread._resultHandlingFlags,
                          _VSRecognitionSession._audioInputPath, _VSRecognitionSession._currentAction,
                          _VSRecognitionSession._debugDumpPath, _VSRecognitionSession._delegate,
                          _VSRecognitionSession._handlingThread, _VSRecognitionSession._keepAlive,
                          _VSRecognitionSession._keywordPhase, _VSRecognitionSession._languageID,
                          _VSRecognitionSession._levelInterval, _VSRecognitionSession._modelIdentifier,
                          _VSRecognitionSession._sessionFlags, _VSRecognitionSession._synthesizer,
                          _VSRecognitionSession._topLevelKeywords, _VSRecognitionSpeakAction._shouldTerminate,
                          _VSRecognitionURLAction._url, _VSSpeechConnection._connection, _VSSpeechConnection._delegateWrapper,
                          _VSSpeechConnection._request, _VSSpeechConnectionDelegateWrapper._connection,
                          _VSSpeechConnectionDelegateWrapper._delegate, _VSSpeechConnectionDelegateWrapper._request,
                          _VSSpeechRequest._attributedText, _VSSpeechRequest._audioQueueFlags, _VSSpeechRequest._audioSessionID,
                          _VSSpeechRequest._audioSessionIDIsValid, _VSSpeechRequest._clientBundleIdentifier,
                          _VSSpeechRequest._footprint, _VSSpeechRequest._gender, _VSSpeechRequest._languageCode,
                          _VSSpeechRequest._maintainsInput, _VSSpeechRequest._outputPath, _VSSpeechRequest._pauseHandler,
                          _VSSpeechRequest._pitch, _VSSpeechRequest._rate, _VSSpeechRequest._resourceListURL,
                          _VSSpeechRequest._resourceSearchPathURL, _VSSpeechRequest._stopHandler, _VSSpeechRequest._text,
                          _VSSpeechRequest._useCustomVoice, _VSSpeechRequest._voiceName, _VSSpeechRequest._voiceType,
                          _VSSpeechRequest._volume, _VSSpeechSynthesizer._audioQueueFlags, _VSSpeechSynthesizer._audioSessionID,
                          _VSSpeechSynthesizer._audioSessionIDIsValid, _VSSpeechSynthesizer._clientBundleIdentifier,
                          _VSSpeechSynthesizer._delegate, _VSSpeechSynthesizer._footprint, _VSSpeechSynthesizer._gender,
                          _VSSpeechSynthesizer._inactiveKeepAlive, _VSSpeechSynthesizer._keepAlive,
                          _VSSpeechSynthesizer._language, _VSSpeechSynthesizer._pitch, _VSSpeechSynthesizer._queue,
                          _VSSpeechSynthesizer._rate, _VSSpeechSynthesizer._speechConnection,
                          _VSSpeechSynthesizer._synthesizerFlags, _VSSpeechSynthesizer._useCustomVoice,
                          _VSSpeechSynthesizer._useSharedSession, _VSSpeechSynthesizer._voice, _VSSpeechSynthesizer._voiceType,
                          _VSSpeechSynthesizer._volume, _VSTextPreProcessor._languageID, _VSTextPreProcessor._rules,
                          _VSTextPreProcessor._tokenizer, _VSTextPreProcessorRule._caseSensitive,
                          _VSTextPreProcessorRule._eatPunctuation, _VSTextPreProcessorRule._matchPattern,
                          _VSTextPreProcessorRule._replacement, _VSVoiceAsset._footprint, _VSVoiceAsset._gender,
                          _VSVoiceAsset._isBuiltInVoice, _VSVoiceAsset._isInstalled, _VSVoiceAsset._languages,
                          _VSVoiceAsset._name, _VSVoiceAsset._type, _VSVoiceAssetSelection._asset,
                          _VSVoiceAssetSelection._builtInVoicePath, _VSVoiceAssetSelection._voiceData,
                          _VSVoiceResourceAsset._languages, _VSVoiceResourceAsset._resourceList,
                          _VSVoiceResourceAsset._searchPathURL, _VSVoiceResourceAsset._voiceConfig ]
...
