--- !tapi-tbd
tbd-version:     4
targets:         [ arm64-ios, arm64e-ios ]
install-name:    '/usr/lib/libAudioDSPCore.dylib'
exports:
  - targets:         [ arm64-ios, arm64e-ios ]
    symbols:         [ __ZN19AudioDSPCoreUtility17GetDeviceOrPortIDERj, __ZN2IR12IRDataLoader10fileExistsEN10applesauce2CF6URLRefE, 
                       __ZN2IR12IRDataLoader10fileExistsENS_8IRPresetE, __ZN2IR12IRDataLoader10fileExistsERKNS_16IRDataAttributesE, 
                       __ZN2IR12IRDataLoader11getUserDataENS_8IRPresetE, __ZN2IR12IRDataLoader11getUserDataERKNS_16IRDataAttributesE, 
                       __ZN2IR12IRDataLoader11writeIRFileERKNSt3__110shared_ptrIKNS_6IRDataEEERKN10applesauce2CF6URLRefEbNS_13IRCoeffFormatE, 
                       __ZN2IR12IRDataLoader11writeIRFileERKNSt3__110shared_ptrINS_6IRDataEEERKN10applesauce2CF6URLRefEbNS_13IRCoeffFormatE, 
                       __ZN2IR12IRDataLoader11writeIRFileERKNSt3__16vectorINS2_IfNS1_9allocatorIfEEEENS3_IS5_EEEERKN10applesauce2CF6URLRefES9_RKNS2_INS_16IRCoordinateTypeENS3_ISF_EEEES9_fjRKS5_RKNS2_INS_21IRInterpolationMethodENS3_ISM_EEEESL_RKNSB_13DictionaryRefERKNS_13IRCoeffFormatERKNS_13IRDelayFormatERKNS1_12basic_stringIcNS1_11char_traitsIcEENS3_IcEEEEST_, 
                       __ZN2IR12IRDataLoader14getIRDataTypesENS_8IRPresetE, __ZN2IR12IRDataLoader14getIRDataTypesERKNS_16IRDataAttributesE, 
                       __ZN2IR12IRDataLoader15getFilterLengthENS_8IRPresetEf, __ZN2IR12IRDataLoader15getFilterLengthERKNS_16IRDataAttributesE, 
                       __ZN2IR12IRDataLoader16addIRDataToCacheERKNS_16IRDataAttributesENSt3__110shared_ptrINS_6IRDataEEE, 
                       __ZN2IR12IRDataLoader16addIRDataToCacheERKNSt3__112basic_stringIcNS1_11char_traitsIcEENS1_9allocatorIcEEEERKNS_16IRDataAttributesERKNS1_10shared_ptrIKNS_6IRDataEEE, 
                       __ZN2IR12IRDataLoader16getModelingDelayENS_8IRPresetEf, __ZN2IR12IRDataLoader16getModelingDelayERKNS_16IRDataAttributesE, 
                       __ZN2IR12IRDataLoader16isConsolidatedIRENS_8IRPresetE, __ZN2IR12IRDataLoader16isConsolidatedIRERKNS_16IRDataAttributesE, 
                       __ZN2IR12IRDataLoader17getGlobalUserDataENS_8IRPresetE, __ZN2IR12IRDataLoader17getGlobalUserDataERKNS_16IRDataAttributesE, 
                       __ZN2IR12IRDataLoader19getNumSpatialPointsENS_8IRPresetEf, 
                       __ZN2IR12IRDataLoader19getNumSpatialPointsERKNS_16IRDataAttributesE, 
                       __ZN2IR12IRDataLoader22getCustomLayoutFromTagEj, __ZN2IR12IRDataLoader24getAudioChannelLayoutTagEN10applesauce2CF6URLRefE, 
                       __ZN2IR12IRDataLoader24getAudioChannelLayoutTagENS_8IRPresetE, 
                       __ZN2IR12IRDataLoader24getAudioChannelLayoutTagERKNS_16IRDataAttributesE, 
                       __ZN2IR12IRDataLoader25getPersonalizedHRTFStatusEv, __ZN2IR12IRDataLoader28clearPersonalizedIRDataCacheEv, 
                       __ZN2IR12IRDataLoader28getNumFiltersPerSpatialPointENS_8IRPresetEf, 
                       __ZN2IR12IRDataLoader28getNumFiltersPerSpatialPointERKNS_16IRDataAttributesE, 
                       __ZN2IR12IRDataLoader28rebuildPersonalizedHRTFCacheEv, __ZN2IR12IRDataLoader31registerCustomLayoutIfNecessaryERK18AudioChannelLayout, 
                       __ZN2IR12IRDataLoader32checkIfPersonalizedHRTFIsAllowedEv, 
                       __ZN2IR12IRDataLoader32getOriginalAudioChannelLayoutTagERKNS_16IRDataAttributesE, 
                       __ZN2IR12IRDataLoader32hasFailedToFetchPersonalizedHRTFEv, 
                       __ZN2IR12IRDataLoader35addPersonalizedHRTFListenerCallbackENSt3__112basic_stringIcNS1_11char_traitsIcEENS1_9allocatorIcEEEENS1_8functionIFvbbEEE, 
                       __ZN2IR12IRDataLoader38removePersonalizedHRTFListenerCallbackENSt3__112basic_stringIcNS1_11char_traitsIcEENS1_9allocatorIcEEEE, 
                       __ZN2IR12IRDataLoader4loadENS_8IRPresetEfNS_24IRSphericalInterpolationERKNSt3__16vectorIfNS3_9allocatorIfEEEE, 
                       __ZN2IR12IRDataLoader4loadERKNS_16IRDataAttributesEN10applesauce2CF7DataRefERKNSt3__16vectorIfNS7_9allocatorIfEEEE, 
                       __ZN2IR12IRDataLoader4loadERKNSt3__112basic_stringIcNS1_11char_traitsIcEENS1_9allocatorIcEEEENS_8IRPresetEfNS_24IRSphericalInterpolationERKNS1_6vectorIfNS5_IfEEEE, 
                       __ZN2IR12IRDataLoader4loadERKNSt3__112basic_stringIcNS1_11char_traitsIcEENS1_9allocatorIcEEEERKNS_16IRDataAttributesEN10applesauce2CF7DataRefERKNS1_6vectorIfNS5_IfEEEE, 
                       __ZN2IR12IRDataLoader6createERKNSt3__112basic_stringIcNS1_11char_traitsIcEENS1_9allocatorIcEEEERKNS1_6vectorINSA_IfNS5_IfEEEENS5_ISC_EEEERKN10applesauce2CF6URLRefESG_RKNSA_INS_16IRCoordinateTypeENS5_ISM_EEEESG_fjRKSC_RKNSA_INS_21IRInterpolationMethodENS5_IST_EEEERKNSI_13DictionaryRefES9_jbjNS_24IRSphericalInterpolationESS_, 
                       __ZN2IR12IRDataLoader6createERKNSt3__16vectorINS2_IfNS1_9allocatorIfEEEENS3_IS5_EEEERKN10applesauce2CF6URLRefES9_RKNS2_INS_16IRCoordinateTypeENS3_ISF_EEEES9_fjRKS5_RKNS2_INS_21IRInterpolationMethodENS3_ISM_EEEERKNSB_13DictionaryRefERKNS1_12basic_stringIcNS1_11char_traitsIcEENS3_IcEEEEjbjNS_24IRSphericalInterpolationESL_, 
                       __ZN2IR12IRDataLoader7hasTypeENS_8IRPresetENS_10IRDataTypeE, 
                       __ZN2IR12IRDataLoader7hasTypeERKNS_16IRDataAttributesENS_10IRDataTypeE, 
                       __ZN2IR12IRDataLoader8instanceEv, __ZN2IR12IRDataLoaderC1Ev, 
                       __ZN2IR12IRDataLoaderC2Ev, __ZN2IR12IRDataLoaderD1Ev, __ZN2IR12IRDataLoaderD2Ev, 
                       __ZN2IR13IRCoordinates17getAllCoordinatesEv, __ZN2IR13IRCoordinates18getParameterStringENS_16IRCoordinateTypeE, 
                       __ZN2IR13IRCoordinates3setENS_16IRCoordinateTypeEf, __ZN2IR13IRCoordinates5resetEv, 
                       __ZN2IR13IRCoordinatesC1Ev, __ZN2IR13IRCoordinatesC2Ev, __ZN2IR14copyHRTFBinURLEv, 
                       __ZN2IR15FFTFilterKernel10accumulateERKS0_f, __ZN2IR15FFTFilterKernel10initializeEjjb, 
                       __ZN2IR15FFTFilterKernel11storeCoeffsEPKfjP17MultiRadixRealFFT, 
                       __ZN2IR15FFTFilterKernel11storeCoeffsEPKfjP17MultiRadixRealFFTNS_31FFTFilterOptimizationParametersE, 
                       __ZN2IR15FFTFilterKernel11storeCoeffsEPKfjP17MultiRadixRealFFTNS_31FFTFilterOptimizationParametersEf, 
                       __ZN2IR15FFTFilterKernel22calculateFIRActiveTapsEPKfj, __ZN2IR15FFTFilterKernel24calculateFIRFilterLengthEjjb, 
                       __ZN2IR15FFTFilterKernel24initializeAndStoreCoeffsEPKfjjbP17MultiRadixRealFFT, 
                       __ZN2IR15FFTFilterKernel24initializeAndStoreCoeffsEPKfjjbP17MultiRadixRealFFTNS_31FFTFilterOptimizationParametersE, 
                       __ZN2IR15FFTFilterKernel24initializeAndStoreCoeffsEPKfjjbP17MultiRadixRealFFTNS_31FFTFilterOptimizationParametersEf, 
                       __ZN2IR15FFTFilterKernel5resetEv, __ZN2IR15FFTFilterKernel5scaleEf, 
                       __ZN2IR15FFTFilterKernel9overwriteERKS0_f, __ZN2IR15FFTFilterKernelC1EOS0_, 
                       __ZN2IR15FFTFilterKernelC1ERKS0_, __ZN2IR15FFTFilterKernelC1Ejjb, 
                       __ZN2IR15FFTFilterKernelC1Ev, __ZN2IR15FFTFilterKernelC2EOS0_, 
                       __ZN2IR15FFTFilterKernelC2ERKS0_, __ZN2IR15FFTFilterKernelC2Ejjb, 
                       __ZN2IR15FFTFilterKernelC2Ev, __ZN2IR15FFTFilterKernelD1Ev, 
                       __ZN2IR15FFTFilterKernelD2Ev, __ZN2IR15FFTFilterKernelaSEOS0_, 
                       __ZN2IR15FFTFilterKernelaSERKS0_, __ZN2IR16FFTSubFilterData10accumulateERKS0_f, 
                       __ZN2IR16FFTSubFilterData5resetEv, __ZN2IR16FFTSubFilterData5scaleEf, 
                       __ZN2IR16FFTSubFilterData9SetFilterEPKfjfP17MultiRadixRealFFT, 
                       __ZN2IR16FFTSubFilterData9overwriteERKS0_f, __ZN2IR16FFTSubFilterData9setFilterEPKfjfP17MultiRadixRealFFTNS_31FFTFilterOptimizationParametersE, 
                       __ZN2IR16FFTSubFilterDataC1EOS0_, __ZN2IR16FFTSubFilterDataC1ERKS0_, 
                       __ZN2IR16FFTSubFilterDataC1Ejj, __ZN2IR16FFTSubFilterDataC2EOS0_, 
                       __ZN2IR16FFTSubFilterDataC2ERKS0_, __ZN2IR16FFTSubFilterDataC2Ejj, 
                       __ZN2IR16FFTSubFilterDataaSEOS0_, __ZN2IR16FFTSubFilterDataaSERKS0_, 
                       __ZN2IR18FFTFilterTransposeC1Ev, __ZN2IR18FFTFilterTransposeC2Ev, 
                       __ZN2IR18FFTFilterTransposeD0Ev, __ZN2IR18FFTFilterTransposeD1Ev, 
                       __ZN2IR18FFTFilterTransposeD2Ev, __ZN2IR18PersonalizedIRData10ClearCacheEv, 
                       __ZN2IR18PersonalizedIRData17RegisterObserversERKNSt3__18functionIFvbEEEb, 
                       __ZN2IR18PersonalizedIRData18RebuildCFDataCacheERKNSt3__18functionIFvbEEE, 
                       __ZN2IR18PersonalizedIRData19UnregisterObserversEv, __ZN2IR18PersonalizedIRData27HALListenerCallbackFunctionEjjPK26AudioObjectPropertyAddressPv, 
                       __ZN2IR18PersonalizedIRData32CheckIfPersonalizedHRIRIsAllowedEv, 
                       __ZN2IR18PersonalizedIRData7CleanUpEv, __ZN2IR18PersonalizedIRData9GetCFDataE20PersonalizedHRIRTypebj, 
                       __ZN2IR18PersonalizedIRDataC1EPKv, __ZN2IR18PersonalizedIRDataC1ERKNSt3__112basic_stringIcNS1_11char_traitsIcEENS1_9allocatorIcEEEE, 
                       __ZN2IR18PersonalizedIRDataC1Ev, __ZN2IR18PersonalizedIRDataC2EPKv, 
                       __ZN2IR18PersonalizedIRDataC2ERKNSt3__112basic_stringIcNS1_11char_traitsIcEENS1_9allocatorIcEEEE, 
                       __ZN2IR18PersonalizedIRDataC2Ev, __ZN2IR18PersonalizedIRDataD1Ev, 
                       __ZN2IR18PersonalizedIRDataD2Ev, __ZN2IR20getGenericIRBasePathEv, 
                       __ZN2IR21ComplexDataCircBuffer10initializeEjjjj, __ZN2IR21ComplexDataCircBuffer13getFFTProcPosEv, 
                       __ZN2IR21ComplexDataCircBuffer15getFFTBufferVecEj, __ZN2IR21ComplexDataCircBuffer16getCircularIndexEv, 
                       __ZN2IR21ComplexDataCircBuffer16getNumFFTBuffersEv, __ZN2IR21ComplexDataCircBuffer17getSampleDataPtrsEv, 
                       __ZN2IR21ComplexDataCircBuffer20getNumOutputChannelsEv, __ZN2IR21ComplexDataCircBuffer20inverseFFTOverlapAddEj, 
                       __ZN2IR21ComplexDataCircBuffer21getFFTPartitionLengthEv, __ZN2IR21ComplexDataCircBuffer7cleanupEv, 
                       __ZN2IR21ComplexDataCircBufferC1ENSt3__110unique_ptrINS0_14ImplementationENS1_14default_deleteIS3_EEEE, 
                       __ZN2IR21ComplexDataCircBufferC1Ev, __ZN2IR21ComplexDataCircBufferC2ENSt3__110unique_ptrINS0_14ImplementationENS1_14default_deleteIS3_EEEE, 
                       __ZN2IR21ComplexDataCircBufferC2Ev, __ZN2IR21ComplexDataCircBufferD1Ev, 
                       __ZN2IR21ComplexDataCircBufferD2Ev, __ZN2IR23getPresetDataAttributesENS_8IRPresetE, 
                       __ZN2IR27getProductTypeXTCIRFullPathEv, __ZN2IR29getProductTypeXTCIRFilePrefixEv, 
                       __ZN2IR6IRData10printNodesEv, __ZN2IR6IRData11getUserDataERKNS_16IRDataAttributesE, 
                       __ZN2IR6IRData14getIRDataTypesERKNS_16IRDataAttributesE, __ZN2IR6IRData15getFilterLengthERKNS_16IRDataAttributesE, 
                       __ZN2IR6IRData16getModelingDelayERKNS_16IRDataAttributesE, 
                       __ZN2IR6IRData16isConsolidatedIRERKNS_16IRDataAttributesE, 
                       __ZN2IR6IRData17getCoordinateTreeEv, __ZN2IR6IRData17getGlobalUserDataERKNS_16IRDataAttributesE, 
                       __ZN2IR6IRData19getNumSpatialPointsERKNS_16IRDataAttributesE, 
                       __ZN2IR6IRData20loadSerializedIRDataERKN10applesauce2CF7DataRefERKNS_16IRDataAttributesE, 
                       __ZN2IR6IRData20loadSerializedIRDataERKPK8__CFDataRKNS_16IRDataAttributesE, 
                       __ZN2IR6IRData20packSerializedIRDataERKS0_S2_PKv, __ZN2IR6IRData21getOriginalSampleRateERKNS_16IRDataAttributesE, 
                       __ZN2IR6IRData22createDictionaryIRDataERKNSt3__110shared_ptrIS0_EEb, 
                       __ZN2IR6IRData22createDictionaryIRDataERKS0_b, __ZN2IR6IRData22createSerializedIRDataERKNSt3__110shared_ptrIKS0_EEbNS_13IRCoeffFormatE, 
                       __ZN2IR6IRData22createSerializedIRDataERKNSt3__110shared_ptrIS0_EEbNS_13IRCoeffFormatE, 
                       __ZN2IR6IRData22createSerializedIRDataERKS0_bNS_13IRCoeffFormatE, 
                       __ZN2IR6IRData22createSoundProfilePackERKS0_S2_PKvPK10__CFString, 
                       __ZN2IR6IRData22extractIRDataTypePlistEN10applesauce2CF13DictionaryRefENS_10IRDataTypeERj, 
                       __ZN2IR6IRData22getSoundProfileVersionEPK8__CFData, __ZN2IR6IRData24getAudioChannelLayoutTagERKNS_16IRDataAttributesE, 
                       __ZN2IR6IRData24getBooleanFromDictionaryEN10applesauce2CF13DictionaryRefERKNSt3__112basic_stringIcNS4_11char_traitsIcEENS4_9allocatorIcEEEEb, 
                       __ZN2IR6IRData27createNoisySoundProfilePackEPK8__CFData, __ZN2IR6IRData28getNumFiltersPerSpatialPointERKNS_16IRDataAttributesE, 
                       __ZN2IR6IRData31createSerializedIRDataWithNoiseEPK8__CFData, 
                       __ZN2IR6IRData36createSoundProfileMetaDataDictionaryEPK8__CFData, 
                       __ZN2IR6IRData7hasTypeERKNS_16IRDataAttributesENS_10IRDataTypeE, 
                       __ZN2IR6IRDataC1ERKNS_16IRDataAttributesEN10applesauce2CF7DataRefERKNSt3__16vectorIfNS7_9allocatorIfEEEE, 
                       __ZN2IR6IRDataC1ERKNSt3__16vectorINS2_IfNS1_9allocatorIfEEEENS3_IS5_EEEES9_RKNS2_INS_16IRCoordinateTypeENS3_ISA_EEEES9_fjRKS5_RKNS2_INS_21IRInterpolationMethodENS3_ISH_EEEERKN10applesauce2CF13DictionaryRefERKNS1_12basic_stringIcNS1_11char_traitsIcEENS3_IcEEEEjbjNS_24IRSphericalInterpolationESG_, 
                       __ZN2IR6IRDataC1ERKS0_, __ZN2IR6IRDataC1EfjjfbjjjRKNSt3__16vectorINS_16IRCoordinateTypeENS1_9allocatorIS3_EEEERKNS2_IfNS4_IfEEEERKNS2_INS_21IRInterpolationMethodENS4_ISD_EEEENS_24IRSphericalInterpolationEN10applesauce2CF13DictionaryRefESL_, 
                       __ZN2IR6IRDataC2ERKNS_16IRDataAttributesEN10applesauce2CF7DataRefERKNSt3__16vectorIfNS7_9allocatorIfEEEE, 
                       __ZN2IR6IRDataC2ERKNSt3__16vectorINS2_IfNS1_9allocatorIfEEEENS3_IS5_EEEES9_RKNS2_INS_16IRCoordinateTypeENS3_ISA_EEEES9_fjRKS5_RKNS2_INS_21IRInterpolationMethodENS3_ISH_EEEERKN10applesauce2CF13DictionaryRefERKNS1_12basic_stringIcNS1_11char_traitsIcEENS3_IcEEEEjbjNS_24IRSphericalInterpolationESG_, 
                       __ZN2IR6IRDataC2ERKS0_, __ZN2IR6IRDataC2EfjjfbjjjRKNSt3__16vectorINS_16IRCoordinateTypeENS1_9allocatorIS3_EEEERKNS2_IfNS4_IfEEEERKNS2_INS_21IRInterpolationMethodENS4_ISD_EEEENS_24IRSphericalInterpolationEN10applesauce2CF13DictionaryRefESL_, 
                       __ZN2IR6IRDataD1Ev, __ZN2IR6IRDataD2Ev, __ZN2IR9FFTFilter10initializeEjjjbjj, 
                       __ZN2IR9FFTFilter10initializeEjjjbjjbbb, __ZN2IR9FFTFilter12uninitializeEv, 
                       __ZN2IR9FFTFilter15setFilterCoeffsEPKPKfjj, __ZN2IR9FFTFilter16setFilterKernelsEPKNSt3__16vectorINS_15FFTFilterKernelENS1_9allocatorIS3_EEEE, 
                       __ZN2IR9FFTFilter17getScratchKernelsEv, __ZN2IR9FFTFilter18getFIRFilterLengthEv, 
                       __ZN2IR9FFTFilter18getPartitionLengthEv, __ZN2IR9FFTFilter21processMultipleInputsEPKPfS3_jjjPNS_21ComplexDataCircBufferE, 
                       __ZN2IR9FFTFilter29initializeAndSetFilterKernelsEPKNSt3__16vectorINS_15FFTFilterKernelENS1_9allocatorIS3_EEEEjj, 
                       __ZN2IR9FFTFilter29initializeAndSetFilterKernelsEPKNSt3__16vectorINS_15FFTFilterKernelENS1_9allocatorIS3_EEEEjjbbb, 
                       __ZN2IR9FFTFilter5resetEv, __ZN2IR9FFTFilter7processEPKfPKPfjj, 
                       __ZN2IR9FFTFilter7processEPKfPKPfjjPNS_21ComplexDataCircBufferE, 
                       __ZN2IR9FFTFilterC1ENSt3__110unique_ptrINS0_14ImplementationENS1_14default_deleteIS3_EEEE, 
                       __ZN2IR9FFTFilterC1Ev, __ZN2IR9FFTFilterC2ENSt3__110unique_ptrINS0_14ImplementationENS1_14default_deleteIS3_EEEE, 
                       __ZN2IR9FFTFilterC2Ev, __ZN2IR9FFTFilterD0Ev, __ZN2IR9FFTFilterD1Ev, 
                       __ZN2IR9FFTFilterD2Ev, __ZN8AudioDSP4Core11HeadTracker10InitializeENSt3__18optionalIbEE, 
                       __ZN8AudioDSP4Core11HeadTracker12DisconnectRMEv, __ZN8AudioDSP4Core11HeadTracker16CallbackFunctionEjjPK26AudioObjectPropertyAddressPv, 
                       __ZN8AudioDSP4Core11HeadTracker18GetCurrentHeadPoseER10simd_quatf, 
                       __ZN8AudioDSP4Core11HeadTracker18GetCurrentHeadPoseER10simd_quatfRb, 
                       __ZN8AudioDSP4Core11HeadTracker19SetCanAccessHALAPIsEb, __ZN8AudioDSP4Core11HeadTracker26RegisterUserChoiceListenerEv, 
                       __ZN8AudioDSP4Core11HeadTracker28HardwareSupportsHeadTrackingERj, 
                       __ZN8AudioDSP4Core11HeadTracker28UnregisterUserChoiceListenerEv, 
                       __ZN8AudioDSP4Core11HeadTracker38GetDefaultFaceToDevicePitchAngleOffsetEv, 
                       __ZN8AudioDSP4Core11HeadTracker9ConnectRME16HeadTrackingMode, 
                       __ZN8AudioDSP4Core11HeadTrackerC1EPKvb, __ZN8AudioDSP4Core11HeadTrackerC1ERKNSt3__112basic_stringIcNS2_11char_traitsIcEENS2_9allocatorIcEEEEb, 
                       __ZN8AudioDSP4Core11HeadTrackerC2EPKvb, __ZN8AudioDSP4Core11HeadTrackerC2ERKNSt3__112basic_stringIcNS2_11char_traitsIcEENS2_9allocatorIcEEEEb, 
                       __ZN8AudioDSP4Core11HeadTrackerD1Ev, __ZN8AudioDSP4Core11HeadTrackerD2Ev, 
                       __ZN8AudioDSP4Core4VBAP14triangleLookupERKNSt3__15arrayIfLm3EEERiRS4_, 
                       __ZN8AudioDSP4Core4VBAP18calculateVBAPGainsERKNSt3__15arrayIfLm3EEERNS2_6vectorIfNS2_9allocatorIfEEEE, 
                       __ZN8AudioDSP4Core4VBAP22changeSpeakerLocationsERKNSt3__16vectorIfNS2_9allocatorIfEEEES8_, 
                       __ZN8AudioDSP4Core4VBAPC1ERKNSt3__16vectorIfNS2_9allocatorIfEEEES8_RKNS1_14InitParametersE, 
                       __ZN8AudioDSP4Core4VBAPC2ERKNSt3__16vectorIfNS2_9allocatorIfEEEES8_RKNS1_14InitParametersE, 
                       __ZN8AudioDSP4Core4VBAPD1Ev, __ZN8AudioDSP4Core4VBAPD2Ev, 
                       __ZNK2IR13IRCoordinates3getENS_16IRCoordinateTypeE, __ZNK2IR13IRCoordinateseqERKS0_, 
                       __ZNK2IR13IRCoordinatesneERKS0_, __ZNK2IR15FFTFilterKernel16getFFTSubFiltersEv, 
                       __ZNK2IR15FFTFilterKernel18getMaxFilterLengthEv, __ZNK2IR15FFTFilterKernel18getPartitionLengthEv, 
                       __ZNK2IR15FFTFilterKernel19getNumFFTSubFiltersEv, __ZNK2IR15FFTFilterKernel21getActiveFilterLengthEv, 
                       __ZNK2IR15FFTFilterKernel25getNumActiveFFTSubFiltersEv, __ZNK2IR15FFTFilterKernel31getComplexMultiplicationLengthsEv, 
                       __ZNK2IR18PersonalizedIRData25IsPersonalizedHRIRAllowedEv, 
                       __ZNK2IR18PersonalizedIRData9GetStatusEv, __ZNK2IR21ComplexDataCircBuffer13isInitializedEv, 
                       __ZNK2IR6IRData11getMaxDelayEv, __ZNK2IR6IRData11getUserDataEv, 
                       __ZNK2IR6IRData12getAverageIREv, __ZNK2IR6IRData13getDataLayoutEv, 
                       __ZNK2IR6IRData13getSampleRateEv, __ZNK2IR6IRData14getDescriptionEv, 
                       __ZNK2IR6IRData15getFilterLengthEv, __ZNK2IR6IRData16getFilePlistDictEv, 
                       __ZNK2IR6IRData16getModelingDelayEv, __ZNK2IR6IRData16getNumDimensionsEv, 
                       __ZNK2IR6IRData17getCoordinateTreeEv, __ZNK2IR6IRData18getPartitionLengthEv, 
                       __ZNK2IR6IRData18getProcessingDelayEv, __ZNK2IR6IRData19getIRDataAttributesEv, 
                       __ZNK2IR6IRData19getNumSpatialPointsEv, __ZNK2IR6IRData19isAverageIRComputedEv, 
                       __ZNK2IR6IRData20estimateAverageDelayEv, __ZNK2IR6IRData20getTriangulationDataEv, 
                       __ZNK2IR6IRData21getDefaultCoordinatesEv, __ZNK2IR6IRData21getInterpolatedCoeffsERKNS_13IRCoordinatesENSt3__14spanIKjLm18446744073709551615EEENS5_INS_15FFTFilterKernelELm18446744073709551615EEENS5_IfLm18446744073709551615EEENS_21IRInterpolationMethodE, 
                       __ZNK2IR6IRData21getInterpolatedCoeffsERKNS_13IRCoordinatesENSt3__14spanINS_15FFTFilterKernelELm18446744073709551615EEENS5_IfLm18446744073709551615EEENS_21IRInterpolationMethodE, 
                       __ZNK2IR6IRData21getInterpolatedCoeffsERKNS_13IRCoordinatesERKNSt3__16vectorIjNS4_9allocatorIjEEEERNS5_INS_15FFTFilterKernelENS6_ISB_EEEERNS5_IfNS6_IfEEEENS_21IRInterpolationMethodE, 
                       __ZNK2IR6IRData21getInterpolatedCoeffsERKNS_13IRCoordinatesERNSt3__16vectorINS_15FFTFilterKernelENS4_9allocatorIS6_EEEERNS5_IfNS7_IfEEEENS_21IRInterpolationMethodE, 
                       __ZNK2IR6IRData21getInterpolatedCoeffsERKNS_13IRCoordinatesEjRNS_15FFTFilterKernelERfNS_21IRInterpolationMethodE, 
                       __ZNK2IR6IRData21getOriginalSampleRateEv, __ZNK2IR6IRData22getInterpolationMethodEv, 
                       __ZNK2IR6IRData24getAudioChannelLayoutTagEv, __ZNK2IR6IRData25canInterpolateInDimensionENS_16IRCoordinateTypeE, 
                       __ZNK2IR6IRData25getTimeDomainFilterLengthEv, __ZNK2IR6IRData27getMixedTimeFrequencyDomainEv, 
                       __ZNK2IR6IRData28getNumFiltersPerSpatialPointEv, __ZNK2IR6IRData30getPeriodForCyclicalDimensionsEv, 
                       __ZNK2IR6IRData31getInterpolatedTimeDomainCoeffsERKNS_13IRCoordinatesERKNSt3__16vectorIjNS4_9allocatorIjEEEERNS5_INS5_IfNS6_IfEEEENS6_ISC_EEEERSC_NS_21IRInterpolationMethodE, 
                       __ZNK2IR6IRData31getInterpolatedTimeDomainCoeffsERKNS_13IRCoordinatesERNSt3__16vectorINS5_IfNS4_9allocatorIfEEEENS6_IS8_EEEERS8_NS_21IRInterpolationMethodE, 
                       __ZNK2IR6IRData31getInterpolatedTimeDomainCoeffsERKNS_13IRCoordinatesEjNSt3__14spanIfLm18446744073709551615EEERfNS_21IRInterpolationMethodE, 
                       __ZNK2IR6IRData31getInterpolatedTimeDomainCoeffsERKNS_13IRCoordinatesEjRNSt3__16vectorIfNS4_9allocatorIfEEEERfNS_21IRInterpolationMethodE, 
                       __ZNK2IR6IRData32getOriginalAudioChannelLayoutTagEv, __ZNK2IR6IRData36getOriginalNumFiltersPerSpatialPointEv, 
                       __ZNK2IR6IRData8usesVBAPEv, __ZNK2IR9FFTFilter13doXFadeUpdateEv, 
                       __ZNK2IR9FFTFilter15getConfigParamsEv, __ZNK2IR9FFTFilter22getNumActiveSubFiltersEv, 
                       __ZNK8AudioDSP4Core11HeadTracker16CanAccessHALAPIsEv, __ZNK8AudioDSP4Core11HeadTracker21HasActiveRMConnectionEv, 
                       __ZNK8AudioDSP4Core11HeadTracker38GetAppliedFaceToDevicePitchAngleOffsetEv, 
                       __ZNK8AudioDSP4Core11HeadTracker8IsEnableEv, __ZTVN2IR18FFTFilterTransposeE, 
                       __ZTVN2IR9FFTFilterE ]
    weak-symbols:    [ __ZNK2IR6IRData31getInterpolatedTimeDomainCoeffsINSt3__14spanIfLm18446744073709551615EEEEEiRKNS_13IRCoordinatesENS3_IKjLm18446744073709551615EEENS3_IT_Lm18446744073709551615EEES4_NS_21IRInterpolationMethodE, 
                       __ZNK2IR6IRData31getInterpolatedTimeDomainCoeffsINSt3__14spanIfLm18446744073709551615EEEEEiRKNS_13IRCoordinatesENS3_IT_Lm18446744073709551615EEES4_NS_21IRInterpolationMethodE, 
                       __ZNK2IR6IRData31getInterpolatedTimeDomainCoeffsINSt3__16vectorIfNS2_9allocatorIfEEEEEEiRKNS_13IRCoordinatesENS2_4spanIKjLm18446744073709551615EEENSA_IT_Lm18446744073709551615EEENSA_IfLm18446744073709551615EEENS_21IRInterpolationMethodE, 
                       __ZNK2IR6IRData31getInterpolatedTimeDomainCoeffsINSt3__16vectorIfNS2_9allocatorIfEEEEEEiRKNS_13IRCoordinatesENS2_4spanIT_Lm18446744073709551615EEENSA_IfLm18446744073709551615EEENS_21IRInterpolationMethodE ]
...
