--- !tapi-tbd-v3
archs:                 [ armv7, armv7s, arm64, arm64e ]
platform:              ios
flags:                 [ flat_namespace ]
install-name:          /System/Library/PrivateFrameworks/MenstrualAlgorithmsInternal.framework/MenstrualAlgorithmsInternal
current-version:       1
compatibility-version: 1
objc-constraint:       retain_release
exports:
  - archs:                [ armv7, armv7s, arm64, arm64e ]
    symbols:              [ _MAIAnalysisWindowAgeKey,
                            _MAIDeviationTrueBeforeRulesKey,
                            _MAIInfrequentBleedingKey, _MAIIrregularBleedingKey,
                            _MAIJulianDayEndInfrequentKey,
                            _MAIJulianDayEndIrregularKey,
                            _MAIJulianDayEndProlongedKey,
                            _MAIJulianDayEndSpottingKey,
                            _MAIJulianDayOfAnalysisWindowEndKey,
                            _MAIJulianDayOfAnalysisWindowStartKey,
                            _MAIJulianDayStartInfrequentKey,
                            _MAIJulianDayStartIrregularKey,
                            _MAIJulianDayStartProlongedKey,
                            _MAIJulianDayStartSpottingKey,
                            _MAIMetricsForCoreAnalyticsKey,
                            _MAIPassedRuleEnoughDataKey,
                            _MAIPassedRuleFactorEndInWashoutKey,
                            _MAIPassedRuleFactorInWindowKey,
                            _MAIPassedRuleMinWindowEndKey,
                            _MAIPassedRuleMinWindowStartKey,
                            _MAIProlongedBleedingKey, _MAISpottingKey,
                            _MenstrualAlgorithmsInternalVersionNumber,
                            _MenstrualAlgorithmsInternalVersionString,
                            __ZN11Nightingale10getMeanWinENSt3__16vectorIfNS0_9allocatorIfEEEEi,
                            __ZN11Nightingale10getSigmoidEf,
                            __ZN11Nightingale11FWEstimator11get_jDayKEdEiRKNSt3__16vectorINS_12ngt_DayInputENS1_9allocatorIS3_EEEEi,
                            __ZN11Nightingale11FWEstimator12getjDayFWCalERiS1_ii,
                            __ZN11Nightingale11FWEstimator13getHistFW_OPKERKNS_9cycleInfoERNSt3__16vectorINS_12ngt_DayInputENS4_9allocatorIS6_EEEENS4_4pairIiiEENSB_INS5_IiNS7_IiEEEENS5_INS_8PhaseSetENS7_ISF_EEEEEENS_20extractCaliInputsRtnEb,
                            __ZN11Nightingale11FWEstimator14fwEndDetect_hrERNS_28fwEstimate1st_inOut_internalERNS_9cycleInfoERKNSt3__16vectorINS_12ngt_DayInputENS5_9allocatorIS7_EEEERKNS_13structDLIn_hrEi,
                            __ZN11Nightingale11FWEstimator14getADayFWDL_hrERKNS_13structDLIn_hrEi,
                            __ZN11Nightingale11FWEstimator14getHistFW_CaliERKNS_9cycleInfoERNSt3__16vectorINS_12ngt_DayInputENS4_9allocatorIS6_EEEENS4_4pairIiiEENSB_INS5_IiNS7_IiEEEENS5_INS_8PhaseSetENS7_ISF_EEEEEENS_20extractCaliInputsRtnEb,
                            __ZN11Nightingale11FWEstimator15adjustLSTMFwEndERKNSt3__16vectorIfNS1_9allocatorIfEEEEi,
                            __ZN11Nightingale11FWEstimator15fwDLPostProcessERNSt3__16vectorIfNS1_9allocatorIfEEEEbi,
                            __ZN11Nightingale11FWEstimator15print_lucyEP_inERKNS_28fwEstimate1st_inOut_internalERKNS_29extractedLucyDayStreamSlice_tERKNS_9cycleInfoENSt3__112basic_stringIcNSA_11char_traitsIcEENSA_9allocatorIcEEEE,
                            __ZN11Nightingale11FWEstimator16CycleProcessHistERKNS_9cycleInfoERNSt3__16vectorINS_12ngt_DayInputENS4_9allocatorIS6_EEEENS4_4pairIiiEENSB_INS5_IiNS7_IiEEEENS5_INS_8PhaseSetENS7_ISF_EEEEEERNS_18sensorLogProcessorEb,
                            __ZN11Nightingale11FWEstimator16consistent_checkENSt3__16vectorIiNS1_9allocatorIiEEEEi,
                            __ZN11Nightingale11FWEstimator16fwEndDetect_lucyERNS_28fwEstimate1st_inOut_internalERKNS_5uiLogERKNSt3__16vectorINS_12ngt_DayInputENS6_9allocatorIS8_EEEENS6_4pairIiiEEibNS6_12basic_stringIcNS6_11char_traitsIcEENS9_IcEEEE,
                            __ZN11Nightingale11FWEstimator16print_lucyEP_outERKNS_28fwEstimate1st_inOut_internalENS_31lucyTurningDayStreamInternalOutENSt3__112basic_stringIcNS5_11char_traitsIcEENS5_9allocatorIcEEEE,
                            __ZN11Nightingale11FWEstimator18getHistFW_CalendarERKNS_9cycleInfoERNSt3__16vectorINS_12ngt_DayInputENS4_9allocatorIS6_EEEENS4_4pairIiiEENSB_INS5_IiNS7_IiEEEENS5_INS_8PhaseSetENS7_ISF_EEEEEE,
                            __ZN11Nightingale11FWEstimator19getEPFailureReasonsERNS_29extractedLucyDayStreamSlice_tEbbbb,
                            __ZN11Nightingale11FWEstimator19getEligibleWTmpCntsERKNS_9cycleInfoERNSt3__16vectorINS_12ngt_DayInputENS4_9allocatorIS6_EEEENS4_4pairIiiEENS_20extractCaliInputsRtnE,
                            __ZN11Nightingale11FWEstimator20passLutealPhaseCheckEiff,
                            __ZN11Nightingale11FWEstimator20signalShiftHighCheckEiNSt3__16vectorIfNS1_9allocatorIfEEEEff,
                            __ZN11Nightingale11FWEstimator21fwEndDetect_lucy_lstmERNS_28fwEstimate1st_inOut_internalERNS_29extractedLucyDayStreamSlice_tERKNS_9cycleInfoERKNSt3__16vectorINS_12ngt_DayInputENS8_9allocatorISA_EEEEiRNS_32FwEndConfirmationFailureReason_tENS8_12basic_stringIcNS8_11char_traitsIcEENSB_IcEEEE,
                            __ZN11Nightingale11FWEstimator21getRollingScoreASliceERKNSt3__16vectorIfNS1_9allocatorIfEEEEiiRS5_S8_i,
                            __ZN11Nightingale11FWEstimator21passLucyFwEndDL_availENSt3__16vectorIiNS1_9allocatorIiEEEEfi,
                            __ZN11Nightingale11FWEstimator21updateSignalAtFwEndCAEffRNS_28fwEstimate1st_inOut_internalERNS_26coreAnalyticsFWEstimator_tE,
                            __ZN11Nightingale11FWEstimator22getLucyTurnUpIdxACycleERKNS_9cycleInfoERNSt3__16vectorINS_12ngt_DayInputENS4_9allocatorIS6_EEEENS4_4pairIiiEENS_20extractCaliInputsRtnEib,
                            __ZN11Nightingale11FWEstimator22updateFailureReasonsCAERNS_32FwEndConfirmationFailureReason_tES2_RNS_28fwEstimate1st_inOut_internalERNS_26coreAnalyticsFWEstimator_tE,
                            __ZN11Nightingale11FWEstimator23jDayWithinEPSearchRangeEiii,
                            __ZN11Nightingale11FWEstimator24fwEndDetect_lucy_ep_aDayERNS_28fwEstimate1st_inOut_internalERNS_29extractedLucyDayStreamSlice_tERKNS_9cycleInfoEi,
                            __ZN11Nightingale11FWEstimator24fwEndDetect_lucy_rf_aDayERNS_28fwEstimate1st_inOut_internalERNS_29extractedLucyDayStreamSlice_tERKNSt3__16vectorINS_12ngt_DayInputENS5_9allocatorIS7_EEEE,
                            __ZN11Nightingale11FWEstimator24getCABoundedDay2DayNoiseEf,
                            __ZN11Nightingale11FWEstimator24updateAvailabilityCaliCAENSt3__16vectorIbNS1_9allocatorIbEEEES5_S5_RNS_26coreAnalyticsFWEstimator_tE,
                            __ZN11Nightingale11FWEstimator25getLucyFwEndEPSearchRangeERKNS_9cycleInfoEiiii,
                            __ZN11Nightingale11FWEstimator25setFWForReturnLucyFwEndDLERNS_28fwEstimate1st_inOut_internalE,
                            __ZN11Nightingale11FWEstimator26getCASignalAtFwEndEstimateEf,
                            __ZN11Nightingale11FWEstimator26print_vcaliBestQualityPickENSt3__16vectorINS_19caliBestQualityPickENS1_9allocatorIS3_EEEENS1_12basic_stringIcNS1_11char_traitsIcEENS4_IcEEEE,
                            __ZN11Nightingale11FWEstimator28passedMissingRateAtDetectionEiNSt3__16vectorIfNS1_9allocatorIfEEEEf,
                            __ZN11Nightingale11FWEstimator29combineEPandDL_failureReasonsERKNS_32FwEndConfirmationFailureReason_tES3_,
                            __ZN11Nightingale11FWEstimator29findTurningPointMultiWatchIDsERKNSt3__16vectorINS2_IfNS1_9allocatorIfEEEENS3_IS5_EEEERNS2_INS_19caliBestQualityPickENS3_ISA_EEEEiiiiiiffbibNS1_12basic_stringIcNS1_11char_traitsIcEENS3_IcEEEE,
                            __ZN11Nightingale11FWEstimator31getLucyFwEndRollingRFScore_aDayERNS_28fwEstimate1st_inOut_internalERNS_29extractedLucyDayStreamSlice_tE,
                            __ZN11Nightingale11FWEstimator31suppressHistFWOverCycleBoundaryEiNSt3__18optionalIiEERNS_25FWEstimatorHistOut_ACycleE,
                            __ZN11Nightingale11FWEstimator34print_fwEstimate1st_inOut_internalERKNS_28fwEstimate1st_inOut_internalENSt3__112basic_stringIcNS4_11char_traitsIcEENS4_9allocatorIcEEEESA_SA_,
                            __ZN11Nightingale11FWEstimator34updateLucyFwEndLSTM_failureReasonsERNS_32FwEndConfirmationFailureReason_tERNS_29extractedLucyDayStreamSlice_tEbbb,
                            __ZN11Nightingale11FWEstimator41getLucyCA_caliDay2DayNoiseAnchoredByTodayERKNSt3__16vectorINS_12ngt_DayInputENS1_9allocatorIS3_EEEENS1_4pairIiiEE,
                            __ZN11Nightingale11FWEstimatorC1ERNS_10ngt_ConfigE,
                            __ZN11Nightingale11FWEstimatorC1Ev,
                            __ZN11Nightingale11FWEstimatorC2ERNS_10ngt_ConfigE,
                            __ZN11Nightingale11FWEstimatorC2Ev,
                            __ZN11Nightingale11FWEstimatorD1Ev,
                            __ZN11Nightingale11FWEstimatorD2Ev,
                            __ZN11Nightingale11argquantileERNSt3__16vectorIfNS0_9allocatorIfEEEEf,
                            __ZN11Nightingale11forwardFillERNSt3__16vectorIfNS0_9allocatorIfEEEEff,
                            __ZN11Nightingale12gaussian_pdfEddd,
                            __ZN11Nightingale12ngtProjector14isFinite_aGradERKNSt3__18optionalINS_18ngtGradientMetricsEEE,
                            __ZN11Nightingale12ngtProjector14isFinite_aProjERKNS_14ngt_PredictionE,
                            __ZN11Nightingale12ngtProjector14nullifyAFWProjERKNS_14ngt_PredictionERNSt3__14pairINS4_6vectorIiNS4_9allocatorIiEEEENS6_INS_8PhaseSetENS7_ISA_EEEEEE,
                            __ZN11Nightingale12ngtProjector14prepareDLin_hrERNS_5uiLogERKNSt3__16vectorINS_12ngt_DayInputENS3_9allocatorIS5_EEEERKNS_10ngt_ConfigEb,
                            __ZN11Nightingale12ngtProjector14printAGradientERKNSt3__18optionalINS_18ngtGradientMetricsEEENS1_12basic_stringIcNS1_11char_traitsIcEENS1_9allocatorIcEEEESC_,
                            __ZN11Nightingale12ngtProjector16printCalPeriodFWERKNSt3__16vectorINS_30periodPredictRest_out_internalENS1_9allocatorIS3_EEEERKNS2_INS_25FWEstimatorProjOut_ACycleENS4_IS9_EEEE,
                            __ZN11Nightingale12ngtProjector16print_period_1stERNS_31periodPredict1st_inOut_internalENSt3__112basic_stringIcNS3_11char_traitsIcEENS3_9allocatorIcEEEES9_,
                            __ZN11Nightingale12ngtProjector17getDerivedFWProjsERKNS_20derivedPeriodProjs_tERKNSt3__18optionalINS_14ngt_PredictionEEE,
                            __ZN11Nightingale12ngtProjector18nullifyAPeriodProjERKNS_14ngt_PredictionERNSt3__14pairINS4_6vectorIiNS4_9allocatorIiEEEENS6_INS_8PhaseSetENS7_ISA_EEEEEE,
                            __ZN11Nightingale12ngtProjector21getDerivedPeriodProjsERNS_31periodPredict1st_inOut_internalES2_RKNS_5uiLogERKNS_10ngt_ConfigEiRNS_15periodProjectorE,
                            __ZN11Nightingale12ngtProjector22print_a_ngt_PredictionENS_14ngt_PredictionEiNSt3__112basic_stringIcNS2_11char_traitsIcEENS2_9allocatorIcEEEE,
                            __ZN11Nightingale12ngtProjector22suppressHRDL_lutealLenERKNS_28fwEstimate1st_inOut_internalERNS_31periodPredict1st_inOut_internalERKS4_i,
                            __ZN11Nightingale12ngtProjector23compute1stFWPeriodStartERNS_28fwEstimate1st_inOut_internalERNS_31periodPredict1st_inOut_internalERNS_5uiLogERKNS_10ngt_ConfigERKNSt3__16vectorINS_12ngt_DayInputENSA_9allocatorISC_EEEEbRNS_24coreAnalyticsDayStream_tE,
                            __ZN11Nightingale12ngtProjector23getCoreAnalyticsContentERNS_28fwEstimate1st_inOut_internalERNS_31periodPredict1st_inOut_internalERKNSt3__18optionalINS_14ngt_PredictionEEERKNS_5uiLogERKNS_10ngt_ConfigERKNS5_6vectorINS_12ngt_DayInputENS5_9allocatorISI_EEEERKNS_24complete1stFWPeriodOut_tERNS_24coreAnalyticsDayStream_tE,
                            __ZN11Nightingale12ngtProjector23printAnInternalGradientERKNSt3__18optionalINS_22ngt_periodProjection_tEEENS1_12basic_stringIcNS1_11char_traitsIcEENS1_9allocatorIcEEEESC_,
                            __ZN11Nightingale12ngtProjector24print_vec_ngt_PredictionENSt3__16vectorINS_14ngt_PredictionENS1_9allocatorIS3_EEEENS1_12basic_stringIcNS1_11char_traitsIcEENS4_IcEEEE,
                            __ZN11Nightingale12ngtProjector24updateLucyFW_HRlutealLenERKNS_28fwEstimate1st_inOut_internalERNS_31periodPredict1st_inOut_internalERKS4_i,
                            __ZN11Nightingale12ngtProjector25findPeriodProjMethod_lucyERKNS_28fwEstimate1st_inOut_internalERNS_31periodPredict1st_inOut_internalERKNS_9cycleInfoE,
                            __ZN11Nightingale12ngtProjector25printfwCycleProcessEstOutENS_22fwCycleProcessEstOut_tENSt3__112basic_stringIcNS2_11char_traitsIcEENS2_9allocatorIcEEEE,
                            __ZN11Nightingale12ngtProjector26compute1stFWPeriodStart_hrERNS_28fwEstimate1st_inOut_internalERNS_31periodPredict1st_inOut_internalERNS_5uiLogERKNSt3__16vectorINS_12ngt_DayInputENS7_9allocatorIS9_EEEEib,
                            __ZN11Nightingale12ngtProjector26update1stProjCoreAnalyticsERKNS_14ngt_PredictionERNS_26projRelatedCoreAnalytics_tE,
                            __ZN11Nightingale12ngtProjector27compute1stFWPeriodStart_calERNS_28fwEstimate1st_inOut_internalERNS_31periodPredict1st_inOut_internalERKNS_5uiLogERKNSt3__16vectorINS_12ngt_DayInputENS8_9allocatorISA_EEEE,
                            __ZN11Nightingale12ngtProjector27get1stFW_CompletePeriodProjERNS_28fwEstimate1st_inOut_internalERNS_31periodPredict1st_inOut_internalERNS_5uiLogERKNS_10ngt_ConfigERKNSt3__16vectorINS_12ngt_DayInputENSA_9allocatorISC_EEEEbRNS_24coreAnalyticsDayStream_tERNSA_8optionalINS_14ngt_PredictionEEESN_,
                            __ZN11Nightingale12ngtProjector27getCAPeriodPredictionMethodERNS_31periodPredict1st_inOut_internalE,
                            __ZN11Nightingale12ngtProjector27shrinkLowRangeToRmOverlapFWERNSt3__16vectorINS_14ngt_PredictionENS1_9allocatorIS3_EEEERKS6_b,
                            __ZN11Nightingale12ngtProjector28compute1stFWPeriodStart_lucyERNS_28fwEstimate1st_inOut_internalERNS_31periodPredict1st_inOut_internalERKS3_RNS_5uiLogERKNSt3__16vectorINS_12ngt_DayInputENS9_9allocatorISB_EEEENS9_4pairIiiEEibRNS_24coreAnalyticsDayStream_tENS9_12basic_stringIcNS9_11char_traitsIcEENSC_IcEEEE,
                            __ZN11Nightingale12ngtProjector28get1stPeriodProj_inPeriodNowERNS_15periodProjectorERNS_9cycleInfoE,
                            __ZN11Nightingale12ngtProjector28getCAFwEndConfirmationMethodENS_28fwEstimate1st_inOut_internalE,
                            __ZN11Nightingale12ngtProjector28print_a_ngt_periodPredictionENS_30periodPredictRest_out_internalENSt3__112basic_stringIcNS2_11char_traitsIcEENS2_9allocatorIcEEEE,
                            __ZN11Nightingale12ngtProjector30derive1stFWFrom1stSensorPeriodERNS_28fwEstimate1st_inOut_internalERNS_31periodPredict1st_inOut_internalEi,
                            __ZN11Nightingale12ngtProjector30print_vec_ngt_periodPredictionERKNSt3__16vectorINS_30periodPredictRest_out_internalENS1_9allocatorIS3_EEEENS1_12basic_stringIcNS1_11char_traitsIcEENS4_IcEEEE,
                            __ZN11Nightingale12ngtProjector32compute_daysOffsetFromCal_restFWERNS_14ngt_PredictionENS_30periodPredictRest_out_internalE,
                            __ZN11Nightingale12ngtProjector33reproductive_infinite_handling_fwERKNSt3__16vectorINS_14ngt_PredictionENS1_9allocatorIS3_EEEERNS1_4pairINS2_IiNS4_IiEEEENS2_INS_8PhaseSetENS4_ISC_EEEEEE,
                            __ZN11Nightingale12ngtProjector34convert_algUsed_fwInternal2surfaceERKNS_21algUsed_fwEndInternalE,
                            __ZN11Nightingale12ngtProjector35computeSensor_daysOffsetFromCal_1stERNS_28fwEstimate1st_inOut_internalERNS_31periodPredict1st_inOut_internalERKS1_RKS3_,
                            __ZN11Nightingale12ngtProjector36compute_daysOffsetFromCal_restPeriodERNS_30periodPredictRest_out_internalERKS1_,
                            __ZN11Nightingale12ngtProjector37reproductive_infinite_handling_periodERKNSt3__16vectorINS_14ngt_PredictionENS1_9allocatorIS3_EEEERNS1_4pairINS2_IiNS4_IiEEEENS2_INS_8PhaseSetENS4_ISC_EEEEEE,
                            __ZN11Nightingale12ngtProjector38convert_algUsed_periodInternal2surfaceERKNS_22algUsed_periodInternalE,
                            __ZN11Nightingale12ngtProjector39getCABoundedDaysBetweenTodayAndCalFwEndEi,
                            __ZN11Nightingale12ngtProjector44getCAtBoundedDaysBetweenFwEndAndNotificationEi,
                            __ZN11Nightingale12ngtProjector47convert_fwEstimate1st_inOut_internal_to_surfaceERKNS_28fwEstimate1st_inOut_internalEi,
                            __ZN11Nightingale12ngtProjector51convert_ngt_periodProjection_t_2_ngtGradientMetricsERKNS_22ngt_periodProjection_tE,
                            __ZN11Nightingale12ngtProjector56convert_periodPredictRest_out_internal_to_ngt_PredictionERKNS_30periodPredictRest_out_internalEi,
                            __ZN11Nightingale12ngtProjector9printDLinERKNS_13structDLIn_hrEbb,
                            __ZN11Nightingale12ngtProjector9projectorERNSt3__16vectorINS_14ngt_PredictionENS1_9allocatorIS3_EEEES7_RNS_14uiLogProcessorERNS_5uiLogERKNS_10ngt_ConfigERKNS2_INS_12ngt_DayInputENS4_ISF_EEEERNS1_4pairINS2_IiNS4_IiEEEENS2_INS_8PhaseSetENS4_ISN_EEEEEEbRNS_24coreAnalyticsDayStream_tE,
                            __ZN11Nightingale12ngtProjectorC1ERNS_10ngt_ConfigE,
                            __ZN11Nightingale12ngtProjectorC2ERNS_10ngt_ConfigE,
                            __ZN11Nightingale12ngtProjectorD1Ev,
                            __ZN11Nightingale12ngtProjectorD2Ev,
                            __ZN11Nightingale13getMissingCntERKNSt3__16vectorIfNS0_9allocatorIfEEEEf,
                            __ZN11Nightingale13getPercentileERNSt3__16vectorIfNS0_9allocatorIfEEEEf,
                            __ZN11Nightingale13pooledVar2WinERNSt3__16vectorIfNS0_9allocatorIfEEEES5_i,
                            __ZN11Nightingale14getVarianceWinERNSt3__16vectorIfNS0_9allocatorIfEEEEi,
                            __ZN11Nightingale14inputSpecCheckERNSt3__16vectorIfNS0_9allocatorIfEEEE,
                            __ZN11Nightingale14uiLogProcessor10get_centerENSt3__16vectorIfNS1_9allocatorIfEEEEb,
                            __ZN11Nightingale14uiLogProcessor11addCycleEndERNSt3__16vectorINS_9cycleInfoENS1_9allocatorIS3_EEEE,
                            __ZN11Nightingale14uiLogProcessor11guardConfigERNS_10ngt_ConfigERKNS_9jDayUILogE,
                            __ZN11Nightingale14uiLogProcessor12get_varianceENSt3__16vectorIfNS1_9allocatorIfEEEEdd,
                            __ZN11Nightingale14uiLogProcessor12hist_processERNSt3__16vectorINS_12ngt_DayInputENS1_9allocatorIS3_EEEERNS1_4pairINS2_IiNS4_IiEEEENS2_INS_8PhaseSetENS4_ISB_EEEEEE,
                            __ZN11Nightingale14uiLogProcessor12opk_2_cyclesERKNSt3__16vectorINS_12ngt_DayInputENS1_9allocatorIS3_EEEERNS2_INS_9cycleInfoENS4_IS9_EEEE,
                            __ZN11Nightingale14uiLogProcessor12prepareForDLERKNSt3__16vectorINS_12ngt_DayInputENS1_9allocatorIS3_EEEERKNS_5uiLogERKNS_10ngt_ConfigERNS_13structDLIn_hrE,
                            __ZN11Nightingale14uiLogProcessor13extractCyclesERKNSt3__16vectorINS_12ngt_DayInputENS1_9allocatorIS3_EEEERNS1_4pairINS2_IiNS4_IiEEEENS2_INS_8PhaseSetENS4_ISC_EEEEEERNS_10ngt_ConfigE,
                            __ZN11Nightingale14uiLogProcessor13fillUpMeanStdEffiiRNS_13structDLIn_hrE,
                            __ZN11Nightingale14uiLogProcessor13genCycleSlideERKNSt3__16vectorINS_9cycleInfoENS1_9allocatorIS3_EEEENS1_4pairINS_11whatInSlideEiEERKNS_10ngt_ConfigE,
                            __ZN11Nightingale14uiLogProcessor13get_jDayUILogERKNSt3__16vectorINS_12ngt_DayInputENS1_9allocatorIS3_EEEERNS1_4pairINS2_IiNS4_IiEEEENS2_INS_8PhaseSetENS4_ISC_EEEEEERNS_5uiLogERKNS_10ngt_ConfigE,
                            __ZN11Nightingale14uiLogProcessor13print_anUILogERKNS_5uiLogE,
                            __ZN11Nightingale14uiLogProcessor13removeOutlierERKNSt3__16vectorIfNS1_9allocatorIfEEEEf,
                            __ZN11Nightingale14uiLogProcessor14genPeriodSlideENSt3__16vectorINS_9cycleInfoENS1_9allocatorIS3_EEEEiRKNS_10ngt_ConfigEb,
                            __ZN11Nightingale14uiLogProcessor14getInPeriodNowERNS_5uiLogERKNS_10ngt_ConfigE,
                            __ZN11Nightingale14uiLogProcessor15calSlideMeanStdENSt3__16vectorIfNS1_9allocatorIfEEEEbff,
                            __ZN11Nightingale14uiLogProcessor15extract_periodsENSt3__16vectorIiNS1_9allocatorIiEEEENS2_INS_12menstrFlow_tENS3_IS6_EEEEiRNS1_4pairIS5_NS2_INS_8PhaseSetENS3_ISA_EEEEEERNS2_INS_9cycleInfoENS3_ISF_EEEE,
                            __ZN11Nightingale14uiLogProcessor15get_jDay1stFlowERKNSt3__16vectorINS_12ngt_DayInputENS1_9allocatorIS3_EEEERNS_9jDayUILogE,
                            __ZN11Nightingale14uiLogProcessor16fillUpMeanStdVecEffiiRNSt3__16vectorIfNS1_9allocatorIfEEEES6_,
                            __ZN11Nightingale14uiLogProcessor16get_jDayFirstOPKERKNSt3__16vectorINS_12ngt_DayInputENS1_9allocatorIS3_EEEERNS_9jDayUILogE,
                            __ZN11Nightingale14uiLogProcessor16vecPhaseContainsENSt3__16vectorINS_5PhaseENS1_9allocatorIS3_EEEES3_,
                            __ZN11Nightingale14uiLogProcessor17prepareUILogForHRERNS_13structDLIn_hrERKNSt3__16vectorINS_12ngt_DayInputENS3_9allocatorIS5_EEEERKNS_10ngt_ConfigERNS_5uiLogE,
                            __ZN11Nightingale14uiLogProcessor18getDLStartProcDateERKNS_10ngt_ConfigERKNS_9jDayUILogERKNSt3__16vectorINS_12ngt_DayInputENS7_9allocatorIS9_EEEERNS_13structDLIn_hrE,
                            __ZN11Nightingale14uiLogProcessor18get_jDay1stLastLogERNSt3__16vectorINS_12ngt_DayInputENS1_9allocatorIS3_EEEERNS1_4pairINS2_IiNS4_IiEEEENS2_INS_8PhaseSetENS4_ISB_EEEEEERNS_9jDayUILogE,
                            __ZN11Nightingale14uiLogProcessor18prepareDLSliceFlowERKNSt3__16vectorINS_12ngt_DayInputENS1_9allocatorIS3_EEEERKNS2_INS_9cycleInfoENS4_IS9_EEEERKNS_10ngt_ConfigEiiiNS1_4pairIffEE,
                            __ZN11Nightingale14uiLogProcessor21periodListToCycleInfoENSt3__16vectorINS1_4pairIiiEENS1_9allocatorIS4_EEEENS2_IbNS5_IbEEEERNS2_INS_9cycleInfoENS5_ISA_EEEE,
                            __ZN11Nightingale14uiLogProcessor22get_jDayLastFlowNoFlowERKNSt3__16vectorINS_12ngt_DayInputENS1_9allocatorIS3_EEEERNS_9jDayUILogE,
                            __ZN11Nightingale14uiLogProcessor22get_numPeriodsToKeepURERKNS_10ngt_ConfigERKNSt3__16vectorINS_9cycleInfoENS4_9allocatorIS6_EEEE,
                            __ZN11Nightingale14uiLogProcessor25get_whatShouldBeInSlideCCERKNS_10ngt_ConfigERKNSt3__16vectorINS_9cycleInfoENS4_9allocatorIS6_EEEENS4_4pairIiiEE,
                            __ZN11Nightingale14uiLogProcessor26prepareDLSliceCycleMeanStdERKNSt3__16vectorINS_12ngt_DayInputENS1_9allocatorIS3_EEEERNS_5uiLogERKNS_10ngt_ConfigEiiiNS1_4pairIffEESF_RNS2_IfNS4_IfEEEESI_,
                            __ZN11Nightingale14uiLogProcessor27getACyclePeriodSlideMeanStdENSt3__16vectorIfNS1_9allocatorIfEEEES5_RNS_9cycleInfoE,
                            __ZN11Nightingale14uiLogProcessor29getAllCyclePeriodSlideMeanStdERNS_5uiLogERKNS_10ngt_ConfigERKNS_13structDLIn_hrE,
                            __ZN11Nightingale14uiLogProcessor32get_jDay1stOPKAftLastPeriodStartERKNSt3__16vectorINS_12ngt_DayInputENS1_9allocatorIS3_EEEERNS2_INS_9cycleInfoENS4_IS9_EEEE,
                            __ZN11Nightingale14uiLogProcessor32get_jDayLastOPKPosBfr1stPeriodStEiRKNSt3__16vectorINS_12ngt_DayInputENS1_9allocatorIS3_EEEE,
                            __ZN11Nightingale14uiLogProcessor33getLastFewCyclePeriodSlideMeanStdERNS_5uiLogERKNS_10ngt_ConfigEi,
                            __ZN11Nightingale14uiLogProcessor36get_jDayLastNoFlowAftLastPeriodStartERKNSt3__16vectorINS_12ngt_DayInputENS1_9allocatorIS3_EEEERNS2_INS_9cycleInfoENS4_IS9_EEEE,
                            __ZN11Nightingale14uiLogProcessor7processERKNSt3__16vectorINS_12ngt_DayInputENS1_9allocatorIS3_EEEERNS1_4pairINS2_IiNS4_IiEEEENS2_INS_8PhaseSetENS4_ISC_EEEEEE,
                            __ZN11Nightingale14uiLogProcessorC1ENSt3__18optionalIfEE,
                            __ZN11Nightingale14uiLogProcessorC1Ev,
                            __ZN11Nightingale14uiLogProcessorC2ENSt3__18optionalIfEE,
                            __ZN11Nightingale14uiLogProcessorC2Ev,
                            __ZN11Nightingale14uiLogProcessorD1Ev,
                            __ZN11Nightingale14uiLogProcessorD2Ev,
                            __ZN11Nightingale15convolve_on_topERKNSt3__16vectorIfNS0_9allocatorIfEEEES6_RS4_b,
                            __ZN11Nightingale15periodProjector12getNullPointENSt3__18optionalIiEES3_i,
                            __ZN11Nightingale15periodProjector12get_gradientEffi,
                            __ZN11Nightingale15periodProjector12qualify_coefEd,
                            __ZN11Nightingale15periodProjector14getPeriodDL_hrERNS_31periodPredict1st_inOut_internalERKNS_9cycleInfoERKNS_13structDLIn_hrEi,
                            __ZN11Nightingale15periodProjector16getPeriodDL_lucyERNS_31periodPredict1st_inOut_internalERKNSt3__16vectorINS_12ngt_DayInputENS3_9allocatorIS5_EEEERNS_5uiLogERKNS_10ngt_ConfigENS3_4pairIiiEE,
                            __ZN11Nightingale15periodProjector16periodPredict_hrERNS_31periodPredict1st_inOut_internalERKNS_5uiLogERKNS_13structDLIn_hrEiRKNS_10ngt_ConfigE,
                            __ZN11Nightingale15periodProjector17getPeriodEP8_lucyERNS_31periodPredict1st_inOut_internalERKNS_9cycleInfoEi,
                            __ZN11Nightingale15periodProjector18periodPredict_lucyERNS_31periodPredict1st_inOut_internalERKNSt3__16vectorINS_12ngt_DayInputENS3_9allocatorIS5_EEEERNS_5uiLogERKNS_10ngt_ConfigENS3_4pairIiiEE,
                            __ZN11Nightingale15periodProjector19applyNoflowUpdateDLERNS_9CGradientEi,
                            __ZN11Nightingale15periodProjector19getDLPeriodStart_hrEiRKNS_13structDLIn_hrEi,
                            __ZN11Nightingale15periodProjector19get_gradient_lengthEff,
                            __ZN11Nightingale15periodProjector19period1stProjFromHRERKNS_22algUsed_periodInternalE,
                            __ZN11Nightingale15periodProjector19periodDLPostProcessERNSt3__16vectorIfNS1_9allocatorIfEEEEi,
                            __ZN11Nightingale15periodProjector21adjustForGradientNullEiffRNS_9CGradientE,
                            __ZN11Nightingale15periodProjector21deriveRestPeriodProjsERNS_31periodPredict1st_inOut_internalERKNS_5uiLogERKNS_10ngt_ConfigEi,
                            __ZN11Nightingale15periodProjector21enoughDataToRunLucyDLERKNS_31periodPredict1st_inOut_internalERKNS_5uiLogERKNS_10ngt_ConfigENSt3__14pairIiiEE,
                            __ZN11Nightingale15periodProjector21getDLPeriodStart_lucyERKNS_35ngt_lucy_DLin_periodRegressorLSTM_tERKNS_5uiLogEii,
                            __ZN11Nightingale15periodProjector21period1stProjFromLucyERKNS_22algUsed_periodInternalE,
                            __ZN11Nightingale15periodProjector22getCalBasedPeriodStartERNS_31periodPredict1st_inOut_internalEffibiii,
                            __ZN11Nightingale15periodProjector22getPeriodEndProjectionENS_9cycleInfoENSt3__16vectorIfNS2_9allocatorIfEEEE,
                            __ZN11Nightingale15periodProjector23computeLowRangeStartDurEbRNS_30periodPredictRest_out_internalENSt3__18optionalIiEEi,
                            __ZN11Nightingale15periodProjector23computeLowRangeStartEndEbRNS_22ngt_periodProjection_tENSt3__18optionalIiEEi,
                            __ZN11Nightingale15periodProjector23get_period_duration_pdfENS_9cycleInfoE,
                            __ZN11Nightingale15periodProjector23get_period_end_gradientERKNSt3__16vectorIfNS1_9allocatorIfEEEES7_,
                            __ZN11Nightingale15periodProjector23period1stProjFromSensorERKNS_22algUsed_periodInternalE,
                            __ZN11Nightingale15periodProjector24computeEndTailStartIndexERNS_22ngt_periodProjection_tEd,
                            __ZN11Nightingale15periodProjector24computeStartTailEndIndexERNS_22ngt_periodProjection_tEd,
                            __ZN11Nightingale15periodProjector24getDLBased1stPeriodStartERKNS_9cycleInfoENSt3__18optionalIiEERKNS_13structDLIn_hrEi,
                            __ZN11Nightingale15periodProjector25get_period_start_gradientEff,
                            __ZN11Nightingale15periodProjector25periodPredict1stStart_calERNS_31periodPredict1st_inOut_internalERKNS_5uiLogE,
                            __ZN11Nightingale15periodProjector28constructPeriodGradFromDLOutERNSt3__16vectorIfNS1_9allocatorIfEEEEiii,
                            __ZN11Nightingale15periodProjector30getCalBasedPeriodStartGradientEffi,
                            __ZN11Nightingale15periodProjector32checkDayToRunPeriodDLLessThanOPKENSt3__18optionalIiEEi,
                            __ZN11Nightingale15periodProjector37updatePeriod1stAlgsUsedLucyWhenExitDLERNS_31periodPredict1st_inOut_internalE,
                            __ZN11Nightingale15periodProjectorC1ENSt3__18optionalIiEE,
                            __ZN11Nightingale15periodProjectorC2ENSt3__18optionalIiEE,
                            __ZN11Nightingale15periodProjectorD1Ev,
                            __ZN11Nightingale15periodProjectorD2Ev,
                            __ZN11Nightingale16printVecOfReal_tERNSt3__16vectorIfNS0_9allocatorIfEEEENS0_12basic_stringIcNS0_11char_traitsIcEENS2_IcEEEESA_SA_,
                            __ZN11Nightingale18PredictorWrapper_t18predict_fwEndDetRFERKNS_23ngt_lucy_DLin_fwEndRF_tERNSt3__16vectorIfNS4_9allocatorIfEEEE,
                            __ZN11Nightingale18PredictorWrapper_t22predict_fwEndFlagDLTmpERKNS_25ngt_lucy_DLin_fwEndLSTM_tERNSt3__16vectorIfNS4_9allocatorIfEEEE,
                            __ZN11Nightingale18PredictorWrapper_t27predict_periodRegressorLSTMERKNS_35ngt_lucy_DLin_periodRegressorLSTM_tERNSt3__16vectorIfNS4_9allocatorIfEEEE,
                            __ZN11Nightingale18PredictorWrapper_tC1Ev,
                            __ZN11Nightingale18PredictorWrapper_tC2Ev,
                            __ZN11Nightingale18check2Real_t_equalEff,
                            __ZN11Nightingale18getSlidingWinScoreERNSt3__16vectorIfNS0_9allocatorIfEEEES5_f,
                            __ZN11Nightingale18sensorLogProcessor10print_vTmpENSt3__16vectorINS2_IfNS1_9allocatorIfEEEENS3_IS5_EEEENS1_12basic_stringIcNS1_11char_traitsIcEENS3_IcEEEESC_,
                            __ZN11Nightingale18sensorLogProcessor13clearDLSlicesERNS_29extractedLucyDayStreamSlice_tE,
                            __ZN11Nightingale18sensorLogProcessor15snrLowCheckCaliERKNSt3__16vectorIfNS1_9allocatorIfEEEEfii,
                            __ZN11Nightingale18sensorLogProcessor16getJDayIdx1stTmpERKNSt3__16vectorINS_12ngt_DayInputENS1_9allocatorIS3_EEEE,
                            __ZN11Nightingale18sensorLogProcessor16inputSpecCheckFWENSt3__16vectorIfNS1_9allocatorIfEEEES5_RNS_13structDLIn_hrE,
                            __ZN11Nightingale18sensorLogProcessor17checkWatchIdxFailERNSt3__16vectorINS2_IfNS1_9allocatorIfEEEENS3_IS5_EEEENS2_INS_19caliBestQualityPickENS3_IS9_EEEE,
                            __ZN11Nightingale18sensorLogProcessor19computeDay2DayNoiseERKNSt3__16vectorIfNS1_9allocatorIfEEEE,
                            __ZN11Nightingale18sensorLogProcessor19find1stSensorDataDLERKNSt3__16vectorINS_12ngt_DayInputENS1_9allocatorIS3_EEEEib,
                            __ZN11Nightingale18sensorLogProcessor19getOutlierRmvSegLenEii,
                            __ZN11Nightingale18sensorLogProcessor20inputSpecCheckPeriodENSt3__16vectorIfNS1_9allocatorIfEEEERNS_13structDLIn_hrE,
                            __ZN11Nightingale18sensorLogProcessor20preconditionLucyDLInERNS_29extractedLucyDayStreamSlice_tERKNSt3__16vectorINS_12ngt_DayInputENS3_9allocatorIS5_EEEENS3_4pairIffEENS3_12basic_stringIcNS3_11char_traitsIcEENS6_IcEEEE,
                            __ZN11Nightingale18sensorLogProcessor22getAWTmpEntryDailyDataERKNSt3__16vectorINS_12ngt_DayInputENS1_9allocatorIS3_EEEERii,
                            __ZN11Nightingale18sensorLogProcessor24pickBestCaliInFrmWatchesENSt3__16vectorINS2_IfNS1_9allocatorIfEEEENS3_IS5_EEEEiiiifRKNS2_IhNS3_IhEEEERS5_NS1_12basic_stringIcNS1_11char_traitsIcEENS3_IcEEEE,
                            __ZN11Nightingale18sensorLogProcessor25calMissPassRateAllDLSliceERKNSt3__16vectorIfNS1_9allocatorIfEEEES7_,
                            __ZN11Nightingale18sensorLogProcessor25day2dayNoiseHighCheckCaliERKNSt3__16vectorIfNS1_9allocatorIfEEEEf,
                            __ZN11Nightingale18sensorLogProcessor26extractCaliInputsJDayRangeERKNSt3__16vectorINS_12ngt_DayInputENS1_9allocatorIS3_EEEEiiNS1_4pairIiiEE,
                            __ZN11Nightingale18sensorLogProcessor28getSignalQualityCoreAnalyticENS_19signalQualityRate_tE,
                            __ZN11Nightingale18sensorLogProcessor28removeOutlierUsingSlidingWinERNSt3__16vectorIfNS1_9allocatorIfEEEEiif,
                            __ZN11Nightingale18sensorLogProcessor29extractLucyFwEndSlicesAndInfoEiiRNS_20extractCaliInputsRtnENSt3__112basic_stringIcNS3_11char_traitsIcEENS3_9allocatorIcEEEE,
                            __ZN11Nightingale18sensorLogProcessor29getLastValidSamplesFromRawTmpERKNS_20extractCaliInputsRtnERNSt3__16vectorIfNS4_9allocatorIfEEEE,
                            __ZN11Nightingale18sensorLogProcessor31fillvAvailabiltyBestPickedWatchERNSt3__16vectorINS_19caliBestQualityPickENS1_9allocatorIS3_EEEENS2_INS2_IfNS4_IfEEEENS4_IS9_EEEEi,
                            __ZN11Nightingale18sensorLogProcessor33dlStartCheckEnoughSensorDataForDLERKNS_13structDLIn_hrERKNSt3__16vectorINS_12ngt_DayInputENS4_9allocatorIS6_EEEE,
                            __ZN11Nightingale18sensorLogProcessor33extractWTmp_removeOutlier_withBufEiiRKNSt3__16vectorINS_12ngt_DayInputENS1_9allocatorIS3_EEEENS1_4pairIiiEENS1_12basic_stringIcNS1_11char_traitsIcEENS4_IcEEEE,
                            __ZN11Nightingale18sensorLogProcessor33print_extractedLucyDayStreamSliceENS_29extractedLucyDayStreamSlice_tENSt3__112basic_stringIcNS2_11char_traitsIcEENS2_9allocatorIcEEEES8_,
                            __ZN11Nightingale18sensorLogProcessor34getDLSlicesFromExtractedLSTMSlicesERKNS_20extractCaliInputsRtnEiiifbNSt3__112basic_stringIcNS4_11char_traitsIcEENS4_9allocatorIcEEEE,
                            __ZN11Nightingale18sensorLogProcessor44extractWTmp_removeOutlier_withBuf_from1stTmpEiiRKNSt3__16vectorINS_12ngt_DayInputENS1_9allocatorIS3_EEEENS1_4pairIiiEENS1_12basic_stringIcNS1_11char_traitsIcEENS4_IcEEEE,
                            __ZN11Nightingale18sensorLogProcessor7processERNS_13structDLIn_hrERKNSt3__16vectorINS_12ngt_DayInputENS3_9allocatorIS5_EEEERKNS_9jDayUILogERKNS_10ngt_ConfigEb,
                            __ZN11Nightingale19checkNumTmpSwitchesENSt3__16vectorIfNS0_9allocatorIfEEEEfi,
                            __ZN11Nightingale19getLowRangeStartDurEff,
                            __ZN11Nightingale19ngt_lucy_RF_process19ngt_lucy_fwEndDetRFERKNS_23ngt_lucy_DLin_fwEndRF_tERNSt3__16vectorIfNS4_9allocatorIfEEEE,
                            __ZN11Nightingale19ngt_lucy_RF_processC1Ev,
                            __ZN11Nightingale19ngt_lucy_RF_processC2Ev,
                            __ZN11Nightingale19vecStandarizationDLERNSt3__16vectorIfNS0_9allocatorIfEEEENS0_4pairIffEE,
                            __ZN11Nightingale20fwPredictorWrapper_t9predictFWERKNS_13ngt_hr_DLin_tERNSt3__16vectorIfNS4_9allocatorIfEEEE,
                            __ZN11Nightingale20fwPredictorWrapper_tC1Ev,
                            __ZN11Nightingale20fwPredictorWrapper_tC2Ev,
                            __ZN11Nightingale20getFWFromPeriodStartEi,
                            __ZN11Nightingale20ngt_dnn_fw_predict_t18ngt_dnn_process_fwERKNS_13ngt_hr_DLin_tERNSt3__16vectorIfNS4_9allocatorIfEEEE,
                            __ZN11Nightingale20ngt_dnn_fw_predict_tC1Ev,
                            __ZN11Nightingale20ngt_dnn_fw_predict_tC2Ev,
                            __ZN11Nightingale20phaseFactorProcessor12detectPhasesENSt3__14pairIiiEENS1_6vectorINS_5PhaseENS1_9allocatorIS5_EEEERNS2_INS4_IiNS6_IiEEEENS4_INS_8PhaseSetENS6_ISB_EEEEEE,
                            __ZN11Nightingale20phaseFactorProcessor13isEndOfAPhaseEiNSt3__14pairIiiEERNS2_INS1_6vectorIiNS1_9allocatorIiEEEENS4_INS_8PhaseSetENS5_IS8_EEEEEENS_5PhaseE,
                            __ZN11Nightingale20phaseFactorProcessor14getAllCycleVecEv,
                            __ZN11Nightingale20phaseFactorProcessor14suppressFWHistERNSt3__16vectorINS_17ngt_HistoricCycleENS1_9allocatorIS3_EEEERNS1_4pairINS2_IiNS4_IiEEEENS2_INS_8PhaseSetENS4_ISB_EEEEEE,
                            __ZN11Nightingale20phaseFactorProcessor15isStartOfAPhaseEiNSt3__14pairIiiEERNS2_INS1_6vectorIiNS1_9allocatorIiEEEENS4_INS_8PhaseSetENS5_IS8_EEEEEENS_5PhaseE,
                            __ZN11Nightingale20phaseFactorProcessor15suppressFWStEndERNSt3__18optionalIiEES4_RNS1_4pairINS1_6vectorIiNS1_9allocatorIiEEEENS6_INS_8PhaseSetENS7_ISA_EEEEEE,
                            __ZN11Nightingale20phaseFactorProcessor17tagPhaseJDayRangeENSt3__14pairIiiEERNS2_INS1_6vectorIiNS1_9allocatorIiEEEENS4_INS_8PhaseSetENS5_IS8_EEEEEERNS4_INS_5PhaseENS5_ISD_EEEE,
                            __ZN11Nightingale20phaseFactorProcessor19tagHistReproductiveERNSt3__16vectorINS_17ngt_HistoricCycleENS1_9allocatorIS3_EEEERNS1_4pairINS2_IiNS4_IiEEEENS2_INS_8PhaseSetENS4_ISB_EEEEEE,
                            __ZN11Nightingale20phaseFactorProcessor20detectPhaseJDayRangeENSt3__14pairIiiEERKNS1_6vectorIiNS1_9allocatorIiEEEE,
                            __ZN11Nightingale20phaseFactorProcessor20failReproAProjectionENS_14ngt_PredictionERKNSt3__16vectorINS_5PhaseENS2_9allocatorIS4_EEEERNS2_4pairINS3_IiNS5_IiEEEENS3_INS_8PhaseSetENS5_ISD_EEEEEE,
                            __ZN11Nightingale20phaseFactorProcessor20projectedFWFailReproENS_14ngt_PredictionERNSt3__14pairINS2_6vectorIiNS2_9allocatorIiEEEENS4_INS_8PhaseSetENS5_IS8_EEEEEE,
                            __ZN11Nightingale20phaseFactorProcessor22jDayLastEndOfAPhaseSetERNSt3__14pairINS1_6vectorIiNS1_9allocatorIiEEEENS3_INS_8PhaseSetENS4_IS7_EEEEEERKNS3_INS_5PhaseENS4_ISC_EEEE,
                            __ZN11Nightingale20phaseFactorProcessor24ccMenstCycleLen_handlingERNSt3__14pairINS1_6vectorIiNS1_9allocatorIiEEEENS3_INS_8PhaseSetENS4_IS7_EEEEEERKNS3_INS_5PhaseENS4_ISC_EEEE,
                            __ZN11Nightingale20phaseFactorProcessor24projectedPeriodFailReproENS_14ngt_PredictionERNSt3__14pairINS2_6vectorIiNS2_9allocatorIiEEEENS4_INS_8PhaseSetENS5_IS8_EEEEEE,
                            __ZN11Nightingale20phaseFactorProcessor24tagCycleInfoReproductiveERNSt3__16vectorINS_9cycleInfoENS1_9allocatorIS3_EEEERNS1_4pairINS2_IiNS4_IiEEEENS2_INS_8PhaseSetENS4_ISB_EEEEEE,
                            __ZN11Nightingale20phaseFactorProcessor26suppressPeriodReproductiveERNSt3__16vectorINS1_4pairIiiEENS1_9allocatorIS4_EEEERNS3_INS2_IiNS5_IiEEEENS2_INS_8PhaseSetENS5_ISB_EEEEEE,
                            __ZN11Nightingale20phaseFactorProcessor29findEndOfReproductiveBfrADateERNSt3__14pairINS1_6vectorIiNS1_9allocatorIiEEEENS3_INS_8PhaseSetENS4_IS7_EEEEEERKNS3_INS_5PhaseENS4_ISC_EEEEi,
                            __ZN11Nightingale20phaseFactorProcessor32jDayFirstStartLastEndOfAPhaseSetERNSt3__14pairINS1_6vectorIiNS1_9allocatorIiEEEENS3_INS_8PhaseSetENS4_IS7_EEEEEERKNS3_INS_5PhaseENS4_ISC_EEEE,
                            __ZN11Nightingale20phaseFactorProcessor34containAnyCycleFactorsButLactationERKNSt3__16vectorINS_5PhaseENS1_9allocatorIS3_EEEE,
                            __ZN11Nightingale20phaseFactorProcessor8getCCVecEv,
                            __ZN11Nightingale21getIdxOfMinValFromVecERNSt3__16vectorIiNS0_9allocatorIiEEEE,
                            __ZN11Nightingale21getMeanDiffOf2WindowsERNSt3__16vectorIfNS0_9allocatorIfEEEES5_f,
                            __ZN11Nightingale21getSubVecLen_VecOfVecENSt3__16vectorINS1_IfNS0_9allocatorIfEEEENS2_IS4_EEEE,
                            __ZN11Nightingale21ngt_deviationAnalyzer11detectIrregENSt3__18optionalIiEES3_RKNS_5uiLogERNS1_4pairINS1_6vectorIiNS1_9allocatorIiEEEENS8_INS_8PhaseSetENS9_ISC_EEEEEEibRNS_12deviationOutERNS_18deviationIrregMetaE,
                            __ZN11Nightingale21ngt_deviationAnalyzer11ruleCheckerENSt3__18optionalIiEES3_iiRKNS_5uiLogERNS1_4pairINS1_6vectorIiNS1_9allocatorIiEEEENS8_INS_8PhaseSetENS9_ISC_EEEEEEibRNS_19deviationCommonMetaE,
                            __ZN11Nightingale21ngt_deviationAnalyzer12detectInfreqENSt3__18optionalIiEES3_RKNS_5uiLogERNS1_4pairINS1_6vectorIiNS1_9allocatorIiEEEENS8_INS_8PhaseSetENS9_ISC_EEEEEEibRNS_12deviationOutERNS_19deviationInfreqMetaE,
                            __ZN11Nightingale21ngt_deviationAnalyzer14detectSpottingENSt3__18optionalIiEES3_NS1_6vectorINS_12ngt_DayInputENS1_9allocatorIS5_EEEERKNS_5uiLogERNS1_4pairINS4_IiNS6_IiEEEENS4_INS_8PhaseSetENS6_ISF_EEEEEEibRNS_12deviationOutERNS_21deviationSpottingMetaE,
                            __ZN11Nightingale21ngt_deviationAnalyzer15detectProlongedENSt3__18optionalIiEES3_RKNS_5uiLogERNS1_4pairINS1_6vectorIiNS1_9allocatorIiEEEENS8_INS_8PhaseSetENS9_ISC_EEEEEEibRNS_12deviationOutERNS_20deviationProlongMetaE,
                            __ZN11Nightingale21ngt_deviationAnalyzer17deviation_processERNS_10ngt_ConfigERNSt3__16vectorINS_12ngt_DayInputENS3_9allocatorIS5_EEEERNS_5uiLogERNS3_4pairINS4_IiNS6_IiEEEENS4_INS_8PhaseSetENS6_ISF_EEEEEENS3_8optionalIiEEb,
                            __ZN11Nightingale21ngt_deviationAnalyzer21checkCycleFactorInWinEiiRNSt3__14pairINS1_6vectorIiNS1_9allocatorIiEEEENS3_INS_8PhaseSetENS4_IS7_EEEEEE,
                            __ZN11Nightingale21ngt_deviationAnalyzer25extendPeriodWFlowSpottingEiiNSt3__16vectorINS_12ngt_DayInputENS1_9allocatorIS3_EEEERKNS_5uiLogE,
                            __ZN11Nightingale21ngt_deviationAnalyzer28findCycleFactorsEndBfrWinEndEiRNSt3__14pairINS1_6vectorIiNS1_9allocatorIiEEEENS3_INS_8PhaseSetENS4_IS7_EEEEEE,
                            __ZN11Nightingale21ngt_deviationAnalyzer31findNonAdjacentSpottingInACycleERKNSt3__16vectorINS_9cycleInfoENS1_9allocatorIS3_EEEEiRi,
                            __ZN11Nightingale21ngt_deviationAnalyzerC1Ev,
                            __ZN11Nightingale21ngt_deviationAnalyzerC2Ev,
                            __ZN11Nightingale21ngt_deviationAnalyzerD1Ev,
                            __ZN11Nightingale21ngt_deviationAnalyzerD2Ev,
                            __ZN11Nightingale21passMissingRateASliceERKNSt3__16vectorIfNS0_9allocatorIfEEEEff,
                            __ZN11Nightingale21printVecOfVecOfReal_tERNSt3__16vectorINS1_IfNS0_9allocatorIfEEEENS2_IS4_EEEENS0_12basic_stringIcNS0_11char_traitsIcEENS2_IcEEEESC_SC_,
                            __ZN11Nightingale22getSmoothedPow_aSampleERKNSt3__16vectorIfNS0_9allocatorIfEEEES6_,
                            __ZN11Nightingale22ngt_DayStreamProcessor10printStatsENS_9ngt_StatsE,
                            __ZN11Nightingale22ngt_DayStreamProcessor13compute_statsENSt3__16vectorINS_9cycleInfoENS1_9allocatorIS3_EEEERNS_10ngt_ConfigERNS1_4pairINS2_IiNS4_IiEEEENS2_INS_8PhaseSetENS4_ISC_EEEEEEb,
                            __ZN11Nightingale22ngt_DayStreamProcessor14appendPhaseSetENS_8PhaseSetEi,
                            __ZN11Nightingale22ngt_DayStreamProcessor14inactiveDetectERNS_5uiLogERNSt3__14pairINS3_6vectorIiNS3_9allocatorIiEEEENS5_INS_8PhaseSetENS6_IS9_EEEEEENS3_8optionalIiEESF_,
                            __ZN11Nightingale22ngt_DayStreamProcessor15printDeviationsENS_19ngt_DeviationOutSetE,
                            __ZN11Nightingale22ngt_DayStreamProcessor23printInputDayStreamProcERKNSt3__16vectorINS_12ngt_DayInputENS1_9allocatorIS3_EEEERNS1_4pairINS2_IiNS4_IiEEEENS2_INS_8PhaseSetENS4_ISC_EEEEEERKNS_10ngt_ConfigE,
                            __ZN11Nightingale22ngt_DayStreamProcessor7analyzeENSt3__18optionalIiEEb,
                            __ZN11Nightingale22ngt_DayStreamProcessor9appendDayERNS_12ngt_DayInputE,
                            __ZN11Nightingale22ngt_DayStreamProcessorC1ERNS_10ngt_ConfigE,
                            __ZN11Nightingale22ngt_DayStreamProcessorC2ERNS_10ngt_ConfigE,
                            __ZN11Nightingale22ngt_DayStreamProcessorD1Ev,
                            __ZN11Nightingale22ngt_DayStreamProcessorD2Ev,
                            __ZN11Nightingale22ngt_HistoricalAnalyzer14appendPhaseSetENS_8PhaseSetEi,
                            __ZN11Nightingale22ngt_HistoricalAnalyzer21getCAFractionOfCyclesEf,
                            __ZN11Nightingale22ngt_HistoricalAnalyzer23getCAFwEndEstimateErrorEf,
                            __ZN11Nightingale22ngt_HistoricalAnalyzer23getCoreAnalyticsContentERNS_5uiLogENSt3__14pairIiiEERNS3_6vectorINS_27coreAnalyticsHistPerCycle_tENS3_9allocatorIS7_EEEE,
                            __ZN11Nightingale22ngt_HistoricalAnalyzer23getHasMultipleWatchHistEiNSt3__14pairIiiEE,
                            __ZN11Nightingale22ngt_HistoricalAnalyzer24constructePseudo1stCycleEiiiRKNSt3__16vectorINS_12ngt_DayInputENS1_9allocatorIS3_EEEE,
                            __ZN11Nightingale22ngt_HistoricalAnalyzer26getCASignalAtFwEndEstimateEf,
                            __ZN11Nightingale22ngt_HistoricalAnalyzer7analyzeEb,
                            __ZN11Nightingale22ngt_HistoricalAnalyzer9appendDayERNS_12ngt_DayInputE,
                            __ZN11Nightingale22ngt_HistoricalAnalyzerC1Ev,
                            __ZN11Nightingale22ngt_HistoricalAnalyzerC2Ev,
                            __ZN11Nightingale22ngt_HistoricalAnalyzerD1Ev,
                            __ZN11Nightingale22ngt_HistoricalAnalyzerD2Ev,
                            __ZN11Nightingale24ngt_dnn_period_predict_t22ngt_dnn_process_periodERKNS_13ngt_hr_DLin_tERNSt3__16vectorIfNS4_9allocatorIfEEEE,
                            __ZN11Nightingale24ngt_dnn_period_predict_tC1Ev,
                            __ZN11Nightingale24ngt_dnn_period_predict_tC2Ev,
                            __ZN11Nightingale24periodPredictorWrapper_t13predictPeriodERKNS_13ngt_hr_DLin_tERNSt3__16vectorIfNS4_9allocatorIfEEEE,
                            __ZN11Nightingale24periodPredictorWrapper_tC1Ev,
                            __ZN11Nightingale24periodPredictorWrapper_tC2Ev,
                            __ZN11Nightingale26ngt_lucy_fwEndLSTM_process23ngt_lucy_fwEndFlagDLTmpERKNS_25ngt_lucy_DLin_fwEndLSTM_tERNSt3__16vectorIfNS4_9allocatorIfEEEE,
                            __ZN11Nightingale26ngt_lucy_fwEndLSTM_processC1Ev,
                            __ZN11Nightingale26ngt_lucy_fwEndLSTM_processC2Ev,
                            __ZN11Nightingale27checkOffsetGetSegFromVectorEiii,
                            __ZN11Nightingale27ngt_lucy_periodLSTM_process28ngt_lucy_periodRegressorLSTMERKNS_35ngt_lucy_DLin_periodRegressorLSTM_tERNSt3__16vectorIfNS4_9allocatorIfEEEE,
                            __ZN11Nightingale27ngt_lucy_periodLSTM_processC1Ev,
                            __ZN11Nightingale27ngt_lucy_periodLSTM_processC2Ev,
                            __ZN11Nightingale40addEntryToNewextractedLucyDayStreamSliceERNS_29extractedLucyDayStreamSlice_tES1_i,
                            __ZN11Nightingale4vVarENSt3__16vectorIfNS0_9allocatorIfEEEE,
                            __ZN11Nightingale5vMeanENSt3__16vectorIfNS0_9allocatorIfEEEE,
                            __ZN11Nightingale6cumsumERNSt3__16vectorIfNS0_9allocatorIfEEEE,
                            __ZN11Nightingale7get_cdfENSt3__16vectorIfNS0_9allocatorIfEEEERS4_b,
                            __ZN11Nightingale7get_madENSt3__16vectorIfNS0_9allocatorIfEEEEb,
                            __ZN11Nightingale7vDemeanERNSt3__16vectorIfNS0_9allocatorIfEEEE,
                            __ZN11Nightingale7vMedianENSt3__16vectorIfNS0_9allocatorIfEEEE,
                            __ZN11Nightingale8PhaseSet22phasesOnInPhaseSet2VecERNSt3__16vectorINS_5PhaseENS1_9allocatorIS3_EEEE,
                            __ZN11Nightingale8PhaseSet3addENS_5PhaseE,
                            __ZN11Nightingale8PhaseSet6removeENS_5PhaseE,
                            __ZN11Nightingale8PhaseSet8containsENS_5PhaseE,
                            __ZN11Nightingale8convolveERKNSt3__16vectorIfNS0_9allocatorIfEEEES6_RS4_,
                            __ZN11Nightingale8getLogitEf,
                            __ZN11Nightingale9CGradient12set_delta_atEm,
                            __ZN11Nightingale9CGradient13get_vGrad_lenEv,
                            __ZN11Nightingale9CGradient15annihilateEarlyEm,
                            __ZN11Nightingale9CGradient27set_isNull_if_grad_allZerosEv,
                            __ZN11Nightingale9CGradient9normalizeEv,
                            __ZN11Nightingale9CGradient9push_backEd,
                            __ZN11Nightingale9CGradient9set_vGradERKNSt3__16vectorIfNS1_9allocatorIfEEEE,
                            __ZN11Nightingale9CGradientC1ERKNSt3__16vectorIfNS1_9allocatorIfEEEE,
                            __ZN11Nightingale9CGradientC1Ev,
                            __ZN11Nightingale9CGradientC2ERKNSt3__16vectorIfNS1_9allocatorIfEEEE,
                            __ZN11Nightingale9CGradientC2Ev,
                            __ZN11Nightingale9gamma_pdfEddd,
                            __ZN16HealthAlgorithms14PhaseCondenser11begin_phaseEN11Nightingale5PhaseEi,
                            __ZN16HealthAlgorithms14PhaseCondenser25flatten_counted_phase_setENSt3__15arrayIsLm9EEE,
                            __ZN16HealthAlgorithms14PhaseCondenser9end_phaseEN11Nightingale5PhaseEi,
                            __ZN16HealthAlgorithms14deviationInputEP35HAMenstrualAlgorithmsDeviationInput,
                            __ZN16HealthAlgorithms17deviationAnalysisERKN11Nightingale19ngt_DeviationOutSetE,
                            __ZN16HealthAlgorithms30deviationAnalysisCoreAnalyticsERKN11Nightingale19ngt_DeviationOutSetEP38HAMenstrualAlgorithmsDeviationAnalysis,
                            __ZN16HealthAlgorithms33deviationAnalysisHIDCoreAnalyticsERKN11Nightingale19ngt_DeviationOutSetEP8NSStringbP8NSNumber,
                            __ZN16HealthAlgorithms40deviationSpottingMetricsForCoreAnalyticsERKN11Nightingale21deviationSpottingMetaE,
                            __ZN16HealthAlgorithms41deviationIrregularMetricsForCoreAnalyticsERKN11Nightingale18deviationIrregMetaE,
                            __ZN16HealthAlgorithms41deviationProlongedMetricsForCoreAnalyticsERKN11Nightingale20deviationProlongMetaE,
                            __ZN16HealthAlgorithms42deviationInfrequentMetricsForCoreAnalyticsERKN11Nightingale19deviationInfreqMetaE,
                            __ZN16HealthAlgorithms9deviationERKN11Nightingale12deviationOutE,
                            __ZNK11Nightingale9CGradient10get_isNullEv,
                            __ZNK11Nightingale9CGradient12get_varianceEv,
                            __ZNK11Nightingale9CGradient15get_expectationEv,
                            __ZNK11Nightingale9CGradient18get_list_referenceEv,
                            __ZNK11Nightingale9CGradient7get_stdEv,
                            __ZNK16HealthAlgorithms14PhaseCondenser13phase_updatesEv,
                            _ha_get_log, _ha_sensitive_logging_is_enabled ]
    objc-classes:         [ MAIDayStreamDiagnosticLogger, MAIDayStreamProcessor,
                            MAIDiagnosticLogger, MAIHistoricalAnalyzer,
                            MAIHistoricalDiagnosticLogger ]
    weak-def-symbols:     [ __ZTIN8nlohmann6detail10type_errorE,
                            __ZTIN8nlohmann6detail11other_errorE,
                            __ZTIN8nlohmann6detail11parse_errorE,
                            __ZTIN8nlohmann6detail12out_of_rangeE,
                            __ZTIN8nlohmann6detail16invalid_iteratorE,
                            __ZTIN8nlohmann6detail21output_stream_adapterIcEE,
                            __ZTIN8nlohmann6detail23output_adapter_protocolIcEE,
                            __ZTIN8nlohmann6detail9exceptionE,
                            __ZTINSt3__117bad_function_callE,
                            __ZTINSt3__120__shared_ptr_emplaceIN8nlohmann10basic_jsonINS_3mapENS_6vectorENS_12basic_stringIcNS_11char_traitsIcEENS_9allocatorIcEEEEbxydS8_NS1_14adl_serializerENS4_IhNS8_IhEEEEEENS8_ISE_EEEE,
                            __ZTINSt3__120__shared_ptr_emplaceIN8nlohmann6detail21output_stream_adapterIcEENS_9allocatorIS4_EEEE,
                            __ZTINSt3__120__shared_ptr_emplaceINS_14basic_ofstreamIcNS_11char_traitsIcEEEENS_9allocatorIS4_EEEE,
                            __ZTSN8nlohmann6detail10type_errorE,
                            __ZTSN8nlohmann6detail11other_errorE,
                            __ZTSN8nlohmann6detail11parse_errorE,
                            __ZTSN8nlohmann6detail12out_of_rangeE,
                            __ZTSN8nlohmann6detail16invalid_iteratorE,
                            __ZTSN8nlohmann6detail21output_stream_adapterIcEE,
                            __ZTSN8nlohmann6detail23output_adapter_protocolIcEE,
                            __ZTSN8nlohmann6detail9exceptionE,
                            __ZTSNSt3__117bad_function_callE,
                            __ZTSNSt3__120__shared_ptr_emplaceIN8nlohmann10basic_jsonINS_3mapENS_6vectorENS_12basic_stringIcNS_11char_traitsIcEENS_9allocatorIcEEEEbxydS8_NS1_14adl_serializerENS4_IhNS8_IhEEEEEENS8_ISE_EEEE,
                            __ZTSNSt3__120__shared_ptr_emplaceIN8nlohmann6detail21output_stream_adapterIcEENS_9allocatorIS4_EEEE,
                            __ZTSNSt3__120__shared_ptr_emplaceINS_14basic_ofstreamIcNS_11char_traitsIcEEEENS_9allocatorIS4_EEEE ]
...
