--- !tapi-tbd
tbd-version:     4
targets:         [ armv7-ios, armv7s-ios, arm64-ios, arm64e-ios ]
install-name:    '/usr/lib/swift/libswiftRemoteMirror.dylib'
current-version: 0
exports:
  - targets:         [ armv7-ios, armv7s-ios, arm64-ios, arm64e-ios ]
    symbols:         [ _swift_reflection_actorInfo, _swift_reflection_addImage, _swift_reflection_addReflectionInfo, 
                       _swift_reflection_addReflectionMappingInfo, _swift_reflection_allocationMetadataPointer, 
                       _swift_reflection_asyncTaskInfo, _swift_reflection_asyncTaskSlabAllocations, 
                       _swift_reflection_asyncTaskSlabPointer, _swift_reflection_childOfInstance, 
                       _swift_reflection_childOfMetadata, _swift_reflection_childOfTypeRef, 
                       _swift_reflection_classIsSwiftMask, _swift_reflection_copyDemangledNameForProtocolDescriptor, 
                       _swift_reflection_copyDemangledNameForTypeRef, _swift_reflection_copyNameForTypeRef, 
                       _swift_reflection_createReflectionContext, _swift_reflection_createReflectionContextWithDataLayout, 
                       _swift_reflection_demangle, _swift_reflection_destroyReflectionContext, 
                       _swift_reflection_dumpInfoForInstance, _swift_reflection_dumpInfoForMetadata, 
                       _swift_reflection_dumpInfoForTypeRef, _swift_reflection_dumpTypeRef, 
                       _swift_reflection_genericArgumentCountOfTypeRef, _swift_reflection_genericArgumentOfTypeRef, 
                       _swift_reflection_getSupportedMetadataVersion, _swift_reflection_infoForInstance, 
                       _swift_reflection_infoForMetadata, _swift_reflection_infoForTypeRef, 
                       _swift_reflection_iterateConformanceCache, _swift_reflection_iterateMetadataAllocationBacktraces, 
                       _swift_reflection_iterateMetadataAllocations, _swift_reflection_libraryVersion, 
                       _swift_reflection_metadataAllocationCacheNode, _swift_reflection_metadataAllocationTagName, 
                       _swift_reflection_metadataForObject, _swift_reflection_metadataIsActor, 
                       _swift_reflection_metadataNominalTypeDescriptor, _swift_reflection_nextJob, 
                       _swift_reflection_ownsAddress, _swift_reflection_ownsAddressStrict, 
                       _swift_reflection_ownsObject, _swift_reflection_projectEnumValue, 
                       _swift_reflection_projectExistential, _swift_reflection_projectExistentialAndUnwrapClass, 
                       _swift_reflection_readIsaMask, _swift_reflection_typeRefForInstance, 
                       _swift_reflection_typeRefForMangledTypeName, _swift_reflection_typeRefForMetadata ]
  - targets:         [ arm64-ios, arm64e-ios ]
    symbols:         [ __Z15getTypeInfoKindRKN5swift10reflection8TypeInfoE, __Z20matchSequenceOfKindsPN5swift8Demangle9__runtime4NodeENSt3__16vectorINS4_5tupleIJNS2_4KindEmEEENS4_9allocatorIS8_EEEE, 
                       __ZN5swift10reflection13OpaqueTypeRef3getEv, __ZN5swift10reflection13OpaqueTypeRef9SingletonE, 
                       __ZN5swift10reflection13TypeConverter11getTypeInfoEPKNS0_7TypeRefEPNS_6remote16TypeInfoProviderE, 
                       __ZN5swift10reflection13TypeConverter12hasFixedSizeEPKNS0_7TypeRefE, 
                       __ZN5swift10reflection13TypeConverter16getEmptyTypeInfoEv, 
                       __ZN5swift10reflection13TypeConverter20getRawPointerTypeRefEv, 
                       __ZN5swift10reflection13TypeConverter20getReferenceTypeInfoENS0_13ReferenceKindENS0_17ReferenceCountingE, 
                       __ZN5swift10reflection13TypeConverter21getAnyMetatypeTypeRefEv, 
                       __ZN5swift10reflection13TypeConverter22getAnyMetatypeTypeInfoEv, 
                       __ZN5swift10reflection13TypeConverter22getNativeObjectTypeRefEv, 
                       __ZN5swift10reflection13TypeConverter22getThinFunctionTypeRefEv, 
                       __ZN5swift10reflection13TypeConverter23getThinFunctionTypeInfoEv, 
                       __ZN5swift10reflection13TypeConverter23getUnknownObjectTypeRefEv, 
                       __ZN5swift10reflection13TypeConverter24getClassInstanceTypeInfoEPKNS0_7TypeRefEjPNS_6remote16TypeInfoProviderE, 
                       __ZN5swift10reflection13TypeConverter24getThickFunctionTypeInfoEv, 
                       __ZN5swift10reflection13TypeConverter30getDefaultActorStorageTypeInfoEv, 
                       __ZN5swift10reflection14TypeRefBuilder16getFieldTypeRefsEPKNS0_7TypeRefERNS0_19FieldDescriptorBaseEPNS_6remote16TypeInfoProviderERNSt3__16vectorINS0_13FieldTypeInfoENSA_9allocatorISC_EEEE, 
                       __ZN5swift10reflection14TypeRefBuilder16lookupSuperclassEPKNS0_7TypeRefE, 
                       __ZN5swift10reflection14TypeRefBuilder17decodeMangledTypeEPNS_8Demangle9__runtime4NodeEb, 
                       __ZN5swift10reflection14TypeRefBuilder18getFieldDescriptorEPKNS0_7TypeRefE, 
                       __ZN5swift10reflection14TypeRefBuilder24getBuiltinTypeDescriptorEPKNS0_7TypeRefE, 
                       __ZN5swift10reflection14TypeRefBuilder29getMultiPayloadEnumDescriptorEPKNS0_7TypeRefE, 
                       __ZN5swift10reflection14TypeRefBuilder30ReflectionTypeDescriptorFinder11dumpTypeRefENS_6remote9RemoteRefIcEERNSt3__113basic_ostreamIcNS6_11char_traitsIcEEEEb, 
                       __ZN5swift10reflection14TypeRefBuilder30ReflectionTypeDescriptorFinder11readTypeRefEy, 
                       __ZN5swift10reflection14TypeRefBuilder30ReflectionTypeDescriptorFinder16dumpFieldSectionERNSt3__113basic_ostreamIcNS3_11char_traitsIcEEEE, 
                       __ZN5swift10reflection14TypeRefBuilder30ReflectionTypeDescriptorFinder16getFieldTypeInfoEPKNS0_7TypeRefE, 
                       __ZN5swift10reflection14TypeRefBuilder30ReflectionTypeDescriptorFinder17collectFieldTypesENSt3__18optionalINS3_12basic_stringIcNS3_11char_traitsIcEENS3_9allocatorIcEEEEEE, 
                       __ZN5swift10reflection14TypeRefBuilder30ReflectionTypeDescriptorFinder17lookupTypeWitnessERKNSt3__112basic_stringIcNS3_11char_traitsIcEENS3_9allocatorIcEEEESB_N7__swift9__runtime4llvm9StringRefE, 
                       __ZN5swift10reflection14TypeRefBuilder30ReflectionTypeDescriptorFinder18dumpCaptureSectionERNSt3__113basic_ostreamIcNS3_11char_traitsIcEEEE, 
                       __ZN5swift10reflection14TypeRefBuilder30ReflectionTypeDescriptorFinder18getBuiltinTypeInfoEPKNS0_7TypeRefE, 
                       __ZN5swift10reflection14TypeRefBuilder30ReflectionTypeDescriptorFinder18getFieldDescriptorEPKNS0_7TypeRefE, 
                       __ZN5swift10reflection14TypeRefBuilder30ReflectionTypeDescriptorFinder20getCaptureDescriptorEy, 
                       __ZN5swift10reflection14TypeRefBuilder30ReflectionTypeDescriptorFinder21getClosureContextInfoENS_6remote9RemoteRefINS0_17CaptureDescriptorEEE, 
                       __ZN5swift10reflection14TypeRefBuilder30ReflectionTypeDescriptorFinder21reflectionNameMatchesENS_6remote9RemoteRefIcEEN7__swift9__runtime4llvm9StringRefE, 
                       __ZN5swift10reflection14TypeRefBuilder30ReflectionTypeDescriptorFinder22dumpBuiltinTypeSectionERNSt3__113basic_ostreamIcNS3_11char_traitsIcEEEE, 
                       __ZN5swift10reflection14TypeRefBuilder30ReflectionTypeDescriptorFinder23getMultiPayloadEnumInfoEPKNS0_7TypeRefE, 
                       __ZN5swift10reflection14TypeRefBuilder30ReflectionTypeDescriptorFinder23normalizeReflectionNameENS_6remote9RemoteRefIcEE, 
                       __ZN5swift10reflection14TypeRefBuilder30ReflectionTypeDescriptorFinder24getBuiltinTypeDescriptorEPKNS0_7TypeRefE, 
                       __ZN5swift10reflection14TypeRefBuilder30ReflectionTypeDescriptorFinder26findFieldDescriptorAtIndexEmRKNSt3__112basic_stringIcNS3_11char_traitsIcEENS3_9allocatorIcEEEE, 
                       __ZN5swift10reflection14TypeRefBuilder30ReflectionTypeDescriptorFinder27dumpMultiPayloadEnumSectionERNSt3__113basic_ostreamIcNS3_11char_traitsIcEEEE, 
                       __ZN5swift10reflection14TypeRefBuilder30ReflectionTypeDescriptorFinder29getMultiPayloadEnumDescriptorEPKNS0_7TypeRefE, 
                       __ZN5swift10reflection14TypeRefBuilder30ReflectionTypeDescriptorFinder35getFieldDescriptorFromExternalCacheERKNSt3__112basic_stringIcNS3_11char_traitsIcEENS3_9allocatorIcEEEE, 
                       __ZN5swift10reflection14TypeRefBuilder30ReflectionTypeDescriptorFinder47populateFieldTypeInfoCacheWithReflectionAtIndexEm, 
                       __ZN5swift10reflection15BuiltinTypeInfoC1ERNS0_14TypeRefBuilderERNS0_25BuiltinTypeDescriptorBaseE, 
                       __ZN5swift10reflection15BuiltinTypeInfoC1Ejjjjb, __ZN5swift10reflection15BuiltinTypeInfoC2ERNS0_14TypeRefBuilderERNS0_25BuiltinTypeDescriptorBaseE, 
                       __ZN5swift10reflection15BuiltinTypeInfoC2Ejjjjb, __ZN5swift10reflection21RecordTypeInfoBuilder5buildEv, 
                       __ZN5swift10reflection21RecordTypeInfoBuilder8addFieldERKNSt3__112basic_stringIcNS2_11char_traitsIcEENS2_9allocatorIcEEEEPKNS0_7TypeRefEPNS_6remote16TypeInfoProviderE, 
                       __ZN5swift10reflection21RecordTypeInfoBuilder8addFieldEjjjb, 
                       __ZN5swift10reflection22combineRepresentationsENS0_22MetatypeRepresentationES1_, 
                       __ZN5swift10reflection7TypeRef19deriveSubstitutionsERN7__swift9__runtime4llvm8DenseMapINSt3__14pairIjjEEPKS1_NS4_12DenseMapInfoIS8_EENS4_6detail12DenseMapPairIS8_SA_EEEESA_SA_, 
                       __ZN5swift6Mangle9__runtime10isNonAsciiEN7__swift9__runtime4llvm9StringRefE, 
                       __ZN5swift6Mangle9__runtime17translateOperatorEN7__swift9__runtime4llvm9StringRefE, 
                       __ZN5swift6Mangle9__runtime20getStandardTypeSubstEN7__swift9__runtime4llvm9StringRefEb, 
                       __ZN5swift6Mangle9__runtime21needsPunycodeEncodingEN7__swift9__runtime4llvm9StringRefE, 
                       __ZN5swift6Mangle9__runtime21translateOperatorCharEc, __ZN5swift8Demangle9__runtime10CharVector6appendEN7__swift9__runtime4llvm9StringRefERNS1_11NodeFactoryE, 
                       __ZN5swift8Demangle9__runtime10CharVector6appendEiRNS1_11NodeFactoryE, 
                       __ZN5swift8Demangle9__runtime10CharVector6appendEyRNS1_11NodeFactoryE, 
                       __ZN5swift8Demangle9__runtime10failAssertEPKcjPNS1_4NodeES3_, 
                       __ZN5swift8Demangle9__runtime10isProtocolEN7__swift9__runtime4llvm9StringRefE, 
                       __ZN5swift8Demangle9__runtime10mangleNodeEPNS1_4NodeE, __ZN5swift8Demangle9__runtime10mangleNodeEPNS1_4NodeEN7__swift9__runtime4llvm12function_refIFS3_NS1_21SymbolicReferenceKindEPKvEEE, 
                       __ZN5swift8Demangle9__runtime10mangleNodeEPNS1_4NodeEN7__swift9__runtime4llvm12function_refIFS3_NS1_21SymbolicReferenceKindEPKvEEERNS1_11NodeFactoryE, 
                       __ZN5swift8Demangle9__runtime11NodeFactory10createNodeENS1_4Node4KindE, 
                       __ZN5swift8Demangle9__runtime11NodeFactory10createNodeENS1_4Node4KindEPKc, 
                       __ZN5swift8Demangle9__runtime11NodeFactory10createNodeENS1_4Node4KindERKNS1_10CharVectorE, 
                       __ZN5swift8Demangle9__runtime11NodeFactory10createNodeENS1_4Node4KindEy, 
                       __ZN5swift8Demangle9__runtime11NodeFactory13popCheckpointENS2_10CheckpointE, 
                       __ZN5swift8Demangle9__runtime11NodeFactory27createNodeWithAllocatedTextENS1_4Node4KindEN7__swift9__runtime4llvm9StringRefE, 
                       __ZN5swift8Demangle9__runtime11NodeFactory5clearEv, __ZN5swift8Demangle9__runtime11NodeFactory9freeSlabsEPNS2_4SlabE, 
                       __ZN5swift8Demangle9__runtime12isObjCSymbolEN7__swift9__runtime4llvm9StringRefE, 
                       __ZN5swift8Demangle9__runtime12nodeToStringEPNS1_4NodeERKNS1_15DemangleOptionsE, 
                       __ZN5swift8Demangle9__runtime13RemanglerBase11hashForNodeEPNS1_4NodeEb, 
                       __ZN5swift8Demangle9__runtime13RemanglerBase12entryForNodeEPNS1_4NodeEb, 
                       __ZN5swift8Demangle9__runtime13RemanglerBase15addSubstitutionERKNS1_17SubstitutionEntryE, 
                       __ZN5swift8Demangle9__runtime13RemanglerBase16findSubstitutionERKNS1_17SubstitutionEntryE, 
                       __ZN5swift8Demangle9__runtime13isSpecializedEPNS1_4NodeE, 
                       __ZN5swift8Demangle9__runtime13isSwiftSymbolEN7__swift9__runtime4llvm9StringRefE, 
                       __ZN5swift8Demangle9__runtime13isSwiftSymbolEPKc, __ZN5swift8Demangle9__runtime14isFunctionAttrENS1_4Node4KindE, 
                       __ZN5swift8Demangle9__runtime16getUnspecializedEPNS1_4NodeERNS1_11NodeFactoryE, 
                       __ZN5swift8Demangle9__runtime17SubstitutionEntry16identifierEqualsEPNS1_4NodeES4_, 
                       __ZN5swift8Demangle9__runtime17getNodeKindStringENS1_4Node4KindE, 
                       __ZN5swift8Demangle9__runtime19getNodeTreeAsStringEPNS1_4NodeE, 
                       __ZN5swift8Demangle9__runtime19keyPathSourceStringEPKcm, __ZN5swift8Demangle9__runtime20demangleTypeAsStringEPKcmRKNS1_15DemangleOptionsE, 
                       __ZN5swift8Demangle9__runtime20genericParameterNameEyy, __ZN5swift8Demangle9__runtime22demangleSymbolAsStringEPKcmRKNS1_15DemangleOptionsE, 
                       __ZN5swift8Demangle9__runtime23demangleOldSymbolAsNodeEN7__swift9__runtime4llvm9StringRefERNS1_11NodeFactoryE, 
                       __ZN5swift8Demangle9__runtime23dropSwiftManglingPrefixEN7__swift9__runtime4llvm9StringRefE, 
                       __ZN5swift8Demangle9__runtime23getManglingPrefixLengthEN7__swift9__runtime4llvm9StringRefE, 
                       __ZN5swift8Demangle9__runtime23nodeConsumesGenericArgsEPNS1_4NodeE, 
                       __ZN5swift8Demangle9__runtime25isOldFunctionTypeManglingEN7__swift9__runtime4llvm9StringRefE, 
                       __ZN5swift8Demangle9__runtime32makeSymbolicMangledNameStringRefEPKc, 
                       __ZN5swift8Demangle9__runtime34mangledNameForTypeMetadataAccessorEN7__swift9__runtime4llvm9StringRefES5_NS1_4Node4KindE, 
                       __ZN5swift8Demangle9__runtime4Node10findByKindENS2_4KindEi, 
                       __ZN5swift8Demangle9__runtime4Node12replaceChildEjPS2_, __ZN5swift8Demangle9__runtime4Node13removeChildAtEj, 
                       __ZN5swift8Demangle9__runtime4Node15reverseChildrenEm, __ZN5swift8Demangle9__runtime4Node4dumpEv, 
                       __ZN5swift8Demangle9__runtime4Node8addChildEPS2_RNS1_11NodeFactoryE, 
                       __ZN5swift8Demangle9__runtime4warnEjPKcz, __ZN5swift8Demangle9__runtime5fatalEjPKcz, 
                       __ZN5swift8Demangle9__runtime5warnvEjPKcPc, __ZN5swift8Demangle9__runtime6fatalvEjPKcPc, 
                       __ZN5swift8Demangle9__runtime6isEnumEN7__swift9__runtime4llvm9StringRefE, 
                       __ZN5swift8Demangle9__runtime7Context13getModuleNameEN7__swift9__runtime4llvm9StringRefE, 
                       __ZN5swift8Demangle9__runtime7Context13isThunkSymbolEN7__swift9__runtime4llvm9StringRefE, 
                       __ZN5swift8Demangle9__runtime7Context14getThunkTargetEN7__swift9__runtime4llvm9StringRefE, 
                       __ZN5swift8Demangle9__runtime7Context18demangleTypeAsNodeEN7__swift9__runtime4llvm9StringRefE, 
                       __ZN5swift8Demangle9__runtime7Context20demangleSymbolAsNodeEN7__swift9__runtime4llvm9StringRefE, 
                       __ZN5swift8Demangle9__runtime7Context20demangleTypeAsStringEN7__swift9__runtime4llvm9StringRefERKNS1_15DemangleOptionsE, 
                       __ZN5swift8Demangle9__runtime7Context22demangleSymbolAsStringEN7__swift9__runtime4llvm9StringRefERKNS1_15DemangleOptionsE, 
                       __ZN5swift8Demangle9__runtime7Context25hasSwiftCallingConventionEN7__swift9__runtime4llvm9StringRefE, 
                       __ZN5swift8Demangle9__runtime7Context5clearEv, __ZN5swift8Demangle9__runtime7ContextC1Ev, 
                       __ZN5swift8Demangle9__runtime7ContextC2Ev, __ZN5swift8Demangle9__runtime7ContextD1Ev, 
                       __ZN5swift8Demangle9__runtime7ContextD2Ev, __ZN5swift8Demangle9__runtime7isAliasEN7__swift9__runtime4llvm9StringRefE, 
                       __ZN5swift8Demangle9__runtime7isClassEN7__swift9__runtime4llvm9StringRefE, 
                       __ZN5swift8Demangle9__runtime8isStructEN7__swift9__runtime4llvm9StringRefE, 
                       __ZN5swift8Demangle9__runtime9Demangler10changeKindEPNS1_4NodeENS3_4KindE, 
                       __ZN5swift8Demangle9__runtime9Demangler10createTypeEPNS1_4NodeE, 
                       __ZN5swift8Demangle9__runtime9Demangler10popContextEv, __ZN5swift8Demangle9__runtime9Demangler10popSILPackEv, 
                       __ZN5swift8Demangle9__runtime9Demangler11popProtocolEv, __ZN5swift8Demangle9__runtime9Demangler11popTypeListEv, 
                       __ZN5swift8Demangle9__runtime9Demangler12demangleTypeEN7__swift9__runtime4llvm9StringRefENSt3__18functionIFPNS1_4NodeENS1_21SymbolicReferenceKindENS1_10DirectnessEiPKvEEE, 
                       __ZN5swift8Demangle9__runtime9Demangler13demangleIndexEv, 
                       __ZN5swift8Demangle9__runtime9Demangler14demangleEntityENS1_4Node4KindE, 
                       __ZN5swift8Demangle9__runtime9Demangler14demangleSymbolEN7__swift9__runtime4llvm9StringRefENSt3__18functionIFPNS1_4NodeENS1_21SymbolicReferenceKindENS1_10DirectnessEiPKvEEE, 
                       __ZN5swift8Demangle9__runtime9Demangler15createSwiftTypeENS1_4Node4KindEPKc, 
                       __ZN5swift8Demangle9__runtime9Demangler15createWithChildENS1_4Node4KindEPS3_, 
                       __ZN5swift8Demangle9__runtime9Demangler15demangleNaturalEv, 
                       __ZN5swift8Demangle9__runtime9Demangler15demangleWitnessEv, 
                       __ZN5swift8Demangle9__runtime9Demangler15popFunctionTypeENS1_4Node4KindEb, 
                       __ZN5swift8Demangle9__runtime9Demangler16DemangleInitRAIIC1ERS2_N7__swift9__runtime4llvm9StringRefENSt3__18functionIFPNS1_4NodeENS1_21SymbolicReferenceKindENS1_10DirectnessEiPKvEEE, 
                       __ZN5swift8Demangle9__runtime9Demangler16DemangleInitRAIIC2ERS2_N7__swift9__runtime4llvm9StringRefENSt3__18functionIFPNS1_4NodeENS1_21SymbolicReferenceKindENS1_10DirectnessEiPKvEEE, 
                       __ZN5swift8Demangle9__runtime9Demangler16DemangleInitRAIID1Ev, 
                       __ZN5swift8Demangle9__runtime9Demangler16DemangleInitRAIID2Ev, 
                       __ZN5swift8Demangle9__runtime9Demangler16demangleAccessorEPNS1_4NodeE, 
                       __ZN5swift8Demangle9__runtime9Demangler16demangleMetatypeEv, 
                       __ZN5swift8Demangle9__runtime9Demangler16demangleOperatorEv, 
                       __ZN5swift8Demangle9__runtime9Demangler16demangleVariableEv, 
                       __ZN5swift8Demangle9__runtime9Demangler16popAssocTypeNameEv, 
                       __ZN5swift8Demangle9__runtime9Demangler16popAssocTypePathEv, 
                       __ZN5swift8Demangle9__runtime9Demangler17demangleArchetypeEv, 
                       __ZN5swift8Demangle9__runtime9Demangler17demangleClangTypeEv, 
                       __ZN5swift8Demangle9__runtime9Demangler17demangleSubscriptEv, 
                       __ZN5swift8Demangle9__runtime9Demangler17parseAndPushNodesEv, 
                       __ZN5swift8Demangle9__runtime9Demangler17popFunctionParamsENS1_4Node4KindE, 
                       __ZN5swift8Demangle9__runtime9Demangler18createWithChildrenENS1_4Node4KindEPS3_S5_, 
                       __ZN5swift8Demangle9__runtime9Demangler18createWithChildrenENS1_4Node4KindEPS3_S5_S5_, 
                       __ZN5swift8Demangle9__runtime9Demangler18createWithChildrenENS1_4Node4KindEPS3_S5_S5_S5_, 
                       __ZN5swift8Demangle9__runtime9Demangler18demangleIdentifierEv, 
                       __ZN5swift8Demangle9__runtime9Demangler18popTypeAndGetChildEv, 
                       __ZN5swift8Demangle9__runtime9Demangler19demangleBuiltinTypeEv, 
                       __ZN5swift8Demangle9__runtime9Demangler19demangleGenericTypeEv, 
                       __ZN5swift8Demangle9__runtime9Demangler19demangleIndexAsNodeEv, 
                       __ZN5swift8Demangle9__runtime9Demangler19demangleIndexSubsetEv, 
                       __ZN5swift8Demangle9__runtime9Demangler19demangleSpecialTypeEv, 
                       __ZN5swift8Demangle9__runtime9Demangler20demangleProtocolListEv, 
                       __ZN5swift8Demangle9__runtime9Demangler20demangleTypeManglingEv, 
                       __ZN5swift8Demangle9__runtime9Demangler20demangleValueWitnessEv, 
                       __ZN5swift8Demangle9__runtime9Demangler21demangleBoundGenericsERNS1_6VectorIPNS1_4NodeEEERS5_, 
                       __ZN5swift8Demangle9__runtime9Demangler21demangleFuncSpecParamENS1_4Node4KindE, 
                       __ZN5swift8Demangle9__runtime9Demangler21demanglePlainFunctionEv, 
                       __ZN5swift8Demangle9__runtime9Demangler22addFuncSpecParamNumberEPNS1_4NodeENS1_34FunctionSigSpecializationParamKindE, 
                       __ZN5swift8Demangle9__runtime9Demangler22demangleAnyGenericTypeENS1_4Node4KindE, 
                       __ZN5swift8Demangle9__runtime9Demangler22demangleFunctionEntityEv, 
                       __ZN5swift8Demangle9__runtime9Demangler22demangleMacroExpansionEv, 
                       __ZN5swift8Demangle9__runtime9Demangler22demangleSpecAttributesENS1_4Node4KindE, 
                       __ZN5swift8Demangle9__runtime9Demangler22demangleTypeAnnotationEv, 
                       __ZN5swift8Demangle9__runtime9Demangler22popFunctionParamLabelsEPNS1_4NodeE, 
                       __ZN5swift8Demangle9__runtime9Demangler22popProtocolConformanceEv, 
                       __ZN5swift8Demangle9__runtime9Demangler22pushMultiSubstitutionsEim, 
                       __ZN5swift8Demangle9__runtime9Demangler23demangleLocalIdentifierEv, 
                       __ZN5swift8Demangle9__runtime9Demangler23popTypeAndGetAnyGenericEv, 
                       __ZN5swift8Demangle9__runtime9Demangler24demangleBoundGenericArgsEPNS1_4NodeERKNS1_6VectorIS4_EEm, 
                       __ZN5swift8Demangle9__runtime9Demangler24demangleBoundGenericTypeEv, 
                       __ZN5swift8Demangle9__runtime9Demangler24demangleExtensionContextEv, 
                       __ZN5swift8Demangle9__runtime9Demangler24demangleGenericSignatureEb, 
                       __ZN5swift8Demangle9__runtime9Demangler24demangleImplFunctionTypeEv, 
                       __ZN5swift8Demangle9__runtime9Demangler24demangleProtocolListTypeEv, 
                       __ZN5swift8Demangle9__runtime9Demangler25demangleGenericParamIndexEv, 
                       __ZN5swift8Demangle9__runtime9Demangler25demangleSymbolicReferenceEh, 
                       __ZN5swift8Demangle9__runtime9Demangler25popAnyProtocolConformanceEv, 
                       __ZN5swift8Demangle9__runtime9Demangler26createStandardSubstitutionEcb, 
                       __ZN5swift8Demangle9__runtime9Demangler26demangleGenericRequirementEv, 
                       __ZN5swift8Demangle9__runtime9Demangler26demangleMultiSubstitutionsEv, 
                       __ZN5swift8Demangle9__runtime9Demangler26demangleOperatorIdentifierEv, 
                       __ZN5swift8Demangle9__runtime9Demangler26popRetroactiveConformancesEv, 
                       __ZN5swift8Demangle9__runtime9Demangler27demangleBridgedMethodParamsEv, 
                       __ZN5swift8Demangle9__runtime9Demangler27demangleImplParamConventionENS1_4Node4KindE, 
                       __ZN5swift8Demangle9__runtime9Demangler28demangleAssociatedTypeSimpleEPNS1_4NodeE, 
                       __ZN5swift8Demangle9__runtime9Demangler28demangleAutoDiffFunctionKindEv, 
                       __ZN5swift8Demangle9__runtime9Demangler28demangleImplParameterSendingEv, 
                       __ZN5swift8Demangle9__runtime9Demangler28demangleImplResultConventionENS1_4Node4KindE, 
                       __ZN5swift8Demangle9__runtime9Demangler28demangleStandardSubstitutionEv, 
                       __ZN5swift8Demangle9__runtime9Demangler28getDependentGenericParamTypeEii, 
                       __ZN5swift8Demangle9__runtime9Demangler29demangleGenericSpecializationENS1_4Node4KindE, 
                       __ZN5swift8Demangle9__runtime9Demangler29demangleThunkOrSpecializationEv, 
                       __ZN5swift8Demangle9__runtime9Demangler29popAnyProtocolConformanceListEv, 
                       __ZN5swift8Demangle9__runtime9Demangler30demangleAssociatedTypeCompoundEPNS1_4NodeE, 
                       __ZN5swift8Demangle9__runtime9Demangler30demangleFunctionSpecializationEv, 
                       __ZN5swift8Demangle9__runtime9Demangler30demangleLifetimeDependenceKindEb, 
                       __ZN5swift8Demangle9__runtime9Demangler30demangleMetatypeRepresentationEv, 
                       __ZN5swift8Demangle9__runtime9Demangler30demangleRetroactiveConformanceEv, 
                       __ZN5swift8Demangle9__runtime9Demangler31demanglePackProtocolConformanceEv, 
                       __ZN5swift8Demangle9__runtime9Demangler31popDependentProtocolConformanceEv, 
                       __ZN5swift8Demangle9__runtime9Demangler32demangleDifferentiabilityWitnessEv, 
                       __ZN5swift8Demangle9__runtime9Demangler32demangleExtendedExistentialShapeEc, 
                       __ZN5swift8Demangle9__runtime9Demangler32demanglePrivateContextDescriptorEv, 
                       __ZN5swift8Demangle9__runtime9Demangler33demangleDependentConformanceIndexEv, 
                       __ZN5swift8Demangle9__runtime9Demangler33popDependentAssociatedConformanceEv, 
                       __ZN5swift8Demangle9__runtime9Demangler34demangleDifferentiableFunctionTypeEv, 
                       __ZN5swift8Demangle9__runtime9Demangler35demangleConcreteProtocolConformanceEv, 
                       __ZN5swift8Demangle9__runtime9Demangler37demangleAutoDiffFunctionOrSimpleThunkENS1_4Node4KindE, 
                       __ZN5swift8Demangle9__runtime9Demangler37demangleAutoDiffSubsetParametersThunkEv, 
                       __ZN5swift8Demangle9__runtime9Demangler39demangleSymbolicExtendedExistentialTypeEv, 
                       __ZN5swift8Demangle9__runtime9Demangler40demangleDependentProtocolConformanceRootEv, 
                       __ZN5swift8Demangle9__runtime9Demangler41demangleRetroactiveProtocolConformanceRefEv, 
                       __ZN5swift8Demangle9__runtime9Demangler44demangleImplParameterResultDifferentiabilityEv, 
                       __ZN5swift8Demangle9__runtime9Demangler45demangleConstrainedExistentialRequirementListEv, 
                       __ZN5swift8Demangle9__runtime9Demangler45demangleDependentProtocolConformanceInheritedEv, 
                       __ZN5swift8Demangle9__runtime9Demangler46demangleDependentProtocolConformanceAssociatedEv, 
                       __ZN5swift8Demangle9__runtime9Demangler48demangleAutoDiffSelfReorderingReabstractionThunkEv, 
                       __ZN5swift8Demangle9__runtime9Demangler4dumpEv, __ZN5swift8Demangle9__runtime9Demangler5clearEv, 
                       __ZN5swift8Demangle9__runtime9Demangler7popPackEv, __ZN5swift8Demangle9__runtime9Demangler8addChildEPNS1_4NodeES4_, 
                       __ZN5swift8Demangle9__runtime9Demangler8popTupleEv, __ZN5swift8Demangle9__runtime9Demangler9popModuleEv, 
                       __ZN5swift8Demangle9__runtime9isContextENS1_4Node4KindE, __ZN5swift8Punycode9__runtime14decodePunycodeEN7__swift9__runtime4llvm9StringRefERNSt3__16vectorIjNS6_9allocatorIjEEEE, 
                       __ZN5swift8Punycode9__runtime14encodePunycodeERKNSt3__16vectorIjNS2_9allocatorIjEEEERNS2_12basic_stringIcNS2_11char_traitsIcEENS4_IcEEEE, 
                       __ZN5swift8Punycode9__runtime18decodePunycodeUTF8EN7__swift9__runtime4llvm9StringRefERNSt3__112basic_stringIcNS6_11char_traitsIcEENS6_9allocatorIcEEEE, 
                       __ZN5swift8Punycode9__runtime18encodePunycodeUTF8EN7__swift9__runtime4llvm9StringRefERNSt3__112basic_stringIcNS6_11char_traitsIcEENS6_9allocatorIcEEEEb, 
                       __ZN7__swift9__runtime4llvm10hash_valueENS1_9StringRefE, __ZN7__swift9__runtime4llvm15allocate_bufferEmm, 
                       __ZN7__swift9__runtime4llvm17deallocate_bufferEPvmm, __ZN7__swift9__runtime4llvm18getAsSignedIntegerENS1_9StringRefEjRx, 
                       __ZN7__swift9__runtime4llvm18report_fatal_errorENS1_9StringRefEb, 
                       __ZN7__swift9__runtime4llvm18report_fatal_errorEPKcb, __ZN7__swift9__runtime4llvm18report_fatal_errorERKNSt3__112basic_stringIcNS2_11char_traitsIcEENS2_9allocatorIcEEEEb, 
                       __ZN7__swift9__runtime4llvm19SmallPtrSetImplBase10CopyHelperERKS2_, 
                       __ZN7__swift9__runtime4llvm19SmallPtrSetImplBase10MoveHelperEjOS2_, 
                       __ZN7__swift9__runtime4llvm19SmallPtrSetImplBase14insert_imp_bigEPKv, 
                       __ZN7__swift9__runtime4llvm19SmallPtrSetImplBase16shrink_and_clearEv, 
                       __ZN7__swift9__runtime4llvm19SmallPtrSetImplBase4GrowEj, __ZN7__swift9__runtime4llvm19SmallPtrSetImplBase4swapERS2_, 
                       __ZN7__swift9__runtime4llvm19SmallPtrSetImplBase8CopyFromERKS2_, 
                       __ZN7__swift9__runtime4llvm19SmallPtrSetImplBase8MoveFromEjOS2_, 
                       __ZN7__swift9__runtime4llvm19SmallPtrSetImplBaseC1EPPKvRKS2_, 
                       __ZN7__swift9__runtime4llvm19SmallPtrSetImplBaseC1EPPKvjOS2_, 
                       __ZN7__swift9__runtime4llvm19SmallPtrSetImplBaseC2EPPKvRKS2_, 
                       __ZN7__swift9__runtime4llvm19SmallPtrSetImplBaseC2EPPKvjOS2_, 
                       __ZN7__swift9__runtime4llvm20consumeSignedIntegerERNS1_9StringRefEjRx, 
                       __ZN7__swift9__runtime4llvm20getAsUnsignedIntegerENS1_9StringRefEjRy, 
                       __ZN7__swift9__runtime4llvm22consumeUnsignedIntegerERNS1_9StringRefEjRy, 
                       __ZN7__swift9__runtime4llvm22report_bad_alloc_errorEPKcb, 
                       __ZN7__swift9__runtime4llvm25llvm_unreachable_internalEPKcS3_j, 
                       __ZN7__swift9__runtime4llvm29set_fixed_execution_hash_seedEy, 
                       __ZN7__swift9__runtime4llvm7hashing6detail19fixed_seed_overrideE, 
                       __ZNK5swift10reflection14MetadataSource4dumpERNSt3__113basic_ostreamIcNS2_11char_traitsIcEEEEj, 
                       __ZNK5swift10reflection14MetadataSource4dumpEv, __ZNK5swift10reflection14RecordTypeInfo12getSpareBitsERNS0_13TypeConverterERb, 
                       __ZNK5swift10reflection14RecordTypeInfo24readExtraInhabitantIndexERNS_6remote12MemoryReaderENS2_13RemoteAddressEPi, 
                       __ZNK5swift10reflection15BuiltinTypeInfo12getSpareBitsERNS0_13TypeConverterERb, 
                       __ZNK5swift10reflection15BuiltinTypeInfo24readExtraInhabitantIndexERNS_6remote12MemoryReaderENS2_13RemoteAddressEPi, 
                       __ZNK5swift10reflection16NominalTypeTrait10isProtocolEv, __ZNK5swift10reflection16NominalTypeTrait6isEnumEv, 
                       __ZNK5swift10reflection16NominalTypeTrait7isAliasEv, __ZNK5swift10reflection16NominalTypeTrait7isClassEv, 
                       __ZNK5swift10reflection16NominalTypeTrait8getDepthEv, __ZNK5swift10reflection16NominalTypeTrait8isStructEv, 
                       __ZNK5swift10reflection17ReferenceTypeInfo12getSpareBitsERNS0_13TypeConverterERb, 
                       __ZNK5swift10reflection18ClosureContextInfo4dumpERNSt3__113basic_ostreamIcNS2_11char_traitsIcEEEE, 
                       __ZNK5swift10reflection18ClosureContextInfo4dumpEv, __ZNK5swift10reflection7TypeRef10isConcreteEv, 
                       __ZNK5swift10reflection7TypeRef11getSubstMapEv, __ZNK5swift10reflection7TypeRef13getDemanglingERNS_8Demangle9__runtime9DemanglerE, 
                       __ZNK5swift10reflection7TypeRef28isConcreteAfterSubstitutionsERKN7__swift9__runtime4llvm8DenseMapINSt3__14pairIjjEEPKS1_NS4_12DenseMapInfoIS8_EENS4_6detail12DenseMapPairIS8_SA_EEEE, 
                       __ZNK5swift10reflection7TypeRef4dumpERNSt3__113basic_ostreamIcNS2_11char_traitsIcEEEEj, 
                       __ZNK5swift10reflection7TypeRef4dumpEv, __ZNK5swift10reflection7TypeRef5substERNS0_14TypeRefBuilderERKN7__swift9__runtime4llvm8DenseMapINSt3__14pairIjjEEPKS1_NS6_12DenseMapInfoISA_EENS6_6detail12DenseMapPairISA_SC_EEEE, 
                       __ZNK5swift10reflection7TypeRef5substERNS0_14TypeRefBuilderERKN7__swift9__runtime4llvm8DenseMapINSt3__14pairIjjEEPKS1_NS6_12DenseMapInfoISA_EENS6_6detail12DenseMapPairISA_SC_EEEERb, 
                       __ZNK5swift10reflection7TypeRef6mangleERNS_8Demangle9__runtime9DemanglerE, 
                       __ZNK5swift10reflection8TypeInfo4dumpERNSt3__113basic_ostreamIcNS2_11char_traitsIcEEEEj, 
                       __ZNK5swift10reflection8TypeInfo4dumpEv, __ZNK5swift8Demangle9__runtime11NodeFactory14pushCheckpointEv, 
                       __ZNK5swift8Demangle9__runtime17SubstitutionEntry10deepEqualsEPNS1_4NodeES4_, 
                       __ZNK7__swift9__runtime4llvm19SmallPtrSetImplBase13FindBucketForEPKv, 
                       __ZNK7__swift9__runtime4llvm9StringRef12find_last_ofES2_m, 
                       __ZNK7__swift9__runtime4llvm9StringRef13find_first_ofES2_m, 
                       __ZNK7__swift9__runtime4llvm9StringRef15compare_numericES2_, 
                       __ZNK7__swift9__runtime4llvm9StringRef16find_insensitiveES2_m, 
                       __ZNK7__swift9__runtime4llvm9StringRef16find_insensitiveEcm, 
                       __ZNK7__swift9__runtime4llvm9StringRef16find_last_not_ofES2_m, 
                       __ZNK7__swift9__runtime4llvm9StringRef16find_last_not_ofEcm, 
                       __ZNK7__swift9__runtime4llvm9StringRef17find_first_not_ofES2_m, 
                       __ZNK7__swift9__runtime4llvm9StringRef17find_first_not_ofEcm, 
                       __ZNK7__swift9__runtime4llvm9StringRef17rfind_insensitiveES2_, 
                       __ZNK7__swift9__runtime4llvm9StringRef17rfind_insensitiveEcm, 
                       __ZNK7__swift9__runtime4llvm9StringRef19compare_insensitiveES2_, 
                       __ZNK7__swift9__runtime4llvm9StringRef20endswith_insensitiveES2_, 
                       __ZNK7__swift9__runtime4llvm9StringRef23starts_with_insensitiveES2_, 
                       __ZNK7__swift9__runtime4llvm9StringRef4findES2_m, __ZNK7__swift9__runtime4llvm9StringRef5countES2_, 
                       __ZNK7__swift9__runtime4llvm9StringRef5lowerEv, __ZNK7__swift9__runtime4llvm9StringRef5rfindES2_, 
                       __ZNK7__swift9__runtime4llvm9StringRef5splitERNS1_15SmallVectorImplIS2_EES2_ib, 
                       __ZNK7__swift9__runtime4llvm9StringRef5splitERNS1_15SmallVectorImplIS2_EEcib, 
                       __ZNK7__swift9__runtime4llvm9StringRef5upperEv, __ZNR5swift8Demangle9__runtime16DemanglerPrinter8writeHexEy, 
                       __ZNR5swift8Demangle9__runtime16DemanglerPrinterlsEx, __ZNR5swift8Demangle9__runtime16DemanglerPrinterlsEy, 
                       __ZTVN5swift10reflection14RecordTypeInfoE, __ZTVN5swift10reflection14TypeRefBuilder30ReflectionTypeDescriptorFinderE, 
                       __ZTVN5swift10reflection15BuiltinTypeInfoE, __ZTVN5swift10reflection17ReferenceTypeInfoE, 
                       __ZTVN5swift8Demangle9__runtime11NodeFactoryE, __ZTVN5swift8Demangle9__runtime9DemanglerE ]
    weak-symbols:    [ __ZN7__swift9__runtime4llvm15SmallVectorBaseIjE11SizeTypeMaxEv, 
                       __ZN7__swift9__runtime4llvm15SmallVectorBaseIjE13mallocForGrowEmmRm, 
                       __ZN7__swift9__runtime4llvm15SmallVectorBaseIjE8grow_podEPvmm, 
                       __ZN7__swift9__runtime4llvm15SmallVectorBaseIjE8set_sizeEm, 
                       __ZN7__swift9__runtime4llvm15SmallVectorBaseIjEC1EPvm, __ZN7__swift9__runtime4llvm15SmallVectorBaseIjEC2EPvm, 
                       __ZN7__swift9__runtime4llvm15SmallVectorBaseIyE11SizeTypeMaxEv, 
                       __ZN7__swift9__runtime4llvm15SmallVectorBaseIyE13mallocForGrowEmmRm, 
                       __ZN7__swift9__runtime4llvm15SmallVectorBaseIyE8grow_podEPvmm, 
                       __ZN7__swift9__runtime4llvm15SmallVectorBaseIyE8set_sizeEm, 
                       __ZN7__swift9__runtime4llvm15SmallVectorBaseIyEC1EPvm, __ZN7__swift9__runtime4llvm15SmallVectorBaseIyEC2EPvm, 
                       __ZN7__swift9__runtime4llvm9StringRef4nposE, __ZNK7__swift9__runtime4llvm15SmallVectorBaseIjE4sizeEv, 
                       __ZNK7__swift9__runtime4llvm15SmallVectorBaseIjE5emptyEv, 
                       __ZNK7__swift9__runtime4llvm15SmallVectorBaseIjE8capacityEv, 
                       __ZNK7__swift9__runtime4llvm15SmallVectorBaseIyE4sizeEv, __ZNK7__swift9__runtime4llvm15SmallVectorBaseIyE5emptyEv, 
                       __ZNK7__swift9__runtime4llvm15SmallVectorBaseIyE8capacityEv, 
                       __ZNSt3__119piecewise_constructE ]
...
