--- !tapi-tbd-v3
archs:                 [ armv7, armv7s, arm64, arm64e ]
platform:              ios
flags:                 [ flat_namespace ]
install-name:          /System/Library/PrivateFrameworks/AudioServerDriver.framework/AudioServerDriver
current-version:       1
compatibility-version: 1
objc-constraint:       retain_release
exports:
  - archs:                [ armv7, armv7s, arm64, arm64e ]
    symbols:              [ _ASDStereoPanControlCenter,
                            _ASDStereoPanControlFullLeft,
                            _ASDStereoPanControlFullRight,
                            _ASD_AddAudioDeviceRealTimeOperations,
                            _ASD_AddClockDeviceRealTimeOperations,
                            _ASD_AddPlugin, _ASD_AddStreamRealTimeOperations,
                            _ASD_RemoveAudioDeviceRealTimeOperations,
                            _ASD_RemoveClockDeviceRealTimeOperations,
                            _ASD_RemovePlugin,
                            _ASD_RemoveStreamRealTimeOperations,
                            _CALog_DefaultScope, _CAShowAudioBufferList,
                            _CrashIfClientProvidedBogusAudioBufferList,
                            _LogFilenameOnly, __CALog_Log, __CALog_LogEnabled,
                            __Z10ASD_AddRefPv,
                            __Z10ASD_StopIOPP32AudioServerPlugInDriverInterfacejj,
                            __Z10DebugPrintPKcz, __Z10LogWarningPKcz,
                            __Z11ASD_ReleasePv,
                            __Z11ASD_StartIOPP32AudioServerPlugInDriverInterfacejj,
                            __Z11ASD_add_128yy,
                            __Z11SanityCheckRK27AudioStreamBasicDescription,
                            __Z13ASD_uint64mulyy,
                            __Z14ASD_InitializePP32AudioServerPlugInDriverInterfacePK30AudioServerPlugInHostInterface,
                            __Z15ASD_HasPropertyPP32AudioServerPlugInDriverInterfacejiPK26AudioObjectPropertyAddress,
                            __Z16ASD_CreateDevicePP32AudioServerPlugInDriverInterfacePK14__CFDictionaryPK27AudioServerPlugInClientInfoPj,
                            __Z17ASD_DestroyDevicePP32AudioServerPlugInDriverInterfacej,
                            __Z17ASD_DoIOOperationPP32AudioServerPlugInDriverInterfacejjjjjPK28AudioServerPlugInIOCycleInfoPvS5_,
                            __Z17CAStringForOSTypejPcm,
                            __Z18ASD_EndIOOperationPP32AudioServerPlugInDriverInterfacejjjjPK28AudioServerPlugInIOCycleInfo,
                            __Z18ASD_QueryInterfacePv11CFUUIDBytesPS_,
                            __Z19ASD_AddDeviceClientPP32AudioServerPlugInDriverInterfacejPK27AudioServerPlugInClientInfo,
                            __Z19ASD_GetPropertyDataPP32AudioServerPlugInDriverInterfacejiPK26AudioObjectPropertyAddressjPKvjPjPv,
                            __Z19ASD_SetPropertyDataPP32AudioServerPlugInDriverInterfacejiPK26AudioObjectPropertyAddressjPKvjS6_,
                            __Z20ASD_BeginIOOperationPP32AudioServerPlugInDriverInterfacejjjjPK28AudioServerPlugInIOCycleInfo,
                            __Z20ASD_GetZeroTimeStampPP32AudioServerPlugInDriverInterfacejjPdPyS3_,
                            __Z20CAIsDebuggerAttachedv,
                            __Z21ASD_WillDoIOOperationPP32AudioServerPlugInDriverInterfacejjjPhS2_,
                            __Z21CAShowAudioBufferListRK15AudioBufferListiRK27AudioStreamBasicDescriptionPKc,
                            __Z21CAShowAudioBufferListRK15AudioBufferListiiPKc,
                            __Z22ASD_IsPropertySettablePP32AudioServerPlugInDriverInterfacejiPK26AudioObjectPropertyAddressPh,
                            __Z22ASD_RemoveDeviceClientPP32AudioServerPlugInDriverInterfacejPK27AudioServerPlugInClientInfo,
                            __Z23ASD_GetPropertyDataSizePP32AudioServerPlugInDriverInterfacejiPK26AudioObjectPropertyAddressjPKvPj,
                            __Z26getPluginHashTableInstancev,
                            __Z27CACFPreferencesCopyAppValuePK10__CFStringS1_,
                            __Z31CACFPreferencesGetAppFloatValuePK10__CFStringS1_Pb,
                            __Z32CACFPreferencesGetAppFourCCValuePK10__CFStringS1_Pb,
                            __Z33CACFPreferencesGetAppBooleanValuePK10__CFStringS1_Pb,
                            __Z33CACFPreferencesGetAppIntegerValuePK10__CFStringS1_Pb,
                            __Z34ASD_AbortDeviceConfigurationChangePP32AudioServerPlugInDriverInterfacejyPv,
                            __Z36ASD_PerformDeviceConfigurationChangePP32AudioServerPlugInDriverInterfacejyPv,
                            __Z8LogErrorPKcz, __ZN10RamstadSRC10initFilterEd,
                            __ZN10RamstadSRC11initQualityEi,
                            __ZN10RamstadSRC11processMonoEPKfPfiiii,
                            __ZN10RamstadSRC12processMultiEPKPKfPKPfiiii,
                            __ZN10RamstadSRC13processStereoEPKfS1_PfS2_iiii,
                            __ZN10RamstadSRC14processMonoIntEPKfPfiiii,
                            __ZN10RamstadSRC15processMonoFracEPKfPfiiii,
                            __ZN10RamstadSRC15processMonoIntDEPKfPfiiii,
                            __ZN10RamstadSRC15processMultiIntEPKPKfPKPfiiii,
                            __ZN10RamstadSRC16processMonoFracDEPKfPfiiii,
                            __ZN10RamstadSRC16processMultiFracEPKPKfPKPfiiii,
                            __ZN10RamstadSRC16processMultiIntDEPKPKfPKPfiiii,
                            __ZN10RamstadSRC16processStereoIntEPKfS1_PfS2_iiii,
                            __ZN10RamstadSRC17processMultiFracDEPKPKfPKPfiiii,
                            __ZN10RamstadSRC17processStereoFracEPKfS1_PfS2_iiii,
                            __ZN10RamstadSRC17processStereoIntDEPKfS1_PfS2_iiii,
                            __ZN10RamstadSRC18processStereoFracDEPKfS1_PfS2_iiii,
                            __ZN10RamstadSRC22useInterpolationMethodEd,
                            __ZN10RamstadSRC32crashIfClientProvidedBogusBufferEPKfi,
                            __ZN10RamstadSRC5resetEv, __ZN10RamstadSRC7setRateEd,
                            __ZN10RamstadSRCC1Eddii, __ZN10RamstadSRCC1Eddiid,
                            __ZN10RamstadSRCC2Eddii, __ZN10RamstadSRCC2Eddiid,
                            __ZN10RamstadSRCD1Ev, __ZN10RamstadSRCD2Ev,
                            __ZN12CABufferList15AllocateBuffersEj,
                            __ZN12CABufferList17DeallocateBuffersEv,
                            __ZN12CABufferList26AllocateBuffersAndCopyFromEjPS_S0_,
                            __ZN12CAXException15sWarningHandlerE,
                            __ZN13RamstadKernelC1Eiidb,
                            __ZN13RamstadKernelC2Eiidb,
                            __ZN14RamstadKernelDC1Eiidb,
                            __ZN14RamstadKernelDC2Eiidb,
                            __ZN15AudioRingBuffer10DeallocateEv,
                            __ZN15AudioRingBuffer13GetTimeBoundsERxS0_,
                            __ZN15AudioRingBuffer13SetTimeBoundsExx,
                            __ZN15AudioRingBuffer14SetInputFormatERK24CAStreamBasicDescription,
                            __ZN15AudioRingBuffer15CheckTimeBoundsExx,
                            __ZN15AudioRingBuffer15ConvertAndStoreEiPK15AudioBufferListii,
                            __ZN15AudioRingBuffer16CheckTimeBounds2ExxRxS0_,
                            __ZN15AudioRingBuffer18FetchAllWithZeroesEP15AudioBufferListjxRjS2_S2_,
                            __ZN15AudioRingBuffer21touchRingBufferMemoryEv,
                            __ZN15AudioRingBuffer5ClearEv,
                            __ZN15AudioRingBuffer5FetchEP15AudioBufferListjx,
                            __ZN15AudioRingBuffer5StoreEPK15AudioBufferListjx,
                            __ZN15AudioRingBuffer8AllocateERK24CAStreamBasicDescriptionj,
                            __ZN15AudioRingBuffer8AllocateEijj,
                            __ZN15AudioRingBufferC1Ev, __ZN15AudioRingBufferC2Ev,
                            __ZN15AudioRingBufferD0Ev, __ZN15AudioRingBufferD1Ev,
                            __ZN15AudioRingBufferD2Ev,
                            __ZN15CATimeUtilities23GetCurrentGregorianDateEv,
                            __ZN15CATimeUtilities29GregorianDateFromAbsoluteTimeEd,
                            __ZN16CAAudioTimeStamp5kZeroE,
                            __ZN17ASDDSPGraphHelper10resetGraphEv,
                            __ZN17ASDDSPGraphHelper26allocateStreamingResourcesERKNSt3__16vectorI24CAStreamBasicDescriptionNS0_9allocatorIS2_EEEES7_jb,
                            __ZN17ASDDSPGraphHelper28deallocateStreamingResourcesEv,
                            __ZN17ASDDSPGraphHelperC1ENSt3__110shared_ptrIN8DSPGraph5GraphEEEy,
                            __ZN17ASDDSPGraphHelperC2ENSt3__110shared_ptrIN8DSPGraph5GraphEEEy,
                            __ZN17ASDIntervalFilter15newTimePositionE8ASD_U128,
                            __ZN17ASDIntervalFilter18reInitialiseFilterE8ASD_U128j,
                            __ZN17ASDIntervalFilter20getMultiIntervalTimeEv,
                            __ZN17ASDIntervalFilterC2E8ASD_U128j,
                            __ZN17ASDIntervalFilterD0Ev,
                            __ZN17ASDIntervalFilterD1Ev,
                            __ZN17ASDIntervalFilterD2Ev,
                            __ZN18ASDDSPStreamHelper13processOutputEjPK28AudioServerPlugInIOCycleInfoPvS3_j,
                            __ZN18ASDDSPStreamHelper16resumeProcessingEv,
                            __ZN18ASDDSPStreamHelper17suspendProcessingEv,
                            __ZN18ASDDSPStreamHelper18validateGraphAudioEP17ASDDSPGraphHelperPK24CAStreamBasicDescriptionS4_,
                            __ZN18ASDDSPStreamHelper26allocateStreamingResourcesEj,
                            __ZN18ASDDSPStreamHelper27setGraphAudioValidationModeE36ASDDSPStreamGraphAudioValidationMode,
                            __ZN18ASDDSPStreamHelper28deallocateStreamingResourcesEv,
                            __ZN18ASDDSPStreamHelper8writeMixEjPK28AudioServerPlugInIOCycleInfoPvS3_j,
                            __ZN18ASDDSPStreamHelper9readInputEjPK28AudioServerPlugInIOCycleInfoPvS3_j,
                            __ZN18ASDDSPStreamHelperC1ERK24CAStreamBasicDescriptionRKNSt3__16vectorIS0_NS3_9allocatorIS0_EEEERKNS4_INS_38ASDUnderlyingStreamDoIOOperationBlocksENS5_ISA_EEEERN5caulk10concurrent25guarded_lookup_hash_tableIyP17ASDDSPGraphHelperLNSG_33guarded_lookup_hash_table_optionsE2EEEb,
                            __ZN18ASDDSPStreamHelperC2ERK24CAStreamBasicDescriptionRKNSt3__16vectorIS0_NS3_9allocatorIS0_EEEERKNS4_INS_38ASDUnderlyingStreamDoIOOperationBlocksENS5_ISA_EEEERN5caulk10concurrent25guarded_lookup_hash_tableIyP17ASDDSPGraphHelperLNSG_33guarded_lookup_hash_table_optionsE2EEEb,
                            __ZN18ASDSRCStreamHelper26allocateStreamingResourcesEj,
                            __ZN18ASDSRCStreamHelper28deallocateStreamingResourcesEv,
                            __ZN18ASDSRCStreamHelper8writeMixEjPK28AudioServerPlugInIOCycleInfoPvS3_j,
                            __ZN18ASDSRCStreamHelper9readInputEjPK28AudioServerPlugInIOCycleInfoPvS3_j,
                            __ZN18ASDSRCStreamHelperC1ERK24CAStreamBasicDescriptionRKNSt3__16vectorIS0_NS3_9allocatorIS0_EEEERKNS4_INS_38ASDUnderlyingStreamDoIOOperationBlocksENS5_ISA_EEEEbj,
                            __ZN18ASDSRCStreamHelperC2ERK24CAStreamBasicDescriptionRKNSt3__16vectorIS0_NS3_9allocatorIS0_EEEERKNS4_INS_38ASDUnderlyingStreamDoIOOperationBlocksENS5_ISA_EEEEbj,
                            __ZN18ASDSRCStreamHelperD1Ev,
                            __ZN18ASDSRCStreamHelperD2Ev,
                            __ZN18CASmartPreferences11RereadPrefsEv,
                            __ZN18CASmartPreferences14InterpretFloatEPKvRb,
                            __ZN18CASmartPreferences16InterpretBooleanEPKvRb,
                            __ZN18CASmartPreferences16InterpretIntegerEPKvRb,
                            __ZN18CASmartPreferences21_RegisterFirstHandlerEPK10__CFStringS2_NSt3__18functionIFbPKvEEE,
                            __ZN18CASmartPreferences4Pref4LoadEv,
                            __ZN18CASmartPreferences8HavePrefEPK10__CFStringS2_,
                            __ZN18CASmartPreferences8instanceEv,
                            __ZN18CASmartPreferencesC1Ev,
                            __ZN18CASmartPreferencesC2Ev,
                            __ZN19ResamplerInitLockerC1Ev,
                            __ZN19ResamplerInitLockerC2Ev,
                            __ZN19ResamplerInitLockerD1Ev,
                            __ZN19ResamplerInitLockerD2Ev,
                            __ZN20ASDIntervalFilterFIR12setNewFilterEjPKyj,
                            __ZN20ASDIntervalFilterFIR18reInitialiseFilterE8ASD_U128j,
                            __ZN20ASDIntervalFilterFIR24calculateNewTimePositionE8ASD_U128,
                            __ZN20ASDIntervalFilterFIR3FIREP8ASD_U128S0_,
                            __ZN20ASDIntervalFilterFIRC1E8ASD_U128j,
                            __ZN20ASDIntervalFilterFIRC2E8ASD_U128j,
                            __ZN20ASDIntervalFilterFIRD0Ev,
                            __ZN20ASDIntervalFilterFIRD1Ev,
                            __ZN20ASDIntervalFilterFIRD2Ev,
                            __ZN20ASDIntervalFilterIIR24calculateNewTimePositionE8ASD_U128,
                            __ZN20ASDIntervalFilterIIR3IIREP8ASD_U256S0_i,
                            __ZN20ASDIntervalFilterIIRC1E8ASD_U128jt,
                            __ZN20ASDIntervalFilterIIRC2E8ASD_U128jt,
                            __ZN20RamstadKernelFactory20ReleaseRamstadKernelEP13RamstadKernel,
                            __ZN20RamstadKernelFactory22ReferenceRamstadKernelEiidb,
                            __ZN21RamstadKernelFactoryD20ReleaseRamstadKernelEP14RamstadKernelD,
                            __ZN21RamstadKernelFactoryD22ReferenceRamstadKernelEiidb,
                            __ZN24CAStreamBasicDescription11ResetFormatER27AudioStreamBasicDescription,
                            __ZN24CAStreamBasicDescription12IsEquivalentERK27AudioStreamBasicDescriptionS2_j,
                            __ZN24CAStreamBasicDescription13FillOutFormatER27AudioStreamBasicDescriptionRKS0_,
                            __ZN24CAStreamBasicDescription13GetSimpleNameERK27AudioStreamBasicDescriptionPcjbb,
                            __ZN24CAStreamBasicDescription14IsExactlyEqualERK27AudioStreamBasicDescriptionS2_,
                            __ZN24CAStreamBasicDescription21EquivalentFormatFlagsERK27AudioStreamBasicDescriptionS2_bb,
                            __ZN24CAStreamBasicDescription23sTextParsingUsageStringE,
                            __ZN24CAStreamBasicDescription24NormalizeLinearPCMFormatER27AudioStreamBasicDescription,
                            __ZN24CAStreamBasicDescription24NormalizeLinearPCMFormatEbR27AudioStreamBasicDescription,
                            __ZN24CAStreamBasicDescription25VirtualizeLinearPCMFormatER27AudioStreamBasicDescription,
                            __ZN24CAStreamBasicDescription25VirtualizeLinearPCMFormatEbR27AudioStreamBasicDescription,
                            __ZN24CAStreamBasicDescription6sEmptyE,
                            __ZN24CAStreamBasicDescription8FromTextEPKcR27AudioStreamBasicDescription,
                            __ZN24CAStreamBasicDescriptionC1ERK27AudioStreamBasicDescription,
                            __ZN24CAStreamBasicDescriptionC1Edjjjjjjj,
                            __ZN24CAStreamBasicDescriptionC1Ev,
                            __ZN24CAStreamBasicDescriptionC2ERK27AudioStreamBasicDescription,
                            __ZN24CAStreamBasicDescriptionC2Edjjjjjjj,
                            __ZN24CAStreamBasicDescriptionC2Ev,
                            __ZN5CALog10LogEnabledEiRKNS_14ScopeSubscopesE,
                            __ZN5CALog10sScopeMaskE,
                            __ZN5CALog11scopedPrintEPKNS_5ScopeEiPKc,
                            __ZN5CALog13RegisterScopeEbyPKcS1_S1_j,
                            __ZN5CALog13sSubscopeMaskE,
                            __ZN5CALog16sNumberScopeBitsE,
                            __ZN5CALog21setNumberSubscopeBitsEi,
                            __ZN5CALog5Scope20GetPriorityThresholdEy,
                            __ZN5CALog5Scope20SetPriorityThresholdEyi,
                            __ZN5CALog5Scope23SetScopeFileDestinationEP7__sFILEb,
                            __ZN5CALog5Scope25SetScopePriorityThresholdEi,
                            __ZN5CALog5Scope4initEyPKcPK10__CFStringS5_j,
                            __ZN5CALog5ScopeC1EbyPKcS2_S2_j,
                            __ZN5CALog5ScopeC2EbyPKcS2_S2_j,
                            __ZN5CALog5printEiPKc,
                            __ZN5CALog6log_vaEiPKNS_5ScopeEPKciS4_S4_PK10__CFStringPc,
                            __ZN5CALog7setFileEP7__sFILE,
                            __ZN5CALog7vprintfEiPKcPc, __ZN5CALog8InstanceEv,
                            __ZN5CALogC1EPKc, __ZN5CALogC2EPKc, __ZN5CALogD1Ev,
                            __ZN5CALogD2Ev,
                            __ZN8DSPGraph12GraphFactory22createPassthroughGraphERK24CAStreamBasicDescription,
                            __ZN8DSPGraph12GraphFactory26createLinearGraphWithBoxesENSt3__16vectorIPNS_3BoxENS1_9allocatorIS4_EEEERK24CAStreamBasicDescription,
                            __ZN8DSPGraph12GraphFactory33createFormatMatchedGraphWithGraphENSt3__110shared_ptrINS_5GraphEEERKNS1_6vectorI24CAStreamBasicDescriptionNS1_9allocatorIS6_EEEESB_b,
                            __ZN8DSPGraph8GraphBox10initializeEv,
                            __ZN8DSPGraph8GraphBox12getParameterEjjj,
                            __ZN8DSPGraph8GraphBox12setMaxFramesEi,
                            __ZN8DSPGraph8GraphBox12setParameterEjjjfj,
                            __ZN8DSPGraph8GraphBox12uninitializeEv,
                            __ZN8DSPGraph8GraphBox16getParameterInfoEjjR22AudioUnitParameterInfo,
                            __ZN8DSPGraph8GraphBox16getParameterListEjPjRi,
                            __ZN8DSPGraph8GraphBox18prepareGraphIODataEi,
                            __ZN8DSPGraph8GraphBox18selfLatencyInTicksEv,
                            __ZN8DSPGraph8GraphBox21setUsesFixedBlockSizeEb,
                            __ZN8DSPGraph8GraphBox7processEi,
                            __ZN8DSPGraph8GraphBoxC1ENSt3__110shared_ptrINS_5GraphEEEb,
                            __ZN8DSPGraph8GraphBoxC2ENSt3__110shared_ptrINS_5GraphEEEb,
                            __ZN8DSPGraph8GraphBoxD0Ev,
                            __ZN8DSPGraph8GraphBoxD1Ev,
                            __ZN8DSPGraph8GraphBoxD2Ev,
                            __ZNK10RamstadSRC14latencySamplesEv,
                            __ZNK10RamstadSRC14latencySecondsEv,
                            __ZNK10RamstadSRC28inputSamplesForOutputSamplesEi,
                            __ZNK10RamstadSRC28outputSamplesForInputSamplesEiRi,
                            __ZNK18ASDDSPStreamHelper23underlyingStreamFormatsEv,
                            __ZNK18ASDDSPStreamHelper9dspFormatEv,
                            __ZNK18ASDSRCStreamHelper23underlyingStreamFormatsEv,
                            __ZNK18ASDSRCStreamHelper9srcFormatEv,
                            __ZNK24CAStreamBasicDescription25GetRegularizedFormatFlagsEb,
                            __ZNK24CAStreamBasicDescription7IsEqualERK27AudioStreamBasicDescription,
                            __ZNK24CAStreamBasicDescription7IsEqualERK27AudioStreamBasicDescriptionb,
                            __ZNK24CAStreamBasicDescription8AsStringEPcmb,
                            __ZNK5CALog5Scope15ScopeLogEnabledEiy,
                            __ZNK8ASD_U128dvERKS_, __ZNK8ASD_U128mlERKS_,
                            __ZTV15AudioRingBuffer, __ZTV17ASDIntervalFilter,
                            __ZTV20ASDIntervalFilterFIR,
                            __ZTV20ASDIntervalFilterIIR,
                            __ZTVN8DSPGraph8GraphBoxE,
                            __ZeqRK14AudioTimeStampS1_,
                            __ZltRK14AudioTimeStampS1_, __ZmlRK8ASD_U128y,
                            __ZmlyRK8ASD_U128, _formatLikeOSLog,
                            _gAudioServerPlugInDriverInterface ]
    objc-classes:         [ ASDAUStripInfo, ASDAudioDevice,
                            ASDAudioDeviceDSPConfiguration,
                            ASDAudioDeviceDSPDatabase, ASDBooleanControl, ASDBox,
                            ASDClockDevice, ASDControl, ASDCustomProperty,
                            ASDDSPAudioDevice, ASDDSPConfiguration, ASDDSPDevice,
                            ASDDSPGraph, ASDDSPGraphBox, ASDDSPGraphInfo,
                            ASDDSPGraphInterpreter, ASDDSPGraphLoader,
                            ASDDSPGraphUtilities, ASDDSPItemInfo, ASDDSPStream,
                            ASDDevice, ASDLevelControl, ASDManagedRingBuffer,
                            ASDNullStream, ASDObject, ASDPlugin,
                            ASDPluginDSPDatabase, ASDProperty, ASDPropertyAddress,
                            ASDPropertyStripInfo, ASDRingBuffer,
                            ASDRingBufferInputStream, ASDRingBufferOutputStream,
                            ASDRingBufferStreamPair, ASDSRCAudioDevice,
                            ASDSRCStream, ASDSelectorControl, ASDSelectorValue,
                            ASDStereoPanControl, ASDStream,
                            ASDStreamDSPConfiguration, ASDStreamFormat ]
    objc-ivars:           [ ASDAUStripInfo._path, ASDAUStripInfo._value,
                            ASDAudioDevice._beginIOOperationBlock,
                            ASDAudioDevice._beginIOOperationBlockUnretained,
                            ASDAudioDevice._canBeDefaultDevice,
                            ASDAudioDevice._canBeDefaultInputDevice,
                            ASDAudioDevice._canBeDefaultOutputDevice,
                            ASDAudioDevice._canBeDefaultSystemDevice,
                            ASDAudioDevice._canChangeDeviceName,
                            ASDAudioDevice._clientDescription,
                            ASDAudioDevice._clockAlgorithm,
                            ASDAudioDevice._clockDomain,
                            ASDAudioDevice._clockIsStable,
                            ASDAudioDevice._configurationChangeDelegate,
                            ASDAudioDevice._controlQueue,
                            ASDAudioDevice._controls,
                            ASDAudioDevice._deviceDescription,
                            ASDAudioDevice._deviceName,
                            ASDAudioDevice._deviceUID,
                            ASDAudioDevice._endIOOperationBlock,
                            ASDAudioDevice._endIOOperationBlockUnretained,
                            ASDAudioDevice._getZeroTimestampBlock,
                            ASDAudioDevice._getZeroTimestampBlockUnretained,
                            ASDAudioDevice._hidden, ASDAudioDevice._inputLatency,
                            ASDAudioDevice._inputSafetyOffset,
                            ASDAudioDevice._inputStreamQueue,
                            ASDAudioDevice._inputStreams,
                            ASDAudioDevice._ioReferenceCount,
                            ASDAudioDevice._ioReferenceQueue,
                            ASDAudioDevice._isAlive, ASDAudioDevice._isRunning,
                            ASDAudioDevice._manufacturerName,
                            ASDAudioDevice._modelName, ASDAudioDevice._modelUID,
                            ASDAudioDevice._outputLatency,
                            ASDAudioDevice._outputSafetyOffset,
                            ASDAudioDevice._outputStreamQueue,
                            ASDAudioDevice._outputStreams,
                            ASDAudioDevice._sampleRateQueue,
                            ASDAudioDevice._samplingRate,
                            ASDAudioDevice._samplingRates,
                            ASDAudioDevice._timestampPeriod,
                            ASDAudioDevice._transportType,
                            ASDAudioDevice._wakeSemaphore,
                            ASDAudioDevice._willDoConvertInputBlock,
                            ASDAudioDevice._willDoConvertInputBlockUnretained,
                            ASDAudioDevice._willDoConvertMixBlock,
                            ASDAudioDevice._willDoConvertMixBlockUnretained,
                            ASDAudioDevice._willDoMixOutputBlock,
                            ASDAudioDevice._willDoMixOutputBlockUnretained,
                            ASDAudioDevice._willDoProcessInputBlock,
                            ASDAudioDevice._willDoProcessInputBlockUnretained,
                            ASDAudioDevice._willDoProcessMixBlock,
                            ASDAudioDevice._willDoProcessMixBlockUnretained,
                            ASDAudioDevice._willDoProcessOutputBlock,
                            ASDAudioDevice._willDoProcessOutputBlockUnretained,
                            ASDAudioDevice._willDoReadInputBlock,
                            ASDAudioDevice._willDoReadInputBlockUnretained,
                            ASDAudioDevice._willDoWriteMixBlock,
                            ASDAudioDevice._willDoWriteMixBlockUnretained,
                            ASDAudioDeviceDSPConfiguration._dspDeviceProperties,
                            ASDAudioDeviceDSPConfiguration._inputDSP,
                            ASDAudioDeviceDSPConfiguration._name,
                            ASDAudioDeviceDSPConfiguration._outputDSP,
                            ASDAudioDeviceDSPConfiguration._underlyingDeviceProperties,
                            ASDAudioDeviceDSPDatabase._deviceUID,
                            ASDAudioDeviceDSPDatabase._dspConfigurations,
                            ASDAudioDeviceDSPDatabase._referencedDSPDeviceProperties,
                            ASDAudioDeviceDSPDatabase._referencedUnderlyingDeviceProperties,
                            ASDBooleanControl._settable,
                            ASDBooleanControl._value,
                            ASDBooleanControl._valueQueue, ASDBox._acquirable,
                            ASDBox._acquireQueue, ASDBox._acquired,
                            ASDBox._acquisitionFailure, ASDBox._audioDevices,
                            ASDBox._boxName, ASDBox._boxUID,
                            ASDBox._canChangeBoxName, ASDBox._canSetIdentify,
                            ASDBox._clockDevices, ASDBox._deviceQueue,
                            ASDBox._firmwareVersion, ASDBox._hasAudio,
                            ASDBox._hasMIDI, ASDBox._hasVideo, ASDBox._identify,
                            ASDBox._manufacturerName, ASDBox._modelName,
                            ASDBox._modelUID, ASDBox._requiresAuthentication,
                            ASDBox._serialNumber, ASDBox._supportsIdentify,
                            ASDClockDevice._beginIOOperationBlock,
                            ASDClockDevice._beginIOOperationBlockUnretained,
                            ASDClockDevice._canChangeDeviceName,
                            ASDClockDevice._clockAlgorithm,
                            ASDClockDevice._clockDomain,
                            ASDClockDevice._clockIsStable,
                            ASDClockDevice._configurationChangeDelegate,
                            ASDClockDevice._controlQueue,
                            ASDClockDevice._controls, ASDClockDevice._deviceName,
                            ASDClockDevice._deviceUID,
                            ASDClockDevice._endIOOperationBlock,
                            ASDClockDevice._endIOOperationBlockUnretained,
                            ASDClockDevice._getZeroTimestampBlock,
                            ASDClockDevice._getZeroTimestampBlockUnretained,
                            ASDClockDevice._hidden, ASDClockDevice._inputLatency,
                            ASDClockDevice._ioReferenceCount,
                            ASDClockDevice._ioReferenceQueue,
                            ASDClockDevice._isAlive, ASDClockDevice._isRunning,
                            ASDClockDevice._manufacturerName,
                            ASDClockDevice._modelName, ASDClockDevice._modelUID,
                            ASDClockDevice._outputLatency,
                            ASDClockDevice._sampleRateQueue,
                            ASDClockDevice._samplingRate,
                            ASDClockDevice._samplingRates,
                            ASDClockDevice._timestampPeriod,
                            ASDClockDevice._transportType,
                            ASDClockDevice._wakeSemaphore,
                            ASDControl._controlElement, ASDControl._controlScope,
                            ASDControl._objectClassID,
                            ASDCustomProperty._address, ASDCustomProperty._owner,
                            ASDCustomProperty._propertyDataType,
                            ASDCustomProperty._qualifierDataType,
                            ASDCustomProperty._settable,
                            ASDDSPAudioDevice._currentDSPConfiguration,
                            ASDDSPAudioDevice._dspDatabase,
                            ASDDSPAudioDevice._resourcePath,
                            ASDDSPAudioDevice._underlyingDevice,
                            ASDDSPConfiguration._dspItems, ASDDSPGraph._graph,
                            ASDDSPGraphBox._box, ASDDSPGraphBox._graph,
                            ASDDSPGraphInfo._includePaths, ASDDSPGraphInfo._path,
                            ASDDSPGraphInfo._substitutions,
                            ASDDSPGraphInfo._text,
                            ASDDSPGraphInterpreter._interpreter,
                            ASDDSPStream._DSPCaptureDirectory,
                            ASDDSPStream._DSPCaptureType,
                            ASDDSPStream._bufferOfZeroes,
                            ASDDSPStream._bufferOfZeroesSizeBytes,
                            ASDDSPStream._bufferOfZeroesSizeSamples,
                            ASDDSPStream._clientToGraphMap,
                            ASDDSPStream._currentDSPConfiguration,
                            ASDDSPStream._defaults, ASDDSPStream._dspQueue,
                            ASDDSPStream._graphAudioValidationMode,
                            ASDDSPStream._graphHelpers,
                            ASDDSPStream._ioReferenceCount,
                            ASDDSPStream._isRunning,
                            ASDDSPStream._keepGraphInitialized,
                            ASDDSPStream._lastIoBufferFrameSizeSamples,
                            ASDDSPStream._lastIoBufferWriteTime,
                            ASDDSPStream._lastIoCycleInfo,
                            ASDDSPStream._maximumFramesPerIOCycle,
                            ASDDSPStream._owningDevice,
                            ASDDSPStream._processGraphOutputTailOnStop,
                            ASDDSPStream._propertyQueue,
                            ASDDSPStream._streamHelper,
                            ASDDSPStream._tailMuteAUGraphParamID,
                            ASDDSPStream._tailProcessingLengthInMs,
                            ASDDSPStream._underlyingStreams,
                            ASDDSPStream.mHUPSource,
                            ASDLevelControl._decibelValue,
                            ASDLevelControl._maximumDecibelValue,
                            ASDLevelControl._minimumDecibelValue,
                            ASDLevelControl._settable,
                            ASDLevelControl._valueQueue,
                            ASDManagedRingBuffer._queue,
                            ASDManagedRingBuffer._readerRunning,
                            ASDManagedRingBuffer._writerRunning,
                            ASDObject._customProperties,
                            ASDObject._customPropertyQueue, ASDObject._objectID,
                            ASDObject._owner, ASDObject._plugin,
                            ASDObject._propertyChangedDelegate,
                            ASDObject._stateDumpHandler,
                            ASDPlugin._audioDeviceQueue, ASDPlugin._audioDevices,
                            ASDPlugin._boxQueue, ASDPlugin._boxes,
                            ASDPlugin._bundleID, ASDPlugin._clockDeviceQueue,
                            ASDPlugin._clockDevices, ASDPlugin._driverRef,
                            ASDPlugin._interfacePtr, ASDPlugin._manufacturerName,
                            ASDPlugin._nextObjectID, ASDPlugin._objectQueue,
                            ASDPlugin._objects, ASDPlugin._pluginHost,
                            ASDPlugin._pluginRefCount,
                            ASDPlugin._powerConnection,
                            ASDPlugin._powerNotificationPort,
                            ASDPlugin._powerNotificationQueue,
                            ASDPlugin._powerNotifier, ASDPlugin._transportType,
                            ASDPluginDSPDatabase._deviceDatabases,
                            ASDProperty._address, ASDProperty._value,
                            ASDPropertyAddress._audioObjectPropertyAddress,
                            ASDPropertyStripInfo._path,
                            ASDPropertyStripInfo._value,
                            ASDRingBuffer._allocated,
                            ASDRingBuffer._frameCapacity,
                            ASDRingBuffer._readFormat, ASDRingBuffer._ringBuffer,
                            ASDRingBuffer._writeFormat,
                            ASDRingBufferInputStream._bufferList,
                            ASDRingBufferInputStream._ringBuffer,
                            ASDRingBufferOutputStream._bufferList,
                            ASDRingBufferOutputStream._ringBuffer,
                            ASDRingBufferStreamPair._inputStream,
                            ASDRingBufferStreamPair._outputStream,
                            ASDRingBufferStreamPair._ringBuffer,
                            ASDRingBufferStreamPair._ringBufferFrameCapacity,
                            ASDSRCAudioDevice._lastTimestamp,
                            ASDSRCAudioDevice._sampleRateQueue,
                            ASDSRCAudioDevice._samplingRate,
                            ASDSRCAudioDevice._samplingRates,
                            ASDSRCAudioDevice._underlyingDevice,
                            ASDSRCStream._ioReferenceCount,
                            ASDSRCStream._isRunning,
                            ASDSRCStream._maximumFramesPerIOCycle,
                            ASDSRCStream._owningDevice,
                            ASDSRCStream._propertyQueue, ASDSRCStream._srcQueue,
                            ASDSRCStream._streamHelper,
                            ASDSRCStream._underlyingStreams,
                            ASDSelectorControl._selectedValue,
                            ASDSelectorControl._settable,
                            ASDSelectorControl._valueQueue,
                            ASDSelectorControl._values, ASDSelectorValue._name,
                            ASDSelectorValue._value,
                            ASDStereoPanControl._leftPanChannel,
                            ASDStereoPanControl._rightPanChannel,
                            ASDStereoPanControl._settable,
                            ASDStereoPanControl._value,
                            ASDStereoPanControl._valueQueue,
                            ASDStream._controlQueue, ASDStream._controls,
                            ASDStream._convertInputBlock,
                            ASDStream._convertInputBlockUnretained,
                            ASDStream._convertMixBlock,
                            ASDStream._convertMixBlockUnretained,
                            ASDStream._direction, ASDStream._isActive,
                            ASDStream._isTapStream, ASDStream._latency,
                            ASDStream._mixOutputBlock,
                            ASDStream._mixOutputBlockUnretained,
                            ASDStream._physicalFormat,
                            ASDStream._physicalFormatQueue,
                            ASDStream._physicalFormatSettable,
                            ASDStream._physicalFormats,
                            ASDStream._processInputBlock,
                            ASDStream._processInputBlockUnretained,
                            ASDStream._processMixBlock,
                            ASDStream._processMixBlockUnretained,
                            ASDStream._processOutputBlock,
                            ASDStream._processOutputBlockUnretained,
                            ASDStream._readInputBlock,
                            ASDStream._readInputBlockUnretained,
                            ASDStream._startingChannel, ASDStream._streamName,
                            ASDStream._terminalType, ASDStream._writeMixBlock,
                            ASDStream._writeMixBlockUnretained,
                            ASDStreamDSPConfiguration._hardwareDSP,
                            ASDStreamFormat._bitsPerChannel,
                            ASDStreamFormat._bytesPerFrame,
                            ASDStreamFormat._bytesPerPacket,
                            ASDStreamFormat._channelsPerFrame,
                            ASDStreamFormat._formatFlags,
                            ASDStreamFormat._formatID,
                            ASDStreamFormat._framesPerPacket,
                            ASDStreamFormat._maximumSampleRate,
                            ASDStreamFormat._minimumSampleRate,
                            ASDStreamFormat._sampleRate ]
undefineds:
  - archs:                [ armv7, armv7s, arm64, arm64e ]
    symbols:              [ _AudioConverterConvertBuffer,
                            _AudioConverterConvertComplexBuffer,
                            _AudioConverterDispose, _AudioConverterNew,
                            _CFAbsoluteTimeGetCurrent,
                            _CFAbsoluteTimeGetGregorianDate, _CFBooleanGetTypeID,
                            _CFBooleanGetValue, _CFEqual, _CFGetTypeID, _CFLog,
                            _CFNumberGetTypeID, _CFNumberGetValue,
                            _CFPreferencesCopyAppValue,
                            _CFPreferencesSynchronize, _CFRelease, _CFRetain,
                            _CFSetAddValue, _CFSetApplyFunction,
                            _CFSetCreateMutable, _CFStringCreateWithCString,
                            _CFStringCreateWithFormat,
                            _CFStringCreateWithFormatAndArguments,
                            _CFStringGetBytes, _CFStringGetCString,
                            _CFStringGetLength, _CFStringGetTypeID,
                            _CFTimeZoneCopySystem, _CFUUIDCreateFromUUIDBytes,
                            _CFUUIDGetConstantUUIDWithBytes, _IOAllowPowerChange,
                            _IODeregisterForSystemPower,
                            _IONotificationPortDestroy,
                            _IONotificationPortSetDispatchQueue,
                            _IORegisterForSystemPower, _IOServiceClose,
                            _NSInvalidArgumentException,
                            _NSLocalizedDescriptionKey, _NSStringFromClass,
                            _NSStringFromSelector, __Block_object_assign,
                            __Block_object_dispose, __DefaultRuneLocale,
                            __NSConcreteGlobalBlock, __NSConcreteStackBlock,
                            __Unwind_Resume,
                            __ZN26AUProcessingBlock_DSPGraphC1ERNSt3__110shared_ptrIN8DSPGraph5GraphEEE,
                            __ZN8DSPGraph11Interpreter11compileFileEPKcRKNSt3__113unordered_mapINS3_12basic_stringIcNS3_11char_traitsIcEENS3_9allocatorIcEEEESA_NS3_4hashISA_EENS3_8equal_toISA_EENS8_INS3_4pairIKSA_SA_EEEEEERKNS3_6vectorISA_NS8_ISA_EEEE,
                            __ZN8DSPGraph11Interpreter11compileTextEPKcRKNSt3__113unordered_mapINS3_12basic_stringIcNS3_11char_traitsIcEENS3_9allocatorIcEEEESA_NS3_4hashISA_EENS3_8equal_toISA_EENS8_INS3_4pairIKSA_SA_EEEEEERKNS3_6vectorISA_NS8_ISA_EEEE,
                            __ZN8DSPGraph11InterpreterC1ERKNS_14NewBoxRegistryE,
                            __ZN8DSPGraph14NewBoxRegistryC1Ev,
                            __ZN8DSPGraph14ThrowExceptionEiRKNSt3__112basic_stringIcNS0_11char_traitsIcEENS0_9allocatorIcEEEEiS8_S8_,
                            __ZN8DSPGraph3Box10initializeEv,
                            __ZN8DSPGraph3Box11getAnalyzerEij,
                            __ZN8DSPGraph3Box11getPropertyEjjjRjPv,
                            __ZN8DSPGraph3Box11setPropertyEjjjjPKv,
                            __ZN8DSPGraph3Box11unconfigureEv,
                            __ZN8DSPGraph3Box12recordEnableEib,
                            __ZN8DSPGraph3Box12sortUpstreamERNSt3__16vectorIPS0_NS1_9allocatorIS3_EEEERNS2_IPNS_8IsoGroupENS4_IS9_EEEE,
                            __ZN8DSPGraph3Box12uninitializeEv,
                            __ZN8DSPGraph3Box13analyzeEnableEib,
                            __ZN8DSPGraph3Box13stopAnalyzingEi,
                            __ZN8DSPGraph3Box13stopInjectingEi,
                            __ZN8DSPGraph3Box13stopRecordingEi,
                            __ZN8DSPGraph3Box13writeDotEdgesERNSt3__113basic_ostreamIcNS1_11char_traitsIcEEEE,
                            __ZN8DSPGraph3Box15getAnalysisListEiPjRi,
                            __ZN8DSPGraph3Box15getElementCountEj,
                            __ZN8DSPGraph3Box15getPropertyInfoEjjjRjRb,
                            __ZN8DSPGraph3Box15setFormatOnUnitERK27AudioStreamBasicDescriptionjj,
                            __ZN8DSPGraph3Box15topologicalSortEPNS_8IsoGroupERNSt3__16vectorIPS0_NS3_9allocatorIS5_EEEERNS4_IS2_NS6_IS2_EEEE,
                            __ZN8DSPGraph3Box17getFormatFromUnitER27AudioStreamBasicDescriptionjj,
                            __ZN8DSPGraph3Box18initializeAnalysisEv,
                            __ZN8DSPGraph3Box18writeDotAttributesERNSt3__113basic_ostreamIcNS1_11char_traitsIcEEEE,
                            __ZN8DSPGraph3Box19isogroupTraceInputsERNSt3__113unordered_setIPS0_NS1_4hashIS3_EENS1_8equal_toIS3_EENS1_9allocatorIS3_EEEEPNS_8IsoGroupE,
                            __ZN8DSPGraph3Box19processPropertyTapsEv,
                            __ZN8DSPGraph3Box20isogroupTraceOutputsERNSt3__113unordered_setIPS0_NS1_4hashIS3_EENS1_8equal_toIS3_EENS1_9allocatorIS3_EEEEPNS_8IsoGroupE,
                            __ZN8DSPGraph3Box20processParameterTapsEv,
                            __ZN8DSPGraph3Box20uninitializeAnalysisEv,
                            __ZN8DSPGraph3Box21totalLatencyInSamplesEv,
                            __ZN8DSPGraph3Box22calculateLatencyDelaysEv,
                            __ZN8DSPGraph3Box22initializePropertyTapsEv,
                            __ZN8DSPGraph3Box22upstreamLatencyInTicksEv,
                            __ZN8DSPGraph3Box23insertLatencyDelayBoxesEv,
                            __ZN8DSPGraph3Box24uninitializePropertyTapsEv,
                            __ZN8DSPGraph3Box26propagateFlagsAndTimeStampEjRK14AudioTimeStamp,
                            __ZN8DSPGraph3Box6injectEPKcib,
                            __ZN8DSPGraph3Box6recordEPKcibb,
                            __ZN8DSPGraph3Box8isogroupERNSt3__113unordered_setIPS0_NS1_4hashIS3_EENS1_8equal_toIS3_EENS1_9allocatorIS3_EEEEPNS_8IsoGroupE,
                            __ZN8DSPGraph3Box9doProcessEi,
                            __ZN8DSPGraph3Box9getPresetERNSt3__113basic_ostreamIcNS1_11char_traitsIcEEEEb,
                            __ZN8DSPGraph3Box9getPresetERP14__CFDictionary,
                            __ZN8DSPGraph3Box9setPresetEPK14__CFDictionary,
                            __ZN8DSPGraph3Box9setPresetERNSt3__113basic_istreamIcNS1_11char_traitsIcEEEE,
                            __ZN8DSPGraph3BoxC2Eii, __ZN8DSPGraph3BoxD2Ev,
                            __ZN8DSPGraph5Graph10initializeEb,
                            __ZN8DSPGraph5Graph10setAUStripEPK14__CFDictionary,
                            __ZN8DSPGraph5Graph11unconfigureEv,
                            __ZN8DSPGraph5Graph12uninitializeEv,
                            __ZN8DSPGraph5Graph14processInPlaceERNS_11GraphIODataE,
                            __ZN8DSPGraph5Graph15processMultipleEPNS_11GraphIODataES2_,
                            __ZN8DSPGraph5Graph16setPropertyStripEPK14__CFDictionary,
                            __ZN8DSPGraph5Graph16setSliceDurationEiiNS0_11SlicePolicyE,
                            __ZN8DSPGraph5Graph3addEPNS_3BoxERKNSt3__112basic_stringIcNS3_11char_traitsIcEENS3_9allocatorIcEEEE,
                            __ZN8DSPGraph5Graph3boxERKNSt3__112basic_stringIcNS1_11char_traitsIcEENS1_9allocatorIcEEEE,
                            __ZN8DSPGraph5Graph5resetEv,
                            __ZN8DSPGraph5Graph7connectEPNS_3BoxES2_iiRKNS_18FormatAndBlockSizeEPNS_4JackES7_,
                            __ZN8DSPGraph5Graph8addInputERKNSt3__112basic_stringIcNS1_11char_traitsIcEENS1_9allocatorIcEEEE,
                            __ZN8DSPGraph5Graph9addOutputERKNSt3__112basic_stringIcNS1_11char_traitsIcEENS1_9allocatorIcEEEE,
                            __ZN8DSPGraph5Graph9configureEv,
                            __ZN8DSPGraph5Graph9preflightEPNS_11GraphIODataES2_iib,
                            __ZN8DSPGraph5GraphC1Ev,
                            __ZN8DSPGraph6Buffer12copyTimeFromEPS0_,
                            __ZN8DSPGraph6Buffer8copyFromEPS0_,
                            __ZN8DSPGraph9strprintfEPKcz,
                            __ZNK8DSPGraph3Box10printShortERNSt3__113basic_ostreamIcNS1_11char_traitsIcEEEEib,
                            __ZNK8DSPGraph3Box12decompileBoxERNSt3__113basic_ostreamIcNS1_11char_traitsIcEEEEj,
                            __ZNK8DSPGraph3Box14decompileWiresERNSt3__113basic_ostreamIcNS1_11char_traitsIcEEEEj,
                            __ZNK8DSPGraph3Box18decompileAnalyzersERNSt3__113basic_ostreamIcNS1_11char_traitsIcEEEEj,
                            __ZNK8DSPGraph3Box20decompileAntecedentsERNSt3__113basic_ostreamIcNS1_11char_traitsIcEEEEj,
                            __ZNK8DSPGraph3Box21decompilePropertyTapsERNSt3__113basic_ostreamIcNS1_11char_traitsIcEEEEj,
                            __ZNK8DSPGraph3Box22decompileParameterTapsERNSt3__113basic_ostreamIcNS1_11char_traitsIcEEEEj,
                            __ZNK8DSPGraph3Box5printERNSt3__113basic_ostreamIcNS1_11char_traitsIcEEEEii,
                            __ZNK8DSPGraph5Graph10numOutputsEv,
                            __ZNK8DSPGraph5Graph12hasParameterEj,
                            __ZNK8DSPGraph5Graph16getParameterListEv,
                            __ZNK8DSPGraph5Graph2inEi,
                            __ZNK8DSPGraph5Graph3outEi,
                            __ZNK8DSPGraph5Graph9numInputsEv,
                            __ZNKSt3__119__shared_weak_count13__get_deleterERKSt9type_info,
                            __ZNKSt3__120__vector_base_commonILb1EE20__throw_length_errorEv,
                            __ZNKSt3__120__vector_base_commonILb1EE20__throw_out_of_rangeEv,
                            __ZNKSt3__121__basic_string_commonILb1EE20__throw_length_errorEv,
                            __ZNKSt9exception4whatEv, __ZNSt11logic_errorC2EPKc,
                            __ZNSt12length_errorD1Ev,
                            __ZNSt13runtime_errorC1EPKc,
                            __ZNSt13runtime_errorD1Ev,
                            __ZNSt3__111__call_onceERVmPvPFvS2_E,
                            __ZNSt3__111this_thread9sleep_forERKNS_6chrono8durationIxNS_5ratioILl1ELl1000000000EEEEE,
                            __ZNSt3__112__next_primeEm,
                            __ZNSt3__112basic_stringIcNS_11char_traitsIcEENS_9allocatorIcEEE6assignEPKc,
                            __ZNSt3__119__shared_weak_count14__release_weakEv,
                            __ZNSt3__119__shared_weak_countD2Ev,
                            __ZNSt3__15mutex4lockEv, __ZNSt3__15mutex6unlockEv,
                            __ZNSt3__15mutex8try_lockEv, __ZNSt3__15mutexD1Ev,
                            __ZNSt9bad_allocC1Ev, __ZNSt9bad_allocD1Ev,
                            __ZNSt9exceptionD2Ev, __ZSt9terminatev, __ZTIi,
                            __ZTVN10__cxxabiv117__class_type_infoE,
                            __ZTVN10__cxxabiv120__si_class_type_infoE,
                            __ZTVN10__cxxabiv121__vmi_class_type_infoE,
                            __ZTVN8DSPGraph14NewBoxRegistryE,
                            __ZTVN8DSPGraph26SingleRateLPCMConverterBoxE,
                            __ZTVSt12length_error,
                            ___CFConstantStringClassReference, ___assert_rtn,
                            ___cxa_allocate_exception, ___cxa_atexit,
                            ___cxa_begin_catch, ___cxa_end_catch,
                            ___cxa_free_exception, ___cxa_guard_abort,
                            ___cxa_guard_acquire, ___cxa_guard_release,
                            ___cxa_pure_virtual, ___cxa_throw,
                            ___gxx_personality_v0, ___maskrune,
                            ___objc_personality_v0, ___stack_chk_fail,
                            ___stack_chk_guard, ___stderrp, ___strlcpy_chk,
                            ___tolower, __dispatch_source_type_signal,
                            __objc_empty_cache, __os_log_default,
                            __os_log_error_impl, __os_log_impl, _atan2, _bzero,
                            _calloc, _cos, _dispatch_activate, _dispatch_async,
                            _dispatch_get_global_queue, _dispatch_once,
                            _dispatch_queue_create, _dispatch_resume,
                            _dispatch_semaphore_create,
                            _dispatch_semaphore_signal, _dispatch_semaphore_wait,
                            _dispatch_source_cancel, _dispatch_source_create,
                            _dispatch_source_set_event_handler, _dispatch_sync,
                            _exp, _fclose, _fflush, _fopen, _fprintf, _free, _fwrite,
                            _getpid, _hypot, _kCFAllocatorSystemDefault,
                            _kCFPreferencesCurrentHost,
                            _kCFPreferencesCurrentUser, _kCFTypeSetCallBacks,
                            _kdebug_trace, _mach_absolute_time,
                            _mach_timebase_info, _malloc, _memchr, _memcmp, _memcpy,
                            _memmove, _objc_alloc, _objc_alloc_init,
                            _objc_autorelease, _objc_autoreleasePoolPop,
                            _objc_autoreleasePoolPush,
                            _objc_autoreleaseReturnValue, _objc_copyWeak,
                            _objc_destroyWeak, _objc_enumerationMutation,
                            _objc_exception_throw, _objc_getProperty,
                            _objc_initWeak, _objc_loadWeakRetained, _objc_msgSend,
                            _objc_msgSendSuper2, _objc_opt_class,
                            _objc_opt_isKindOfClass, _objc_release, _objc_retain,
                            _objc_retainAutorelease,
                            _objc_retainAutoreleaseReturnValue,
                            _objc_retainAutoreleasedReturnValue,
                            _objc_retainBlock, _objc_setProperty_nonatomic_copy,
                            _objc_storeStrong, _objc_storeWeak, _os_log_create,
                            _os_log_type_enabled, _os_state_add_handler,
                            _os_state_remove_handler, _printf, _pthread_getname_np,
                            _pthread_mutex_destroy, _pthread_mutex_init,
                            _pthread_mutex_lock, _pthread_mutex_unlock,
                            _pthread_rwlock_rdlock, _pthread_rwlock_unlock,
                            _pthread_rwlock_wrlock, _pthread_self, _putchar, _puts,
                            _snprintf, _sscanf, _strchr, _strlcat, _strlcpy, _strlen,
                            _strrchr, _strstr, _sysctl, _syslog, _usleep, _vprintf,
                            _vsnprintf, _vsyslog, dyld_stub_binder ]
    objc-classes:         [ NSArray, NSAssertionHandler, NSBundle, NSConstantArray,
                            NSConstantDictionary, NSConstantIntegerNumber, NSDate,
                            NSDateFormatter, NSDictionary, NSError, NSException,
                            NSFileManager, NSMapTable, NSMutableArray,
                            NSMutableDictionary, NSMutableSet, NSMutableString,
                            NSNumber, NSObject, NSPropertyListSerialization, NSSet,
                            NSString, NSUserDefaults ]
...
